LIBRARY FOUNDATION
EXPORTS
??0?$TdataHashTable@IPEAVTmetaclass@@@@QEAA@AEBV0@@Z
??0?$TdataHashTable@IPEAVTmetaclass@@@@QEAA@II@Z
??0?$TdataHashTable@PEAVTbdData@@PEAV1@@@QEAA@AEBV0@@Z
??0?$TdataHashTable@PEAVTbdData@@PEAV1@@@QEAA@II@Z
??0?$TdataHashTable@PEAXVTstring@@@@QEAA@AEBV0@@Z
??0?$TdataHashTable@PEAXVTstring@@@@QEAA@II@Z
??0?$TdataHashTable@VTstring@@H@@QEAA@AEBV0@@Z
??0?$TdataHashTable@VTstring@@H@@QEAA@II@Z
??0?$TdataHashTable@VTstring@@PEAVTmetaclass@@@@QEAA@AEBV0@@Z
??0?$TdataHashTable@VTstring@@PEAVTmetaclass@@@@QEAA@II@Z
??0?$TdataHashTable@VTstring@@V1@@@QEAA@AEBV0@@Z
??0?$TdataHashTable@VTstring@@V1@@@QEAA@II@Z
??0?$Toctree@I@@QEAA@AEBV0@@Z
??0?$Toctree@I@@QEAA@IIMNII@Z
??0?$Toctree@VToctreePoint@@@@QEAA@AEBV0@@Z
??0?$Toctree@VToctreePoint@@@@QEAA@IIMNII@Z
??0?$TotNode@I@@QEAA@AEBV0@@Z
??0?$TotNode@I@@QEAA@PEBV?$Toctree@I@@PEAV0@HAEBVT3dFltPoint@@2@Z
??0?$TotNode@I@@QEAA@XZ
??0?$TotNode@VToctreePoint@@@@QEAA@AEBV0@@Z
??0?$TotNode@VToctreePoint@@@@QEAA@PEBV?$Toctree@VToctreePoint@@@@PEAV0@HAEBVT3dFltPoint@@2@Z
??0?$TotNode@VToctreePoint@@@@QEAA@XZ
??0?$TotRayWalker@IVToctreeTriangleIntersection@@@@QEAA@AEBV0@@Z
??0?$TotRayWalker@IVToctreeTriangleIntersection@@@@QEAA@XZ
??0?$TotSphereWalker@I@@QEAA@AEBV0@@Z
??0?$TotSphereWalker@I@@QEAA@PEBV?$TotNode@I@@@Z
??0?$TotSphereWalker@VToctreePoint@@@@QEAA@AEBV0@@Z
??0?$TotSphereWalker@VToctreePoint@@@@QEAA@PEBV?$TotNode@VToctreePoint@@@@@Z
??0?$TotSphereWalker@VToctreePoint@@@@QEAA@PEBV?$TotNode@VToctreePoint@@@@AEBVT3dFltPoint@@N@Z
??0?$TstateGuard@_N$1?setMatchingEditAttrs@TglobalTranslatorBase@@CAX_N@Z@@QEAA@AEB_N0@Z
??0?$_Tree@V?$_Tmap_traits@V?$basic_string@DU?$char_traits@D@std@@V?$allocator@D@2@@std@@PEAVTresourceElement@@U?$less@V?$basic_string@DU?$char_traits@D@std@@V?$allocator@D@2@@std@@@2@V?$allocator@U?$pair@$$CBV?$basic_string@DU?$char_traits@D@std@@V?$allocator@D@2@@std@@PEAVTresourceElement@@@std@@@2@$0A@@std@@@std@@QEAA@$$QEAV01@AEBV?$allocator@U?$pair@$$CBV?$basic_string@DU?$char_traits@D@std@@V?$allocator@D@2@@std@@PEAVTresourceElement@@@std@@@1@@Z
??0?$_Tree@V?$_Tmap_traits@V?$basic_string@DU?$char_traits@D@std@@V?$allocator@D@2@@std@@PEAVTresourceElement@@U?$less@V?$basic_string@DU?$char_traits@D@std@@V?$allocator@D@2@@std@@@2@V?$allocator@U?$pair@$$CBV?$basic_string@DU?$char_traits@D@std@@V?$allocator@D@2@@std@@PEAVTresourceElement@@@std@@@2@$0A@@std@@@std@@QEAA@AEBU?$less@V?$basic_string@DU?$char_traits@D@std@@V?$allocator@D@2@@std@@@1@AEBV?$allocator@U?$pair@$$CBV?$basic_string@DU?$char_traits@D@std@@V?$allocator@D@2@@std@@PEAVTresourceElement@@@std@@@1@@Z
??0?$_Tree@V?$_Tmap_traits@V?$basic_string@DU?$char_traits@D@std@@V?$allocator@D@2@@std@@PEAVTresourceElement@@U?$less@V?$basic_string@DU?$char_traits@D@std@@V?$allocator@D@2@@std@@@2@V?$allocator@U?$pair@$$CBV?$basic_string@DU?$char_traits@D@std@@V?$allocator@D@2@@std@@PEAVTresourceElement@@@std@@@2@$0A@@std@@@std@@QEAA@AEBV01@AEBV?$allocator@U?$pair@$$CBV?$basic_string@DU?$char_traits@D@std@@V?$allocator@D@2@@std@@PEAVTresourceElement@@@std@@@1@@Z
??0?$_Tree@V?$_Tmap_traits@V?$basic_string@DU?$char_traits@D@std@@V?$allocator@D@2@@std@@PEAVTresourceElement@@U?$less@V?$basic_string@DU?$char_traits@D@std@@V?$allocator@D@2@@std@@@2@V?$allocator@U?$pair@$$CBV?$basic_string@DU?$char_traits@D@std@@V?$allocator@D@2@@std@@PEAVTresourceElement@@@std@@@2@$0A@@std@@@std@@QEAA@PEBU?$pair@$$CBV?$basic_string@DU?$char_traits@D@std@@V?$allocator@D@2@@std@@PEAVTresourceElement@@@1@0AEBU?$less@V?$basic_string@DU?$char_traits@D@std@@V?$allocator@D@2@@std@@@1@AEBV?$allocator@U?$pair@$$CBV?$basic_string@DU?$char_traits@D@std@@V?$allocator@D@2@@std@@PEAVTresourceElement@@@std@@@1@@Z
??0?$_Tree@V?$_Tmap_traits@V?$basic_string@DU?$char_traits@D@std@@V?$allocator@D@2@@std@@PEAVTresourceGroup@@U?$less@V?$basic_string@DU?$char_traits@D@std@@V?$allocator@D@2@@std@@@2@V?$allocator@U?$pair@$$CBV?$basic_string@DU?$char_traits@D@std@@V?$allocator@D@2@@std@@PEAVTresourceGroup@@@std@@@2@$0A@@std@@@std@@QEAA@$$QEAV01@AEBV?$allocator@U?$pair@$$CBV?$basic_string@DU?$char_traits@D@std@@V?$allocator@D@2@@std@@PEAVTresourceGroup@@@std@@@1@@Z
??0?$_Tree@V?$_Tmap_traits@V?$basic_string@DU?$char_traits@D@std@@V?$allocator@D@2@@std@@PEAVTresourceGroup@@U?$less@V?$basic_string@DU?$char_traits@D@std@@V?$allocator@D@2@@std@@@2@V?$allocator@U?$pair@$$CBV?$basic_string@DU?$char_traits@D@std@@V?$allocator@D@2@@std@@PEAVTresourceGroup@@@std@@@2@$0A@@std@@@std@@QEAA@AEBU?$less@V?$basic_string@DU?$char_traits@D@std@@V?$allocator@D@2@@std@@@1@AEBV?$allocator@U?$pair@$$CBV?$basic_string@DU?$char_traits@D@std@@V?$allocator@D@2@@std@@PEAVTresourceGroup@@@std@@@1@@Z
??0?$_Tree@V?$_Tmap_traits@V?$basic_string@DU?$char_traits@D@std@@V?$allocator@D@2@@std@@PEAVTresourceGroup@@U?$less@V?$basic_string@DU?$char_traits@D@std@@V?$allocator@D@2@@std@@@2@V?$allocator@U?$pair@$$CBV?$basic_string@DU?$char_traits@D@std@@V?$allocator@D@2@@std@@PEAVTresourceGroup@@@std@@@2@$0A@@std@@@std@@QEAA@AEBV01@AEBV?$allocator@U?$pair@$$CBV?$basic_string@DU?$char_traits@D@std@@V?$allocator@D@2@@std@@PEAVTresourceGroup@@@std@@@1@@Z
??0?$_Tree@V?$_Tmap_traits@V?$basic_string@DU?$char_traits@D@std@@V?$allocator@D@2@@std@@PEAVTresourceGroup@@U?$less@V?$basic_string@DU?$char_traits@D@std@@V?$allocator@D@2@@std@@@2@V?$allocator@U?$pair@$$CBV?$basic_string@DU?$char_traits@D@std@@V?$allocator@D@2@@std@@PEAVTresourceGroup@@@std@@@2@$0A@@std@@@std@@QEAA@PEBU?$pair@$$CBV?$basic_string@DU?$char_traits@D@std@@V?$allocator@D@2@@std@@PEAVTresourceGroup@@@1@0AEBU?$less@V?$basic_string@DU?$char_traits@D@std@@V?$allocator@D@2@@std@@@1@AEBV?$allocator@U?$pair@$$CBV?$basic_string@DU?$char_traits@D@std@@V?$allocator@D@2@@std@@PEAVTresourceGroup@@@std@@@1@@Z
??0?$_Tree_alloc@$0A@U?$_Tree_base_types@U?$pair@$$CBV?$basic_string@DU?$char_traits@D@std@@V?$allocator@D@2@@std@@PEAVTresourceElement@@@std@@V?$allocator@U?$pair@$$CBV?$basic_string@DU?$char_traits@D@std@@V?$allocator@D@2@@std@@PEAVTresourceElement@@@std@@@2@@std@@@std@@QEAA@AEBV?$allocator@U?$pair@$$CBV?$basic_string@DU?$char_traits@D@std@@V?$allocator@D@2@@std@@PEAVTresourceElement@@@std@@@1@@Z
??0?$_Tree_alloc@$0A@U?$_Tree_base_types@U?$pair@$$CBV?$basic_string@DU?$char_traits@D@std@@V?$allocator@D@2@@std@@PEAVTresourceGroup@@@std@@V?$allocator@U?$pair@$$CBV?$basic_string@DU?$char_traits@D@std@@V?$allocator@D@2@@std@@PEAVTresourceGroup@@@std@@@2@@std@@@std@@QEAA@AEBV?$allocator@U?$pair@$$CBV?$basic_string@DU?$char_traits@D@std@@V?$allocator@D@2@@std@@PEAVTresourceGroup@@@std@@@1@@Z
??0?$_Tree_buy@U?$pair@$$CBV?$basic_string@DU?$char_traits@D@std@@V?$allocator@D@2@@std@@PEAVTresourceElement@@@std@@V?$allocator@U?$pair@$$CBV?$basic_string@DU?$char_traits@D@std@@V?$allocator@D@2@@std@@PEAVTresourceElement@@@std@@@2@@std@@QEAA@AEBV?$allocator@U?$pair@$$CBV?$basic_string@DU?$char_traits@D@std@@V?$allocator@D@2@@std@@PEAVTresourceElement@@@std@@@1@@Z
??0?$_Tree_buy@U?$pair@$$CBV?$basic_string@DU?$char_traits@D@std@@V?$allocator@D@2@@std@@PEAVTresourceGroup@@@std@@V?$allocator@U?$pair@$$CBV?$basic_string@DU?$char_traits@D@std@@V?$allocator@D@2@@std@@PEAVTresourceGroup@@@std@@@2@@std@@QEAA@AEBV?$allocator@U?$pair@$$CBV?$basic_string@DU?$char_traits@D@std@@V?$allocator@D@2@@std@@PEAVTresourceGroup@@@std@@@1@@Z
??0?$_Tree_comp@$0A@V?$_Tmap_traits@V?$basic_string@DU?$char_traits@D@std@@V?$allocator@D@2@@std@@PEAVTresourceElement@@U?$less@V?$basic_string@DU?$char_traits@D@std@@V?$allocator@D@2@@std@@@2@V?$allocator@U?$pair@$$CBV?$basic_string@DU?$char_traits@D@std@@V?$allocator@D@2@@std@@PEAVTresourceElement@@@std@@@2@$0A@@std@@@std@@QEAA@AEBU?$less@V?$basic_string@DU?$char_traits@D@std@@V?$allocator@D@2@@std@@@1@AEBV?$allocator@U?$pair@$$CBV?$basic_string@DU?$char_traits@D@std@@V?$allocator@D@2@@std@@PEAVTresourceElement@@@std@@@1@@Z
??0?$_Tree_comp@$0A@V?$_Tmap_traits@V?$basic_string@DU?$char_traits@D@std@@V?$allocator@D@2@@std@@PEAVTresourceGroup@@U?$less@V?$basic_string@DU?$char_traits@D@std@@V?$allocator@D@2@@std@@@2@V?$allocator@U?$pair@$$CBV?$basic_string@DU?$char_traits@D@std@@V?$allocator@D@2@@std@@PEAVTresourceGroup@@@std@@@2@$0A@@std@@@std@@QEAA@AEBU?$less@V?$basic_string@DU?$char_traits@D@std@@V?$allocator@D@2@@std@@@1@AEBV?$allocator@U?$pair@$$CBV?$basic_string@DU?$char_traits@D@std@@V?$allocator@D@2@@std@@PEAVTresourceGroup@@@std@@@1@@Z
??0?$_Tree_val@U?$_Tree_simple_types@U?$pair@$$CBV?$basic_string@DU?$char_traits@D@std@@V?$allocator@D@2@@std@@PEAVTresourceElement@@@std@@@std@@@std@@QEAA@XZ
??0?$_Tree_val@U?$_Tree_simple_types@U?$pair@$$CBV?$basic_string@DU?$char_traits@D@std@@V?$allocator@D@2@@std@@PEAVTresourceGroup@@@std@@@std@@@std@@QEAA@XZ
??0?$basic_fstream@DU?$char_traits@D@std@@@std@@QEAA@$$QEAV01@@Z
??0?$basic_fstream@DU?$char_traits@D@std@@@std@@QEAA@AEBV?$basic_string@DU?$char_traits@D@std@@V?$allocator@D@2@@1@HH@Z
??0?$basic_fstream@DU?$char_traits@D@std@@@std@@QEAA@AEBV?$basic_string@_WU?$char_traits@_W@std@@V?$allocator@_W@2@@1@HH@Z
??0?$basic_fstream@DU?$char_traits@D@std@@@std@@QEAA@PEAU_iobuf@@@Z
??0?$basic_fstream@DU?$char_traits@D@std@@@std@@QEAA@PEBDHH@Z
??0?$basic_fstream@DU?$char_traits@D@std@@@std@@QEAA@PEBGHH@Z
??0?$basic_fstream@DU?$char_traits@D@std@@@std@@QEAA@PEB_WHH@Z
??0?$basic_fstream@DU?$char_traits@D@std@@@std@@QEAA@XZ
??0?$map@V?$basic_string@DU?$char_traits@D@std@@V?$allocator@D@2@@std@@PEAVTresourceElement@@U?$less@V?$basic_string@DU?$char_traits@D@std@@V?$allocator@D@2@@std@@@2@V?$allocator@U?$pair@$$CBV?$basic_string@DU?$char_traits@D@std@@V?$allocator@D@2@@std@@PEAVTresourceElement@@@std@@@2@@std@@QEAA@$$QEAV01@@Z
??0?$map@V?$basic_string@DU?$char_traits@D@std@@V?$allocator@D@2@@std@@PEAVTresourceElement@@U?$less@V?$basic_string@DU?$char_traits@D@std@@V?$allocator@D@2@@std@@@2@V?$allocator@U?$pair@$$CBV?$basic_string@DU?$char_traits@D@std@@V?$allocator@D@2@@std@@PEAVTresourceElement@@@std@@@2@@std@@QEAA@$$QEAV01@AEBV?$allocator@U?$pair@$$CBV?$basic_string@DU?$char_traits@D@std@@V?$allocator@D@2@@std@@PEAVTresourceElement@@@std@@@1@@Z
??0?$map@V?$basic_string@DU?$char_traits@D@std@@V?$allocator@D@2@@std@@PEAVTresourceElement@@U?$less@V?$basic_string@DU?$char_traits@D@std@@V?$allocator@D@2@@std@@@2@V?$allocator@U?$pair@$$CBV?$basic_string@DU?$char_traits@D@std@@V?$allocator@D@2@@std@@PEAVTresourceElement@@@std@@@2@@std@@QEAA@AEBU?$less@V?$basic_string@DU?$char_traits@D@std@@V?$allocator@D@2@@std@@@1@@Z
??0?$map@V?$basic_string@DU?$char_traits@D@std@@V?$allocator@D@2@@std@@PEAVTresourceElement@@U?$less@V?$basic_string@DU?$char_traits@D@std@@V?$allocator@D@2@@std@@@2@V?$allocator@U?$pair@$$CBV?$basic_string@DU?$char_traits@D@std@@V?$allocator@D@2@@std@@PEAVTresourceElement@@@std@@@2@@std@@QEAA@AEBU?$less@V?$basic_string@DU?$char_traits@D@std@@V?$allocator@D@2@@std@@@1@AEBV?$allocator@U?$pair@$$CBV?$basic_string@DU?$char_traits@D@std@@V?$allocator@D@2@@std@@PEAVTresourceElement@@@std@@@1@@Z
??0?$map@V?$basic_string@DU?$char_traits@D@std@@V?$allocator@D@2@@std@@PEAVTresourceElement@@U?$less@V?$basic_string@DU?$char_traits@D@std@@V?$allocator@D@2@@std@@@2@V?$allocator@U?$pair@$$CBV?$basic_string@DU?$char_traits@D@std@@V?$allocator@D@2@@std@@PEAVTresourceElement@@@std@@@2@@std@@QEAA@AEBV01@@Z
??0?$map@V?$basic_string@DU?$char_traits@D@std@@V?$allocator@D@2@@std@@PEAVTresourceElement@@U?$less@V?$basic_string@DU?$char_traits@D@std@@V?$allocator@D@2@@std@@@2@V?$allocator@U?$pair@$$CBV?$basic_string@DU?$char_traits@D@std@@V?$allocator@D@2@@std@@PEAVTresourceElement@@@std@@@2@@std@@QEAA@AEBV01@AEBV?$allocator@U?$pair@$$CBV?$basic_string@DU?$char_traits@D@std@@V?$allocator@D@2@@std@@PEAVTresourceElement@@@std@@@1@@Z
??0?$map@V?$basic_string@DU?$char_traits@D@std@@V?$allocator@D@2@@std@@PEAVTresourceElement@@U?$less@V?$basic_string@DU?$char_traits@D@std@@V?$allocator@D@2@@std@@@2@V?$allocator@U?$pair@$$CBV?$basic_string@DU?$char_traits@D@std@@V?$allocator@D@2@@std@@PEAVTresourceElement@@@std@@@2@@std@@QEAA@AEBV?$allocator@U?$pair@$$CBV?$basic_string@DU?$char_traits@D@std@@V?$allocator@D@2@@std@@PEAVTresourceElement@@@std@@@1@@Z
??0?$map@V?$basic_string@DU?$char_traits@D@std@@V?$allocator@D@2@@std@@PEAVTresourceElement@@U?$less@V?$basic_string@DU?$char_traits@D@std@@V?$allocator@D@2@@std@@@2@V?$allocator@U?$pair@$$CBV?$basic_string@DU?$char_traits@D@std@@V?$allocator@D@2@@std@@PEAVTresourceElement@@@std@@@2@@std@@QEAA@XZ
??0?$map@V?$basic_string@DU?$char_traits@D@std@@V?$allocator@D@2@@std@@PEAVTresourceGroup@@U?$less@V?$basic_string@DU?$char_traits@D@std@@V?$allocator@D@2@@std@@@2@V?$allocator@U?$pair@$$CBV?$basic_string@DU?$char_traits@D@std@@V?$allocator@D@2@@std@@PEAVTresourceGroup@@@std@@@2@@std@@QEAA@$$QEAV01@@Z
??0?$map@V?$basic_string@DU?$char_traits@D@std@@V?$allocator@D@2@@std@@PEAVTresourceGroup@@U?$less@V?$basic_string@DU?$char_traits@D@std@@V?$allocator@D@2@@std@@@2@V?$allocator@U?$pair@$$CBV?$basic_string@DU?$char_traits@D@std@@V?$allocator@D@2@@std@@PEAVTresourceGroup@@@std@@@2@@std@@QEAA@$$QEAV01@AEBV?$allocator@U?$pair@$$CBV?$basic_string@DU?$char_traits@D@std@@V?$allocator@D@2@@std@@PEAVTresourceGroup@@@std@@@1@@Z
??0?$map@V?$basic_string@DU?$char_traits@D@std@@V?$allocator@D@2@@std@@PEAVTresourceGroup@@U?$less@V?$basic_string@DU?$char_traits@D@std@@V?$allocator@D@2@@std@@@2@V?$allocator@U?$pair@$$CBV?$basic_string@DU?$char_traits@D@std@@V?$allocator@D@2@@std@@PEAVTresourceGroup@@@std@@@2@@std@@QEAA@AEBU?$less@V?$basic_string@DU?$char_traits@D@std@@V?$allocator@D@2@@std@@@1@@Z
??0?$map@V?$basic_string@DU?$char_traits@D@std@@V?$allocator@D@2@@std@@PEAVTresourceGroup@@U?$less@V?$basic_string@DU?$char_traits@D@std@@V?$allocator@D@2@@std@@@2@V?$allocator@U?$pair@$$CBV?$basic_string@DU?$char_traits@D@std@@V?$allocator@D@2@@std@@PEAVTresourceGroup@@@std@@@2@@std@@QEAA@AEBU?$less@V?$basic_string@DU?$char_traits@D@std@@V?$allocator@D@2@@std@@@1@AEBV?$allocator@U?$pair@$$CBV?$basic_string@DU?$char_traits@D@std@@V?$allocator@D@2@@std@@PEAVTresourceGroup@@@std@@@1@@Z
??0?$map@V?$basic_string@DU?$char_traits@D@std@@V?$allocator@D@2@@std@@PEAVTresourceGroup@@U?$less@V?$basic_string@DU?$char_traits@D@std@@V?$allocator@D@2@@std@@@2@V?$allocator@U?$pair@$$CBV?$basic_string@DU?$char_traits@D@std@@V?$allocator@D@2@@std@@PEAVTresourceGroup@@@std@@@2@@std@@QEAA@AEBV01@@Z
??0?$map@V?$basic_string@DU?$char_traits@D@std@@V?$allocator@D@2@@std@@PEAVTresourceGroup@@U?$less@V?$basic_string@DU?$char_traits@D@std@@V?$allocator@D@2@@std@@@2@V?$allocator@U?$pair@$$CBV?$basic_string@DU?$char_traits@D@std@@V?$allocator@D@2@@std@@PEAVTresourceGroup@@@std@@@2@@std@@QEAA@AEBV01@AEBV?$allocator@U?$pair@$$CBV?$basic_string@DU?$char_traits@D@std@@V?$allocator@D@2@@std@@PEAVTresourceGroup@@@std@@@1@@Z
??0?$map@V?$basic_string@DU?$char_traits@D@std@@V?$allocator@D@2@@std@@PEAVTresourceGroup@@U?$less@V?$basic_string@DU?$char_traits@D@std@@V?$allocator@D@2@@std@@@2@V?$allocator@U?$pair@$$CBV?$basic_string@DU?$char_traits@D@std@@V?$allocator@D@2@@std@@PEAVTresourceGroup@@@std@@@2@@std@@QEAA@AEBV?$allocator@U?$pair@$$CBV?$basic_string@DU?$char_traits@D@std@@V?$allocator@D@2@@std@@PEAVTresourceGroup@@@std@@@1@@Z
??0?$map@V?$basic_string@DU?$char_traits@D@std@@V?$allocator@D@2@@std@@PEAVTresourceGroup@@U?$less@V?$basic_string@DU?$char_traits@D@std@@V?$allocator@D@2@@std@@@2@V?$allocator@U?$pair@$$CBV?$basic_string@DU?$char_traits@D@std@@V?$allocator@D@2@@std@@PEAVTresourceGroup@@@std@@@2@@std@@QEAA@XZ
??0Iterator@TkeyWordHashTable@@QEAA@AEAV1@@Z
??0Iterator@TkeyWordHashTable@@QEAA@AEBV01@@Z
??0Iterator@TptrHashTable@@QEAA@AEAV1@@Z
??0Iterator@TptrHashTable@@QEAA@AEBV01@@Z
??0Iterator@TstringKeyHashTable@@QEAA@AEAV1@@Z
??0Iterator@TstringKeyHashTable@@QEAA@AEBV01@@Z
??0MFn@@QEAA@XZ
??0MObjBase@@AEAA@XZ
??0MObject@@QEAA@AEBV0@@Z
??0MObject@@QEAA@XZ
??0MPtrBase@@IEAA@XZ
??0MPtrBase@@QEAA@AEBV0@@Z
??0MPxEditData@@QEAA@AEBV0@@Z
??0MPxEditData@@QEAA@XZ
??0NameIterator@Tnamespace@@QEAA@AEAV1@AEAVTnameString@@@Z
??0T2FloatArray@@QEAA@I@Z
??0T2dFfd@@QEAA@AEBV0@@Z
??0T2dFfd@@QEAA@XZ
??0T2dFltPoint@@QEAA@AEBV0@@Z
??0T2dFltPoint@@QEAA@AEBVT2dFltVector@@@Z
??0T2dFltPoint@@QEAA@MM@Z
??0T2dFltPoint@@QEAA@XZ
??0T2dFltVector@@QEAA@AEBV0@@Z
??0T2dFltVector@@QEAA@AEBVT2dFltPoint@@@Z
??0T2dFltVector@@QEAA@MM@Z
??0T2dFltVector@@QEAA@XZ
??0T2dIntSequence@@QEAA@HHHH@Z
??0T2dIntSequence@@QEAA@XZ
??0T3DoubleArray@@QEAA@I@Z
??0T3FloatArray@@QEAA@I@Z
??0T3dDblPoint@@QEAA@AEBV0@@Z
??0T3dDblPoint@@QEAA@AEBVT4dDblVector@@@Z
??0T3dDblPoint@@QEAA@AEBVTtuple@@@Z
??0T3dDblPoint@@QEAA@NNN@Z
??0T3dDblPoint@@QEAA@XZ
??0T3dDblPointArray@@QEAA@I@Z
??0T3dDblPointArrayPtrArray@@QEAA@I@Z
??0T3dFltPoint@@QEAA@AEBV0@@Z
??0T3dFltPoint@@QEAA@AEBVT3Float@@@Z
??0T3dFltPoint@@QEAA@AEBVT3dDblPoint@@@Z
??0T3dFltPoint@@QEAA@AEBVT3dFltVector@@@Z
??0T3dFltPoint@@QEAA@AEBVT4dDblPoint@@@Z
??0T3dFltPoint@@QEAA@AEBVT4dDblVector@@@Z
??0T3dFltPoint@@QEAA@AEBVT4dFltPoint@@@Z
??0T3dFltPoint@@QEAA@AEBVTfltTuple@@@Z
??0T3dFltPoint@@QEAA@MMM@Z
??0T3dFltPoint@@QEAA@XZ
??0T3dFltPointArray@@QEAA@I@Z
??0T3dFltVector@@QEAA@AEBV0@@Z
??0T3dFltVector@@QEAA@AEBVT3dDblPoint@@@Z
??0T3dFltVector@@QEAA@AEBVT3dFltPoint@@@Z
??0T3dFltVector@@QEAA@AEBVT4dDblPoint@@@Z
??0T3dFltVector@@QEAA@AEBVT4dDblVector@@@Z
??0T3dFltVector@@QEAA@AEBVT4dFltPoint@@@Z
??0T3dFltVector@@QEAA@AEBVTfltTuple@@@Z
??0T3dFltVector@@QEAA@MMM@Z
??0T3dFltVector@@QEAA@XZ
??0T3dFltVectorArray@@QEAA@I@Z
??0T3dIntSequence@@QEAA@HHHHHH@Z
??0T3dIntSequence@@QEAA@XZ
??0T3floatVoxelGrid@@QEAA@AEBV0@@Z
??0T3floatVoxelGrid@@QEAA@XZ
??0T4dDblMatrix@@QEAA@AEBV0@0@Z
??0T4dDblMatrix@@QEAA@AEBV0@@Z
??0T4dDblMatrix@@QEAA@AEBVTquaternion@@AEBVT4dDblVector@@@Z
??0T4dDblMatrix@@QEAA@VTnoInit@0@@Z
??0T4dDblMatrix@@QEAA@XZ
??0T4dDblMatrixArray@@QEAA@I@Z
??0T4dDblPoint@@QEAA@AEBV0@@Z
??0T4dDblPoint@@QEAA@AEBVT3dDblPoint@@@Z
??0T4dDblPoint@@QEAA@AEBVT4dDblVector@@N@Z
??0T4dDblPoint@@QEAA@AEBVTtuple@@@Z
??0T4dDblPoint@@QEAA@NNNN@Z
??0T4dDblPoint@@QEAA@VTnoInit@0@@Z
??0T4dDblPoint@@QEAA@XZ
??0T4dDblPointArray@@QEAA@I@Z
??0T4dDblPointArrayPtrArray@@QEAA@I@Z
??0T4dDblVector@@QEAA@AEBV0@@Z
??0T4dDblVector@@QEAA@AEBVT3Double@@@Z
??0T4dDblVector@@QEAA@AEBVT3dDblPoint@@@Z
??0T4dDblVector@@QEAA@AEBVT4dDblPoint@@@Z
??0T4dDblVector@@QEAA@AEBVTtuple@@@Z
??0T4dDblVector@@QEAA@NNN@Z
??0T4dDblVector@@QEAA@VTnoInit@0@@Z
??0T4dDblVector@@QEAA@XZ
??0T4dDblVectorArray@@QEAA@I@Z
??0T4dDblVectorArrayPtrArray@@QEAA@I@Z
??0T4dFltMatrix@@QEAA@AEBV0@0@Z
??0T4dFltMatrix@@QEAA@AEBV0@@Z
??0T4dFltMatrix@@QEAA@AEBVT4dDblMatrix@@@Z
??0T4dFltMatrix@@QEAA@XZ
??0T4dFltMatrixArray@@QEAA@I@Z
??0T4dFltPoint@@QEAA@AEBV0@@Z
??0T4dFltPoint@@QEAA@AEBVT3dDblPoint@@@Z
??0T4dFltPoint@@QEAA@AEBVT3dFltPoint@@@Z
??0T4dFltPoint@@QEAA@AEBVT3dFltVector@@M@Z
??0T4dFltPoint@@QEAA@AEBVT4dDblPoint@@@Z
??0T4dFltPoint@@QEAA@AEBVTfltTuple@@@Z
??0T4dFltPoint@@QEAA@MMMM@Z
??0T4dFltPoint@@QEAA@XZ
??0T4dFltPointArray@@QEAA@I@Z
??0TCERMetricsRecorder@@QEAA@XZ
??0TCIPClient@@AEAA@AEBV0@@Z
??0TCIPClient@@AEAA@XZ
??0TCIPState@@QEAA@AEBVTstring@@@Z
??0TCIPWaypoint@@QEAA@AEBVTstring@@@Z
??0TDarray@@QEAA@I@Z
??0TMayaEnvironment@@QEAA@XZ
??0TMayaRegNT@@QEAA@XZ
??0TTuInt32Array@@QEAA@I@Z
??0TadlmLicenseManager@@QEAA@XZ
??0Talloca@@QEAA@XZ
??0Tallocator@@QEAA@AEBV0@@Z
??0Tallocator@@QEAA@XZ
??0Tangle@@QEAA@AEBV0@@Z
??0Tangle@@QEAA@N@Z
??0Tangle@@QEAA@NW4TangleUnitSystem@@_N@Z
??0Tangle@@QEAA@XZ
??0TangleUnit@@QEAA@AEBV0@@Z
??0TangleUnit@@QEAA@XZ
??0TanimTime@@QEAA@AEBV0@@Z
??0TanimTime@@QEAA@H@Z
??0TanimTime@@QEAA@NW4TtimeUnitSystem@@@Z
??0TanimTime@@QEAA@XZ
??0TanimTimeArray@@QEAA@I@Z
??0TanimTimeSortedArray@@QEAA@_NI@Z
??0TapiObj@@QEAA@AEBVMObject@@@Z
??0TapiObj@@QEAA@PEAVMPtrBase@@W4Type@MFn@@@Z
??0TapiObj@@QEAA@XZ
??0TapiTableKey@@QEAA@AEBV0@@Z
??0TapiTableKey@@QEAA@W4Type@MFn@@0@Z
??0TappDirectory@@QEAA@AEBV0@@Z
??0TappDirectory@@QEAA@PEAVTfileErrorReporter@@@Z
??0TappLocale@@QEAA@XZ
??0TargList@@QEAA@AEBV0@@Z
??0TargList@@QEAA@XZ
??0TargListPtrArray@@QEAA@I@Z
??0TargType@@QEAA@AEBV0@@Z
??0TargType@@QEAA@H@Z
??0TargType@@QEAA@HI@Z
??0TargType@@QEAA@HII@Z
??0TargType@@QEAA@XZ
??0TargTypeArray@@QEAA@I@Z
??0Tarray@@QEAA@II@Z
??0TbaseArena@@QEAA@AEBV0@@Z
??0TbaseArena@@QEAA@W4TpageType@0@AEAVTallocator@@@Z
??0TbaseLicenseManager@@QEAA@XZ
??0TbaseSyntax@@QEAA@AEBV0@@Z
??0TbaseSyntax@@QEAA@XZ
??0Tbasket@@QEAA@AEBV0@@Z
??0Tbasket@@QEAA@XZ
??0TbatchGlobals@@QEAA@AEBV0@@Z
??0TbatchGlobals@@QEAA@XZ
??0TbdData@@QEAA@AEBV0@@Z
??0TbdData@@QEAA@XZ
??0TbdDataPtrArray@@QEAA@AEBV0@@Z
??0TbdDataPtrArray@@QEAA@I@Z
??0TbdDataPtrArray@@QEAA@XZ
??0TbdDataPtrArrayContainer@@QEAA@I@Z
??0TbdDataPtrHashTable@@QEAA@AEBV0@@Z
??0TbdDataPtrHashTable@@QEAA@II@Z
??0TbdInfo@@QEAA@AEBV0@@Z
??0TbdInfo@@QEAA@HAEBVTstring@@0I@Z
??0TbdInfo@@QEAA@XZ
??0TbdTable@@QEAA@AEBV0@@Z
??0TbdTable@@QEAA@XZ
??0TbdTableProcessorBase@@QEAA@AEBV0@@Z
??0TbdTableProcessorBase@@QEAA@XZ
??0TbitField128@@AEAA@AEBVTbitField64@@0@Z
??0TbitField128@@AEAA@_K0@Z
??0TbitField128@@QEAA@AEBV0@@Z
??0TbitField128@@QEAA@XZ
??0TbitField16@@QEAA@AEBV0@@Z
??0TbitField16@@QEAA@XZ
??0TbitField32@@QEAA@AEBV0@@Z
??0TbitField32@@QEAA@XZ
??0TbitField64@@AEAA@_K@Z
??0TbitField64@@QEAA@AEBV0@@Z
??0TbitField64@@QEAA@XZ
??0TbitFieldFixedN@@QEAA@AEBV0@@Z
??0TbitFieldFixedN@@QEAA@IPEAI@Z
??0TbitFieldFixedN@@QEAA@XZ
??0TbitFieldN@@QEAA@AEBV0@@Z
??0TbitFieldN@@QEAA@XZ
??0TbitMatrix@@QEAA@AEBV0@@Z
??0TbitMatrix@@QEAA@II@Z
??0TbitMatrix@@QEAA@XZ
??0TblendFactor@@AEAA@M@Z
??0TblendFactor@@QEAA@AEBV0@@Z
??0TblendFactor@@QEAA@XZ
??0Tbookmark@@QEAA@XZ
??0TbooleanArray@@QEAA@I@Z
??0TbooleanArrayPtrArray@@QEAA@I@Z
??0TboundaryValueException@@QEAA@AEBV0@@Z
??0TboundaryValueException@@QEAA@W4ValueExceptionType@0@@Z
??0TboundingBox@@QEAA@AEBV0@@Z
??0TboundingBox@@QEAA@AEBVT4dDblPoint@@0@Z
??0TboundingBox@@QEAA@AEBVTboundingSphere@@@Z
??0TboundingBox@@QEAA@PEBVT4dDblPoint@@I@Z
??0TboundingBox@@QEAA@XZ
??0TboundingSphere@@QEAA@AEBV0@@Z
??0TboundingSphere@@QEAA@AEBVT4dDblPoint@@N@Z
??0TboundingSphere@@QEAA@AEBVTboundingBox@@@Z
??0TboundingSphere@@QEAA@PEBVT4dDblPoint@@I@Z
??0TboundingSphere@@QEAA@XZ
??0Tbox@@QEAA@AEBV0@@Z
??0Tbox@@QEAA@XZ
??0TboxTree@@QEAA@AEBV0@@Z
??0TboxTree@@QEAA@AEBV?$vector@U?$pair@VTbox@@PEAX@std@@V?$allocator@U?$pair@VTbox@@PEAX@std@@@2@@std@@_N@Z
??0TboxTree@@QEAA@XZ
??0TcacheArray@@IEAA@IIPEAXI@Z
??0TcharArray@@QEAA@I@Z
??0TcharPtrArray@@QEAA@I@Z
??0TcharString@@QEAA@PEBD@Z
??0TcharString@@QEAA@XZ
??0Tclient@@IEAA@XZ
??0Tclient@@QEAA@AEBV0@@Z
??0TclientCondition@@QEAA@AEBVTstring@@_N@Z
??0TclientCondition@@QEAA@PEBD_N@Z
??0TclientQObjectInterface@@QEAA@PEAVQObject@@@Z
??0TclientServer@@IEAA@XZ
??0Tclock@@QEAA@AEBV0@@Z
??0Tclock@@QEAA@XZ
??0TcompactArena@@QEAA@AEBV0@@Z
??0TcompactArena@@QEAA@_K0AEAVTallocator@@PEBD@Z
??0TcompactPage@TcompactArena@@QEAA@PEAV1@_K1@Z
??0Tcomponent@@IEAA@XZ
??0Tcomponent@@QEAA@AEBV0@@Z
??0TcomponentPtrArray@@QEAA@I@Z
??0TcomponentWeights@@QEAA@I@Z
??0Tcomputation@@QEAA@AEBV0@@Z
??0Tcomputation@@QEAA@XZ
??0Tcondition@@QEAA@AEBVTstring@@_N1@Z
??0Tcondition@@QEAA@PEBD_N1@Z
??0TconditionChangedMsg@@QEAA@AEBV0@@Z
??0TconditionChangedMsg@@QEAA@XZ
??0TconditionOffMsg@@QEAA@AEBV0@@Z
??0TconditionOffMsg@@QEAA@XZ
??0TconditionOnMsg@@QEAA@AEBV0@@Z
??0TconditionOnMsg@@QEAA@XZ
??0TconstructorClass@@QEAA@AEBV0@@Z
??0TconstructorClass@@QEAA@XZ
??0TcopyrightUtil@@AEAA@XZ
??0Tcounter@@AEAA@AEBV0@@Z
??0Tcounter@@AEAA@AEBVTstring@@@Z
??0TcounterContext@@AEAA@AEBV0@@Z
??0TcounterContext@@AEAA@AEBVTstring@@@Z
??0TcounterContext@@AEAA@XZ
??0TcurrentNSAndRelativeNamesGuard@@QEAA@PEAVTnamespace@@@Z
??0Tdata2Double@@QEAA@AEBV0@@Z
??0Tdata2Double@@QEAA@AEBVT2Double@@@Z
??0Tdata2Double@@QEAA@NN@Z
??0Tdata2Double@@QEAA@XZ
??0Tdata2Float@@QEAA@AEBV0@@Z
??0Tdata2Float@@QEAA@AEBVT2Float@@@Z
??0Tdata2Float@@QEAA@MM@Z
??0Tdata2Float@@QEAA@XZ
??0Tdata2Int16@@QEAA@AEBV0@@Z
??0Tdata2Int16@@QEAA@AEBVT2Int16@@@Z
??0Tdata2Int16@@QEAA@FF@Z
??0Tdata2Int16@@QEAA@XZ
??0Tdata2Int32@@QEAA@AEBV0@@Z
??0Tdata2Int32@@QEAA@AEBVT2Int32@@@Z
??0Tdata2Int32@@QEAA@HH@Z
??0Tdata2Int32@@QEAA@XZ
??0Tdata3Double@@QEAA@AEBV0@@Z
??0Tdata3Double@@QEAA@AEBVT3Double@@@Z
??0Tdata3Double@@QEAA@NNN@Z
??0Tdata3Double@@QEAA@XZ
??0Tdata3Float@@QEAA@AEBV0@@Z
??0Tdata3Float@@QEAA@AEBVT3Float@@@Z
??0Tdata3Float@@QEAA@MMM@Z
??0Tdata3Float@@QEAA@XZ
??0Tdata3Int16@@QEAA@AEBV0@@Z
??0Tdata3Int16@@QEAA@AEBVT3Int16@@@Z
??0Tdata3Int16@@QEAA@FFF@Z
??0Tdata3Int16@@QEAA@XZ
??0Tdata3Int32@@QEAA@AEBV0@@Z
??0Tdata3Int32@@QEAA@AEBVT3Int32@@@Z
??0Tdata3Int32@@QEAA@HHH@Z
??0Tdata3Int32@@QEAA@XZ
??0Tdata4Double@@QEAA@AEBV0@@Z
??0Tdata4Double@@QEAA@AEBVT4Double@@@Z
??0Tdata4Double@@QEAA@NNNN@Z
??0Tdata4Double@@QEAA@XZ
??0Tdata@@QEAA@AEBV0@@Z
??0Tdata@@QEAA@AEBVTdataLetter@@@Z
??0Tdata@@QEAA@H@Z
??0Tdata@@QEAA@I@Z
??0Tdata@@QEAA@N@Z
??0Tdata@@QEAA@PEAVTdataLetter@@@Z
??0Tdata@@QEAA@PEAX@Z
??0Tdata@@QEAA@VTanimTime@@@Z
??0Tdata@@QEAA@XZ
??0Tdata@@QEAA@_J@Z
??0Tdata@@QEAA@_N@Z
??0TdataArrayAttrs@@QEAA@AEBV0@@Z
??0TdataArrayAttrs@@QEAA@AEBVTdata@@@Z
??0TdataArrayAttrs@@QEAA@AEBVTdataLetter@@@Z
??0TdataArrayAttrs@@QEAA@XZ
??0TdataBinary@@QEAA@AEBV0@@Z
??0TdataBinary@@QEAA@AEBVTdata@@@Z
??0TdataBinary@@QEAA@AEBVTdataLetter@@@Z
??0TdataBinary@@QEAA@AEBVTstring@@@Z
??0TdataBinary@@QEAA@AEBVTstring@@_N@Z
??0TdataBinary@@QEAA@PEAXI@Z
??0TdataBinary@@QEAA@XZ
??0TdataCompound@@QEAA@AEBV0@@Z
??0TdataCompound@@QEAA@AEBVTdata@@@Z
??0TdataCompound@@QEAA@I@Z
??0TdataDoubleArray@@QEAA@AEBV0@@Z
??0TdataDoubleArray@@QEAA@AEBVTdata@@@Z
??0TdataDoubleArray@@QEAA@AEBVTdataLetter@@@Z
??0TdataDoubleArray@@QEAA@PEAVTdoubleArray@@@Z
??0TdataDoubleArray@@QEAA@XZ
??0TdataFloatArray@@QEAA@AEBV0@@Z
??0TdataFloatArray@@QEAA@AEBVTdata@@@Z
??0TdataFloatArray@@QEAA@AEBVTdataLetter@@@Z
??0TdataFloatArray@@QEAA@PEAVTfloatArray@@@Z
??0TdataFloatArray@@QEAA@XZ
??0TdataFunction@@QEAA@AEBV0@@Z
??0TdataFunction@@QEAA@AEBVTdata@@@Z
??0TdataFunction@@QEAA@AEBVTdataLetter@@@Z
??0TdataFunction@@QEAA@AEBVTfunction@@@Z
??0TdataFunction@@QEAA@PEAVTfunction@@@Z
??0TdataHanger@@QEAA@XZ
??0TdataInt32Array@@QEAA@AEBV0@@Z
??0TdataInt32Array@@QEAA@AEBVTdata@@@Z
??0TdataInt32Array@@QEAA@AEBVTdataLetter@@@Z
??0TdataInt32Array@@QEAA@PEAVTint32Array@@@Z
??0TdataInt32Array@@QEAA@XZ
??0TdataLetter@@QEAA@AEBV0@@Z
??0TdataLetter@@QEAA@AEBVTdata@@@Z
??0TdataLetter@@QEAA@XZ
??0TdataLetterCopyManager@@QEAA@AEBV0@@Z
??0TdataLetterCopyManager@@QEAA@XZ
??0TdataMatrix@@QEAA@AEBV0@@Z
??0TdataMatrix@@QEAA@AEBVT4dDblMatrix@@@Z
??0TdataMatrix@@QEAA@AEBVTdata@@@Z
??0TdataMatrix@@QEAA@AEBVTdataLetter@@@Z
??0TdataMatrix@@QEAA@AEBVTxformMatrix@@@Z
??0TdataMatrix@@QEAA@N@Z
??0TdataMatrix@@QEAA@XZ
??0TdataReflectance@@QEAA@AEBV0@@Z
??0TdataReflectance@@QEAA@VTreflectance@@@Z
??0TdataReflectance@@QEAA@XZ
??0TdataSpectrum@@QEAA@AEBV0@@Z
??0TdataSpectrum@@QEAA@VTspectrum@@@Z
??0TdataSpectrum@@QEAA@XZ
??0TdataUInt64Array@@QEAA@AEBV0@@Z
??0TdataUInt64Array@@QEAA@AEBVTdata@@@Z
??0TdataUInt64Array@@QEAA@AEBVTdataLetter@@@Z
??0TdataUInt64Array@@QEAA@PEAVTuInt64Array@@@Z
??0TdataUInt64Array@@QEAA@XZ
??0TdataUnknown@@QEAA@AEBV0@@Z
??0TdataUnknown@@QEAA@AEBVTdata@@@Z
??0TdataUnknown@@QEAA@AEBVTdataLetter@@@Z
??0TdataUnknown@@QEAA@XZ
??0TdataVoidPtr@@QEAA@AEBV0@@Z
??0TdataVoidPtr@@QEAA@AEBVTdata@@@Z
??0TdataVoidPtr@@QEAA@AEBVTdataLetter@@@Z
??0TdataVoidPtr@@QEAA@PEAXP6AX0@ZP6AX00@Z@Z
??0TdataVoidPtr@@QEAA@XZ
??0TdbFlag@@AEAA@AEBV0@@Z
??0TdbFlag@@AEAA@XZ
??0TdbFlag@@QEAA@AEBVTstring@@0@Z
??0TdbFlag@@QEAA@AEBVTstring@@0_N@Z
??0TdbOperation@@QEAA@AEBV0@@Z
??0TdbOperation@@QEAA@XZ
??0TdbRequireCount@@QEAA@AEBV0@@Z
??0TdbRequireCount@@QEAA@XZ
??0TdbRequireOutput@@QEAA@AEBV0@@Z
??0TdbRequireOutput@@QEAA@XZ
??0TdbRequirement@@QEAA@AEBV0@@Z
??0TdbRequirement@@QEAA@XZ
??0TdbTrace@@QEAA@HPEBDPEAVTdebugOutput@@0@Z
??0TdbTrace@@QEAA@PEBD00@Z
??0TdbTrace@@QEAA@PEBDPEAVTdebugOutput@@0@Z
??0TdbTraceSection@@QEAA@AEAVTdbTrace@@@Z
??0TdbTraceSection@@QEAA@AEAVTdbTrace@@_N@Z
??0TdbgCbRegister@@QEAA@PEADP6AX0@Z@Z
??0TdblPoint@@QEAA@AEBV0@@Z
??0TdblPoint@@QEAA@NN@Z
??0TdblPoint@@QEAA@XZ
??0TdblPointArray@@QEAA@I@Z
??0TdblRect@@QEAA@AEBV0@@Z
??0TdblRect@@QEAA@AEBVT3dDblPoint@@0@Z
??0TdblRect@@QEAA@NNNN@Z
??0TdblRect@@QEAA@XZ
??0TdebugOutput@@IEAA@PEAVTdebugOutputStream@@I@Z
??0TdebugOutputFile@@QEAA@PEBDI@Z
??0TdebugOutputString@@QEAA@XZ
??0TdebugOutputTrace@@QEAA@I@Z
??0TdebugReporter@@QEAA@AEAVTdebugOutput@@PEAVTstring@@@Z
??0TdebugReporter@@QEAA@AEBV0@@Z
??0TdebugTrace@@QEAA@FPEAD0@Z
??0TdelayedClientServer@@QEAA@XZ
??0TdelayedMsgType@@QEAA@PEAVTmetaclass@@@Z
??0TdelayedMsgType@@QEAA@XZ
??0TdelayedMsgTypeArray@@QEAA@I@Z
??0TdepthBuffer@@QEAA@AEBV0@@Z
??0TdepthBuffer@@QEAA@GG@Z
??0TdepthBuffer@@QEAA@XZ
??0Tdictionary@@QEAA@AEBV0@@Z
??0Tdictionary@@QEAA@XZ
??0TdictionaryNode@@QEAA@AEBV0@@Z
??0TdictionaryNode@@QEAA@XZ
??0TdirIterator@@QEAA@AEBV0@@Z
??0TdirIterator@@QEAA@AEBVTdirectory@@@Z
??0TdirIterator@@QEAA@AEBVTdirectoryPath@@@Z
??0TdirIterator@@QEAA@AEBVTfilePath@@@Z
??0TdirIterator@@QEAA@AEBVTstring@@@Z
??0TdirIterator@@QEAA@XZ
??0Tdirectory@@QEAA@AEBV0@@Z
??0Tdirectory@@QEAA@PEAVTfileErrorReporter@@@Z
??0TdirectoryContentsQuery@@QEAA@AEBV0@@Z
??0TdirectoryContentsQuery@@QEAA@XZ
??0TdirectoryPath@@QEAA@AEBV0@@Z
??0TdirectoryPath@@QEAA@AEBVTfilePath@@@Z
??0TdirectoryPath@@QEAA@AEBVTstring@@@Z
??0TdirectoryPath@@QEAA@PEBD@Z
??0TdirectoryPath@@QEAA@XZ
??0TdoubleArray@@QEAA@I@Z
??0TdoubleArrayPtrArray@@QEAA@I@Z
??0TdoubleIndexLong@@QEAA@AEBV0@@Z
??0TdoubleIndexLong@@QEAA@II@Z
??0TdoubleIndexLong@@QEAA@XZ
??0TdoubleIndexLongArray@@QEAA@I@Z
??0TdoubleIndexedComponent@@AEAA@AEBV0@@Z
??0TdoubleIndexedComponent@@IEAA@XZ
??0TdoublePtrArray@@QEAA@I@Z
??0TdoubleRange@@QEAA@AEBV0@@Z
??0TdoubleRange@@QEAA@N@Z
??0TdoubleRange@@QEAA@NN@Z
??0TdoubleRange@@QEAA@XZ
??0TdoubleRangeArray@@QEAA@I@Z
??0TdoubleSortedArray@@QEAA@_NI@Z
??0TdualQuaternion@@QEAA@AEBV0@@Z
??0TdualQuaternion@@QEAA@AEBVTquaternion@@0@Z
??0TdualQuaternion@@QEAA@AEBVTquaternion@@AEBVT4dDblVector@@@Z
??0TdualQuaternion@@QEAA@NNNNNNNN@Z
??0TdualQuaternion@@QEAA@XZ
??0TdualQuaternionArray@@QEAA@I@Z
??0Tduration@@QEAA@AEBV0@@Z
??0Tduration@@QEAA@FFFF@Z
??0Tduration@@QEAA@H@Z
??0Tduration@@QEAA@XZ
??0TdynamicLoad@@QEAA@PEAX@Z
??0TdynamicLoad@@QEAA@PEBDW4TdynamicLoadMode@0@@Z
??0TdynamicLoad@@QEAA@XZ
??0TenvironmentVariable@@QEAA@PEBD@Z
??0TerrorHandler@@QEAA@XZ
??0Texception@@QEAA@AEBV0@@Z
??0Texception@@QEAA@XZ
??0TfailedException@@QEAA@AEBV0@@Z
??0TfailedException@@QEAA@H@Z
??0Tfile@@QEAA@AEBV0@@Z
??0Tfile@@QEAA@XZ
??0TfileErrorReporter@@QEAA@AEBV0@@Z
??0TfileErrorReporter@@QEAA@XZ
??0TfileException@@QEAA@AEBV0@@Z
??0TfileException@@QEAA@W4TerrorCode@0@@Z
??0TfileException@@QEAA@XZ
??0TfileManager@@QEAA@AEBVTstring@@II@Z
??0TfileName@@QEAA@AEBV0@@Z
??0TfileName@@QEAA@AEBVTstring@@@Z
??0TfilePath@@QEAA@AEBV0@@Z
??0TfilePath@@QEAA@AEBVTstring@@@Z
??0TfilePath@@QEAA@PEBD@Z
??0TfilePath@@QEAA@XZ
??0TfilePathArray@@QEAA@I@Z
??0TfilePathList@@QEAA@XZ
??0TfileRequestor@@QEAA@AEBV0@@Z
??0TfileRequestor@@QEAA@XZ
??0TfileResolverBase@@QEAA@AEBV0@@Z
??0TfileResolverBase@@QEAA@XZ
??0TfileResolverMgrBase@@QEAA@AEBV0@@Z
??0TfileResolverMgrBase@@QEAA@XZ
??0TfileStream@@QEAA@PEAVTfileErrorReporter@@@Z
??0TfileSystemEntity@@QEAA@AEBV0@@Z
??0TfileSystemEntity@@QEAA@W4Type@0@PEAVTfileErrorReporter@@@Z
??0TfileSystemEntity@@QEAA@XZ
??0TfileURI@@QEAA@AEBV0@@Z
??0TfileURI@@QEAA@AEBVTstring@@@Z
??0TfileURI@@QEAA@XZ
??0Tfile_fstream@@QEAA@PEBDHH@Z
??0Tfile_fstream@@QEAA@XZ
??0Tfile_iostream@@QEAA@AEBV0@@Z
??0Tfile_iostream@@QEAA@PEAV?$basic_iostream@DU?$char_traits@D@std@@@std@@@Z
??0TfillBackground@@QEAA@XZ
??0TfixedArena@@QEAA@AEBV0@@Z
??0TfixedArena@@QEAA@_K0AEAVTallocator@@PEBD@Z
??0TfloatArray@@QEAA@I@Z
??0TfloatArrayPtrArray@@QEAA@I@Z
??0TfloatArrayPtrArrayPtrArray@@QEAA@I@Z
??0TfloatConstPtrArray@@QEAA@I@Z
??0TfloatPtrArray@@QEAA@I@Z
??0TfloatRange@@QEAA@M@Z
??0TfloatRange@@QEAA@MM@Z
??0TfloatRange@@QEAA@XZ
??0TfloatRangeArray@@QEAA@I@Z
??0TfloatVoxelGrid@@QEAA@AEBV0@@Z
??0TfloatVoxelGrid@@QEAA@XZ
??0TfltBoundingBox@@QEAA@AEBV0@@Z
??0TfltBoundingBox@@QEAA@AEBVT4dFltPoint@@0@Z
??0TfltBoundingBox@@QEAA@AEBVTboundingBox@@@Z
??0TfltBoundingBox@@QEAA@AEBVTfltBox@@@Z
??0TfltBoundingBox@@QEAA@PEBVT4dDblPoint@@I@Z
??0TfltBoundingBox@@QEAA@PEBVT4dFltPoint@@I@Z
??0TfltBoundingBox@@QEAA@XZ
??0TfltBoundingSphere@@QEAA@AEBV0@@Z
??0TfltBoundingSphere@@QEAA@AEBVT4dFltPoint@@M@Z
??0TfltBoundingSphere@@QEAA@AEBVTfltBoundingBox@@@Z
??0TfltBoundingSphere@@QEAA@PEBVT4dFltPoint@@I@Z
??0TfltBoundingSphere@@QEAA@XZ
??0TfltBounds@@QEAA@AEBV0@@Z
??0TfltBounds@@QEAA@XZ
??0TfltBox@@QEAA@AEBV0@@Z
??0TfltBox@@QEAA@AEBVT4dFltPoint@@0@Z
??0TfltBox@@QEAA@AEBVTboundingBox@@@Z
??0TfltBox@@QEAA@PEBVT4dDblPoint@@I@Z
??0TfltBox@@QEAA@PEBVT4dFltPoint@@I@Z
??0TfltBox@@QEAA@XZ
??0TfltFrustum@@QEAA@AEBV0@@Z
??0TfltFrustum@@QEAA@AEBVTfltBox@@@Z
??0TfltFrustum@@QEAA@XZ
??0TfltInterval@@QEAA@AEBV0@@Z
??0TfltInterval@@QEAA@AEBVTinterval@@@Z
??0TfltInterval@@QEAA@MM@Z
??0TfltInterval@@QEAA@XZ
??0TfltLine@@QEAA@AEBV0@@Z
??0TfltLine@@QEAA@AEBVT3dFltPoint@@AEBVT3dFltVector@@@Z
??0TfltLine@@QEAA@XZ
??0TfltLineArray@@QEAA@I@Z
??0TfltLineSegment@@QEAA@AEBV0@@Z
??0TfltLineSegment@@QEAA@AEBVT3dFltPoint@@AEBVT3dFltVector@@@Z
??0TfltLineSegment@@QEAA@AEBVTfltLine@@@Z
??0TfltLineSegment@@QEAA@XZ
??0TfltNullBounds@@QEAA@AEBV0@@Z
??0TfltNullBounds@@QEAA@XZ
??0TfltPlane@@QEAA@AEBV0@@Z
??0TfltPlane@@QEAA@AEBVT3dFltPoint@@AEBVT3dFltVector@@M@Z
??0TfltPlane@@QEAA@M@Z
??0TfltPoint@@QEAA@AEBV0@@Z
??0TfltPoint@@QEAA@MM@Z
??0TfltPoint@@QEAA@XZ
??0TfltPointArray@@QEAA@I@Z
??0TfltTuple@@QEAA@MMMM@Z
??0TfltTuple@@QEAA@XZ
??0TfltUnBounded@@QEAA@AEBV0@@Z
??0TfltUnBounded@@QEAA@XZ
??0TflushingSceneGuard@@QEAA@_N@Z
??0Tfootprint@@QEAA@XZ
??0TfootprintInfo@@QEAA@AEBV0@@Z
??0TfootprintInfo@@QEAA@PEAVTvoidPtrSortedArray@@@Z
??0TfootprintInfo@@QEAA@XZ
??0Tfrustum@@QEAA@AEBV0@@Z
??0Tfrustum@@QEAA@AEBVTboundingBox@@@Z
??0Tfrustum@@QEAA@XZ
??0Tfunction@@QEAA@AEBV0@@Z
??0Tfunction@@QEAA@XZ
??0TfunctionArgs@@QEAA@XZ
??0TfunctionMapping@@QEAA@AEAVTfunction@@@Z
??0TgridIncrement@@QEAA@HNNN@Z
??0TgroupedObject@@QEAA@AEBV0@@Z
??0TgroupedObject@@QEAA@XZ
??0Thammersley2@@QEAA@I@Z
??0Thammersley@@QEAA@II@Z
??0ThandledException@@QEAA@AEBV0@@Z
??0ThandledException@@QEAA@AEBVTexception@@@Z
??0ThandledException@@QEAA@XZ
??0ThashTable@@QEAA@AEBV0@@Z
??0ThashTable@@QEAA@II@Z
??0ThashTableEntry@@QEAA@AEBV0@@Z
??0ThashTableEntry@@QEAA@XZ
??0ThashTableIterator@@IEAA@AEAVThashTable@@@Z
??0ThashTableIterator@@QEAA@AEBV0@@Z
??0TheapArena@@QEAA@AEBV0@@Z
??0TheapArena@@QEAA@W4TpageType@TbaseArena@@AEAVTallocator@@@Z
??0ThighlightColor@@QEAA@AEBV0@@Z
??0ThighlightColor@@QEAA@XZ
??0ThwrCallback@@IEAA@H@Z
??0ThwrCallback@@QEAA@AEBV0@@Z
??0TiffFile4@@QEAA@AEBV0@@Z
??0TiffFile4@@QEAA@PEBD0JJ@Z
??0TiffFile4@@QEAA@XZ
??0TiffFile8@@QEAA@AEBV0@@Z
??0TiffFile8@@QEAA@PEBD0JJ@Z
??0TiffFile8@@QEAA@XZ
??0TiffFile@@QEAA@AEBV0@@Z
??0TiffFile@@QEAA@PEBD0JJ@Z
??0TiffFile@@QEAA@XZ
??0TiffParserCallback@@QEAA@AEBV0@@Z
??0TiffParserCallback@@QEAA@XZ
??0TiffTable@@QEAA@AEBV0@@Z
??0TiffTable@@QEAA@II@Z
??0TiffTag@@QEAA@AEBV0@@Z
??0TiffTag@@QEAA@EEEE@Z
??0TiffTag@@QEAA@I@Z
??0TiffTag@@QEAA@PEBD@Z
??0TiffTag@@QEAA@XZ
??0TiffTagArray@@QEAA@I@Z
??0TincompatibleData@@QEAA@AEBV0@@Z
??0TincompatibleData@@QEAA@XZ
??0TindexArray@@QEAA@I@Z
??0TindexDictionary@@QEAA@AEBV0@@Z
??0TindexDictionary@@QEAA@XZ
??0TindexDictionaryNode@@QEAA@AEBI0@Z
??0TindexDictionaryNode@@QEAA@AEBI@Z
??0TindexDictionaryNode@@QEAA@AEBV0@@Z
??0TindexDictionaryNode@@QEAA@XZ
??0TindexRange@@QEAA@I@Z
??0TindexRange@@QEAA@II@Z
??0TindexRange@@QEAA@XZ
??0TindexRangeArray@@QEAA@I@Z
??0TinitBasket@@QEAA@P6AXXZW4TinitBasketPriority@@@Z
??0Tint16Array@@QEAA@I@Z
??0Tint32Array@@QEAA@I@Z
??0Tint32ArrayPtrArray@@QEAA@I@Z
??0Tint32SortedArray@@QEAA@_NI@Z
??0Tint64Array@@QEAA@I@Z
??0TintSequence@@QEAA@HH@Z
??0TintSequence@@QEAA@XZ
??0TkeyWordHashTable@@QEAA@AEBV0@@Z
??0TkeyWordHashTable@@QEAA@II@Z
??0TlicenseModifiedMsg@@QEAA@AEBV0@@Z
??0TlicenseModifiedMsg@@QEAA@W4TmessageType@0@@Z
??0Tline@@QEAA@AEBV0@@Z
??0Tline@@QEAA@AEBVT4dDblPoint@@AEBVT4dDblVector@@@Z
??0Tline@@QEAA@XZ
??0TlineArray@@QEAA@I@Z
??0TlineSegment@@QEAA@AEBV0@@Z
??0TlineSegment@@QEAA@AEBVT4dDblPoint@@AEBVT4dDblVector@@@Z
??0TlineSegment@@QEAA@AEBVTline@@@Z
??0TlineSegment@@QEAA@XZ
??0Tlinear@@QEAA@AEBV0@@Z
??0Tlinear@@QEAA@NW4TunitSystem@Tunit@@_N@Z
??0Tlinear@@QEAA@XZ
??0Tlinear@@QEAA@_N@Z
??0TlinearString@@QEAA@AEBV0@@Z
??0TlinearString@@QEAA@XZ
??0TloadingEditTargetsGuard@@QEAA@_N@Z
??0TlockingManager@@QEAA@AEBV0@@Z
??0TlockingManager@@QEAA@XZ
??0TlongDoubleIndexedComponent@@IEAA@XZ
??0TlowLevelReporter@@QEAA@AEBV0@@Z
??0TlowLevelReporter@@QEAA@XZ
??0TmallocAllocator@@QEAA@AEBV0@@Z
??0TmallocAllocator@@QEAA@XZ
??0Tmap@@QEAA@AEBV0@@Z
??0Tmap@@QEAA@I@Z
??0Tmap@@QEAA@XZ
??0TmatchingEditAttrsGuard@@QEAA@XZ
??0TmaxViewRegionModifiedMsg@@QEAA@AEBV0@@Z
??0TmaxViewRegionModifiedMsg@@QEAA@XZ
??0TmayaAppInfo@@QEAA@XZ
??0TmemoryAlert@@QEAA@AEBV0@@Z
??0TmemoryAlert@@QEAA@PEAVTreporter@@@Z
??0TmemoryException@@QEAA@AEBV0@@Z
??0TmemoryException@@QEAA@XZ
??0TmessageCenter@@QEAA@XZ
??0TmetaLetter@@QEAA@AEBV0@@Z
??0TmetaLetter@@QEAA@PEAVTmetaclass@@@Z
??0Tmetaclass@@QEAA@AEBV0@@Z
??0Tmetaclass@@QEAA@PEAPEAV0@PEBDIPEAVTconstructorClass@@I_N0000@Z
??0Tmetaclass@@QEAA@PEAPEAV0@PEBDIUTconstructorProc@@I_N0000@Z
??0TmintLicenseManager@@QEAA@XZ
??0TmovieCompressor@@QEAA@XZ
??0TmtBarrier@@QEAA@I@Z
??0TmtCompactArena@@QEAA@AEBV0@@Z
??0TmtCompactArena@@QEAA@_K0AEAVTallocator@@PEBDPEAH@Z
??0TmtConditionVar@@QEAA@XZ
??0TmtCriticalSection@@QEAA@PEBH@Z
??0TmtMutex@@QEAA@PEBH@Z
??0TmtRWMutex@@QEAA@W4eScheduler@0@@Z
??0TmtRecursiveCS@@QEAA@PEBHPEBD@Z
??0TmtRecursiveMutex@@QEAA@PEBH@Z
??0TmtRefCounter@@QEAA@H@Z
??0TmtRefCounter@@QEAA@XZ
??0TmtSemaphore@@QEAA@I@Z
??0TmtSpinCriticalSection@@QEAA@PEBH@Z
??0TmtStackArena@@QEAA@AEBV0@@Z
??0TmtStackArena@@QEAA@_K0AEAVTallocator@@@Z
??0TmtStackArena@@QEAA@_KAEAVTallocator@@@Z
??0TmtTSSCollection@@IEAA@XZ
??0TmtThread@@AEAA@XZ
??0TmtThreadPool@@IEAA@XZ
??0TmtThreadPtrArray@@QEAA@I@Z
??0TmtTimedConditionVar@@QEAA@XZ
??0TmtVariantArena@@QEAA@AEBV0@@Z
??0TmtVariantArena@@QEAA@_KIAEAVTallocator@@PEBD_N3@Z
??0TmultiSharedObject@@QEAA@AEBV0@@Z
??0TmultiSharedObject@@QEAA@I@Z
??0TnameObject@@QEAA@AEBV0@@Z
??0TnameObject@@QEAA@XZ
??0TnameObject@@QEAA@_N@Z
??0TnameObjectCollectionIterator@@QEAA@XZ
??0TnameObjectIterator@@QEAA@AEBV0@@Z
??0TnameObjectIterator@@QEAA@AEBVTstring@@PEAVTmetaclass@@PEAVTnamespace@@_N3@Z
??0TnameObjectIterator@@QEAA@XZ
??0TnameObjectPtrArray@@QEAA@I@Z
??0TnameObjectTypeIterator@@QEAA@AEBV0@@Z
??0TnameObjectTypeIterator@@QEAA@PEAVTmetaclass@@AEAVTnamespace@@_N@Z
??0TnameObjectTypeIterator@@QEAA@PEAVTmetaclass@@_N@Z
??0TnameObjectTypeIterator@@QEAA@XZ
??0TnameString@@QEAA@AEBV0@@Z
??0TnameString@@QEAA@AEBVTstring@@@Z
??0TnameString@@QEAA@AEBVTuniqueString@@@Z
??0TnameString@@QEAA@PEBD@Z
??0TnameString@@QEAA@XZ
??0TnameTable@@QEAA@AEBV0@@Z
??0TnameTable@@QEAA@II@Z
??0Tnamespace@@QEAA@AEBV0@@Z
??0Tnamespace@@QEAA@PEAV0@@Z
??0Tnamespace@@QEAA@XZ
??0TnamespaceIterator@@QEAA@PEAVTnamespace@@_N1@Z
??0TnamespaceIterator@@QEAA@XZ
??0TnamespaceManager@@AEAA@XZ
??0TnamespaceManager@@QEAA@AEBV0@@Z
??0TnamespacePtrArray@@QEAA@I@Z
??0TnamespaceRenamedMsg@@QEAA@AEBV0@@Z
??0TnamespaceRenamedMsg@@QEAA@PEAVTnamespace@@AEBVTstring@@@Z
??0TnamespaceRenamedMsg@@QEAA@XZ
??0TnestedTimers@@AEAA@XZ
??0ToDo@@QEAA@PEBD000H@Z
??0ToDo@@QEAA@W4eToDoType@0@PEBD11H@Z
??0TobjArray@@QEAA@II@Z
??0TobjArrayTbasketPtr@@QEAA@I@Z
??0TobjectGroup@@QEAA@AEBV0@@Z
??0TobjectGroup@@QEAA@I@Z
??0TobjectGroup@@QEAA@XZ
??0TobjectGroupIdArray@@QEAA@I@Z
??0TobjectGroupPtrArray@@QEAA@I@Z
??0TobjectStats@@QEAA@PEBDIW4eDetail@0@@Z
??0ToptionVar@@QEAA@AEBVTstring@@0@Z
??0ToptionVar@@QEAA@AEBVTstring@@AEBVTdoubleArray@@@Z
??0ToptionVar@@QEAA@AEBVTstring@@AEBVTint32Array@@@Z
??0ToptionVar@@QEAA@AEBVTstring@@AEBVTstringArray@@@Z
??0ToptionVar@@QEAA@AEBVTstring@@H@Z
??0ToptionVar@@QEAA@AEBVTstring@@N@Z
??0ToptionVarChangedMsg@@QEAA@AEBV0@@Z
??0ToptionVarChangedMsg@@QEAA@XZ
??0TosTime@@AEAA@H@Z
??0TosTime@@QEAA@XZ
??0Tpage@TbaseArena@@QEAA@PEAV1@_K@Z
??0TparseFile@@QEAA@AEBVTstring@@@Z
??0TparseFile@@QEAA@PEAU_iobuf@@@Z
??0TparseFile@@QEAA@PEBD@Z
??0TpixelMap@@QEAA@AEBV0@@Z
??0TpixelMap@@QEAA@GG@Z
??0TpixelMap@@QEAA@XZ
??0TpixelMapPtrArray@@QEAA@I@Z
??0TplaceHolderNamespaceUtil@@IEAA@XZ
??0Tplane@@QEAA@AEBV0@@Z
??0Tplane@@QEAA@AEBVT4dDblPoint@@AEBVT4dDblVector@@N@Z
??0Tplane@@QEAA@N@Z
??0Tplane@@QEAA@XZ
??0Tpoint@@QEAA@AEBV0@@Z
??0Tpoint@@QEAA@FF@Z
??0Tpoint@@QEAA@XZ
??0TpointArray@@QEAA@I@Z
??0TpointOctree@@QEAA@AEBV0@@Z
??0TpointOctree@@QEAA@AEBVT3dFltPoint@@0IIM@Z
??0TpointOctree@@QEAA@IIM@Z
??0TpointOctreeWalker@@QEAA@AEBV0@@Z
??0TpointOctreeWalker@@QEAA@PEAVTpointOctree@@@Z
??0TpointOctreeWalker@@QEAA@PEAVTpointOctree@@AEBVT3dFltPoint@@N@Z
??0TpolyBdVertexFaceBase@@QEAA@AEBV0@@Z
??0TpolyBdVertexFaceBase@@QEAA@AEBVTstring@@@Z
??0TpolyBdVertexFaceBase@@QEAA@XZ
??0TpolyMap@@QEAA@AEBV0@@Z
??0TpolyMap@@QEAA@XZ
??0TpolyMapArray@@QEAA@I@Z
??0TpolyMapArrayShared@@QEAA@AEBV0@@Z
??0TpolyMapArrayShared@@QEAA@XZ
??0TpolyMapShell@@QEAA@XZ
??0TpolyTangentSet@@QEAA@AEBV0@@Z
??0TpolyTangentSet@@QEAA@XZ
??0TpolyTangentSetArray@@QEAA@I@Z
??0TpolyTangentSetArrayShared@@QEAA@AEBV0@@Z
??0TpolyTangentSetArrayShared@@QEAA@XZ
??0TpoolAllocator@@QEAA@H@Z
??0TpoolAllocatorPtrArray@@QEAA@I@Z
??0TpoolData@@QEAA@HH@Z
??0TpoolManager@@QEAA@AEBV0@@Z
??0TpoolManager@@QEAA@XZ
??0TportColor@@QEAA@AEBV0@@Z
??0TportColor@@QEAA@MMMM@Z
??0TportColor@@QEAA@W4TportColorType@0@EEEE@Z
??0TportColor@@QEAA@W4TportColorType@0@GGGG@Z
??0TportColor@@QEAA@W4TportColorType@0@MMMM@Z
??0TportColor@@QEAA@W4TportColorType@0@NNNN@Z
??0TportColor@@QEAA@XZ
??0TportColorArray@@QEAA@I@Z
??0TportRect@@QEAA@AEBV0@@Z
??0TportRect@@QEAA@AEBVTpoint@@0@Z
??0TportRect@@QEAA@F@Z
??0TportRect@@QEAA@FFFF@Z
??0TportRect@@QEAA@XZ
??0TprefOptionVars@@QEAA@XZ
??0TpreferenceItem@@QEAA@AEBV0@@Z
??0TpreferenceItem@@QEAA@XZ
??0TpreferenceItemPtrArray@@QEAA@I@Z
??0TpreferencesDirectory@@QEAA@AEBV0@@Z
??0TpreferencesDirectory@@QEAA@PEAVTfileErrorReporter@@_N@Z
??0TpresetsDirectory@@QEAA@AEBV0@@Z
??0TpresetsDirectory@@QEAA@PEAVTfileErrorReporter@@@Z
??0TpriorityQueue@@QEAA@II@Z
??0Tprofiler@@IEAA@XZ
??0TprofilerBufferSizeChangedMsg@@QEAA@AEBV0@@Z
??0TprofilerBufferSizeChangedMsg@@QEAA@XZ
??0TprofilerCategoryAddedMsg@@QEAA@AEBV0@@Z
??0TprofilerCategoryAddedMsg@@QEAA@H@Z
??0TprofilerCategoryAddedMsg@@QEAA@XZ
??0TprofilerCategoryRemovedMsg@@QEAA@AEBV0@@Z
??0TprofilerCategoryRemovedMsg@@QEAA@H@Z
??0TprofilerCategoryRemovedMsg@@QEAA@XZ
??0TprofilerCategoryUpdatedMsg@@QEAA@AEBV0@@Z
??0TprofilerCategoryUpdatedMsg@@QEAA@H@Z
??0TprofilerCategoryUpdatedMsg@@QEAA@XZ
??0TprofilerManager@@QEAA@XZ
??0TprofilerMicroTime@@QEAA@XZ
??0TprofilerMicroTime@@QEAA@_K@Z
??0TprofilerRecordingStartedMsg@@QEAA@AEBV0@@Z
??0TprofilerRecordingStartedMsg@@QEAA@XZ
??0TprofilerRecordingStoppedMsg@@QEAA@AEBV0@@Z
??0TprofilerRecordingStoppedMsg@@QEAA@XZ
??0TprofilerResetDataMsg@@QEAA@AEBV0@@Z
??0TprofilerResetDataMsg@@QEAA@XZ
??0TprofilerThreadInfo@@AEAA@XZ
??0TprofilingEventHelper@@QEAA@XZ
??0TprogressIndicator@@IEAA@XZ
??0TprogressIndicator@@QEAA@AEBV0@@Z
??0TprojectMgrBase@@QEAA@AEBV0@@Z
??0TprojectMgrBase@@QEAA@XZ
??0TprojectsDirectory@@QEAA@AEBV0@@Z
??0TprojectsDirectory@@QEAA@PEAVTfileErrorReporter@@@Z
??0TptrHashTable@@QEAA@AEBV0@@Z
??0TptrHashTable@@QEAA@II@Z
??0TptrStringHash@@QEAA@AEBV0@@Z
??0TptrStringHash@@QEAA@II@Z
??0TptrStringHashStack@@QEAA@XZ
??0TpureArena@@QEAA@AEBV0@@Z
??0TpureArena@@QEAA@XZ
??0Tquaternion@@QEAA@AEBV0@@Z
??0Tquaternion@@QEAA@AEBVT4dDblVector@@0@Z
??0Tquaternion@@QEAA@AEBVT4dDblVector@@0N@Z
??0Tquaternion@@QEAA@NAEBVT4dDblVector@@@Z
??0Tquaternion@@QEAA@NNNN@Z
??0Tquaternion@@QEAA@XZ
??0TquaternionArray@@QEAA@I@Z
??0TquaternionArrayPtrArray@@QEAA@I@Z
??0Trect@@QEAA@AEBV0@@Z
??0Trect@@QEAA@AEBVTpoint@@0@Z
??0Trect@@QEAA@FFFF@Z
??0Trect@@QEAA@XZ
??0TrectArray@@QEAA@I@Z
??0Treflectance@@QEAA@AEBV0@@Z
??0Treflectance@@QEAA@XZ
??0TregExp@@QEAA@PEBD@Z
??0TregExp@@QEAA@XZ
??0TrenderSpectrum@@QEAA@AEBV0@@Z
??0TrenderSpectrum@@QEAA@AEBVTspectrum@@@Z
??0TrenderSpectrum@@QEAA@XZ
??0Treporter@@QEAA@AEBV0@@Z
??0Treporter@@QEAA@PEAVTstring@@@Z
??0TresId@@QEAA@AEBV0@@Z
??0TresId@@QEAA@H@Z
??0TresId@@QEAA@XZ
??0TresourceElement@@QEAA@AEAVTresourceGroup@@PEBD1@Z
??0TresourceElement@@QEAA@AEAVTresourceGroup@@PEBDI@Z
??0TresourceException@@QEAA@AEBV0@@Z
??0TresourceException@@QEAA@PEBDZZ
??0TresourceGroup@@QEAA@AEBV0@@Z
??0TresourceGroup@@QEAA@PEBD@Z
??0TresourceMap@@QEAA@AEBV0@@Z
??0TresourceMap@@QEAA@XZ
??0TresourceQuery@@QEAA@AEBV0@@Z
??0TresourceQuery@@QEAA@XZ
??0TrotateXYZ@@QEAA@AEBV0@@Z
??0TrotateXYZ@@QEAA@AEBVT4dDblVector@@W4TrotOrder@@@Z
??0TrotateXYZ@@QEAA@NNNW4TrotOrder@@@Z
??0TrotateXYZ@@QEAA@W4TrotOrder@@@Z
??0TrotateXYZ@@QEAA@XZ
??0TrotateXYZArray@@QEAA@I@Z
??0TsafeFileSave@@QEAA@AEBV0@@Z
??0TsafeFileSave@@QEAA@AEBVTstring@@@Z
??0Tscale@@QEAA@AEBV0@@Z
??0Tscale@@QEAA@AEBVT4dDblVector@@@Z
??0Tscale@@QEAA@N@Z
??0Tscale@@QEAA@NNN@Z
??0Tscale@@QEAA@XZ
??0TscaleArray@@QEAA@I@Z
??0TsearchPath@@QEAA@AEBVTstringArray@@@Z
??0TsearchPath@@QEAA@XZ
??0TsearchPathIterator@@QEAA@AEBV0@@Z
??0TsearchPathIterator@@QEAA@AEBVTsearchPath@@W4TfilterType@0@@Z
??0TselectedSrfDirectionsArray@@QEAA@I@Z
??0TserverCheckMsg@@QEAA@AEBV0@@Z
??0TserverCheckMsg@@QEAA@XZ
??0TserverDeletedMsg@@QEAA@AEBV0@@Z
??0TserverDeletedMsg@@QEAA@XZ
??0TserverModifiedMsg@@QEAA@AEBV0@@Z
??0TserverModifiedMsg@@QEAA@XZ
??0TserverMsg@@IEAA@XZ
??0TserverMsg@@QEAA@AEBV0@@Z
??0TserverMsgPtrList@@QEAA@XZ
??0TshapeAlgebra@@QEAA@XZ
??0TsharedDoubleArray@@QEAA@AEBV0@@Z
??0TsharedDoubleArray@@QEAA@PEAVTdoubleArray@@@Z
??0TsharedDoubleArray@@QEAA@XZ
??0TsharedFloatArray@@QEAA@AEBV0@@Z
??0TsharedFloatArray@@QEAA@PEAVTfloatArray@@@Z
??0TsharedFloatArray@@QEAA@XZ
??0TsharedInt32Array@@QEAA@AEBV0@@Z
??0TsharedInt32Array@@QEAA@PEAVTint32Array@@@Z
??0TsharedInt32Array@@QEAA@XZ
??0TsharedObject@@QEAA@AEBV0@@Z
??0TsharedObject@@QEAA@XZ
??0TsharedPixelMap@@QEAA@AEBV0@@Z
??0TsharedPixelMap@@QEAA@PEAVTpixelMap@@@Z
??0TsharedPixelMap@@QEAA@XZ
??0TsharedPixelMapArray@@QEAA@I@Z
??0TsharedReference@@QEAA@AEBV0@@Z
??0TsharedReference@@QEAA@PEAVTsharedObject@@@Z
??0TsharedReference@@QEAA@XZ
??0TsharedUInt64Array@@QEAA@AEBV0@@Z
??0TsharedUInt64Array@@QEAA@PEAVTuInt64Array@@@Z
??0TsharedUInt64Array@@QEAA@XZ
??0Tshear2@@QEAA@AEBV0@@Z
??0Tshear2@@QEAA@AEBVT4dDblVector@@@Z
??0Tshear2@@QEAA@NNN@Z
??0Tshear2@@QEAA@XZ
??0Tshear@@QEAA@AEBV0@@Z
??0Tshear@@QEAA@AEBVT4dDblVector@@@Z
??0Tshear@@QEAA@NNN@Z
??0Tshear@@QEAA@XZ
??0TsicComplementIterator@@QEAA@PEBVTsingleIndexedComponent@@H@Z
??0TsicComplementIterator@@QEAA@XZ
??0TsimpleTess@@QEAA@AEBV0@@Z
??0TsimpleTess@@QEAA@XZ
??0TsingleIndexedComponent@@AEAA@AEBV0@@Z
??0TsingleIndexedComponent@@QEAA@XZ
??0TsingleIndexedComponentIterator@@QEAA@AEBV0@@Z
??0TsingleIndexedComponentIterator@@QEAA@PEBVTsingleIndexedComponent@@@Z
??0TsingleIndexedComponentIterator@@QEAA@PEBVTsingleIndexedComponent@@H@Z
??0TsingleIndexedComponentIterator@@QEAA@XZ
??0TsortedArray@@QEAA@II_N@Z
??0TsortedBdDataPtrArray@@QEAA@_NI@Z
??0TsortedObjectGroupIdArray@@QEAA@_NI@Z
??0TsortedStringArray@@QEAA@_NI@Z
??0TspatialGrid@@QEAA@AEBVTfltBoundingBox@@AEBVT3Int32@@@Z
??0TspatialGridWalker@@QEAA@AEBV0@@Z
??0TspatialGridWalker@@QEAA@AEBVT3dFltPoint@@AEBVT3dFltVector@@PEAVTspatialGrid@@@Z
??0Tspectrum@@IEAA@MMM@Z
??0Tspectrum@@QEAA@AEBV0@@Z
??0Tspectrum@@QEAA@M@Z
??0Tspectrum@@QEAA@XZ
??0TsrtComponents@@QEAA@XZ
??0Tstack@@QEAA@I@Z
??0TstackArena@@QEAA@AEBV0@@Z
??0TstackArena@@QEAA@_K0AEAVTallocator@@@Z
??0TstackArena@@QEAA@_KAEAVTallocator@@@Z
??0TstackTrace@@QEAA@XZ
??0Tstring@@QEAA@AEBV0@@Z
??0Tstring@@QEAA@AEBVTstringId@@@Z
??0Tstring@@QEAA@PEBD@Z
??0Tstring@@QEAA@PEBDI@Z
??0Tstring@@QEAA@PEB_W@Z
??0Tstring@@QEAA@PEB_WI@Z
??0Tstring@@QEAA@XZ
??0TstringArray@@QEAA@I@Z
??0TstringCatalog@@QEAA@XZ
??0TstringHashTable@@QEAA@AEBV0@@Z
??0TstringHashTable@@QEAA@II@Z
??0TstringId@@QEAA@AEBV0@@Z
??0TstringId@@QEAA@AEBVTstring@@0@Z
??0TstringId@@QEAA@AEBVTstring@@@Z
??0TstringId@@QEAA@PEBD@Z
??0TstringId@@QEAA@PEBDAEBVTstring@@@Z
??0TstringId@@QEAA@XZ
??0TstringIntHashTable@@QEAA@AEBV0@@Z
??0TstringIntHashTable@@QEAA@II@Z
??0TstringKeyHashTable@@QEAA@AEBV0@@Z
??0TstringKeyHashTable@@QEAA@II@Z
??0TstringPtrArray@@QEAA@I@Z
??0Tsubtree@@QEAA@AEBV0@@Z
??0Tsubtree@@QEAA@XZ
??0TsurfSelectedBoundaryTypeArray@@QEAA@I@Z
??0TsurfaceDirectionArray@@QEAA@I@Z
??0TsurfaceIndex@@QEAA@AEBV0@@Z
??0TsurfaceIndex@@QEAA@II@Z
??0TsurfaceIndex@@QEAA@XZ
??0TsurfaceIndexArray@@QEAA@I@Z
??0TtempDirectoryMgr@@QEAA@AEAH@Z
??0TtempDirectoryMgr@@QEAA@AEBV0@@Z
??0TtemporaryDirectory@@QEAA@AEBV0@@Z
??0TtemporaryDirectory@@QEAA@PEAVTfileErrorReporter@@@Z
??0TthreadCount@@QEAA@XZ
??0TthreadData@@QEAA@AEBV0@@Z
??0TthreadData@@QEAA@N@Z
??0TthreadData@@QEAA@PEAXJ@Z
??0TthreadData@@QEAA@XZ
??0TthreadSubtree@@QEAA@AEBV0@@Z
??0TthreadSubtree@@QEAA@I@Z
??0TthreadTree@@QEAA@AEBV0@@Z
??0TthreadTree@@QEAA@I@Z
??0Ttime@@QEAA@AEBV0@@Z
??0Ttime@@QEAA@HFFFFF@Z
??0Ttime@@QEAA@XZ
??0TtimeRange@@QEAA@AEBV0@@Z
??0TtimeRange@@QEAA@AEBVTanimTime@@0@Z
??0TtimeRange@@QEAA@AEBVTanimTime@@@Z
??0TtimeRange@@QEAA@XZ
??0TtimeRangeArray@@QEAA@I@Z
??0TtimeUnit@@QEAA@AEBV0@@Z
??0TtimeUnit@@QEAA@XZ
??0TtimeValue@@QEAA@AEBVTanimTime@@@Z
??0TtimeValue@@QEAA@M@Z
??0TtimeValue@@QEAA@XZ
??0TtimeValueArray@@QEAA@I@Z
??0TtimeValueArrayPtrArray@@QEAA@I@Z
??0TtimeValuePtrArray@@QEAA@I@Z
??0Ttimer@@AEAA@PEBD@Z
??0Ttimer@@AEAA@XZ
??0Ttolerance@@QEAA@XZ
??0TtoolClipsControlDirectory@@QEAA@AEBV0@@Z
??0TtoolClipsControlDirectory@@QEAA@PEAVTfileErrorReporter@@@Z
??0TtoolClipsDirectory@@QEAA@AEBV0@@Z
??0TtoolClipsDirectory@@QEAA@PEAVTfileErrorReporter@@@Z
??0TtoolClipsResourcesDirectory@@QEAA@AEBV0@@Z
??0TtoolClipsResourcesDirectory@@QEAA@PEAVTfileErrorReporter@@@Z
??0Ttree@@QEAA@AEBV0@@Z
??0Ttree@@QEAA@XZ
??0TtriangleOctree@@QEAA@AEBV0@@Z
??0TtriangleOctree@@QEAA@IAEBVT3dFltPoint@@0I@Z
??0TtriangleOctree@@QEAA@IAEBVT3dFltPoint@@0IIM@Z
??0TtriangleOctreeRayWalker@@QEAA@AEBV0@@Z
??0TtriangleOctreeRayWalker@@QEAA@XZ
??0TtriangleOctreeSphereWalker@@QEAA@AEBV0@@Z
??0TtriangleOctreeSphereWalker@@QEAA@XZ
??0Ttrigger@@QEAA@AEBVTstring@@_N@Z
??0Ttrigger@@QEAA@PEBD_N@Z
??0TtriggerMsg@@QEAA@AEBV0@@Z
??0TtriggerMsg@@QEAA@XZ
??0TtriggerPtrArray@@QEAA@I@Z
??0Ttriple@@QEAA@AEBV0@@Z
??0Ttriple@@QEAA@AEBVT4dDblVector@@@Z
??0Ttriple@@QEAA@NNN@Z
??0Ttriple@@QEAA@XZ
??0Ttuple@@QEAA@NNNN@Z
??0Ttuple@@QEAA@XZ
??0TtypeDictionary@@QEAA@AEBV0@@Z
??0TtypeDictionary@@QEAA@XZ
??0TtypeDictionaryNode@@QEAA@AEBV0@@Z
??0TtypeDictionaryNode@@QEAA@AEBVTcharString@@@Z
??0TtypeDictionaryNode@@QEAA@AEBVTcharString@@AEBQEAVTmetaclass@@@Z
??0TtypeDictionaryNode@@QEAA@XZ
??0TtypeidArray@@QEAA@I@Z
??0TuInt16Array@@QEAA@I@Z
??0TuInt16SortedArray@@QEAA@_NI@Z
??0TuInt32Array@@QEAA@I@Z
??0TuInt32ArrayPtrArray@@QEAA@I@Z
??0TuInt32SortedArray@@QEAA@_NI@Z
??0TuInt64Array@@QEAA@I@Z
??0TuInt64IndexedComponent@@IEAA@XZ
??0TuInt64SortedArray@@QEAA@_NI@Z
??0TuInt8Array@@QEAA@I@Z
??0TuInt8ArrayPtrArray@@QEAA@I@Z
??0TuIntSequence@@QEAA@II@Z
??0TuIntSequence@@QEAA@XZ
??0TundoFile@@QEAA@AEBV0@@Z
??0TundoFile@@QEAA@AEBVTstring@@0II@Z
??0TundoFile@@QEAA@XZ
??0TundoManagerBase@@QEAA@AEBV0@@Z
??0TundoManagerBase@@QEAA@XZ
??0TunimplementedException@@QEAA@AEBV0@@Z
??0TunimplementedException@@QEAA@PEBD@Z
??0TunimplementedException@@QEAA@XZ
??0TuniqueString@@QEAA@AEBV0@@Z
??0TuniqueString@@QEAA@XZ
??0Tunit@@QEAA@AEBV0@@Z
??0Tunit@@QEAA@XZ
??0TunitNames@@QEAA@AEBV0@@Z
??0TunitNames@@QEAA@XZ
??0TunloadingEditTargetsGuard@@QEAA@_N@Z
??0TuserBitmapsDirectory@@QEAA@AEBV0@@Z
??0TuserBitmapsDirectory@@QEAA@PEAVTfileErrorReporter@@@Z
??0TuserHotkeyDirectory@@QEAA@AEBV0@@Z
??0TuserHotkeyDirectory@@QEAA@PEAVTfileErrorReporter@@@Z
??0TuserMarkingMenuDirectory@@QEAA@AEBV0@@Z
??0TuserMarkingMenuDirectory@@QEAA@PEAVTfileErrorReporter@@@Z
??0TuserScriptDirectory@@QEAA@AEBV0@@Z
??0TuserScriptDirectory@@QEAA@PEAVTfileErrorReporter@@@Z
??0TuserShelfDirectory@@QEAA@AEBV0@@Z
??0TuserShelfDirectory@@QEAA@PEAVTfileErrorReporter@@@Z
??0Tuuid@@QEAA@AEBV0@@Z
??0Tuuid@@QEAA@AEBVTstring@@@Z
??0Tuuid@@QEAA@QEBE@Z
??0Tuuid@@QEAA@QEBI@Z
??0Tuuid@@QEAA@XZ
??0TuvPoint@@QEAA@AEBV0@@Z
??0TuvPoint@@QEAA@NN@Z
??0TuvPoint@@QEAA@XZ
??0TuvPointArray@@QEAA@I@Z
??0TvaluesArrayPtrArray@@QEAA@I@Z
??0TvariantArena@@QEAA@AEBV0@@Z
??0TvariantArena@@QEAA@_KIAEAVTallocator@@PEBD_N3@Z
??0TviewCoord@@QEAA@AEBV0@@Z
??0TviewCoord@@QEAA@XZ
??0TviewRegion@@QEAA@XZ
??0TviewRegionArray@@QEAA@I@Z
??0TviewRegionModifiedMsg@@QEAA@AEBV0@@Z
??0TviewRegionModifiedMsg@@QEAA@XZ
??0TvoidPtrArray@@QEAA@I@Z
??0TvoidPtrSortedArray@@QEAA@_NI@Z
??0TvoxelGrid@@QEAA@AEBV0@@Z
??0TvoxelGrid@@QEAA@XZ
??0TvsArgs@@QEAA@XZ
??0Tweight@@QEAA@MM@Z
??0Tweight@@QEAA@XZ
??0TwrapperConnection@@QEAA@AEBV0@@Z
??0TwrapperConnection@@QEAA@XZ
??0TxformMatrix@@QEAA@AEBV0@@Z
??0TxformMatrix@@QEAA@AEBVT4dDblMatrix@@@Z
??0TxformMatrix@@QEAA@XZ
??0TxformMatrixArray@@QEAA@I@Z
??0TxformMatrixPtrArray@@QEAA@I@Z
??0beginIdleRollupT4@@QEAA@AEBV0@@Z
??0beginIdleRollupT4@@QEAA@XZ
??1?$TdataHashTable@IPEAVTmetaclass@@@@UEAA@XZ
??1?$TdataHashTable@PEAVTbdData@@PEAV1@@@UEAA@XZ
??1?$TdataHashTable@PEAXVTstring@@@@UEAA@XZ
??1?$TdataHashTable@VTstring@@H@@UEAA@XZ
??1?$TdataHashTable@VTstring@@PEAVTmetaclass@@@@UEAA@XZ
??1?$TdataHashTable@VTstring@@V1@@@UEAA@XZ
??1?$Toctree@I@@UEAA@XZ
??1?$Toctree@VToctreePoint@@@@UEAA@XZ
??1?$TotNode@I@@UEAA@XZ
??1?$TotNode@VToctreePoint@@@@UEAA@XZ
??1?$TotRayWalker@IVToctreeTriangleIntersection@@@@UEAA@XZ
??1?$TotSphereWalker@I@@UEAA@XZ
??1?$TotSphereWalker@VToctreePoint@@@@UEAA@XZ
??1?$TstateGuard@_N$1?setMatchingEditAttrs@TglobalTranslatorBase@@CAX_N@Z@@QEAA@XZ
??1?$_Tree@V?$_Tmap_traits@V?$basic_string@DU?$char_traits@D@std@@V?$allocator@D@2@@std@@PEAVTresourceElement@@U?$less@V?$basic_string@DU?$char_traits@D@std@@V?$allocator@D@2@@std@@@2@V?$allocator@U?$pair@$$CBV?$basic_string@DU?$char_traits@D@std@@V?$allocator@D@2@@std@@PEAVTresourceElement@@@std@@@2@$0A@@std@@@std@@QEAA@XZ
??1?$_Tree@V?$_Tmap_traits@V?$basic_string@DU?$char_traits@D@std@@V?$allocator@D@2@@std@@PEAVTresourceGroup@@U?$less@V?$basic_string@DU?$char_traits@D@std@@V?$allocator@D@2@@std@@@2@V?$allocator@U?$pair@$$CBV?$basic_string@DU?$char_traits@D@std@@V?$allocator@D@2@@std@@PEAVTresourceGroup@@@std@@@2@$0A@@std@@@std@@QEAA@XZ
??1?$_Tree_alloc@$0A@U?$_Tree_base_types@U?$pair@$$CBV?$basic_string@DU?$char_traits@D@std@@V?$allocator@D@2@@std@@PEAVTresourceElement@@@std@@V?$allocator@U?$pair@$$CBV?$basic_string@DU?$char_traits@D@std@@V?$allocator@D@2@@std@@PEAVTresourceElement@@@std@@@2@@std@@@std@@QEAA@XZ
??1?$_Tree_alloc@$0A@U?$_Tree_base_types@U?$pair@$$CBV?$basic_string@DU?$char_traits@D@std@@V?$allocator@D@2@@std@@PEAVTresourceGroup@@@std@@V?$allocator@U?$pair@$$CBV?$basic_string@DU?$char_traits@D@std@@V?$allocator@D@2@@std@@PEAVTresourceGroup@@@std@@@2@@std@@@std@@QEAA@XZ
??1?$_Tree_buy@U?$pair@$$CBV?$basic_string@DU?$char_traits@D@std@@V?$allocator@D@2@@std@@PEAVTresourceElement@@@std@@V?$allocator@U?$pair@$$CBV?$basic_string@DU?$char_traits@D@std@@V?$allocator@D@2@@std@@PEAVTresourceElement@@@std@@@2@@std@@QEAA@XZ
??1?$_Tree_buy@U?$pair@$$CBV?$basic_string@DU?$char_traits@D@std@@V?$allocator@D@2@@std@@PEAVTresourceGroup@@@std@@V?$allocator@U?$pair@$$CBV?$basic_string@DU?$char_traits@D@std@@V?$allocator@D@2@@std@@PEAVTresourceGroup@@@std@@@2@@std@@QEAA@XZ
??1?$_Tree_comp@$0A@V?$_Tmap_traits@V?$basic_string@DU?$char_traits@D@std@@V?$allocator@D@2@@std@@PEAVTresourceElement@@U?$less@V?$basic_string@DU?$char_traits@D@std@@V?$allocator@D@2@@std@@@2@V?$allocator@U?$pair@$$CBV?$basic_string@DU?$char_traits@D@std@@V?$allocator@D@2@@std@@PEAVTresourceElement@@@std@@@2@$0A@@std@@@std@@QEAA@XZ
??1?$_Tree_comp@$0A@V?$_Tmap_traits@V?$basic_string@DU?$char_traits@D@std@@V?$allocator@D@2@@std@@PEAVTresourceGroup@@U?$less@V?$basic_string@DU?$char_traits@D@std@@V?$allocator@D@2@@std@@@2@V?$allocator@U?$pair@$$CBV?$basic_string@DU?$char_traits@D@std@@V?$allocator@D@2@@std@@PEAVTresourceGroup@@@std@@@2@$0A@@std@@@std@@QEAA@XZ
??1?$basic_fstream@DU?$char_traits@D@std@@@std@@UEAA@XZ
??1?$map@V?$basic_string@DU?$char_traits@D@std@@V?$allocator@D@2@@std@@PEAVTresourceElement@@U?$less@V?$basic_string@DU?$char_traits@D@std@@V?$allocator@D@2@@std@@@2@V?$allocator@U?$pair@$$CBV?$basic_string@DU?$char_traits@D@std@@V?$allocator@D@2@@std@@PEAVTresourceElement@@@std@@@2@@std@@QEAA@XZ
??1?$map@V?$basic_string@DU?$char_traits@D@std@@V?$allocator@D@2@@std@@PEAVTresourceGroup@@U?$less@V?$basic_string@DU?$char_traits@D@std@@V?$allocator@D@2@@std@@@2@V?$allocator@U?$pair@$$CBV?$basic_string@DU?$char_traits@D@std@@V?$allocator@D@2@@std@@PEAVTresourceGroup@@@std@@@2@@std@@QEAA@XZ
??1Iterator@TkeyWordHashTable@@UEAA@XZ
??1Iterator@TptrHashTable@@UEAA@XZ
??1Iterator@TstringKeyHashTable@@UEAA@XZ
??1MObjBase@@AEAA@XZ
??1MObject@@QEAA@XZ
??1MPtrBase@@MEAA@XZ
??1MPxEditData@@UEAA@XZ
??1NameIterator@Tnamespace@@QEAA@XZ
??1T2FloatArray@@UEAA@XZ
??1T2dFfd@@UEAA@XZ
??1T2dIntSequence@@QEAA@XZ
??1T3DoubleArray@@UEAA@XZ
??1T3FloatArray@@UEAA@XZ
??1T3dDblPoint@@QEAA@XZ
??1T3dDblPointArray@@UEAA@XZ
??1T3dDblPointArrayPtrArray@@UEAA@XZ
??1T3dFltPointArray@@UEAA@XZ
??1T3dFltVectorArray@@UEAA@XZ
??1T3dIntSequence@@QEAA@XZ
??1T3floatVoxelGrid@@UEAA@XZ
??1T4dDblMatrix@@QEAA@XZ
??1T4dDblMatrixArray@@UEAA@XZ
??1T4dDblPoint@@QEAA@XZ
??1T4dDblPointArray@@UEAA@XZ
??1T4dDblPointArrayPtrArray@@UEAA@XZ
??1T4dDblVector@@QEAA@XZ
??1T4dDblVectorArray@@UEAA@XZ
??1T4dDblVectorArrayPtrArray@@UEAA@XZ
??1T4dFltMatrixArray@@UEAA@XZ
??1T4dFltPointArray@@UEAA@XZ
??1TCERMetricsRecorder@@QEAA@XZ
??1TCIPClient@@EEAA@XZ
??1TDarray@@UEAA@XZ
??1TMayaEnvironment@@QEAA@XZ
??1TMayaRegNT@@QEAA@XZ
??1TTuInt32Array@@UEAA@XZ
??1TadlmLicenseManager@@UEAA@XZ
??1Talloca@@QEAA@XZ
??1Tallocator@@UEAA@XZ
??1Tangle@@QEAA@XZ
??1TangleUnit@@QEAA@XZ
??1TanimTime@@QEAA@XZ
??1TanimTimeArray@@UEAA@XZ
??1TanimTimeSortedArray@@UEAA@XZ
??1TapiObj@@QEAA@XZ
??1TapiTableKey@@QEAA@XZ
??1TappDirectory@@UEAA@XZ
??1TappLocale@@QEAA@XZ
??1TargList@@UEAA@XZ
??1TargListPtrArray@@UEAA@XZ
??1TargType@@QEAA@XZ
??1TargTypeArray@@UEAA@XZ
??1Tarray@@UEAA@XZ
??1TbaseArena@@UEAA@XZ
??1TbaseLicenseManager@@UEAA@XZ
??1TbaseSyntax@@UEAA@XZ
??1Tbasket@@UEAA@XZ
??1TbatchGlobals@@UEAA@XZ
??1TbdData@@QEAA@XZ
??1TbdDataPtrArray@@QEAA@XZ
??1TbdDataPtrArrayContainer@@UEAA@XZ
??1TbdDataPtrHashTable@@UEAA@XZ
??1TbdInfo@@UEAA@XZ
??1TbdTable@@UEAA@XZ
??1TbdTableProcessorBase@@UEAA@XZ
??1TbitField128@@QEAA@XZ
??1TbitField16@@QEAA@XZ
??1TbitField32@@QEAA@XZ
??1TbitField64@@QEAA@XZ
??1TbitFieldFixedN@@QEAA@XZ
??1TbitFieldN@@QEAA@XZ
??1TbitMatrix@@QEAA@XZ
??1TblendFactor@@UEAA@XZ
??1Tbookmark@@QEAA@XZ
??1TbooleanArray@@UEAA@XZ
??1TbooleanArrayPtrArray@@UEAA@XZ
??1TboundaryValueException@@UEAA@XZ
??1TboundingBox@@QEAA@XZ
??1TboundingSphere@@QEAA@XZ
??1Tbox@@QEAA@XZ
??1TboxTree@@QEAA@XZ
??1TcacheArray@@UEAA@XZ
??1TcharArray@@UEAA@XZ
??1TcharPtrArray@@UEAA@XZ
??1Tclient@@UEAA@XZ
??1TclientCondition@@UEAA@XZ
??1TclientQObjectInterface@@UEAA@XZ
??1TclientServer@@UEAA@XZ
??1Tclock@@UEAA@XZ
??1TcompactArena@@UEAA@XZ
??1TcompactPage@TcompactArena@@QEAA@XZ
??1Tcomponent@@MEAA@XZ
??1TcomponentPtrArray@@UEAA@XZ
??1TcomponentWeights@@MEAA@XZ
??1Tcomputation@@UEAA@XZ
??1Tcondition@@UEAA@XZ
??1TconditionChangedMsg@@UEAA@XZ
??1TconditionOffMsg@@UEAA@XZ
??1TconditionOnMsg@@UEAA@XZ
??1TconstructorClass@@UEAA@XZ
??1TcopyrightUtil@@AEAA@XZ
??1Tcounter@@QEAA@XZ
??1TcounterContext@@AEAA@XZ
??1TcurrentNSAndRelativeNamesGuard@@QEAA@XZ
??1Tdata2Double@@MEAA@XZ
??1Tdata2Float@@MEAA@XZ
??1Tdata2Int16@@MEAA@XZ
??1Tdata2Int32@@MEAA@XZ
??1Tdata3Double@@UEAA@XZ
??1Tdata3Float@@UEAA@XZ
??1Tdata3Int16@@MEAA@XZ
??1Tdata3Int32@@MEAA@XZ
??1Tdata4Double@@UEAA@XZ
??1Tdata@@QEAA@XZ
??1TdataArrayAttrs@@UEAA@XZ
??1TdataBinary@@MEAA@XZ
??1TdataCompound@@MEAA@XZ
??1TdataDoubleArray@@UEAA@XZ
??1TdataFloatArray@@UEAA@XZ
??1TdataFunction@@MEAA@XZ
??1TdataHanger@@QEAA@XZ
??1TdataInt32Array@@UEAA@XZ
??1TdataLetter@@UEAA@XZ
??1TdataLetterCopyManager@@QEAA@XZ
??1TdataMatrix@@MEAA@XZ
??1TdataReflectance@@UEAA@XZ
??1TdataSpectrum@@UEAA@XZ
??1TdataUInt64Array@@UEAA@XZ
??1TdataUnknown@@MEAA@XZ
??1TdataVoidPtr@@MEAA@XZ
??1TdbFlag@@QEAA@XZ
??1TdbOperation@@UEAA@XZ
??1TdbRequireCount@@UEAA@XZ
??1TdbRequireOutput@@UEAA@XZ
??1TdbRequirement@@UEAA@XZ
??1TdbTrace@@UEAA@XZ
??1TdbTraceSection@@QEAA@XZ
??1TdbgCbRegister@@QEAA@XZ
??1TdblPointArray@@UEAA@XZ
??1TdblRect@@QEAA@XZ
??1TdebugOutput@@MEAA@XZ
??1TdebugOutputFile@@MEAA@XZ
??1TdebugOutputString@@MEAA@XZ
??1TdebugOutputTrace@@UEAA@XZ
??1TdebugReporter@@UEAA@XZ
??1TdebugTrace@@QEAA@XZ
??1TdelayedClientServer@@UEAA@XZ
??1TdelayedMsgTypeArray@@UEAA@XZ
??1TdepthBuffer@@UEAA@XZ
??1Tdictionary@@UEAA@XZ
??1TdictionaryNode@@UEAA@XZ
??1TdirIterator@@UEAA@XZ
??1Tdirectory@@UEAA@XZ
??1TdirectoryContentsQuery@@QEAA@XZ
??1TdirectoryPath@@UEAA@XZ
??1TdoubleArray@@UEAA@XZ
??1TdoubleArrayPtrArray@@UEAA@XZ
??1TdoubleIndexLong@@QEAA@XZ
??1TdoubleIndexLongArray@@UEAA@XZ
??1TdoubleIndexedComponent@@MEAA@XZ
??1TdoublePtrArray@@UEAA@XZ
??1TdoubleRange@@QEAA@XZ
??1TdoubleRangeArray@@UEAA@XZ
??1TdoubleSortedArray@@UEAA@XZ
??1TdualQuaternion@@QEAA@XZ
??1TdualQuaternionArray@@UEAA@XZ
??1Tduration@@QEAA@XZ
??1TdynamicLoad@@QEAA@XZ
??1TerrorHandler@@QEAA@XZ
??1Texception@@UEAA@XZ
??1TfailedException@@UEAA@XZ
??1Tfile@@UEAA@XZ
??1TfileErrorReporter@@UEAA@XZ
??1TfileException@@UEAA@XZ
??1TfileManager@@QEAA@XZ
??1TfileName@@UEAA@XZ
??1TfilePath@@UEAA@XZ
??1TfilePathArray@@UEAA@XZ
??1TfilePathList@@UEAA@XZ
??1TfileRequestor@@UEAA@XZ
??1TfileResolverBase@@UEAA@XZ
??1TfileResolverMgrBase@@UEAA@XZ
??1TfileStream@@UEAA@XZ
??1TfileSystemEntity@@UEAA@XZ
??1TfileURI@@QEAA@XZ
??1Tfile_fstream@@UEAA@XZ
??1Tfile_iostream@@UEAA@XZ
??1TfillBackground@@QEAA@XZ
??1TfixedArena@@UEAA@XZ
??1TfloatArray@@UEAA@XZ
??1TfloatArrayPtrArray@@UEAA@XZ
??1TfloatArrayPtrArrayPtrArray@@UEAA@XZ
??1TfloatConstPtrArray@@UEAA@XZ
??1TfloatPtrArray@@UEAA@XZ
??1TfloatRange@@QEAA@XZ
??1TfloatRangeArray@@UEAA@XZ
??1TfloatVoxelGrid@@UEAA@XZ
??1TfltBoundingBox@@UEAA@XZ
??1TfltBoundingSphere@@UEAA@XZ
??1TfltBounds@@UEAA@XZ
??1TfltFrustum@@UEAA@XZ
??1TfltLineArray@@UEAA@XZ
??1TfltLineSegment@@UEAA@XZ
??1TfltNullBounds@@UEAA@XZ
??1TfltPointArray@@UEAA@XZ
??1TfltUnBounded@@UEAA@XZ
??1TflushingSceneGuard@@QEAA@XZ
??1Tfootprint@@QEAA@XZ
??1TfootprintInfo@@QEAA@XZ
??1Tfrustum@@QEAA@XZ
??1Tfunction@@UEAA@XZ
??1TfunctionArgs@@QEAA@XZ
??1TfunctionMapping@@UEAA@XZ
??1TgridIncrement@@QEAA@XZ
??1TgroupedObject@@UEAA@XZ
??1Thammersley2@@QEAA@XZ
??1Thammersley@@QEAA@XZ
??1ThandledException@@UEAA@XZ
??1ThashTable@@UEAA@XZ
??1ThashTableEntry@@UEAA@XZ
??1ThashTableIterator@@MEAA@XZ
??1TheapArena@@UEAA@XZ
??1ThighlightColor@@UEAA@XZ
??1ThwrCallback@@MEAA@XZ
??1TiffFile4@@UEAA@XZ
??1TiffFile8@@UEAA@XZ
??1TiffFile@@UEAA@XZ
??1TiffParserCallback@@UEAA@XZ
??1TiffTable@@UEAA@XZ
??1TiffTag@@QEAA@XZ
??1TiffTagArray@@UEAA@XZ
??1TincompatibleData@@UEAA@XZ
??1TindexArray@@UEAA@XZ
??1TindexDictionary@@UEAA@XZ
??1TindexDictionaryNode@@UEAA@XZ
??1TindexRange@@QEAA@XZ
??1TindexRangeArray@@UEAA@XZ
??1Tint16Array@@UEAA@XZ
??1Tint32Array@@UEAA@XZ
??1Tint32ArrayPtrArray@@UEAA@XZ
??1Tint32SortedArray@@UEAA@XZ
??1Tint64Array@@UEAA@XZ
??1TintSequence@@QEAA@XZ
??1TkeyWordHashTable@@UEAA@XZ
??1TlicenseModifiedMsg@@UEAA@XZ
??1Tline@@UEAA@XZ
??1TlineArray@@UEAA@XZ
??1TlineSegment@@UEAA@XZ
??1Tlinear@@QEAA@XZ
??1TlinearString@@UEAA@XZ
??1TloadingEditTargetsGuard@@QEAA@XZ
??1TlockingManager@@UEAA@XZ
??1TlongDoubleIndexedComponent@@MEAA@XZ
??1TlowLevelReporter@@UEAA@XZ
??1TmallocAllocator@@UEAA@XZ
??1TmatchingEditAttrsGuard@@QEAA@XZ
??1TmaxViewRegionModifiedMsg@@UEAA@XZ
??1TmayaAppInfo@@QEAA@XZ
??1TmemoryAlert@@UEAA@XZ
??1TmemoryException@@UEAA@XZ
??1TmessageCenter@@UEAA@XZ
??1TmetaLetter@@UEAA@XZ
??1Tmetaclass@@QEAA@XZ
??1TmintLicenseManager@@UEAA@XZ
??1TmovieCompressor@@QEAA@XZ
??1TmtBarrier@@QEAA@XZ
??1TmtCompactArena@@UEAA@XZ
??1TmtConditionVar@@QEAA@XZ
??1TmtCriticalSection@@QEAA@XZ
??1TmtMutex@@QEAA@XZ
??1TmtRWMutex@@QEAA@XZ
??1TmtRecursiveCS@@QEAA@XZ
??1TmtRecursiveMutex@@QEAA@XZ
??1TmtSemaphore@@QEAA@XZ
??1TmtSpinCriticalSection@@QEAA@XZ
??1TmtStackArena@@UEAA@XZ
??1TmtTSSCollection@@IEAA@XZ
??1TmtThread@@AEAA@XZ
??1TmtThreadPool@@IEAA@XZ
??1TmtThreadPtrArray@@UEAA@XZ
??1TmtTimedConditionVar@@QEAA@XZ
??1TmtVariantArena@@UEAA@XZ
??1TmultiSharedObject@@MEAA@XZ
??1TnameObject@@UEAA@XZ
??1TnameObjectCollectionIterator@@UEAA@XZ
??1TnameObjectIterator@@QEAA@XZ
??1TnameObjectPtrArray@@UEAA@XZ
??1TnameObjectTypeIterator@@QEAA@XZ
??1TnameString@@QEAA@XZ
??1TnameTable@@UEAA@XZ
??1Tnamespace@@UEAA@XZ
??1TnamespaceIterator@@UEAA@XZ
??1TnamespaceManager@@AEAA@XZ
??1TnamespacePtrArray@@UEAA@XZ
??1TnamespaceRenamedMsg@@UEAA@XZ
??1TnestedTimers@@AEAA@XZ
??1ToDo@@QEAA@XZ
??1TobjArray@@UEAA@XZ
??1TobjArrayTbasketPtr@@UEAA@XZ
??1TobjectGroup@@UEAA@XZ
??1TobjectGroupIdArray@@UEAA@XZ
??1TobjectGroupPtrArray@@UEAA@XZ
??1TobjectStats@@QEAA@XZ
??1ToptionVar@@UEAA@XZ
??1ToptionVarChangedMsg@@UEAA@XZ
??1TosTime@@QEAA@XZ
??1TparseFile@@QEAA@XZ
??1TpixelMap@@UEAA@XZ
??1TpixelMapPtrArray@@UEAA@XZ
??1TplaceHolderNamespaceUtil@@UEAA@XZ
??1Tplane@@UEAA@XZ
??1TpointArray@@UEAA@XZ
??1TpointOctree@@UEAA@XZ
??1TpointOctreeWalker@@UEAA@XZ
??1TpolyBdVertexFaceBase@@UEAA@XZ
??1TpolyMap@@UEAA@XZ
??1TpolyMapArray@@UEAA@XZ
??1TpolyMapArrayShared@@MEAA@XZ
??1TpolyMapShell@@QEAA@XZ
??1TpolyTangentSet@@QEAA@XZ
??1TpolyTangentSetArray@@UEAA@XZ
??1TpolyTangentSetArrayShared@@MEAA@XZ
??1TpoolAllocator@@QEAA@XZ
??1TpoolAllocatorPtrArray@@UEAA@XZ
??1TpoolData@@UEAA@XZ
??1TpoolManager@@UEAA@XZ
??1TportColorArray@@UEAA@XZ
??1TportRect@@UEAA@XZ
??1TprefOptionVars@@UEAA@XZ
??1TpreferenceItem@@UEAA@XZ
??1TpreferenceItemPtrArray@@UEAA@XZ
??1TpreferencesDirectory@@UEAA@XZ
??1TpresetsDirectory@@UEAA@XZ
??1TpriorityQueue@@UEAA@XZ
??1Tprofiler@@QEAA@XZ
??1TprofilerBufferSizeChangedMsg@@UEAA@XZ
??1TprofilerCategoryAddedMsg@@UEAA@XZ
??1TprofilerCategoryRemovedMsg@@UEAA@XZ
??1TprofilerCategoryUpdatedMsg@@UEAA@XZ
??1TprofilerManager@@UEAA@XZ
??1TprofilerRecordingStartedMsg@@UEAA@XZ
??1TprofilerRecordingStoppedMsg@@UEAA@XZ
??1TprofilerResetDataMsg@@UEAA@XZ
??1TprofilerThreadInfo@@AEAA@XZ
??1TprofilingEventHelper@@QEAA@XZ
??1TprogressIndicator@@MEAA@XZ
??1TprojectMgrBase@@UEAA@XZ
??1TprojectsDirectory@@UEAA@XZ
??1TptrHashTable@@UEAA@XZ
??1TptrStringHash@@UEAA@XZ
??1TptrStringHashStack@@UEAA@XZ
??1TpureArena@@UEAA@XZ
??1Tquaternion@@QEAA@XZ
??1TquaternionArray@@UEAA@XZ
??1TquaternionArrayPtrArray@@UEAA@XZ
??1TrectArray@@UEAA@XZ
??1Treflectance@@UEAA@XZ
??1TregExp@@QEAA@XZ
??1TrenderSpectrum@@UEAA@XZ
??1Treporter@@UEAA@XZ
??1TresId@@UEAA@XZ
??1TresourceException@@UEAA@XZ
??1TresourceGroup@@QEAA@XZ
??1TresourceMap@@QEAA@XZ
??1TresourceQuery@@UEAA@XZ
??1TrotateXYZ@@QEAA@XZ
??1TrotateXYZArray@@UEAA@XZ
??1TsafeFileSave@@UEAA@XZ
??1Tscale@@QEAA@XZ
??1TscaleArray@@UEAA@XZ
??1TsearchPath@@QEAA@XZ
??1TsearchPathIterator@@QEAA@XZ
??1TselectedSrfDirectionsArray@@UEAA@XZ
??1TserverCheckMsg@@UEAA@XZ
??1TserverDeletedMsg@@UEAA@XZ
??1TserverModifiedMsg@@UEAA@XZ
??1TserverMsg@@UEAA@XZ
??1TserverMsgPtrList@@QEAA@XZ
??1TshapeAlgebra@@QEAA@XZ
??1TsharedDoubleArray@@MEAA@XZ
??1TsharedFloatArray@@MEAA@XZ
??1TsharedInt32Array@@MEAA@XZ
??1TsharedObject@@UEAA@XZ
??1TsharedPixelMap@@QEAA@XZ
??1TsharedPixelMapArray@@UEAA@XZ
??1TsharedReference@@UEAA@XZ
??1TsharedUInt64Array@@MEAA@XZ
??1Tshear2@@QEAA@XZ
??1Tshear@@QEAA@XZ
??1TsicComplementIterator@@QEAA@XZ
??1TsimpleTess@@UEAA@XZ
??1TsingleIndexedComponent@@MEAA@XZ
??1TsingleIndexedComponentIterator@@UEAA@XZ
??1TsortedArray@@UEAA@XZ
??1TsortedBdDataPtrArray@@UEAA@XZ
??1TsortedObjectGroupIdArray@@UEAA@XZ
??1TsortedStringArray@@UEAA@XZ
??1TspatialGrid@@UEAA@XZ
??1Tspectrum@@UEAA@XZ
??1TsrtComponents@@UEAA@XZ
??1Tstack@@UEAA@XZ
??1TstackArena@@UEAA@XZ
??1TstackTrace@@QEAA@XZ
??1Tstring@@QEAA@XZ
??1TstringArray@@UEAA@XZ
??1TstringCatalog@@QEAA@XZ
??1TstringHashTable@@UEAA@XZ
??1TstringId@@QEAA@XZ
??1TstringIntHashTable@@UEAA@XZ
??1TstringKeyHashTable@@UEAA@XZ
??1TstringPtrArray@@UEAA@XZ
??1Tsubtree@@UEAA@XZ
??1TsurfSelectedBoundaryTypeArray@@UEAA@XZ
??1TsurfaceDirectionArray@@UEAA@XZ
??1TsurfaceIndex@@QEAA@XZ
??1TsurfaceIndexArray@@UEAA@XZ
??1TtempDirectoryMgr@@QEAA@XZ
??1TtemporaryDirectory@@UEAA@XZ
??1TthreadCount@@QEAA@XZ
??1TthreadData@@UEAA@XZ
??1TthreadSubtree@@UEAA@XZ
??1TthreadTree@@UEAA@XZ
??1Ttime@@QEAA@XZ
??1TtimeRange@@QEAA@XZ
??1TtimeRangeArray@@UEAA@XZ
??1TtimeUnit@@QEAA@XZ
??1TtimeValue@@QEAA@XZ
??1TtimeValueArray@@UEAA@XZ
??1TtimeValueArrayPtrArray@@UEAA@XZ
??1TtimeValuePtrArray@@UEAA@XZ
??1Ttimer@@AEAA@XZ
??1Ttolerance@@QEAA@XZ
??1TtoolClipsControlDirectory@@UEAA@XZ
??1TtoolClipsDirectory@@UEAA@XZ
??1TtoolClipsResourcesDirectory@@UEAA@XZ
??1Ttree@@UEAA@XZ
??1TtriangleOctree@@UEAA@XZ
??1TtriangleOctreeRayWalker@@UEAA@XZ
??1TtriangleOctreeSphereWalker@@UEAA@XZ
??1Ttrigger@@UEAA@XZ
??1TtriggerMsg@@UEAA@XZ
??1TtriggerPtrArray@@UEAA@XZ
??1Ttriple@@QEAA@XZ
??1TtypeDictionary@@UEAA@XZ
??1TtypeDictionaryNode@@UEAA@XZ
??1TtypeidArray@@UEAA@XZ
??1TuInt16Array@@UEAA@XZ
??1TuInt16SortedArray@@UEAA@XZ
??1TuInt32Array@@UEAA@XZ
??1TuInt32ArrayPtrArray@@UEAA@XZ
??1TuInt32SortedArray@@UEAA@XZ
??1TuInt64Array@@UEAA@XZ
??1TuInt64IndexedComponent@@MEAA@XZ
??1TuInt64SortedArray@@UEAA@XZ
??1TuInt8Array@@UEAA@XZ
??1TuInt8ArrayPtrArray@@UEAA@XZ
??1TuIntSequence@@QEAA@XZ
??1TundoFile@@QEAA@XZ
??1TundoManagerBase@@UEAA@XZ
??1TunimplementedException@@UEAA@XZ
??1TuniqueString@@QEAA@XZ
??1Tunit@@QEAA@XZ
??1TunitNames@@UEAA@XZ
??1TunloadingEditTargetsGuard@@QEAA@XZ
??1TuserBitmapsDirectory@@UEAA@XZ
??1TuserHotkeyDirectory@@UEAA@XZ
??1TuserMarkingMenuDirectory@@UEAA@XZ
??1TuserScriptDirectory@@UEAA@XZ
??1TuserShelfDirectory@@UEAA@XZ
??1TuvPoint@@QEAA@XZ
??1TuvPointArray@@UEAA@XZ
??1TvaluesArrayPtrArray@@UEAA@XZ
??1TvariantArena@@UEAA@XZ
??1TviewCoord@@UEAA@XZ
??1TviewRegion@@UEAA@XZ
??1TviewRegionArray@@UEAA@XZ
??1TviewRegionModifiedMsg@@UEAA@XZ
??1TvoidPtrArray@@UEAA@XZ
??1TvoidPtrSortedArray@@UEAA@XZ
??1TvoxelGrid@@UEAA@XZ
??1TvsArgs@@QEAA@XZ
??1TwrapperConnection@@UEAA@XZ
??1TxformMatrix@@UEAA@XZ
??1TxformMatrixArray@@UEAA@XZ
??1TxformMatrixPtrArray@@UEAA@XZ
??1beginIdleRollupT4@@MEAA@XZ
??2?$Toctree@I@@SAPEAX_K@Z
??2?$Toctree@VToctreePoint@@@@SAPEAX_K@Z
??2?$TotNode@I@@SAPEAX_KAEAVTstackArena@@@Z
??2?$TotNode@VToctreePoint@@@@SAPEAX_KAEAVTstackArena@@@Z
??2TmultiSharedObject@@CAPEAX_K@Z
??2TmultiSharedObject@@CAPEAX_KPEAX@Z
??2TpolyMapArrayShared@@SAPEAX_K@Z
??2TpolyTangentSetArrayShared@@SAPEAX_K@Z
??2TsharedObject@@SAPEAX_K@Z
??3?$Toctree@I@@SAXPEAX@Z
??3?$Toctree@VToctreePoint@@@@SAXPEAX@Z
??3?$TotNode@I@@SAXPEAX@Z
??3?$TotNode@I@@SAXPEAXAEAVTstackArena@@@Z
??3?$TotNode@VToctreePoint@@@@SAXPEAX@Z
??3?$TotNode@VToctreePoint@@@@SAXPEAXAEAVTstackArena@@@Z
??3TmultiSharedObject@@SAXPEAX@Z
??3TpolyMapArrayShared@@SAXPEAX@Z
??3TpolyTangentSetArrayShared@@SAXPEAX@Z
??3TsharedObject@@SAXPEAX@Z
??4?$TdataHashTable@IPEAVTmetaclass@@@@QEAAAEAV0@AEBV0@@Z
??4?$TdataHashTable@PEAVTbdData@@PEAV1@@@QEAAAEAV0@AEBV0@@Z
??4?$TdataHashTable@PEAXVTstring@@@@QEAAAEAV0@AEBV0@@Z
??4?$TdataHashTable@VTstring@@H@@QEAAAEAV0@AEBV0@@Z
??4?$TdataHashTable@VTstring@@PEAVTmetaclass@@@@QEAAAEAV0@AEBV0@@Z
??4?$TdataHashTable@VTstring@@V1@@@QEAAAEAV0@AEBV0@@Z
??4?$TotNode@I@@QEAAAEAV0@AEBV0@@Z
??4?$TotNode@VToctreePoint@@@@QEAAAEAV0@AEBV0@@Z
??4?$TotRayWalker@IVToctreeTriangleIntersection@@@@QEAAAEAV0@AEBV0@@Z
??4?$TotSphereWalker@I@@QEAAAEAV0@AEBV0@@Z
??4?$TotSphereWalker@VToctreePoint@@@@QEAAAEAV0@AEBV0@@Z
??4?$_Tree@V?$_Tmap_traits@V?$basic_string@DU?$char_traits@D@std@@V?$allocator@D@2@@std@@PEAVTresourceElement@@U?$less@V?$basic_string@DU?$char_traits@D@std@@V?$allocator@D@2@@std@@@2@V?$allocator@U?$pair@$$CBV?$basic_string@DU?$char_traits@D@std@@V?$allocator@D@2@@std@@PEAVTresourceElement@@@std@@@2@$0A@@std@@@std@@QEAAAEAV01@$$QEAV01@@Z
??4?$_Tree@V?$_Tmap_traits@V?$basic_string@DU?$char_traits@D@std@@V?$allocator@D@2@@std@@PEAVTresourceElement@@U?$less@V?$basic_string@DU?$char_traits@D@std@@V?$allocator@D@2@@std@@@2@V?$allocator@U?$pair@$$CBV?$basic_string@DU?$char_traits@D@std@@V?$allocator@D@2@@std@@PEAVTresourceElement@@@std@@@2@$0A@@std@@@std@@QEAAAEAV01@AEBV01@@Z
??4?$_Tree@V?$_Tmap_traits@V?$basic_string@DU?$char_traits@D@std@@V?$allocator@D@2@@std@@PEAVTresourceGroup@@U?$less@V?$basic_string@DU?$char_traits@D@std@@V?$allocator@D@2@@std@@@2@V?$allocator@U?$pair@$$CBV?$basic_string@DU?$char_traits@D@std@@V?$allocator@D@2@@std@@PEAVTresourceGroup@@@std@@@2@$0A@@std@@@std@@QEAAAEAV01@$$QEAV01@@Z
??4?$_Tree@V?$_Tmap_traits@V?$basic_string@DU?$char_traits@D@std@@V?$allocator@D@2@@std@@PEAVTresourceGroup@@U?$less@V?$basic_string@DU?$char_traits@D@std@@V?$allocator@D@2@@std@@@2@V?$allocator@U?$pair@$$CBV?$basic_string@DU?$char_traits@D@std@@V?$allocator@D@2@@std@@PEAVTresourceGroup@@@std@@@2@$0A@@std@@@std@@QEAAAEAV01@AEBV01@@Z
??4?$_Tree_alloc@$0A@U?$_Tree_base_types@U?$pair@$$CBV?$basic_string@DU?$char_traits@D@std@@V?$allocator@D@2@@std@@PEAVTresourceElement@@@std@@V?$allocator@U?$pair@$$CBV?$basic_string@DU?$char_traits@D@std@@V?$allocator@D@2@@std@@PEAVTresourceElement@@@std@@@2@@std@@@std@@QEAAAEAV01@AEBV01@@Z
??4?$_Tree_alloc@$0A@U?$_Tree_base_types@U?$pair@$$CBV?$basic_string@DU?$char_traits@D@std@@V?$allocator@D@2@@std@@PEAVTresourceGroup@@@std@@V?$allocator@U?$pair@$$CBV?$basic_string@DU?$char_traits@D@std@@V?$allocator@D@2@@std@@PEAVTresourceGroup@@@std@@@2@@std@@@std@@QEAAAEAV01@AEBV01@@Z
??4?$_Tree_buy@U?$pair@$$CBV?$basic_string@DU?$char_traits@D@std@@V?$allocator@D@2@@std@@PEAVTresourceElement@@@std@@V?$allocator@U?$pair@$$CBV?$basic_string@DU?$char_traits@D@std@@V?$allocator@D@2@@std@@PEAVTresourceElement@@@std@@@2@@std@@QEAAAEAV01@AEBV01@@Z
??4?$_Tree_buy@U?$pair@$$CBV?$basic_string@DU?$char_traits@D@std@@V?$allocator@D@2@@std@@PEAVTresourceGroup@@@std@@V?$allocator@U?$pair@$$CBV?$basic_string@DU?$char_traits@D@std@@V?$allocator@D@2@@std@@PEAVTresourceGroup@@@std@@@2@@std@@QEAAAEAV01@AEBV01@@Z
??4?$_Tree_comp@$0A@V?$_Tmap_traits@V?$basic_string@DU?$char_traits@D@std@@V?$allocator@D@2@@std@@PEAVTresourceElement@@U?$less@V?$basic_string@DU?$char_traits@D@std@@V?$allocator@D@2@@std@@@2@V?$allocator@U?$pair@$$CBV?$basic_string@DU?$char_traits@D@std@@V?$allocator@D@2@@std@@PEAVTresourceElement@@@std@@@2@$0A@@std@@@std@@QEAAAEAV01@AEBV01@@Z
??4?$_Tree_comp@$0A@V?$_Tmap_traits@V?$basic_string@DU?$char_traits@D@std@@V?$allocator@D@2@@std@@PEAVTresourceGroup@@U?$less@V?$basic_string@DU?$char_traits@D@std@@V?$allocator@D@2@@std@@@2@V?$allocator@U?$pair@$$CBV?$basic_string@DU?$char_traits@D@std@@V?$allocator@D@2@@std@@PEAVTresourceGroup@@@std@@@2@$0A@@std@@@std@@QEAAAEAV01@AEBV01@@Z
??4?$_Tree_val@U?$_Tree_simple_types@U?$pair@$$CBV?$basic_string@DU?$char_traits@D@std@@V?$allocator@D@2@@std@@PEAVTresourceElement@@@std@@@std@@@std@@QEAAAEAV01@AEBV01@@Z
??4?$_Tree_val@U?$_Tree_simple_types@U?$pair@$$CBV?$basic_string@DU?$char_traits@D@std@@V?$allocator@D@2@@std@@PEAVTresourceGroup@@@std@@@std@@@std@@QEAAAEAV01@AEBV01@@Z
??4?$basic_fstream@DU?$char_traits@D@std@@@std@@QEAAAEAV01@$$QEAV01@@Z
??4?$map@V?$basic_string@DU?$char_traits@D@std@@V?$allocator@D@2@@std@@PEAVTresourceElement@@U?$less@V?$basic_string@DU?$char_traits@D@std@@V?$allocator@D@2@@std@@@2@V?$allocator@U?$pair@$$CBV?$basic_string@DU?$char_traits@D@std@@V?$allocator@D@2@@std@@PEAVTresourceElement@@@std@@@2@@std@@QEAAAEAV01@$$QEAV01@@Z
??4?$map@V?$basic_string@DU?$char_traits@D@std@@V?$allocator@D@2@@std@@PEAVTresourceElement@@U?$less@V?$basic_string@DU?$char_traits@D@std@@V?$allocator@D@2@@std@@@2@V?$allocator@U?$pair@$$CBV?$basic_string@DU?$char_traits@D@std@@V?$allocator@D@2@@std@@PEAVTresourceElement@@@std@@@2@@std@@QEAAAEAV01@AEBV01@@Z
??4?$map@V?$basic_string@DU?$char_traits@D@std@@V?$allocator@D@2@@std@@PEAVTresourceGroup@@U?$less@V?$basic_string@DU?$char_traits@D@std@@V?$allocator@D@2@@std@@@2@V?$allocator@U?$pair@$$CBV?$basic_string@DU?$char_traits@D@std@@V?$allocator@D@2@@std@@PEAVTresourceGroup@@@std@@@2@@std@@QEAAAEAV01@$$QEAV01@@Z
??4?$map@V?$basic_string@DU?$char_traits@D@std@@V?$allocator@D@2@@std@@PEAVTresourceGroup@@U?$less@V?$basic_string@DU?$char_traits@D@std@@V?$allocator@D@2@@std@@@2@V?$allocator@U?$pair@$$CBV?$basic_string@DU?$char_traits@D@std@@V?$allocator@D@2@@std@@PEAVTresourceGroup@@@std@@@2@@std@@QEAAAEAV01@AEBV01@@Z
??4DBErrorStream@@QEAAAEAV0@AEBV0@@Z
??4MFn@@QEAAAEAV0@AEBV0@@Z
??4MObjBase@@QEAAAEAV0@AEBV0@@Z
??4MObject@@QEAAAEAV0@AEBV0@@Z
??4MPtrBase@@QEAAAEAV0@AEBV0@@Z
??4MPxEditData@@QEAAAEAV0@AEBV0@@Z
??4NameIterator@Tnamespace@@QEAAAEAV01@AEBV01@@Z
??4T2dFfd@@QEAAAEAV0@AEBV0@@Z
??4T2dFltPoint@@QEAAAEAV0@AEBV0@@Z
??4T2dFltVector@@QEAAAEAV0@AEBV0@@Z
??4T2dFltVector@@QEAAAEAV0@AEBVT4dFltMatrix@@@Z
??4T2dIntSequence@@QEAAAEAV0@AEBV0@@Z
??4T3dDblPoint@@QEAAAEAV0@AEBV0@@Z
??4T3dFltPoint@@QEAAAEAV0@AEBV0@@Z
??4T3dFltVector@@QEAAAEAV0@AEBV0@@Z
??4T3dFltVector@@QEAAAEAV0@AEBVT4dFltMatrix@@@Z
??4T3dIntSequence@@QEAAAEAV0@AEBV0@@Z
??4T3floatVoxelGrid@@QEAAAEAV0@AEBV0@@Z
??4T4dDblMatrix@@QEAAAEAV0@AEBV0@@Z
??4T4dDblPoint@@QEAAAEAV0@AEBV0@@Z
??4T4dDblVector@@QEAAAEAV0@AEBV0@@Z
??4T4dDblVector@@QEAAAEAV0@AEBVT4dDblMatrix@@@Z
??4T4dFltMatrix@@QEAAAEAV0@AEBV0@@Z
??4T4dFltMatrix@@QEAAAEAV0@AEBVT4dDblMatrix@@@Z
??4T4dFltPoint@@QEAAAEAV0@AEBV0@@Z
??4TCERMetricsRecorder@@QEAAAEAV0@AEBV0@@Z
??4TCIPClient@@QEAAAEAV0@AEBV0@@Z
??4TCIPState@@QEAAAEAV0@AEBV0@@Z
??4TCIPWaypoint@@QEAAAEAV0@AEBV0@@Z
??4TMayaEnvironment@@QEAAAEAV0@AEBV0@@Z
??4TMayaRegNT@@QEAAAEAV0@AEBV0@@Z
??4TadlmLicenseManager@@QEAAAEAV0@AEBV0@@Z
??4Tallocator@@QEAAAEAV0@AEBV0@@Z
??4Tangle@@QEAAAEAV0@AEBV0@@Z
??4TangleUnit@@QEAAAEAV0@AEBV0@@Z
??4TanimTime@@QEAAAEAV0@AEBV0@@Z
??4TapiObj@@QEAAAEAV0@AEBV0@@Z
??4TapiTableKey@@QEAAAEAV0@AEBV0@@Z
??4TappDirectory@@QEAAAEAV0@AEBV0@@Z
??4TappLocale@@QEAAAEAV0@AEBV0@@Z
??4TargList@@QEAAAEAV0@AEBV0@@Z
??4TargType@@QEAAAEAV0@AEBV0@@Z
??4TassertAlert@@QEAAAEAV0@AEBV0@@Z
??4TbaseLicenseManager@@QEAAAEAV0@AEBV0@@Z
??4TbaseSyntax@@QEAAAEAV0@AEBV0@@Z
??4Tbasket@@QEAAAEAV0@AEBV0@@Z
??4TbatchGlobals@@QEAAAEAV0@AEBV0@@Z
??4TbdData@@QEAAAEAV0@AEBV0@@Z
??4TbdDataPtrHashTable@@QEAAAEAV0@AEBV0@@Z
??4TbdInfo@@QEAAAEAV0@AEBV0@@Z
??4TbdTable@@QEAAAEAV0@AEBV0@@Z
??4TbdTableProcessorBase@@QEAAAEAV0@AEBV0@@Z
??4TbitField128@@QEAAAEAV0@AEBV0@@Z
??4TbitField16@@QEAAAEAV0@AEBV0@@Z
??4TbitField32@@QEAAAEAV0@AEBV0@@Z
??4TbitField64@@QEAAAEAV0@AEBV0@@Z
??4TbitFieldFixedN@@QEAAAEAV0@AEBV0@@Z
??4TbitFieldN@@QEAAAEAV0@AEBV0@@Z
??4TbitMatrix@@QEAAAEAV0@AEBV0@@Z
??4TblendFactor@@QEAAAEAV0@AEBV0@@Z
??4Tbookmark@@QEAAAEAV0@AEBV0@@Z
??4TboundaryValueException@@QEAAAEAV0@AEBV0@@Z
??4TboundingBox@@QEAAAEAV0@AEBV0@@Z
??4TboundingSphere@@QEAAAEAV0@AEBV0@@Z
??4Tbox@@QEAAAEAV0@AEBV0@@Z
??4TboxTree@@QEAAAEAV0@AEBV0@@Z
??4TcharString@@QEAAPEBDAEBV0@@Z
??4TcharString@@QEAAPEBDPEBD@Z
??4Tclient@@QEAAAEAV0@AEBV0@@Z
??4TclientCondition@@QEAAAEAV0@AEBV0@@Z
??4TclientServer@@QEAAAEAV0@AEBV0@@Z
??4TclientTypes@@QEAAAEAV0@AEBV0@@Z
??4Tclock@@QEAAAEAV0@AEBV0@@Z
??4TcompactPage@TcompactArena@@QEAAAEAV01@AEBV01@@Z
??4Tcomponent@@AEAAXAEBV0@@Z
??4Tcomputation@@QEAAAEAV0@AEBV0@@Z
??4Tcondition@@QEAAAEAV0@AEBV0@@Z
??4Tcondition@@QEAA_N_N@Z
??4TconditionChangedMsg@@QEAAAEAV0@AEBV0@@Z
??4TconditionOffMsg@@QEAAAEAV0@AEBV0@@Z
??4TconditionOnMsg@@QEAAAEAV0@AEBV0@@Z
??4TconstructorClass@@QEAAAEAV0@AEBV0@@Z
??4TcopyrightUtil@@QEAAAEAV0@AEBV0@@Z
??4Tcounter@@AEAAAEAV0@AEBV0@@Z
??4TcounterContext@@AEAAAEAV0@AEBV0@@Z
??4TcpuFeatures@@QEAAAEAV0@AEBV0@@Z
??4Tdata2Double@@QEAAAEAV0@AEBV0@@Z
??4Tdata2Double@@QEAAAEAV0@AEBVTdata@@@Z
??4Tdata2Double@@QEAAAEAV0@AEBVTdataLetter@@@Z
??4Tdata2Float@@QEAAAEAV0@AEBV0@@Z
??4Tdata2Float@@QEAAAEAV0@AEBVTdata@@@Z
??4Tdata2Float@@QEAAAEAV0@AEBVTdataLetter@@@Z
??4Tdata2Int16@@QEAAAEAV0@AEBV0@@Z
??4Tdata2Int16@@QEAAAEAV0@AEBVTdata@@@Z
??4Tdata2Int16@@QEAAAEAV0@AEBVTdataLetter@@@Z
??4Tdata2Int32@@QEAAAEAV0@AEBV0@@Z
??4Tdata2Int32@@QEAAAEAV0@AEBVTdata@@@Z
??4Tdata2Int32@@QEAAAEAV0@AEBVTdataLetter@@@Z
??4Tdata3Double@@QEAAAEAV0@AEBV0@@Z
??4Tdata3Double@@QEAAAEAV0@AEBVTdata@@@Z
??4Tdata3Double@@QEAAAEAV0@AEBVTdataLetter@@@Z
??4Tdata3Float@@QEAAAEAV0@AEBV0@@Z
??4Tdata3Float@@QEAAAEAV0@AEBVTdata@@@Z
??4Tdata3Float@@QEAAAEAV0@AEBVTdataLetter@@@Z
??4Tdata3Int16@@QEAAAEAV0@AEBV0@@Z
??4Tdata3Int16@@QEAAAEAV0@AEBVTdata@@@Z
??4Tdata3Int16@@QEAAAEAV0@AEBVTdataLetter@@@Z
??4Tdata3Int32@@QEAAAEAV0@AEBV0@@Z
??4Tdata3Int32@@QEAAAEAV0@AEBVTdata@@@Z
??4Tdata3Int32@@QEAAAEAV0@AEBVTdataLetter@@@Z
??4Tdata4Double@@QEAAAEAV0@AEBV0@@Z
??4Tdata4Double@@QEAAAEAV0@AEBVTdata@@@Z
??4Tdata4Double@@QEAAAEAV0@AEBVTdataLetter@@@Z
??4Tdata@@QEAAAEAV0@AEBV0@@Z
??4Tdata@@QEAAAEAV0@AEBVTdataLetter@@@Z
??4Tdata@@QEAAAEAV0@F@Z
??4Tdata@@QEAAAEAV0@H@Z
??4Tdata@@QEAAAEAV0@I@Z
??4Tdata@@QEAAAEAV0@N@Z
??4Tdata@@QEAAAEAV0@PEAVTdataLetter@@@Z
??4Tdata@@QEAAAEAV0@PEAX@Z
??4Tdata@@QEAAAEAV0@VTanimTime@@@Z
??4Tdata@@QEAAAEAV0@_J@Z
??4Tdata@@QEAAAEAV0@_N@Z
??4TdataArrayAttrs@@QEAAAEAV0@AEBV0@@Z
??4TdataArrayAttrs@@QEAAAEAV0@AEBVTdata@@@Z
??4TdataArrayAttrs@@QEAAAEAV0@AEBVTdataLetter@@@Z
??4TdataBinary@@QEAAAEAV0@AEBV0@@Z
??4TdataBinary@@QEAAAEAV0@AEBVTdata@@@Z
??4TdataBinary@@QEAAAEAV0@AEBVTdataLetter@@@Z
??4TdataCompound@@QEAAAEAV0@AEBV0@@Z
??4TdataCompound@@QEAAAEAV0@AEBVTdata@@@Z
??4TdataCompound@@QEAAAEAV0@AEBVTdataLetter@@@Z
??4TdataDoubleArray@@QEAAAEAV0@AEBV0@@Z
??4TdataDoubleArray@@QEAAAEAV0@AEBVTdata@@@Z
??4TdataDoubleArray@@QEAAAEAV0@AEBVTdataLetter@@@Z
??4TdataFloatArray@@QEAAAEAV0@AEBV0@@Z
??4TdataFloatArray@@QEAAAEAV0@AEBVTdata@@@Z
??4TdataFloatArray@@QEAAAEAV0@AEBVTdataLetter@@@Z
??4TdataFunction@@QEAAAEAV0@AEBV0@@Z
??4TdataFunction@@QEAAAEAV0@AEBVTdata@@@Z
??4TdataFunction@@QEAAAEAV0@AEBVTdataLetter@@@Z
??4TdataFunction@@QEAAAEAV0@AEBVTfunction@@@Z
??4TdataHanger@@QEAAAEAV0@AEBV0@@Z
??4TdataInt32Array@@QEAAAEAV0@AEBV0@@Z
??4TdataInt32Array@@QEAAAEAV0@AEBVTdata@@@Z
??4TdataInt32Array@@QEAAAEAV0@AEBVTdataLetter@@@Z
??4TdataLetter@@QEAAAEAV0@AEBV0@@Z
??4TdataLetter@@QEAAAEAV0@AEBVTdata@@@Z
??4TdataLetterCopyManager@@QEAAAEAV0@AEBV0@@Z
??4TdataMatrix@@QEAAAEAV0@AEBV0@@Z
??4TdataMatrix@@QEAAAEAV0@AEBVT4dDblMatrix@@@Z
??4TdataMatrix@@QEAAAEAV0@AEBVTdata@@@Z
??4TdataMatrix@@QEAAAEAV0@AEBVTdataLetter@@@Z
??4TdataMatrix@@QEAAAEAV0@AEBVTxformMatrix@@@Z
??4TdataMatrix@@QEAAAEAV0@N@Z
??4TdataReflectance@@QEAAAEAV0@AEBV0@@Z
??4TdataReflectance@@QEAAAEAV0@AEBVTdata@@@Z
??4TdataReflectance@@QEAAAEAV0@AEBVTdataLetter@@@Z
??4TdataSpectrum@@QEAAAEAV0@AEBV0@@Z
??4TdataSpectrum@@QEAAAEAV0@AEBVTdata@@@Z
??4TdataSpectrum@@QEAAAEAV0@AEBVTdataLetter@@@Z
??4TdataUInt64Array@@QEAAAEAV0@AEBV0@@Z
??4TdataUInt64Array@@QEAAAEAV0@AEBVTdata@@@Z
??4TdataUInt64Array@@QEAAAEAV0@AEBVTdataLetter@@@Z
??4TdataUnknown@@QEAAAEAV0@AEBV0@@Z
??4TdataUnknown@@QEAAAEAV0@AEBVTdata@@@Z
??4TdataUnknown@@QEAAAEAV0@AEBVTdataLetter@@@Z
??4TdataVoidPtr@@QEAAAEAV0@AEBV0@@Z
??4TdataVoidPtr@@QEAAAEAV0@AEBVTdata@@@Z
??4TdataVoidPtr@@QEAAAEAV0@AEBVTdataLetter@@@Z
??4TdbFlag@@AEAAAEAV0@AEBV0@@Z
??4TdbOperation@@QEAAAEAV0@AEBV0@@Z
??4TdbRequireCount@@QEAAAEAV0@AEBV0@@Z
??4TdbRequireOutput@@QEAAAEAV0@AEBV0@@Z
??4TdbRequirement@@QEAAAEAV0@AEBV0@@Z
??4TdbgCbRegister@@QEAAAEAV0@AEBV0@@Z
??4TdblPoint@@QEAAAEAV0@AEBV0@@Z
??4TdblRect@@QEAAAEAV0@AEBV0@@Z
??4TdebugTrace@@QEAAAEAV0@AEBV0@@Z
??4TdebugVariable@@QEAAAEAV0@AEBV0@@Z
??4TdelayedClientServer@@QEAAAEAV0@AEBV0@@Z
??4TdelayedMsgType@@QEAAAEAV0@AEBV0@@Z
??4TdepthBuffer@@QEAAAEAV0@AEBV0@@Z
??4Tdictionary@@QEAAAEAV0@AEBV0@@Z
??4TdictionaryNode@@QEAAAEAV0@AEBV0@@Z
??4TdirIterator@@QEAAAEAV0@AEBV0@@Z
??4Tdirectory@@QEAAAEAV0@AEBV0@@Z
??4TdirectoryContentsQuery@@QEAAAEAV0@AEBV0@@Z
??4TdirectoryPath@@QEAAAEAV0@AEBV0@@Z
??4TdoubleIndexLong@@QEAAAEAV0@AEBV0@@Z
??4TdoubleRange@@QEAAAEAV0@AEBV0@@Z
??4TdualQuaternion@@QEAAAEAV0@AEBV0@@Z
??4Tduration@@QEAAAEAV0@AEBV0@@Z
??4TdynamicLoad@@QEAAAEAV0@AEBV0@@Z
??4TdynamicLoadManager@@QEAAAEAV0@AEBV0@@Z
??4TenvironmentVariable@@QEAAAEAV0@AEBV0@@Z
??4TerrorHandler@@QEAAAEAV0@AEBV0@@Z
??4Texception@@QEAAAEAV0@AEBV0@@Z
??4TfailedException@@QEAAAEAV0@AEBV0@@Z
??4Tfile@@QEAAAEAV0@AEBV0@@Z
??4TfileErrorReporter@@QEAAAEAV0@AEBV0@@Z
??4TfileException@@QEAAAEAV0@AEBV0@@Z
??4TfileName@@QEAAAEAV0@AEBV0@@Z
??4TfilePath@@QEAAAEAV0@AEBV0@@Z
??4TfilePath@@QEAAAEAV0@AEBVTstring@@@Z
??4TfilePath@@QEAAAEAV0@PEBD@Z
??4TfileRequestor@@QEAAAEAV0@AEBV0@@Z
??4TfileResolverBase@@QEAAAEAV0@AEBV0@@Z
??4TfileResolverMgrBase@@QEAAAEAV0@AEBV0@@Z
??4TfileSystemEntity@@QEAAXAEBV0@@Z
??4TfileURI@@QEAAAEAV0@AEBV0@@Z
??4TfileURI@@QEAAAEAV0@AEBVTstring@@@Z
??4Tfile_iostream@@QEAAAEAV0@AEBV0@@Z
??4TfillBackground@@QEAAAEAV0@AEBV0@@Z
??4TfloatRange@@QEAAAEAV0@AEBV0@@Z
??4TfloatVoxelGrid@@QEAAAEAV0@AEBV0@@Z
??4TfltBoundingBox@@QEAAAEAV0@AEBV0@@Z
??4TfltBoundingBox@@QEAAAEAV0@AEBVTfltBox@@@Z
??4TfltBoundingSphere@@QEAAAEAV0@AEBV0@@Z
??4TfltBounds@@QEAAAEAV0@AEBV0@@Z
??4TfltBox@@QEAAAEAV0@AEBV0@@Z
??4TfltFrustum@@QEAAAEAV0@AEBV0@@Z
??4TfltInterval@@QEAAAEAV0@AEBVTinterval@@@Z
??4TfltInterval@@QEAAAEAV0@V0@@Z
??4TfltLine@@QEAAAEAV0@AEBV0@@Z
??4TfltLineSegment@@QEAAAEAV0@AEBV0@@Z
??4TfltNullBounds@@QEAAAEAV0@AEBV0@@Z
??4TfltPlane@@QEAAAEAV0@AEBV0@@Z
??4TfltPoint@@QEAAAEAV0@AEBV0@@Z
??4TfltTuple@@QEAAAEAV0@AEBV0@@Z
??4TfltUnBounded@@QEAAAEAV0@AEBV0@@Z
??4Tfootprint@@QEAAAEAV0@AEBV0@@Z
??4TfootprintInfo@@QEAAAEAV0@AEBV0@@Z
??4TformatUtils@@QEAAAEAV0@AEBV0@@Z
??4Tfrustum@@QEAAAEAV0@AEBV0@@Z
??4Tfunction@@QEAAAEAV0@AEBV0@@Z
??4TglobalPrefMgr@@QEAAAEAV0@AEBV0@@Z
??4TglobalTimer@@QEAAAEAV0@AEBV0@@Z
??4TglobalTranslatorBase@@QEAAAEAV0@AEBV0@@Z
??4TgridIncrement@@QEAAAEAV0@AEBV0@@Z
??4TgroupedObject@@QEAAAEAV0@AEBV0@@Z
??4Thammersley2@@QEAAAEAV0@AEBV0@@Z
??4Thammersley@@QEAAAEAV0@AEBV0@@Z
??4ThandledException@@QEAAAEAV0@AEBV0@@Z
??4ThashTable@@QEAAAEAV0@AEBV0@@Z
??4ThashTableEntry@@QEAAAEAV0@AEBV0@@Z
??4ThashUtil@@QEAAAEAV0@AEBV0@@Z
??4ThighlightColor@@QEAAAEAV0@AEBV0@@Z
??4ThwrCallback@@QEAAAEAV0@AEBV0@@Z
??4TiffFile4@@QEAAAEAV0@AEBV0@@Z
??4TiffFile8@@QEAAAEAV0@AEBV0@@Z
??4TiffFile@@QEAAAEAV0@AEBV0@@Z
??4TiffParserCallback@@QEAAAEAV0@AEBV0@@Z
??4TiffTable@@QEAAAEAV0@AEBV0@@Z
??4TiffTag@@QEAAAEAV0@AEBV0@@Z
??4TincompatibleData@@QEAAAEAV0@AEBV0@@Z
??4TincorrectNameSet@@QEAAAEAV0@AEBV0@@Z
??4TindexDictionary@@QEAAAEAV0@AEBV0@@Z
??4TindexDictionaryNode@@QEAAAEAV0@AEBV0@@Z
??4TindexRange@@QEAAAEAV0@AEBV0@@Z
??4TinitBasket@@QEAAAEAV0@AEBV0@@Z
??4TintSequence@@QEAAAEAV0@AEBV0@@Z
??4TinternalPluginHelper@@QEAAAEAV0@AEBV0@@Z
??4TkeyWordHashTable@@QEAAAEAV0@AEBV0@@Z
??4TlicenseModifiedMsg@@QEAAAEAV0@AEBV0@@Z
??4Tline@@QEAAAEAV0@AEBV0@@Z
??4TlineSegment@@QEAAAEAV0@AEBV0@@Z
??4Tlinear@@QEAAAEAV0@AEBV0@@Z
??4TlinearString@@QEAAAEAV0@AEBV0@@Z
??4TlockingManager@@QEAAAEAV0@AEBV0@@Z
??4TlowLevelReporter@@QEAAAEAV0@AEBV0@@Z
??4TmallocAllocator@@QEAAAEAV0@AEBV0@@Z
??4Tmap@@QEAAAEAV0@AEBV0@@Z
??4TmaxViewRegionModifiedMsg@@QEAAAEAV0@AEBV0@@Z
??4TmayaAppInfo@@QEAAAEAV0@AEBV0@@Z
??4TmemoryAlert@@QEAAAEAV0@AEBV0@@Z
??4TmemoryException@@QEAAAEAV0@AEBV0@@Z
??4TmessageCenter@@QEAAAEAV0@AEBV0@@Z
??4TmetaLetter@@QEAAAEAV0@AEBV0@@Z
??4Tmetaclass@@QEAAAEAV0@AEBV0@@Z
??4TmintLicenseManager@@QEAAAEAV0@AEBV0@@Z
??4TmovieCompressor@@QEAAAEAV0@AEBV0@@Z
??4TmtBarrier@@QEAAAEAV0@AEBV0@@Z
??4TmtConditionVar@@QEAAAEAV0@AEBV0@@Z
??4TmtCriticalSection@@QEAAAEAV0@AEBV0@@Z
??4TmtMutex@@QEAAAEAV0@AEBV0@@Z
??4TmtRWMutex@@QEAAAEAV0@AEBV0@@Z
??4TmtRecursiveCS@@QEAAAEAV0@AEBV0@@Z
??4TmtRecursiveMutex@@QEAAAEAV0@AEBV0@@Z
??4TmtRefCounter@@QEAAAEAV0@AEBV0@@Z
??4TmtRefCounter@@QEAAHH@Z
??4TmtTSSCollection@@QEAAAEAV0@AEBV0@@Z
??4TmtThread@@QEAAAEAV0@AEBV0@@Z
??4TmtThreadPool@@QEAAAEAV0@AEBV0@@Z
??4TmtTimedConditionVar@@QEAAAEAV0@AEBV0@@Z
??4TmultiSharedObject@@QEAAAEAV0@AEBV0@@Z
??4TnameObject@@QEAAAEAV0@AEBV0@@Z
??4TnameObjectIterator@@QEAAAEAV0@AEBV0@@Z
??4TnameObjectTypeIterator@@QEAAAEAV0@AEBV0@@Z
??4TnameString@@QEAAAEAV0@AEBV0@@Z
??4TnameString@@QEAAAEAV0@AEBVTstring@@@Z
??4TnameString@@QEAAAEAV0@PEBD@Z
??4TnameTable@@QEAAAEAV0@AEBV0@@Z
??4Tnamespace@@QEAAAEAV0@AEBV0@@Z
??4TnamespaceRenamedMsg@@QEAAAEAV0@AEBV0@@Z
??4TnestedTimers@@QEAAAEAV0@AEBV0@@Z
??4ToDo@@QEAAAEAV0@AEBV0@@Z
??4TobjectGroup@@QEAAAEAV0@AEBV0@@Z
??4ToptionVar@@QEAAAEAV0@AEBV0@@Z
??4ToptionVarChangedMsg@@QEAAAEAV0@AEBV0@@Z
??4TosTime@@QEAA?AV0@AEBV0@@Z
??4TosTime@@QEAA?AV0@H@Z
??4Tpage@TbaseArena@@QEAAAEAV01@AEBV01@@Z
??4TparseFile@@QEAAAEAV0@AEBV0@@Z
??4TpidlConverter@@QEAAAEAV0@AEBV0@@Z
??4TpixelMap@@QEAAAEAV0@AEBV0@@Z
??4Tplane@@QEAAAEAV0@AEBV0@@Z
??4TpluginNodeList@@QEAAAEAV0@AEBV0@@Z
??4Tpoint@@QEAAAEAV0@AEBV0@@Z
??4TpointOctreeWalker@@QEAAAEAV0@AEBV0@@Z
??4TpolyIOUtil@@QEAAAEAV0@AEBV0@@Z
??4TpolyMap@@QEAAAEAV0@AEBV0@@Z
??4TpolyTangentSet@@QEAAAEAV0@AEBV0@@Z
??4TpoolAllocator@@QEAAAEAV0@AEBV0@@Z
??4TpoolManager@@QEAAAEAV0@AEBV0@@Z
??4TportColor@@QEAAAEAV0@AEBV0@@Z
??4TportRect@@QEAAAEAV0@AEBV0@@Z
??4TprefOptionVar@@QEAAAEAV0@AEBV0@@Z
??4TpreferenceItem@@QEAAAEAV0@AEBV0@@Z
??4TpreferencesDirectory@@QEAAAEAV0@AEBV0@@Z
??4TpresetsDirectory@@QEAAAEAV0@AEBV0@@Z
??4Tprofiler@@QEAAAEAV0@AEBV0@@Z
??4TprofilerBufferSizeChangedMsg@@QEAAAEAV0@AEBV0@@Z
??4TprofilerCategoryAddedMsg@@QEAAAEAV0@AEBV0@@Z
??4TprofilerCategoryRemovedMsg@@QEAAAEAV0@AEBV0@@Z
??4TprofilerCategoryUpdatedMsg@@QEAAAEAV0@AEBV0@@Z
??4TprofilerManager@@QEAAAEAV0@AEBV0@@Z
??4TprofilerMicroTime@@QEAAAEAV0@AEBV0@@Z
??4TprofilerRecordingStartedMsg@@QEAAAEAV0@AEBV0@@Z
??4TprofilerRecordingStoppedMsg@@QEAAAEAV0@AEBV0@@Z
??4TprofilerResetDataMsg@@QEAAAEAV0@AEBV0@@Z
??4TprofilerThreadInfo@@QEAAAEAV0@AEBV0@@Z
??4TprofilingEventHelper@@QEAAAEAV0@AEBV0@@Z
??4TprogressIndicator@@QEAAAEAV0@AEBV0@@Z
??4TprojectMgrBase@@QEAAAEAV0@AEBV0@@Z
??4TprojectsDirectory@@QEAAAEAV0@AEBV0@@Z
??4TpseudoTranslate@@QEAAAEAV0@AEBV0@@Z
??4TptrHashTable@@QEAAAEAV0@AEBV0@@Z
??4TptrStringHash@@QEAAAEAV0@AEBV0@@Z
??4TpureArena@@QEAAAEAV0@AEBV0@@Z
??4Tquaternion@@QEAAAEAV0@AEBV0@@Z
??4Tquaternion@@QEAAAEAV0@AEBVT4dDblMatrix@@@Z
??4Trect@@QEAAAEAV0@AEBV0@@Z
??4Treflectance@@QEAA?AV0@AEBVTspectrum@@@Z
??4Treflectance@@QEAAAEAV0@AEBV0@@Z
??4TrefreshTimer@@QEAAAEAV0@AEBV0@@Z
??4TregExp@@QEAAAEAV0@AEBV0@@Z
??4TregularExpression@@QEAAAEAV0@AEBV0@@Z
??4TrenderSpectrum@@QEAA?AV0@AEBV0@@Z
??4TrenderSpectrum@@QEAA?AV0@AEBVTblendFactor@@@Z
??4TrenderSpectrum@@QEAA?AV0@AEBVTspectrum@@@Z
??4Treporter@@QEAAAEAV0@AEBV0@@Z
??4TresId@@QEAAAEAV0@AEBV0@@Z
??4TresId@@QEAAAEAV0@H@Z
??4TresourceElement@@QEAAAEAV0@AEBV0@@Z
??4TresourceException@@QEAAAEAV0@AEBV0@@Z
??4TresourceGroup@@QEAAAEAV0@AEBV0@@Z
??4TresourceMap@@QEAAAEAV0@AEBV0@@Z
??4TresourceQuery@@QEAAAEAV0@AEBV0@@Z
??4TrotateXYZ@@QEAAAEAV0@AEBV0@@Z
??4TrotateXYZ@@QEAAAEAV0@AEBVT4dDblMatrix@@@Z
??4TrotateXYZ@@QEAAAEAV0@AEBVT4dDblVector@@@Z
??4TrotateXYZ@@QEAAAEAV0@AEBVTquaternion@@@Z
??4TsafeFileSave@@QEAAAEAV0@AEBV0@@Z
??4Tscale@@QEAAAEAV0@AEBV0@@Z
??4TserverCheckMsg@@QEAAAEAV0@AEBV0@@Z
??4TserverDeletedMsg@@QEAAAEAV0@AEBV0@@Z
??4TserverModifiedMsg@@QEAAAEAV0@AEBV0@@Z
??4TserverMsg@@QEAAAEAV0@AEBV0@@Z
??4TshapeAlgebra@@QEAAAEAV0@AEBV0@@Z
??4TsharedDoubleArray@@QEAAAEAV0@AEBV0@@Z
??4TsharedFloatArray@@QEAAAEAV0@AEBV0@@Z
??4TsharedInt32Array@@QEAAAEAV0@AEBV0@@Z
??4TsharedObject@@QEAAAEAV0@AEBV0@@Z
??4TsharedPixelMap@@QEAAAEAV0@AEBV0@@Z
??4TsharedPixelMap@@QEAAAEAV0@PEAVTpixelMap@@@Z
??4TsharedReference@@QEAAAEAV0@AEBV0@@Z
??4TsharedReference@@QEAAAEAV0@PEAVTsharedObject@@@Z
??4TsharedUInt64Array@@QEAAAEAV0@AEBV0@@Z
??4Tshear2@@QEAAAEAV0@AEBV0@@Z
??4Tshear@@QEAAAEAV0@AEBV0@@Z
??4TsicComplementIterator@@QEAAAEAV0@AEBV0@@Z
??4TsimpleTess@@QEAAAEAV0@AEBV0@@Z
??4TsingleIndexedComponentIterator@@QEAAAEAV0@AEBV0@@Z
??4TspatialGridWalker@@QEAAAEAV0@AEBV0@@Z
??4Tspectrum@@QEAAAEAV0@AEBV0@@Z
??4TstackTrace@@QEAAAEAV0@AEBV0@@Z
??4Tstring@@QEAAAEAV0@AEBV0@@Z
??4Tstring@@QEAAAEAV0@PEBD@Z
??4TstringCatalog@@QEAAAEAV0@AEBV0@@Z
??4TstringHashTable@@QEAAAEAV0@AEBV0@@Z
??4TstringId@@QEAAAEAV0@AEBV0@@Z
??4TstringIntHashTable@@QEAAAEAV0@AEBV0@@Z
??4TstringKeyHashTable@@QEAAAEAV0@AEBV0@@Z
??4TstringTestInfo@@QEAAAEAV0@AEBV0@@Z
??4TstringUtil@@QEAAAEAV0@AEBV0@@Z
??4Tsubtree@@QEAAAEAV0@AEBV0@@Z
??4TsurfaceIndex@@QEAAAEAV0@AEBV0@@Z
??4TtempDirectoryMgr@@QEAAAEAV0@AEBV0@@Z
??4TtemporaryDirectory@@QEAAAEAV0@AEBV0@@Z
??4TthreadCount@@QEAAAEAV0@AEBV0@@Z
??4TthreadData@@QEAAAEAV0@AEBV0@@Z
??4TthreadSubtree@@QEAAAEAV0@AEBV0@@Z
??4TthreadTree@@QEAAAEAV0@AEBV0@@Z
??4Ttime@@QEAAAEAV0@AEBV0@@Z
??4TtimeRange@@QEAAAEAV0@AEBV0@@Z
??4TtimeUnit@@QEAAAEAV0@AEBV0@@Z
??4TtimeValue@@QEAAAEAV0@AEBV0@@Z
??4Ttimer@@QEAAAEAV0@AEBV0@@Z
??4Ttolerance@@QEAAAEAV0@AEBV0@@Z
??4TtoolClipsControlDirectory@@QEAAAEAV0@AEBV0@@Z
??4TtoolClipsDirectory@@QEAAAEAV0@AEBV0@@Z
??4TtoolClipsResourcesDirectory@@QEAAAEAV0@AEBV0@@Z
??4Ttree@@QEAAAEAV0@AEBV0@@Z
??4TtriangleOctreeRayWalker@@QEAAAEAV0@AEBV0@@Z
??4TtriangleOctreeSphereWalker@@QEAAAEAV0@AEBV0@@Z
??4Ttrigger@@QEAAAEAV0@AEBV0@@Z
??4TtriggerMsg@@QEAAAEAV0@AEBV0@@Z
??4Ttriple@@QEAAAEAV0@AEBV0@@Z
??4Ttriple@@QEAAAEAV0@AEBVT4dDblVector@@@Z
??4Ttuple@@QEAAAEAV0@AEBV0@@Z
??4TtypeDictionary@@QEAAAEAV0@AEBV0@@Z
??4TtypeDictionaryNode@@QEAAAEAV0@AEBV0@@Z
??4TuIntSequence@@QEAAAEAV0@AEBV0@@Z
??4TundoFile@@QEAAAEAV0@AEBV0@@Z
??4TundoManagerBase@@QEAAAEAV0@AEBV0@@Z
??4TunimplementedException@@QEAAAEAV0@AEBV0@@Z
??4TuniqueString@@QEAAAEAV0@AEBV0@@Z
??4Tunit@@QEAAAEAV0@AEBV0@@Z
??4TunitNames@@QEAAAEAV0@AEBV0@@Z
??4TuserBitmapsDirectory@@QEAAAEAV0@AEBV0@@Z
??4TuserHotkeyDirectory@@QEAAAEAV0@AEBV0@@Z
??4TuserMarkingMenuDirectory@@QEAAAEAV0@AEBV0@@Z
??4TuserScriptDirectory@@QEAAAEAV0@AEBV0@@Z
??4TuserShelfDirectory@@QEAAAEAV0@AEBV0@@Z
??4Tuuid@@QEAAAEAV0@AEBV0@@Z
??4TuvPoint@@QEAAAEAV0@AEBV0@@Z
??4TuvPoint@@QEAAAEAV0@AEBVT3dFltPoint@@@Z
??4TuvPoint@@QEAAAEAV0@AEBVT4dDblPoint@@@Z
??4TuvPoint@@QEAAAEAV0@AEBVTfltPoint@@@Z
??4TviewCoord@@QEAAAEAV0@AEBV0@@Z
??4TviewRegion@@QEAAAEAV0@AEBV0@@Z
??4TviewRegionModifiedMsg@@QEAAAEAV0@AEBV0@@Z
??4TvoxelGrid@@QEAAAEAV0@AEBV0@@Z
??4Tweight@@QEAAAEAV0@AEBV0@@Z
??4TwrapperConnection@@QEAAAEAV0@AEBV0@@Z
??4TxformMatrix@@QEAAAEAV0@AEBVT4dDblMatrix@@@Z
??4TxformMatrix@@QEAAAEAV0@AEBVTxformMatrixV1@@@Z
??4TxformMatrix@@UEAAAEAV0@AEBV0@@Z
??4beginIdleRollupT4@@QEAAAEAV0@AEBV0@@Z
??5Tfile@@QEAAAEAV0@AEAD@Z
??5Tfile@@QEAAAEAV0@AEAF@Z
??5Tfile@@QEAAAEAV0@AEAH@Z
??5Tfile@@QEAAAEAV0@AEAI@Z
??5Tfile@@QEAAAEAV0@AEAM@Z
??5Tfile@@QEAAAEAV0@AEAN@Z
??5Tfile@@QEAAAEAV0@AEAVTstring@@@Z
??5Tfile@@QEAAAEAV0@PEAD@Z
??5Tfile_iostream@@UEAAAEAV0@AEAD@Z
??5Tfile_iostream@@UEAAAEAV0@AEAF@Z
??5Tfile_iostream@@UEAAAEAV0@AEAH@Z
??5Tfile_iostream@@UEAAAEAV0@AEAI@Z
??5Tfile_iostream@@UEAAAEAV0@AEAJ@Z
??5Tfile_iostream@@UEAAAEAV0@AEAM@Z
??5Tfile_iostream@@UEAAAEAV0@AEAN@Z
??5Tfile_iostream@@UEAAAEAV0@PEAD@Z
??6@YA?AVQDebug@@V0@AEBVTstring@@@Z
??6@YAAEAV?$basic_ostream@DU?$char_traits@D@std@@@std@@AEAV01@AEBVT3dDblPoint@@@Z
??6@YAAEAV?$basic_ostream@DU?$char_traits@D@std@@@std@@AEAV01@AEBVT3dFltPoint@@@Z
??6@YAAEAV?$basic_ostream@DU?$char_traits@D@std@@@std@@AEAV01@AEBVT4dDblMatrix@@@Z
??6@YAAEAV?$basic_ostream@DU?$char_traits@D@std@@@std@@AEAV01@AEBVT4dDblPoint@@@Z
??6@YAAEAV?$basic_ostream@DU?$char_traits@D@std@@@std@@AEAV01@AEBVT4dDblVector@@@Z
??6@YAAEAV?$basic_ostream@DU?$char_traits@D@std@@@std@@AEAV01@AEBVTquaternion@@@Z
??6@YAAEAV?$basic_ostream@DU?$char_traits@D@std@@@std@@AEAV01@AEBVTrotateXYZ@@@Z
??6DBErrorStream@@QEAAAEAV0@D@Z
??6DBErrorStream@@QEAAAEAV0@E@Z
??6DBErrorStream@@QEAAAEAV0@F@Z
??6DBErrorStream@@QEAAAEAV0@G@Z
??6DBErrorStream@@QEAAAEAV0@H@Z
??6DBErrorStream@@QEAAAEAV0@I@Z
??6DBErrorStream@@QEAAAEAV0@J@Z
??6DBErrorStream@@QEAAAEAV0@K@Z
??6DBErrorStream@@QEAAAEAV0@M@Z
??6DBErrorStream@@QEAAAEAV0@N@Z
??6DBErrorStream@@QEAAAEAV0@PEBD@Z
??6DBErrorStream@@QEAAAEAV0@PEBX@Z
??6DBErrorStream@@QEAAAEAV0@_J@Z
??6DBErrorStream@@QEAAAEAV0@_K@Z
??6Tfile@@QEAAAEAV0@AEBVTstring@@@Z
??6Tfile@@QEAAAEAV0@D@Z
??6Tfile@@QEAAAEAV0@F@Z
??6Tfile@@QEAAAEAV0@H@Z
??6Tfile@@QEAAAEAV0@I@Z
??6Tfile@@QEAAAEAV0@M@Z
??6Tfile@@QEAAAEAV0@N@Z
??6Tfile@@QEAAAEAV0@PEBD@Z
??6Tfile@@QEAAAEAV0@VTbitField32@@@Z
??6Tfile@@QEAAAEAV0@VTbitField64@@@Z
??6Tfile@@QEAAAEAV0@_J@Z
??6Tfile@@QEAAAEAV0@_N@Z
??6Tfile_fstream@@UEAAAEAVTfile_iostream@@E@Z
??6Tfile_fstream@@UEAAAEAVTfile_iostream@@F@Z
??6Tfile_fstream@@UEAAAEAVTfile_iostream@@G@Z
??6Tfile_fstream@@UEAAAEAVTfile_iostream@@H@Z
??6Tfile_fstream@@UEAAAEAVTfile_iostream@@I@Z
??6Tfile_fstream@@UEAAAEAVTfile_iostream@@M@Z
??6Tfile_fstream@@UEAAAEAVTfile_iostream@@N@Z
??6Tfile_fstream@@UEAAAEAVTfile_iostream@@PEBC@Z
??6Tfile_fstream@@UEAAAEAVTfile_iostream@@PEBD@Z
??6Tfile_fstream@@UEAAAEAVTfile_iostream@@PEBE@Z
??6Tfile_fstream@@UEAAAEAVTfile_iostream@@_J@Z
??6Tfile_fstream@@UEAAAEAVTfile_iostream@@_K@Z
??6Tfile_iostream@@UEAAAEAV0@C@Z
??6Tfile_iostream@@UEAAAEAV0@D@Z
??6Tfile_iostream@@UEAAAEAV0@P6AAEAV?$basic_ostream@DU?$char_traits@D@std@@@std@@AEAV12@@Z@Z
??7Tcondition@@QEAA_NXZ
??7TsharedReference@@QEBA_NXZ
??8@YAHAEBUtimeval@@0@Z
??8MObject@@QEBA_NAEBV0@@Z
??8T2dFltPoint@@QEBA_NAEBV0@@Z
??8T2dFltVector@@QEBA_NAEBV0@@Z
??8T3dDblPoint@@QEBA_NAEBV0@@Z
??8T3dFltPoint@@QEBA_NAEBV0@@Z
??8T3dFltVector@@QEBA_NAEBV0@@Z
??8T4dDblMatrix@@QEBA_NAEBV0@@Z
??8T4dDblPoint@@QEBA_NAEBV0@@Z
??8T4dDblVector@@QEBA_NAEBV0@@Z
??8T4dFltMatrix@@QEBA_NAEBV0@@Z
??8T4dFltPoint@@QEBA_NAEBV0@@Z
??8Tangle@@QEBA_NAEBV0@@Z
??8TanimTime@@QEBA_NAEBV0@@Z
??8TapiTableKey@@QEBA_NAEBV0@@Z
??8TargType@@QEBA_NAEBV0@@Z
??8TargType@@QEBA_NH@Z
??8TbitField128@@QEBA_NAEBV0@@Z
??8TbitField16@@QEBA_NAEBV0@@Z
??8TbitField32@@QEBA_NAEBV0@@Z
??8TbitField64@@QEBA_NAEBV0@@Z
??8TbitFieldFixedN@@QEBA_NAEBV0@@Z
??8TbitFieldN@@QEBA_NAEBV0@@Z
??8TbitMatrix@@QEBA_NAEBV0@@Z
??8TblendFactor@@QEBA_NAEBV0@@Z
??8TboundingBox@@QEBA_NAEBV0@@Z
??8TcharString@@QEBA_NAEBV0@@Z
??8TcharString@@QEBA_NPEBD@Z
??8Tcondition@@QEAA_N_N@Z
??8Tcounter@@AEBA_NAEBV0@@Z
??8TcounterContext@@AEBA_NAEBV0@@Z
??8Tdata2Double@@UEBA_NAEBV0@@Z
??8Tdata2Double@@UEBA_NAEBVTdata@@@Z
??8Tdata2Double@@UEBA_NAEBVTdataLetter@@@Z
??8Tdata2Float@@UEBA_NAEBV0@@Z
??8Tdata2Float@@UEBA_NAEBVTdata@@@Z
??8Tdata2Float@@UEBA_NAEBVTdataLetter@@@Z
??8Tdata2Int16@@UEBA_NAEBV0@@Z
??8Tdata2Int16@@UEBA_NAEBVTdata@@@Z
??8Tdata2Int16@@UEBA_NAEBVTdataLetter@@@Z
??8Tdata2Int32@@UEBA_NAEBV0@@Z
??8Tdata2Int32@@UEBA_NAEBVTdata@@@Z
??8Tdata2Int32@@UEBA_NAEBVTdataLetter@@@Z
??8Tdata3Double@@UEBA_NAEBV0@@Z
??8Tdata3Double@@UEBA_NAEBVTdata@@@Z
??8Tdata3Double@@UEBA_NAEBVTdataLetter@@@Z
??8Tdata3Float@@UEBA_NAEBV0@@Z
??8Tdata3Float@@UEBA_NAEBVTdata@@@Z
??8Tdata3Float@@UEBA_NAEBVTdataLetter@@@Z
??8Tdata3Int16@@UEBA_NAEBV0@@Z
??8Tdata3Int16@@UEBA_NAEBVTdata@@@Z
??8Tdata3Int16@@UEBA_NAEBVTdataLetter@@@Z
??8Tdata3Int32@@UEBA_NAEBV0@@Z
??8Tdata3Int32@@UEBA_NAEBVTdata@@@Z
??8Tdata3Int32@@UEBA_NAEBVTdataLetter@@@Z
??8Tdata4Double@@UEBA_NAEBV0@@Z
??8Tdata4Double@@UEBA_NAEBVTdata@@@Z
??8Tdata4Double@@UEBA_NAEBVTdataLetter@@@Z
??8Tdata@@QEBA_NAEBV0@@Z
??8TdataFunction@@UEBA_NAEBV0@@Z
??8TdataFunction@@UEBA_NAEBVTdata@@@Z
??8TdataFunction@@UEBA_NAEBVTdataLetter@@@Z
??8TdataLetter@@UEBA_NAEBV0@@Z
??8TdataLetter@@UEBA_NAEBVTdata@@@Z
??8TdataMatrix@@UEBA_NAEBV0@@Z
??8TdataMatrix@@UEBA_NAEBVTdata@@@Z
??8TdataMatrix@@UEBA_NAEBVTdataLetter@@@Z
??8TdataReflectance@@UEBA_NAEBV0@@Z
??8TdataReflectance@@UEBA_NAEBVTdata@@@Z
??8TdataReflectance@@UEBA_NAEBVTdataLetter@@@Z
??8TdataSpectrum@@UEBA_NAEBV0@@Z
??8TdataSpectrum@@UEBA_NAEBVTdata@@@Z
??8TdataSpectrum@@UEBA_NAEBVTdataLetter@@@Z
??8TdbTrace@@QEBA_NAEBV0@@Z
??8TdblPoint@@QEBA_NAEBV0@@Z
??8TdblRect@@QEBA_NAEBV0@@Z
??8TdelayedMsgType@@QEBA_NAEBV0@@Z
??8TdoubleIndexLong@@QEBA_NAEBV0@@Z
??8TdoubleRange@@QEBA_NAEBV0@@Z
??8Tduration@@QEBA_NAEBV0@@Z
??8TfilePath@@QEBA_NAEBV0@@Z
??8TfilePath@@QEBA_NAEBVTstring@@@Z
??8TfilePath@@QEBA_NPEBD@Z
??8TfileSystemEntity@@QEBA_NAEBV0@@Z
??8TfileURI@@QEBA_NAEBV0@@Z
??8TfloatRange@@QEBA_NAEBV0@@Z
??8TfltBox@@QEBA_NAEBV0@@Z
??8TfltInterval@@QEBA_NV0@@Z
??8TfltLine@@QEBA_NAEBV0@@Z
??8TfltPlane@@QEBA_NAEBV0@@Z
??8TfltPoint@@QEBA_NAEBV0@@Z
??8TfltTuple@@QEBA_NAEBV0@@Z
??8TfootprintInfo@@QEBA_NAEBV0@@Z
??8ThwrCallback@@QEBA_NAEBV0@@Z
??8TiffTag@@QEBA_NAEBV0@@Z
??8TindexRange@@QEBA_NAEBV0@@Z
??8Tline@@QEBA_NAEBV0@@Z
??8Tlinear@@QEBA_NAEBV0@@Z
??8TnameString@@QEBA_NAEBV0@@Z
??8Tplane@@QEBA_NAEBV0@@Z
??8Tpoint@@QEBA_NAEBV0@@Z
??8TpolyMap@@QEBA_NAEBV0@@Z
??8TpolyTangentSet@@QEBA_NAEBV0@@Z
??8TportColor@@QEBA_NAEBV0@@Z
??8TportRect@@QEBA_NAEBV0@@Z
??8Tquaternion@@QEBA_NAEBV0@@Z
??8Trect@@QEBA_NAEBV0@@Z
??8TrenderSpectrum@@QEBA_NAEBV0@@Z
??8TresId@@QEBA_NAEBV0@@Z
??8TrotateXYZ@@QEBA_NAEBV0@@Z
??8Tscale@@QEBA_NAEBV0@@Z
??8TserverMsg@@QEBA_NPEAVTmetaclass@@@Z
??8Tshear2@@QEAA_NAEBV0@@Z
??8Tshear@@QEAA_NAEBV0@@Z
??8Tspectrum@@QEBA_NAEBV0@@Z
??8Tstring@@QEBA_NAEBV0@@Z
??8Tstring@@QEBA_NPEBD@Z
??8TstringId@@QEBA_NAEBV0@@Z
??8TsurfaceIndex@@QEBA_NAEBV0@@Z
??8Ttime@@QEBA_NAEBV0@@Z
??8TtimeRange@@QEBA_NAEBV0@@Z
??8TtimeValue@@QEBA_NAEBV0@@Z
??8Ttriple@@QEBA_NAEBV0@@Z
??8Ttuple@@QEBA_NAEBV0@@Z
??8TundoFile@@QEBA_NAEBV0@@Z
??8TuniqueString@@QEBA_NAEBV0@@Z
??8TxformMatrix@@QEBA_NAEBV0@@Z
??9MObject@@QEBA_NAEBV0@@Z
??9T2dFltPoint@@QEBA_NAEBV0@@Z
??9T2dFltVector@@QEBA_NAEBV0@@Z
??9T3dDblPoint@@QEBA_NAEBV0@@Z
??9T3dFltPoint@@QEBA_NAEBV0@@Z
??9T3dFltVector@@QEBA_NAEBV0@@Z
??9T4dDblMatrix@@QEBA_NAEBV0@@Z
??9T4dDblPoint@@QEBA_NAEBV0@@Z
??9T4dDblVector@@QEBA_NAEBV0@@Z
??9T4dFltMatrix@@QEBA_NAEBV0@@Z
??9T4dFltPoint@@QEBA_NAEBV0@@Z
??9Tangle@@QEBA_NAEBV0@@Z
??9TanimTime@@QEBA_NAEBV0@@Z
??9TargType@@QEBA_NAEBV0@@Z
??9TargType@@QEBA_NH@Z
??9TbitField128@@QEBA_NAEBV0@@Z
??9TbitField16@@QEBA_NAEBV0@@Z
??9TbitField32@@QEBA_NAEBV0@@Z
??9TbitField64@@QEBA_NAEBV0@@Z
??9TbitFieldFixedN@@QEBA_NAEBV0@@Z
??9TbitFieldN@@QEBA_NAEBV0@@Z
??9TbitMatrix@@QEBA_NAEBV0@@Z
??9TboundingBox@@QEBA_NAEBV0@@Z
??9TcharString@@QEBA_NAEBV0@@Z
??9Tcondition@@QEAA_N_N@Z
??9Tdata2Double@@UEBA_NAEBV0@@Z
??9Tdata2Double@@UEBA_NAEBVTdata@@@Z
??9Tdata2Double@@UEBA_NAEBVTdataLetter@@@Z
??9Tdata2Float@@UEBA_NAEBV0@@Z
??9Tdata2Float@@UEBA_NAEBVTdata@@@Z
??9Tdata2Float@@UEBA_NAEBVTdataLetter@@@Z
??9Tdata2Int16@@UEBA_NAEBV0@@Z
??9Tdata2Int16@@UEBA_NAEBVTdata@@@Z
??9Tdata2Int16@@UEBA_NAEBVTdataLetter@@@Z
??9Tdata2Int32@@UEBA_NAEBV0@@Z
??9Tdata2Int32@@UEBA_NAEBVTdata@@@Z
??9Tdata2Int32@@UEBA_NAEBVTdataLetter@@@Z
??9Tdata3Double@@UEBA_NAEBV0@@Z
??9Tdata3Double@@UEBA_NAEBVTdata@@@Z
??9Tdata3Double@@UEBA_NAEBVTdataLetter@@@Z
??9Tdata3Float@@UEBA_NAEBV0@@Z
??9Tdata3Float@@UEBA_NAEBVTdata@@@Z
??9Tdata3Float@@UEBA_NAEBVTdataLetter@@@Z
??9Tdata3Int16@@UEBA_NAEBV0@@Z
??9Tdata3Int16@@UEBA_NAEBVTdata@@@Z
??9Tdata3Int16@@UEBA_NAEBVTdataLetter@@@Z
??9Tdata3Int32@@UEBA_NAEBV0@@Z
??9Tdata3Int32@@UEBA_NAEBVTdata@@@Z
??9Tdata3Int32@@UEBA_NAEBVTdataLetter@@@Z
??9Tdata4Double@@UEBA_NAEBV0@@Z
??9Tdata4Double@@UEBA_NAEBVTdata@@@Z
??9Tdata4Double@@UEBA_NAEBVTdataLetter@@@Z
??9Tdata@@QEBA_NAEBV0@@Z
??9TdataFunction@@UEBA_NAEBV0@@Z
??9TdataFunction@@UEBA_NAEBVTdata@@@Z
??9TdataFunction@@UEBA_NAEBVTdataLetter@@@Z
??9TdataLetter@@UEBA_NAEBV0@@Z
??9TdataLetter@@UEBA_NAEBVTdata@@@Z
??9TdataMatrix@@UEBA_NAEBV0@@Z
??9TdataMatrix@@UEBA_NAEBVTdata@@@Z
??9TdataMatrix@@UEBA_NAEBVTdataLetter@@@Z
??9TdataReflectance@@UEBA_NAEBV0@@Z
??9TdataReflectance@@UEBA_NAEBVTdata@@@Z
??9TdataReflectance@@UEBA_NAEBVTdataLetter@@@Z
??9TdataSpectrum@@UEBA_NAEBV0@@Z
??9TdataSpectrum@@UEBA_NAEBVTdata@@@Z
??9TdataSpectrum@@UEBA_NAEBVTdataLetter@@@Z
??9TdblPoint@@QEBA_NAEBV0@@Z
??9TdblRect@@QEBA_NAEBV0@@Z
??9TdoubleIndexLong@@QEBA_NAEBV0@@Z
??9Tduration@@QEBA_NAEBV0@@Z
??9TfileURI@@QEBA_NAEBV0@@Z
??9TfltBox@@QEBA_NAEBV0@@Z
??9TfltInterval@@QEBA_NV0@@Z
??9TfltLine@@QEBA_NAEBV0@@Z
??9TfltPlane@@QEBA_NAEBV0@@Z
??9TfltPoint@@QEBA_NAEBV0@@Z
??9TfltTuple@@QEBA_NAEBV0@@Z
??9TfootprintInfo@@QEBA_NAEBV0@@Z
??9ThwrCallback@@QEBA_NAEBV0@@Z
??9TiffTag@@QEBA_NAEBV0@@Z
??9Tline@@QEBA_NAEBV0@@Z
??9Tlinear@@QEBA_NAEBV0@@Z
??9TnameString@@QEBA_NAEBV0@@Z
??9Tplane@@QEBA_NAEBV0@@Z
??9Tpoint@@QEBA_NAEBV0@@Z
??9TportColor@@QEBA_NAEBV0@@Z
??9TportRect@@QEBA_NAEBV0@@Z
??9Tquaternion@@QEBA_NAEBV0@@Z
??9Trect@@QEBA_NAEBV0@@Z
??9TresId@@QEBA_NAEBV0@@Z
??9TrotateXYZ@@QEBA_NAEBV0@@Z
??9Tscale@@QEBA_NAEBV0@@Z
??9TserverMsg@@QEBA_NPEAVTmetaclass@@@Z
??9Tshear2@@QEAA_NAEBV0@@Z
??9Tshear@@QEAA_NAEBV0@@Z
??9Tspectrum@@QEBA_NAEBV0@@Z
??9Tstring@@QEBA_NAEBV0@@Z
??9Tstring@@QEBA_NPEBD@Z
??9TstringId@@QEBA_NAEBV0@@Z
??9TsurfaceIndex@@QEBA_NAEBV0@@Z
??9Ttime@@QEBA_NAEBV0@@Z
??9TtimeValue@@QEBA_NAEBV0@@Z
??9Ttriple@@QEBA_NAEBV0@@Z
??9Ttuple@@QEBA_NAEBV0@@Z
??9TuniqueString@@QEBA_NAEBV0@@Z
??9TxformMatrix@@QEBA_NAEBV0@@Z
??A?$map@V?$basic_string@DU?$char_traits@D@std@@V?$allocator@D@2@@std@@PEAVTresourceElement@@U?$less@V?$basic_string@DU?$char_traits@D@std@@V?$allocator@D@2@@std@@@2@V?$allocator@U?$pair@$$CBV?$basic_string@DU?$char_traits@D@std@@V?$allocator@D@2@@std@@PEAVTresourceElement@@@std@@@2@@std@@QEAAAEAPEAVTresourceElement@@$$QEAV?$basic_string@DU?$char_traits@D@std@@V?$allocator@D@2@@1@@Z
??A?$map@V?$basic_string@DU?$char_traits@D@std@@V?$allocator@D@2@@std@@PEAVTresourceElement@@U?$less@V?$basic_string@DU?$char_traits@D@std@@V?$allocator@D@2@@std@@@2@V?$allocator@U?$pair@$$CBV?$basic_string@DU?$char_traits@D@std@@V?$allocator@D@2@@std@@PEAVTresourceElement@@@std@@@2@@std@@QEAAAEAPEAVTresourceElement@@AEBV?$basic_string@DU?$char_traits@D@std@@V?$allocator@D@2@@1@@Z
??A?$map@V?$basic_string@DU?$char_traits@D@std@@V?$allocator@D@2@@std@@PEAVTresourceGroup@@U?$less@V?$basic_string@DU?$char_traits@D@std@@V?$allocator@D@2@@std@@@2@V?$allocator@U?$pair@$$CBV?$basic_string@DU?$char_traits@D@std@@V?$allocator@D@2@@std@@PEAVTresourceGroup@@@std@@@2@@std@@QEAAAEAPEAVTresourceGroup@@$$QEAV?$basic_string@DU?$char_traits@D@std@@V?$allocator@D@2@@1@@Z
??A?$map@V?$basic_string@DU?$char_traits@D@std@@V?$allocator@D@2@@std@@PEAVTresourceGroup@@U?$less@V?$basic_string@DU?$char_traits@D@std@@V?$allocator@D@2@@std@@@2@V?$allocator@U?$pair@$$CBV?$basic_string@DU?$char_traits@D@std@@V?$allocator@D@2@@std@@PEAVTresourceGroup@@@std@@@2@@std@@QEAAAEAPEAVTresourceGroup@@AEBV?$basic_string@DU?$char_traits@D@std@@V?$allocator@D@2@@1@@Z
??AT2FloatArray@@QEAAAEAVT2Float@@I@Z
??AT2FloatArray@@QEBAAEBVT2Float@@I@Z
??AT2dFltPoint@@QEAAAEAMI@Z
??AT2dFltPoint@@QEBAMI@Z
??AT2dFltVector@@QEAAAEAMI@Z
??AT2dFltVector@@QEBAMI@Z
??AT3DoubleArray@@QEAAAEAVT3Double@@I@Z
??AT3DoubleArray@@QEBAAEBVT3Double@@I@Z
??AT3FloatArray@@QEAAAEAVT3Float@@I@Z
??AT3FloatArray@@QEBAAEBVT3Float@@I@Z
??AT3dDblPoint@@QEAAAEANI@Z
??AT3dDblPoint@@QEBANI@Z
??AT3dDblPointArray@@QEAAAEAVT3dDblPoint@@I@Z
??AT3dDblPointArray@@QEBAAEBVT3dDblPoint@@I@Z
??AT3dDblPointArrayPtrArray@@QEAAAEAPEAVT3dDblPointArray@@I@Z
??AT3dDblPointArrayPtrArray@@QEBAAEBQEAVT3dDblPointArray@@I@Z
??AT3dFltPoint@@QEAAAEAMI@Z
??AT3dFltPoint@@QEBAMI@Z
??AT3dFltPointArray@@QEAAAEAVT3dFltPoint@@I@Z
??AT3dFltPointArray@@QEBAAEBVT3dFltPoint@@I@Z
??AT3dFltVector@@QEAAAEAMI@Z
??AT3dFltVector@@QEBAMI@Z
??AT3dFltVectorArray@@QEAAAEAVT3dFltVector@@I@Z
??AT3dFltVectorArray@@QEBAAEBVT3dFltVector@@I@Z
??AT4dDblMatrix@@QEAAPEANI@Z
??AT4dDblMatrix@@QEBAPEBNI@Z
??AT4dDblMatrixArray@@QEAAAEAVT4dDblMatrix@@I@Z
??AT4dDblMatrixArray@@QEBAAEBVT4dDblMatrix@@I@Z
??AT4dDblPoint@@QEAAAEANI@Z
??AT4dDblPoint@@QEBANI@Z
??AT4dDblPointArray@@QEAAAEAVT4dDblPoint@@I@Z
??AT4dDblPointArray@@QEBAAEBVT4dDblPoint@@I@Z
??AT4dDblPointArrayPtrArray@@QEAAAEAPEAVT4dDblPointArray@@I@Z
??AT4dDblPointArrayPtrArray@@QEBAAEBQEAVT4dDblPointArray@@I@Z
??AT4dDblVector@@QEAAAEANI@Z
??AT4dDblVector@@QEBANI@Z
??AT4dDblVectorArray@@QEAAAEAVT4dDblVector@@I@Z
??AT4dDblVectorArray@@QEBAAEBVT4dDblVector@@I@Z
??AT4dDblVectorArrayPtrArray@@QEAAAEAPEAVT4dDblVectorArray@@I@Z
??AT4dDblVectorArrayPtrArray@@QEBAAEBQEAVT4dDblVectorArray@@I@Z
??AT4dFltMatrix@@QEAAPEAMI@Z
??AT4dFltMatrix@@QEBAPEBMI@Z
??AT4dFltMatrixArray@@QEAAAEAVT4dFltMatrix@@I@Z
??AT4dFltMatrixArray@@QEBAAEBVT4dFltMatrix@@I@Z
??AT4dFltPoint@@QEAAAEAMI@Z
??AT4dFltPoint@@QEBAMI@Z
??AT4dFltPointArray@@QEAAAEAVT4dFltPoint@@I@Z
??AT4dFltPointArray@@QEBAAEBVT4dFltPoint@@I@Z
??ATDarray@@QEAAAEAVTdata@@I@Z
??ATDarray@@QEBAAEBVTdata@@I@Z
??ATTuInt32Array@@QEAAAEAII@Z
??ATTuInt32Array@@QEBAAEBII@Z
??ATanimTimeArray@@QEAAAEAVTanimTime@@I@Z
??ATanimTimeArray@@QEBAAEBVTanimTime@@I@Z
??ATanimTimeSortedArray@@QEAAAEAVTanimTime@@I@Z
??ATanimTimeSortedArray@@QEBAAEBVTanimTime@@I@Z
??ATargListPtrArray@@QEAAAEAPEAVTargList@@I@Z
??ATargListPtrArray@@QEBAAEBQEAVTargList@@I@Z
??ATargTypeArray@@QEAAAEAVTargType@@I@Z
??ATargTypeArray@@QEBAAEBVTargType@@I@Z
??ATbdDataPtrArray@@QEAAPEAVTbdData@@I@Z
??ATbdDataPtrArrayContainer@@QEAAAEAPEAVTbdData@@I@Z
??ATbdDataPtrArrayContainer@@QEBAAEBQEAVTbdData@@I@Z
??ATbitField128@@QEAA?AVTbitRef128@@I@Z
??ATbitField128@@QEBA_NI@Z
??ATbitField16@@QEAA?AVTbitRef16@@I@Z
??ATbitField16@@QEBA_NI@Z
??ATbitField32@@QEAA?AVTbitRef32@@I@Z
??ATbitField32@@QEBA_NI@Z
??ATbitField64@@QEAA?AVTbitRef64@@I@Z
??ATbitField64@@QEBA_NI@Z
??ATbitFieldFixedN@@QEBA_NI@Z
??ATbitFieldN@@QEAA?AVTbitRefN@@I@Z
??ATbitFieldN@@QEBA_NI@Z
??ATbitMatrix@@QEAA?AVTbitMatrixRow@@I@Z
??ATbookmark@@QEBAAEAPEAVTdictionaryNode@@I@Z
??ATbooleanArray@@QEAAAEA_NI@Z
??ATbooleanArray@@QEBAAEB_NI@Z
??ATbooleanArrayPtrArray@@QEAAAEAPEAVTbooleanArray@@I@Z
??ATbooleanArrayPtrArray@@QEBAAEBQEAVTbooleanArray@@I@Z
??ATcharArray@@QEAAAEADI@Z
??ATcharArray@@QEBAAEBDI@Z
??ATcharPtrArray@@QEAAAEAPEADI@Z
??ATcharPtrArray@@QEBAAEBQEADI@Z
??ATcomponentPtrArray@@QEAAAEAPEAVTcomponent@@I@Z
??ATcomponentPtrArray@@QEBAAEBQEAVTcomponent@@I@Z
??ATcomponentWeights@@QEBA?AVTweight@@I@Z
??ATdataCompound@@QEBAAEBVTdata@@I@Z
??ATdataDoubleArray@@QEAAAEANI@Z
??ATdataFloatArray@@QEAAAEAMI@Z
??ATdataInt32Array@@QEAAAEAHI@Z
??ATdataUInt64Array@@QEAAAEA_KI@Z
??ATdblPointArray@@QEAAAEAVTdblPoint@@I@Z
??ATdblPointArray@@QEBAAEBVTdblPoint@@I@Z
??ATdelayedMsgTypeArray@@QEAAAEAVTdelayedMsgType@@I@Z
??ATdelayedMsgTypeArray@@QEBAAEBVTdelayedMsgType@@I@Z
??ATdoubleArray@@QEAAAEANI@Z
??ATdoubleArray@@QEBAAEBNI@Z
??ATdoubleArrayPtrArray@@QEAAAEAPEAVTdoubleArray@@I@Z
??ATdoubleArrayPtrArray@@QEBAAEBQEAVTdoubleArray@@I@Z
??ATdoubleIndexLongArray@@QEAAAEAVTdoubleIndexLong@@I@Z
??ATdoubleIndexLongArray@@QEBAAEBVTdoubleIndexLong@@I@Z
??ATdoublePtrArray@@QEAAAEAPEANI@Z
??ATdoublePtrArray@@QEBAAEBQEANI@Z
??ATdoubleRangeArray@@QEAAAEAVTdoubleRange@@I@Z
??ATdoubleRangeArray@@QEBAAEBVTdoubleRange@@I@Z
??ATdoubleSortedArray@@QEAAAEANI@Z
??ATdoubleSortedArray@@QEBAAEBNI@Z
??ATdualQuaternionArray@@QEAAAEAVTdualQuaternion@@I@Z
??ATdualQuaternionArray@@QEBAAEBVTdualQuaternion@@I@Z
??ATfilePathArray@@QEAAAEAVTfilePath@@I@Z
??ATfilePathArray@@QEBAAEBVTfilePath@@I@Z
??ATfloatArray@@QEAAAEAMI@Z
??ATfloatArray@@QEBAAEBMI@Z
??ATfloatArrayPtrArray@@QEAAAEAPEAVTfloatArray@@I@Z
??ATfloatArrayPtrArray@@QEBAAEBQEAVTfloatArray@@I@Z
??ATfloatArrayPtrArrayPtrArray@@QEAAAEAPEAVTfloatArrayPtrArray@@I@Z
??ATfloatArrayPtrArrayPtrArray@@QEBAAEBQEAVTfloatArrayPtrArray@@I@Z
??ATfloatConstPtrArray@@QEAAAEAPEBMI@Z
??ATfloatConstPtrArray@@QEBAAEBQEBMI@Z
??ATfloatPtrArray@@QEAAAEAPEAMI@Z
??ATfloatPtrArray@@QEBAAEBQEAMI@Z
??ATfloatRangeArray@@QEAAAEAVTfloatRange@@I@Z
??ATfloatRangeArray@@QEBAAEBVTfloatRange@@I@Z
??ATfloatVoxelGrid@@QEAAAEAMI@Z
??ATfloatVoxelGrid@@QEBAMI@Z
??ATfltLineArray@@QEAAAEAVTfltLine@@I@Z
??ATfltLineArray@@QEBAAEBVTfltLine@@I@Z
??ATfltPoint@@QEAAAEAMI@Z
??ATfltPoint@@QEBAAEBMI@Z
??ATfltPointArray@@QEAAAEAVTfltPoint@@I@Z
??ATfltPointArray@@QEBAAEBVTfltPoint@@I@Z
??ATfltTuple@@QEAAAEAMI@Z
??ATfltTuple@@QEBAMI@Z
??ATiffTagArray@@QEAAAEAVTiffTag@@I@Z
??ATiffTagArray@@QEBAAEBVTiffTag@@I@Z
??ATindexArray@@QEAAAEAII@Z
??ATindexArray@@QEBAAEBII@Z
??ATindexRangeArray@@QEAAAEAVTindexRange@@I@Z
??ATindexRangeArray@@QEBAAEBVTindexRange@@I@Z
??ATint16Array@@QEAAAEAFI@Z
??ATint16Array@@QEBAAEBFI@Z
??ATint32Array@@QEAAAEAHI@Z
??ATint32Array@@QEBAAEBHI@Z
??ATint32ArrayPtrArray@@QEAAAEAPEAVTint32Array@@I@Z
??ATint32ArrayPtrArray@@QEBAAEBQEAVTint32Array@@I@Z
??ATint32SortedArray@@QEAAAEAHI@Z
??ATint32SortedArray@@QEBAAEBHI@Z
??ATint64Array@@QEAAAEA_JI@Z
??ATint64Array@@QEBAAEB_JI@Z
??ATlineArray@@QEAAAEAVTline@@I@Z
??ATlineArray@@QEBAAEBVTline@@I@Z
??ATmtThreadPtrArray@@QEAAAEAPEAVTmtThread@@I@Z
??ATmtThreadPtrArray@@QEBAAEBQEAVTmtThread@@I@Z
??ATnameObjectPtrArray@@QEAAAEAPEAVTnameObject@@I@Z
??ATnameObjectPtrArray@@QEBAAEBQEAVTnameObject@@I@Z
??ATnamespacePtrArray@@QEAAAEAPEAVTnamespace@@I@Z
??ATnamespacePtrArray@@QEBAAEBQEAVTnamespace@@I@Z
??ATobjArrayTbasketPtr@@QEAAAEAPEAVTbasket@@I@Z
??ATobjArrayTbasketPtr@@QEBAAEBQEAVTbasket@@I@Z
??ATobjectGroupIdArray@@QEAAAEAII@Z
??ATobjectGroupIdArray@@QEBAAEBII@Z
??ATobjectGroupPtrArray@@QEAAAEAPEAVTobjectGroup@@I@Z
??ATobjectGroupPtrArray@@QEBAAEBQEAVTobjectGroup@@I@Z
??ATpixelMapPtrArray@@QEAAAEAPEAVTpixelMap@@I@Z
??ATpixelMapPtrArray@@QEBAAEBQEAVTpixelMap@@I@Z
??ATpointArray@@QEAAAEAVTpoint@@I@Z
??ATpointArray@@QEBAAEBVTpoint@@I@Z
??ATpolyMapArray@@QEAAAEAVTpolyMap@@I@Z
??ATpolyMapArray@@QEBAAEBVTpolyMap@@I@Z
??ATpolyTangentSetArray@@QEAAAEAVTpolyTangentSet@@I@Z
??ATpolyTangentSetArray@@QEBAAEBVTpolyTangentSet@@I@Z
??ATpoolAllocatorPtrArray@@QEAAAEAPEAVTpoolAllocator@@I@Z
??ATpoolAllocatorPtrArray@@QEBAAEBQEAVTpoolAllocator@@I@Z
??ATportColor@@QEAAAEAMI@Z
??ATportColor@@QEBAMI@Z
??ATportColorArray@@QEAAAEAVTportColor@@I@Z
??ATportColorArray@@QEBAAEBVTportColor@@I@Z
??ATpreferenceItemPtrArray@@QEAAAEAPEAVTpreferenceItem@@I@Z
??ATpreferenceItemPtrArray@@QEBAAEBQEAVTpreferenceItem@@I@Z
??ATquaternion@@QEAAAEANI@Z
??ATquaternion@@QEBANI@Z
??ATquaternionArray@@QEAAAEAVTquaternion@@I@Z
??ATquaternionArray@@QEBAAEBVTquaternion@@I@Z
??ATquaternionArrayPtrArray@@QEAAAEAPEAVTquaternionArray@@I@Z
??ATquaternionArrayPtrArray@@QEBAAEBQEAVTquaternionArray@@I@Z
??ATrectArray@@QEAAAEAVTrect@@I@Z
??ATrectArray@@QEBAAEBVTrect@@I@Z
??ATrotateXYZ@@QEAAAEANI@Z
??ATrotateXYZ@@QEBANI@Z
??ATrotateXYZArray@@QEAAAEAVTrotateXYZ@@I@Z
??ATrotateXYZArray@@QEBAAEBVTrotateXYZ@@I@Z
??ATscale@@QEAAAEANI@Z
??ATscale@@QEBANI@Z
??ATscaleArray@@QEAAAEAVTscale@@I@Z
??ATscaleArray@@QEBAAEBVTscale@@I@Z
??ATsearchPath@@QEBA?AVTdirectoryPath@@I@Z
??ATselectedSrfDirectionsArray@@QEAAAEAW4TselectedSrfDirections@@I@Z
??ATselectedSrfDirectionsArray@@QEBAAEBW4TselectedSrfDirections@@I@Z
??ATsharedPixelMapArray@@QEAAAEAVTsharedPixelMap@@I@Z
??ATsharedPixelMapArray@@QEBAAEBVTsharedPixelMap@@I@Z
??ATshear2@@QEAAAEANI@Z
??ATshear2@@QEBANI@Z
??ATshear@@QEAAAEANI@Z
??ATshear@@QEBANI@Z
??ATsortedBdDataPtrArray@@QEAAAEAVTbdDataPtrSObj@@I@Z
??ATsortedBdDataPtrArray@@QEBAAEBVTbdDataPtrSObj@@I@Z
??ATsortedObjectGroupIdArray@@QEAAAEAII@Z
??ATsortedObjectGroupIdArray@@QEBAAEBII@Z
??ATsortedStringArray@@QEAAAEAVTstring@@I@Z
??ATsortedStringArray@@QEBAAEBVTstring@@I@Z
??ATstring@@QEBADI@Z
??ATstringArray@@QEAAAEAVTstring@@I@Z
??ATstringArray@@QEBAAEBVTstring@@I@Z
??ATstringPtrArray@@QEAAAEAPEAVTstring@@I@Z
??ATstringPtrArray@@QEBAAEBQEAVTstring@@I@Z
??ATsurfSelectedBoundaryTypeArray@@QEAAAEAW4TsurfSelectedBoundaryType@@I@Z
??ATsurfSelectedBoundaryTypeArray@@QEBAAEBW4TsurfSelectedBoundaryType@@I@Z
??ATsurfaceDirectionArray@@QEAAAEAW4TsurfaceDirection@@I@Z
??ATsurfaceDirectionArray@@QEBAAEBW4TsurfaceDirection@@I@Z
??ATsurfaceIndexArray@@QEAAAEAVTsurfaceIndex@@I@Z
??ATsurfaceIndexArray@@QEBAAEBVTsurfaceIndex@@I@Z
??ATtimeRangeArray@@QEAAAEAVTtimeRange@@I@Z
??ATtimeRangeArray@@QEBAAEBVTtimeRange@@I@Z
??ATtimeValueArray@@QEAAAEAVTtimeValue@@I@Z
??ATtimeValueArray@@QEBAAEBVTtimeValue@@I@Z
??ATtimeValueArrayPtrArray@@QEAAAEAPEAVTtimeValueArray@@I@Z
??ATtimeValueArrayPtrArray@@QEBAAEBQEAVTtimeValueArray@@I@Z
??ATtimeValuePtrArray@@QEAAAEAPEAPEAVTtimeValue@@I@Z
??ATtimeValuePtrArray@@QEBAAEBQEAPEAVTtimeValue@@I@Z
??ATtriggerPtrArray@@QEAAAEAPEAVTtrigger@@I@Z
??ATtriggerPtrArray@@QEBAAEBQEAVTtrigger@@I@Z
??ATtriple@@QEAAAEANI@Z
??ATtriple@@QEAAAEANW4Taxis@@@Z
??ATtriple@@QEBANI@Z
??ATtriple@@QEBANW4Taxis@@@Z
??ATtuple@@QEAAAEANI@Z
??ATtuple@@QEBANI@Z
??ATtypeidArray@@QEAAAEAPEAVTmetaclass@@I@Z
??ATtypeidArray@@QEBAAEBQEAVTmetaclass@@I@Z
??ATuInt16Array@@QEAAAEAGI@Z
??ATuInt16Array@@QEBAAEBGI@Z
??ATuInt16SortedArray@@QEAAAEAGI@Z
??ATuInt16SortedArray@@QEBAAEBGI@Z
??ATuInt32Array@@QEAAAEAII@Z
??ATuInt32Array@@QEBAAEBII@Z
??ATuInt32ArrayPtrArray@@QEAAAEAPEAVTuInt32Array@@I@Z
??ATuInt32ArrayPtrArray@@QEBAAEBQEAVTuInt32Array@@I@Z
??ATuInt32SortedArray@@QEAAAEAII@Z
??ATuInt32SortedArray@@QEBAAEBII@Z
??ATuInt64Array@@QEAAAEA_KI@Z
??ATuInt64Array@@QEBAAEB_KI@Z
??ATuInt64SortedArray@@QEAAAEA_KI@Z
??ATuInt64SortedArray@@QEBAAEB_KI@Z
??ATuInt8Array@@QEAAAEAEI@Z
??ATuInt8Array@@QEBAAEBEI@Z
??ATuInt8ArrayPtrArray@@QEAAAEAPEAVTuInt8Array@@I@Z
??ATuInt8ArrayPtrArray@@QEBAAEBQEAVTuInt8Array@@I@Z
??ATuniqueString@@QEBADI@Z
??ATuvPointArray@@QEAAAEAVTuvPoint@@I@Z
??ATuvPointArray@@QEBAAEBVTuvPoint@@I@Z
??ATvaluesArrayPtrArray@@QEAAAEAPEAVTdoubleArray@@I@Z
??ATvaluesArrayPtrArray@@QEBAAEBQEAVTdoubleArray@@I@Z
??ATviewRegionArray@@QEAAAEAVTviewRegion@@I@Z
??ATviewRegionArray@@QEBAAEBVTviewRegion@@I@Z
??ATvoidPtrArray@@QEAAAEAPEAXI@Z
??ATvoidPtrArray@@QEBAAEBQEAXI@Z
??ATvoidPtrSortedArray@@QEAAAEAPEAXI@Z
??ATvoidPtrSortedArray@@QEBAAEBQEAXI@Z
??ATxformMatrixArray@@QEAAAEAVTxformMatrix@@I@Z
??ATxformMatrixArray@@QEBAAEBVTxformMatrix@@I@Z
??ATxformMatrixPtrArray@@QEAAAEAPEAVTxformMatrix@@I@Z
??ATxformMatrixPtrArray@@QEBAAEBQEAVTxformMatrix@@I@Z
??BT2dFltVector@@QEBA?AVT4dFltMatrix@@XZ
??BT3dFltVector@@QEBA?AVT4dFltMatrix@@XZ
??BT4dDblVector@@QEBA?AVT4dDblMatrix@@XZ
??BT4dFltPoint@@QEBA?AVT4dDblPoint@@XZ
??BTapiObj@@QEAA?AVMObject@@XZ
??BTcondition@@QEAA_NXZ
??BTenvironmentVariable@@QEBAPEBDXZ
??BTmtRefCounter@@QEAAHXZ
??BTmtRefCounter@@QEBAHXZ
??BTquaternion@@QEBA?AVT4dDblMatrix@@XZ
??BTrotateXYZ@@QEBA?AVT4dDblMatrix@@XZ
??BTrotateXYZ@@QEBA?AVTquaternion@@XZ
??BTscale@@QEBA?AVT4dDblMatrix@@XZ
??BTsharedPixelMap@@QEBAPEAVTpixelMap@@XZ
??BTsharedReference@@QEBA_NXZ
??BTshear2@@QEBA?AVT4dDblMatrix@@XZ
??BTshear@@QEBA?AVT4dDblMatrix@@XZ
??BTuniqueString@@QEBA?AVTnameString@@XZ
??BTuniqueString@@QEBAAEBVTstring@@XZ
??CTsharedPixelMap@@QEAAPEAVTpixelMap@@XZ
??CTsharedPixelMap@@QEBAPEBVTpixelMap@@XZ
??D@YA?AVT3dDblPoint@@AEBVT4dDblMatrix@@AEBV0@@Z
??D@YA?AVT3dFltPoint@@AEBVT4dFltMatrix@@AEBV0@@Z
??D@YA?AVT3dFltVector@@AEBVT4dFltMatrix@@AEBV0@@Z
??D@YA?AVT4dDblPoint@@AEBVT4dDblMatrix@@AEBV0@@Z
??D@YA?AVT4dDblVector@@AEBVT4dDblMatrix@@AEBV0@@Z
??D@YA?AVT4dFltPoint@@AEBVT4dFltMatrix@@AEBV0@@Z
??D@YA?AVTangle@@AEBV0@N@Z
??D@YA?AVTfltLine@@AEBVT4dFltMatrix@@AEBV0@@Z
??D@YA?AVTrotateXYZ@@NAEBV0@@Z
??D@YA?AVTtuple@@AEBVT4dDblMatrix@@AEBV0@@Z
??D@YA?AVTtuple@@NAEBV0@@Z
??D@YA?AVTtuple@@NAEBVT4dDblPoint@@@Z
??DT2dFltPoint@@QEBA?AV0@AEBVT4dFltMatrix@@@Z
??DT2dFltVector@@QEBA?AV0@AEBVT4dFltMatrix@@@Z
??DT2dFltVector@@QEBA?AV0@M@Z
??DT2dFltVector@@QEBAMAEBV0@@Z
??DT3dDblPoint@@QEBA?AV0@AEBVT4dDblMatrix@@@Z
??DT3dDblPoint@@QEBA?AVTtuple@@N@Z
??DT3dFltPoint@@QEBA?AV0@AEBVT4dFltMatrix@@@Z
??DT3dFltPoint@@QEBA?AVTfltTuple@@M@Z
??DT3dFltVector@@QEBA?AV0@AEBVT4dFltMatrix@@@Z
??DT3dFltVector@@QEBA?AV0@M@Z
??DT3dFltVector@@QEBAMAEBV0@@Z
??DT4dDblMatrix@@QEBA?AV0@AEBV0@@Z
??DT4dDblMatrix@@QEBA?AV0@N@Z
??DT4dDblPoint@@QEBA?AV0@AEBVT4dDblMatrix@@@Z
??DT4dDblPoint@@QEBA?AVTtuple@@N@Z
??DT4dDblVector@@QEBA?AV0@AEBVT4dDblMatrix@@@Z
??DT4dDblVector@@QEBA?AV0@N@Z
??DT4dDblVector@@QEBANAEBV0@@Z
??DT4dFltMatrix@@QEBA?AV0@AEBV0@@Z
??DT4dFltMatrix@@QEBA?AV0@M@Z
??DT4dFltPoint@@QEBA?AV0@AEBVT4dFltMatrix@@@Z
??DT4dFltPoint@@QEBA?AVTfltTuple@@M@Z
??DTanimTime@@QEBA?AV0@AEBV0@@Z
??DTanimTime@@QEBA?AV0@N@Z
??DTboundingBox@@QEBA?AV0@AEBVT4dDblMatrix@@@Z
??DTboundingSphere@@QEBA?AV0@AEBVT4dDblMatrix@@@Z
??DTdata@@QEBA?AV0@AEBV0@@Z
??DTdualQuaternion@@QEBA?AV0@AEBN@Z
??DTdualQuaternion@@QEBA?AV0@AEBV0@@Z
??DTdualQuaternion@@QEBA?AV0@AEBVT4dDblVector@@@Z
??DTfltBoundingSphere@@QEBA?AV0@AEBVT4dFltMatrix@@@Z
??DTfltBox@@QEBA?AV0@AEBVT4dFltMatrix@@@Z
??DTfltFrustum@@QEBA?AV0@AEBVT4dFltMatrix@@@Z
??DTfltLine@@QEBA?AV0@AEBVT4dFltMatrix@@@Z
??DTfltTuple@@QEBA?AV0@M@Z
??DTfrustum@@QEBA?AV0@AEBVT4dDblMatrix@@@Z
??DTline@@QEBA?AV0@AEBVT4dDblMatrix@@@Z
??DTpoint@@QEBA?AV0@N@Z
??DTportColor@@QEBA?AV0@AEBV0@@Z
??DTportColor@@QEBA?AV0@M@Z
??DTquaternion@@QEBA?AV0@AEBV0@@Z
??DTquaternion@@QEBA?AV0@AEBVT4dDblVector@@@Z
??DTreflectance@@AEBA?AVTspectrum@@AEBV0@@Z
??DTreflectance@@AEBA?AVTspectrum@@M@Z
??DTreflectance@@QEBA?AVTspectrum@@AEBV1@@Z
??DTrotateXYZ@@QEBA?AV0@AEBV0@@Z
??DTrotateXYZ@@QEBA?AV0@AEBVTquaternion@@@Z
??DTrotateXYZ@@QEBA?AV0@N@Z
??DTscale@@QEBA?AV0@AEBV0@@Z
??DTscale@@QEBA?AV0@N@Z
??DTsharedPixelMap@@QEAAAEAVTpixelMap@@XZ
??DTsharedPixelMap@@QEBAAEBVTpixelMap@@XZ
??DTshear2@@QEAA?AV0@AEBV0@@Z
??DTshear@@QEAA?AV0@AEBV0@@Z
??DTspectrum@@QEBA?AV0@AEBV0@@Z
??DTspectrum@@QEBA?AV0@AEBVTreflectance@@@Z
??DTspectrum@@QEBA?AV0@M@Z
??DTstring@@QEBAPEBDXZ
??DTtimeValue@@QEBA?AV0@AEBM@Z
??DTtimeValue@@QEBA?AV0@AEBV0@@Z
??DTtuple@@QEBA?AV0@N@Z
??DTuniqueString@@QEBAPEBDXZ
??ETmtRefCounter@@QEAAHXZ
??FTmtRefCounter@@QEAAHXZ
??G@YA?AVTangle@@AEBV0@0@Z
??G@YA?AVTangle@@AEBV0@@Z
??GT2dFltPoint@@QEBA?AV0@AEBVT2dFltVector@@@Z
??GT2dFltPoint@@QEBA?AVT2dFltVector@@AEBV0@@Z
??GT2dFltVector@@QEBA?AV0@AEBV0@@Z
??GT2dFltVector@@QEBA?AV0@XZ
??GT3dDblPoint@@QEBA?AV0@AEBVT4dDblVector@@@Z
??GT3dDblPoint@@QEBA?AVT4dDblVector@@AEBV0@@Z
??GT3dDblPoint@@QEBA?AVT4dDblVector@@AEBVT4dDblPoint@@@Z
??GT3dDblPoint@@QEBA?AVTtuple@@AEBV1@@Z
??GT3dFltPoint@@QEBA?AV0@AEBVT3dFltVector@@@Z
??GT3dFltPoint@@QEBA?AVT3dFltVector@@AEBV0@@Z
??GT3dFltPoint@@QEBA?AVT3dFltVector@@AEBVT4dFltPoint@@@Z
??GT3dFltPoint@@QEBA?AVTfltTuple@@AEBV1@@Z
??GT3dFltVector@@QEBA?AV0@AEBV0@@Z
??GT3dFltVector@@QEBA?AV0@XZ
??GT3dFltVector@@QEBA?AVTfltTuple@@AEBV1@@Z
??GT4dDblPoint@@QEBA?AV0@AEBVT4dDblVector@@@Z
??GT4dDblPoint@@QEBA?AVT4dDblVector@@AEBV0@@Z
??GT4dDblPoint@@QEBA?AVT4dDblVector@@AEBVT3dDblPoint@@@Z
??GT4dDblPoint@@QEBA?AVTtuple@@AEBV1@@Z
??GT4dDblVector@@QEBA?AV0@AEBV0@@Z
??GT4dDblVector@@QEBA?AV0@XZ
??GT4dDblVector@@QEBA?AVTtuple@@AEBV1@@Z
??GT4dFltPoint@@QEBA?AV0@AEBVT3dFltVector@@@Z
??GT4dFltPoint@@QEBA?AVT3dFltVector@@AEBV0@@Z
??GT4dFltPoint@@QEBA?AVT3dFltVector@@AEBVT3dFltPoint@@@Z
??GT4dFltPoint@@QEBA?AVTfltTuple@@AEBV1@@Z
??GTanimTime@@QEBA?AV0@AEBV0@@Z
??GTdata@@QEBA?AV0@AEBV0@@Z
??GTdualQuaternion@@QEBA?AV0@AEBV0@@Z
??GTdualQuaternion@@QEBA?AV0@XZ
??GTduration@@QEBA?AV0@AEBV0@@Z
??GTfltTuple@@QEBA?AV0@AEBV0@@Z
??GTfltTuple@@QEBA?AV0@AEBVT3dFltPoint@@@Z
??GTfltTuple@@QEBA?AV0@AEBVT3dFltVector@@@Z
??GTfltTuple@@QEBA?AV0@AEBVT4dFltPoint@@@Z
??GTfltTuple@@QEBA?AV0@XZ
??GTosTime@@QEBA?AV0@AEBV0@@Z
??GTpoint@@QEBA?AV0@AEBV0@@Z
??GTpoint@@QEBA?AV0@XZ
??GTportColor@@QEBA?AV0@AEBV0@@Z
??GTportColor@@QEBA?AV0@M@Z
??GTquaternion@@QEBA?AV0@AEBV0@@Z
??GTquaternion@@QEBA?AV0@XZ
??GTreflectance@@AEBA?AVTspectrum@@AEBV1@@Z
??GTrotateXYZ@@QEBA?AV0@AEBV0@@Z
??GTrotateXYZ@@QEBA?AV0@XZ
??GTspectrum@@QEBA?AV0@AEBV0@@Z
??GTtime@@QEBA?AV0@AEBVTduration@@@Z
??GTtime@@QEBA?AVTduration@@AEBV0@@Z
??GTtimeValue@@QEBA?AV0@AEBV0@@Z
??GTtuple@@QEBA?AV0@AEBV0@@Z
??GTtuple@@QEBA?AV0@AEBVT3dDblPoint@@@Z
??GTtuple@@QEBA?AV0@AEBVT4dDblPoint@@@Z
??GTtuple@@QEBA?AV0@AEBVT4dDblVector@@@Z
??GTtuple@@QEBA?AV0@XZ
??H@YA?AUtimeval@@AEBU0@0@Z
??H@YA?AVTangle@@AEBV0@0@Z
??H@YA?AVTlinear@@AEBV0@0@Z
??HT2dFltPoint@@QEBA?AV0@AEBVT2dFltVector@@@Z
??HT2dFltVector@@QEBA?AV0@AEBV0@@Z
??HT3dDblPoint@@QEBA?AV0@AEBVT4dDblVector@@@Z
??HT3dDblPoint@@QEBA?AVTtuple@@AEBV0@@Z
??HT3dDblPoint@@QEBA?AVTtuple@@AEBV1@@Z
??HT3dDblPoint@@QEBA?AVTtuple@@AEBVT4dDblPoint@@@Z
??HT3dFltPoint@@QEBA?AV0@AEBVT3dFltVector@@@Z
??HT3dFltPoint@@QEBA?AVTfltTuple@@AEBV0@@Z
??HT3dFltPoint@@QEBA?AVTfltTuple@@AEBV1@@Z
??HT3dFltPoint@@QEBA?AVTfltTuple@@AEBVT4dFltPoint@@@Z
??HT3dFltVector@@QEBA?AV0@AEBV0@@Z
??HT3dFltVector@@QEBA?AVTfltTuple@@AEBV1@@Z
??HT4dDblPoint@@QEBA?AV0@AEBVT4dDblVector@@@Z
??HT4dDblPoint@@QEBA?AVTtuple@@AEBV0@@Z
??HT4dDblPoint@@QEBA?AVTtuple@@AEBV1@@Z
??HT4dDblPoint@@QEBA?AVTtuple@@AEBVT3dDblPoint@@@Z
??HT4dDblVector@@QEBA?AV0@AEBV0@@Z
??HT4dDblVector@@QEBA?AVTtuple@@AEBV1@@Z
??HT4dFltPoint@@QEBA?AV0@AEBVT3dFltVector@@@Z
??HT4dFltPoint@@QEBA?AVTfltTuple@@AEBV0@@Z
??HT4dFltPoint@@QEBA?AVTfltTuple@@AEBV1@@Z
??HT4dFltPoint@@QEBA?AVTfltTuple@@AEBVT3dFltPoint@@@Z
??HTanimTime@@QEBA?AV0@AEBV0@@Z
??HTdata@@QEBA?AV0@AEBV0@@Z
??HTdualQuaternion@@QEBA?AV0@AEBV0@@Z
??HTduration@@QEBA?AV0@AEBV0@@Z
??HTfltTuple@@QEBA?AV0@AEBV0@@Z
??HTfltTuple@@QEBA?AV0@AEBVT3dFltPoint@@@Z
??HTfltTuple@@QEBA?AV0@AEBVT3dFltVector@@@Z
??HTfltTuple@@QEBA?AV0@AEBVT4dFltPoint@@@Z
??HTosTime@@QEBA?AV0@AEBV0@@Z
??HTpoint@@QEBA?AV0@AEBV0@@Z
??HTportColor@@QEBA?AV0@AEBV0@@Z
??HTportColor@@QEBA?AV0@M@Z
??HTquaternion@@QEBA?AV0@AEBV0@@Z
??HTreflectance@@AEBA?AVTspectrum@@AEBV1@@Z
??HTrotateXYZ@@QEBA?AV0@AEBV0@@Z
??HTspectrum@@QEBA?AV0@AEBV0@@Z
??HTstring@@QEBA?AV0@AEBV0@@Z
??HTstring@@QEBA?AV0@PEBD@Z
??HTtime@@QEBA?AV0@AEBVTduration@@@Z
??HTtimeValue@@QEBA?AV0@AEBV0@@Z
??HTtuple@@QEBA?AV0@AEBV0@@Z
??HTtuple@@QEBA?AV0@AEBVT3dDblPoint@@@Z
??HTtuple@@QEBA?AV0@AEBVT4dDblPoint@@@Z
??HTtuple@@QEBA?AV0@AEBVT4dDblVector@@@Z
??ITbitField128@@QEBA?AV0@AEBV0@@Z
??ITbitField16@@QEBAGAEBV0@@Z
??ITbitField16@@QEBAGG@Z
??ITbitField32@@QEBAIAEBV0@@Z
??ITbitField32@@QEBAII@Z
??ITbitField64@@QEBA?AV0@AEBV0@@Z
??ITbitField64@@QEBA_K_K@Z
??ITboundingBox@@QEBA?AV0@AEBV0@@Z
??ITfltBox@@QEBA?AV0@AEBV0@@Z
??ITfltInterval@@QEBA?AV0@AEBVTinterval@@@Z
??ITfltInterval@@QEBA?AV0@V0@@Z
??K@YA?AVTangle@@AEBV0@N@Z
??KT2dFltVector@@QEBA?AV0@M@Z
??KT3dDblPoint@@QEBA?AVTtuple@@N@Z
??KT3dFltPoint@@QEBA?AVTfltTuple@@M@Z
??KT3dFltVector@@QEBA?AV0@M@Z
??KT4dDblPoint@@QEBA?AVTtuple@@N@Z
??KT4dDblVector@@QEBA?AV0@N@Z
??KT4dFltPoint@@QEBA?AVTfltTuple@@M@Z
??KTanimTime@@QEBA?AV0@AEBV0@@Z
??KTanimTime@@QEBA?AV0@N@Z
??KTdata@@QEBA?AV0@AEBV0@@Z
??KTfltTuple@@QEBA?AV0@M@Z
??KTportColor@@QEBA?AV0@AEBV0@@Z
??KTportColor@@QEBA?AV0@M@Z
??KTreflectance@@AEBA?AVTspectrum@@M@Z
??KTscale@@QEBA?AV0@AEBV0@@Z
??KTshear2@@QEAA?AV0@AEBV0@@Z
??KTshear@@QEAA?AV0@AEBV0@@Z
??KTspectrum@@QEBA?AV0@M@Z
??KTtimeValue@@QEBA?AV0@AEBV0@@Z
??KTtuple@@QEBA?AV0@N@Z
??M@YAHAEBUtimeval@@0@Z
??MTangle@@QEBA_NAEBV0@@Z
??MTanimTime@@QEBA_NAEBV0@@Z
??MTbitField16@@QEBA_NAEBV0@@Z
??MTbitField32@@QEBA_NAEBV0@@Z
??MTbitField64@@QEBA_NAEBV0@@Z
??MTcharString@@QEBA_NAEBV0@@Z
??MTdata@@QEBA_NAEBV0@@Z
??MTdataLetter@@UEBA_NAEBV0@@Z
??MTdataLetter@@UEBA_NAEBVTdata@@@Z
??MTdataMatrix@@UEBA_NAEBV0@@Z
??MTdataMatrix@@UEBA_NAEBVTdata@@@Z
??MTdataMatrix@@UEBA_NAEBVTdataLetter@@@Z
??MTdbTrace@@QEBA_NAEBV0@@Z
??MTdoubleIndexLong@@QEBA_NAEBV0@@Z
??MTduration@@QEBA_NAEBV0@@Z
??MThwrCallback@@QEBA_NAEBV0@@Z
??MTnameString@@QEBA_NAEBV0@@Z
??MTspectrum@@QEBA_NAEBV0@@Z
??MTstring@@QEBA_NAEBV0@@Z
??MTstring@@QEBA_NPEBD@Z
??MTsurfaceIndex@@QEBA_NAEBV0@@Z
??MTtime@@QEBA_NAEBV0@@Z
??MTtimeValue@@QEBA_NAEBV0@@Z
??MTuniqueString@@QEBA_NAEBV0@@Z
??N@YAHAEBUtimeval@@0@Z
??NTangle@@QEBA_NAEBV0@@Z
??NTanimTime@@QEBA_NAEBV0@@Z
??NTcharString@@QEBA_NAEBV0@@Z
??NTdata@@QEBA_NAEBV0@@Z
??NTdataLetter@@UEBA_NAEBV0@@Z
??NTdataLetter@@UEBA_NAEBVTdata@@@Z
??NTdataMatrix@@UEBA_NAEBV0@@Z
??NTdataMatrix@@UEBA_NAEBVTdata@@@Z
??NTdataMatrix@@UEBA_NAEBVTdataLetter@@@Z
??NTdbTrace@@QEBA_NAEBV0@@Z
??NTdoubleIndexLong@@QEBA_NAEBV0@@Z
??NTduration@@QEBA_NAEBV0@@Z
??NThwrCallback@@QEBA_NAEBV0@@Z
??NTnameString@@QEBA_NAEBV0@@Z
??NTspectrum@@QEBA_NAEBV0@@Z
??NTstring@@QEBA_NAEBV0@@Z
??NTstring@@QEBA_NPEBD@Z
??NTsurfaceIndex@@QEBA_NAEBV0@@Z
??NTtime@@QEBA_NAEBV0@@Z
??NTtimeValue@@QEBA_NAEBV0@@Z
??NTuniqueString@@QEBA_NAEBV0@@Z
??OTangle@@QEBA_NAEBV0@@Z
??OTanimTime@@QEBA_NAEBV0@@Z
??OTcharString@@QEBA_NAEBV0@@Z
??OTdata@@QEBA_NAEBV0@@Z
??OTdataLetter@@UEBA_NAEBV0@@Z
??OTdataLetter@@UEBA_NAEBVTdata@@@Z
??OTdataMatrix@@UEBA_NAEBV0@@Z
??OTdataMatrix@@UEBA_NAEBVTdata@@@Z
??OTdataMatrix@@UEBA_NAEBVTdataLetter@@@Z
??OTdbTrace@@QEBA_NAEBV0@@Z
??OTdoubleIndexLong@@QEBA_NAEBV0@@Z
??OTduration@@QEBA_NAEBV0@@Z
??OThwrCallback@@QEBA_NAEBV0@@Z
??OTnameString@@QEBA_NAEBV0@@Z
??OTspectrum@@QEBA_NAEBV0@@Z
??OTstring@@QEBA_NAEBV0@@Z
??OTstring@@QEBA_NPEBD@Z
??OTsurfaceIndex@@QEBA_NAEBV0@@Z
??OTtime@@QEBA_NAEBV0@@Z
??OTtimeValue@@QEBA_NAEBV0@@Z
??OTuniqueString@@QEBA_NAEBV0@@Z
??OTweight@@QEBA_NAEBV0@@Z
??PTangle@@QEBA_NAEBV0@@Z
??PTanimTime@@QEBA_NAEBV0@@Z
??PTcharString@@QEBA_NAEBV0@@Z
??PTdata@@QEBA_NAEBV0@@Z
??PTdataLetter@@UEBA_NAEBV0@@Z
??PTdataLetter@@UEBA_NAEBVTdata@@@Z
??PTdataMatrix@@UEBA_NAEBV0@@Z
??PTdataMatrix@@UEBA_NAEBVTdata@@@Z
??PTdataMatrix@@UEBA_NAEBVTdataLetter@@@Z
??PTdbTrace@@QEBA_NAEBV0@@Z
??PTdoubleIndexLong@@QEBA_NAEBV0@@Z
??PTduration@@QEBA_NAEBV0@@Z
??PThwrCallback@@QEBA_NAEBV0@@Z
??PTnameString@@QEBA_NAEBV0@@Z
??PTspectrum@@QEBA_NAEBV0@@Z
??PTstring@@QEBA_NAEBV0@@Z
??PTstring@@QEBA_NPEBD@Z
??PTsurfaceIndex@@QEBA_NAEBV0@@Z
??PTtime@@QEBA_NAEBV0@@Z
??PTtimeValue@@QEBA_NAEBV0@@Z
??PTuniqueString@@QEBA_NAEBV0@@Z
??RT2dFltPoint@@QEAAAEAMF@Z
??RT2dFltVector@@QEAAAEAMF@Z
??RT3dDblPoint@@QEAAAEANF@Z
??RT3dFltPoint@@QEAAAEAMF@Z
??RT3dFltVector@@QEAAAEAMF@Z
??RT4dDblMatrix@@QEAAAEANFF@Z
??RT4dDblMatrix@@QEBAAEBNFF@Z
??RT4dDblPoint@@QEAAAEANF@Z
??RT4dDblVector@@QEAAAEANF@Z
??RT4dFltMatrix@@QEAAAEAMFF@Z
??RT4dFltMatrix@@QEBAAEBMFF@Z
??RT4dFltPoint@@QEAAAEAMF@Z
??RTdataCompound@@QEBAPEBXIPEAVTmetaclass@@@Z
??RTfltLine@@QEBA?AVT3dFltPoint@@M@Z
??RTfltPlane@@QEBA?AVT3dFltPoint@@MM@Z
??RTfltTuple@@QEAAAEAMF@Z
??RTline@@QEBA?AVT4dDblPoint@@N@Z
??RTplane@@QEBA?AVT4dDblPoint@@NN@Z
??RTquaternion@@QEAAAEANH@Z
??STbitField128@@QEBA?AV0@XZ
??STbitField16@@QEBAGXZ
??STbitField32@@QEBAIXZ
??STbitField64@@QEBA_KXZ
??TT2dFltVector@@QEBAMAEBV0@@Z
??TT3dFltVector@@QEBA?AV0@AEBV0@@Z
??TT4dDblVector@@QEBA?AV0@AEBV0@@Z
??TTportColor@@QEAA?AV0@AEBV0@@Z
??UTbitField128@@QEBA?AV0@AEBV0@@Z
??UTbitField16@@QEBAGAEBV0@@Z
??UTbitField16@@QEBAGG@Z
??UTbitField32@@QEBAIAEBV0@@Z
??UTbitField32@@QEBAII@Z
??UTbitField64@@QEBA?AV0@AEBV0@@Z
??UTbitField64@@QEBA_K_K@Z
??UTboundingBox@@QEBA?AV0@AEBV0@@Z
??UTfltBox@@QEBA?AV0@AEBV0@@Z
??UTfltInterval@@QEBA?AV0@AEBVTinterval@@@Z
??UTfltInterval@@QEBA?AV0@V0@@Z
??VTboundingBox@@QEBA_NAEBV0@@Z
??VTfltBox@@QEBA_NAEBV0@@Z
??VTfltInterval@@QEBA_NAEBVTinterval@@@Z
??VTfltInterval@@QEBA_NV0@@Z
??XT2dFltPoint@@QEAAAEAV0@AEBVT4dFltMatrix@@@Z
??XT2dFltPoint@@QEAAAEAV0@M@Z
??XT2dFltVector@@QEAAAEAV0@AEBVT4dFltMatrix@@@Z
??XT2dFltVector@@QEAAAEAV0@M@Z
??XT3dDblPoint@@QEAAAEAV0@AEBVT4dDblMatrix@@@Z
??XT3dDblPoint@@QEAAAEAV0@N@Z
??XT3dFltPoint@@QEAAAEAV0@AEBVT4dFltMatrix@@@Z
??XT3dFltPoint@@QEAAAEAV0@M@Z
??XT3dFltVector@@QEAAAEAV0@AEBVT4dFltMatrix@@@Z
??XT3dFltVector@@QEAAAEAV0@M@Z
??XT4dDblMatrix@@QEAAAEAV0@AEBV0@@Z
??XT4dDblMatrix@@QEAAAEAV0@N@Z
??XT4dDblPoint@@QEAAAEAV0@AEBVT4dDblMatrix@@@Z
??XT4dDblPoint@@QEAAAEAV0@N@Z
??XT4dDblVector@@QEAAAEAV0@AEBVT4dDblMatrix@@@Z
??XT4dDblVector@@QEAAAEAV0@N@Z
??XT4dFltMatrix@@QEAAAEAV0@AEBV0@@Z
??XT4dFltMatrix@@QEAAAEAV0@M@Z
??XT4dFltPoint@@QEAAAEAV0@AEBVT4dFltMatrix@@@Z
??XT4dFltPoint@@QEAAAEAV0@M@Z
??XTangle@@QEAAAEAV0@N@Z
??XTanimTime@@QEAAAEAV0@AEBV0@@Z
??XTanimTime@@QEAAAEAV0@N@Z
??XTboundingBox@@QEAAAEAV0@AEBVT4dDblMatrix@@@Z
??XTboundingSphere@@QEAAAEAV0@AEBVT4dDblMatrix@@@Z
??XTdata@@QEAAXAEBV0@@Z
??XTdataLetter@@UEAAXAEBV0@@Z
??XTdataLetter@@UEAAXAEBVTdata@@@Z
??XTdataMatrix@@UEAAXAEBV0@@Z
??XTdataMatrix@@UEAAXAEBVTdata@@@Z
??XTdataMatrix@@UEAAXAEBVTdataLetter@@@Z
??XTdualQuaternion@@QEAAAEAV0@AEBV0@@Z
??XTfltBoundingSphere@@QEAAAEAV0@AEBVT4dFltMatrix@@@Z
??XTfltBounds@@QEAAAEAV0@AEBVT4dFltMatrix@@@Z
??XTfltBox@@QEAAAEAV0@AEBVT4dFltMatrix@@@Z
??XTfltFrustum@@QEAAAEAV0@AEBVT4dFltMatrix@@@Z
??XTfltLine@@QEAAAEAV0@AEBVT4dFltMatrix@@@Z
??XTfltTuple@@QEAAAEAV0@AEBVT4dFltMatrix@@@Z
??XTfltTuple@@QEAAAEAV0@M@Z
??XTfrustum@@QEAAAEAV0@AEBVT4dDblMatrix@@@Z
??XTline@@QEAAAEAV0@AEBVT4dDblMatrix@@@Z
??XTlinear@@QEAAAEAV0@N@Z
??XTpoint@@QEAAXN@Z
??XTportColor@@QEAAAEAV0@AEBV0@@Z
??XTportColor@@QEAAAEAV0@M@Z
??XTquaternion@@QEAAAEAV0@AEBV0@@Z
??XTreflectance@@AEAAXAEBV0@@Z
??XTreflectance@@AEAAXM@Z
??XTrotateXYZ@@QEAAAEAV0@AEBV0@@Z
??XTrotateXYZ@@QEAAAEAV0@AEBVTquaternion@@@Z
??XTrotateXYZ@@QEAAAEAV0@N@Z
??XTscale@@QEAAAEAV0@AEBV0@@Z
??XTscale@@QEAAAEAV0@N@Z
??XTshear2@@QEAAAEAV0@AEBV0@@Z
??XTshear@@QEAAAEAV0@AEBV0@@Z
??XTspectrum@@QEAAXAEBV0@@Z
??XTspectrum@@QEAAXAEBVTreflectance@@@Z
??XTspectrum@@QEAAXM@Z
??XTtuple@@QEAAAEAV0@AEBVT4dDblMatrix@@@Z
??XTtuple@@QEAAAEAV0@N@Z
??YT2dFltPoint@@QEAAAEAV0@AEBV0@@Z
??YT2dFltPoint@@QEAAAEAV0@AEBVT2dFltVector@@@Z
??YT2dFltVector@@QEAAAEAV0@AEBV0@@Z
??YT3dDblPoint@@QEAAAEAV0@AEBVT4dDblVector@@@Z
??YT3dFltPoint@@QEAAAEAV0@AEBV0@@Z
??YT3dFltPoint@@QEAAAEAV0@AEBVT3dFltVector@@@Z
??YT3dFltVector@@QEAAAEAV0@AEBV0@@Z
??YT4dDblMatrix@@QEAAAEAV0@AEBV0@@Z
??YT4dDblPoint@@QEAAAEAV0@AEBVT4dDblVector@@@Z
??YT4dDblVector@@QEAAAEAV0@AEBV0@@Z
??YT4dFltMatrix@@QEAAAEAV0@AEBV0@@Z
??YT4dFltPoint@@QEAAAEAV0@AEBVT3dFltVector@@@Z
??YTangle@@QEAAAEAV0@AEBV0@@Z
??YTanimTime@@QEAAAEAV0@AEBV0@@Z
??YTdata@@QEAAXAEBV0@@Z
??YTdataLetter@@UEAAXAEBV0@@Z
??YTdataLetter@@UEAAXAEBVTdata@@@Z
??YTdataMatrix@@UEAAXAEBV0@@Z
??YTdataMatrix@@UEAAXAEBVTdata@@@Z
??YTdataMatrix@@UEAAXAEBVTdataLetter@@@Z
??YTdblPoint@@QEAAAEAV0@AEBV0@@Z
??YTdualQuaternion@@QEAAAEAV0@AEBV0@@Z
??YTduration@@QEAAAEAV0@AEBV0@@Z
??YTfltPoint@@QEAAAEAV0@AEBV0@@Z
??YTfltTuple@@QEAAAEAV0@AEBV0@@Z
??YTfltTuple@@QEAAAEAV0@AEBVT3dFltPoint@@@Z
??YTfltTuple@@QEAAAEAV0@AEBVT3dFltVector@@@Z
??YTfltTuple@@QEAAAEAV0@AEBVT4dFltPoint@@@Z
??YTlinear@@QEAAAEAV0@AEBV0@@Z
??YTosTime@@QEAA?AV0@AEBV0@@Z
??YTpoint@@QEAAXAEBV0@@Z
??YTportColor@@QEAAAEAV0@AEBV0@@Z
??YTportColor@@QEAAAEAV0@M@Z
??YTquaternion@@QEAAAEAV0@AEBV0@@Z
??YTreflectance@@AEAAXAEBVTspectrum@@@Z
??YTrotateXYZ@@QEAAAEAV0@AEBV0@@Z
??YTspectrum@@QEAAXAEBV0@@Z
??YTstring@@QEAAAEAV0@AEBV0@@Z
??YTstring@@QEAAAEAV0@D@Z
??YTstring@@QEAAAEAV0@PEBD@Z
??YTtime@@QEAAAEAV0@AEBVTduration@@@Z
??YTtuple@@QEAAAEAV0@AEBV0@@Z
??YTtuple@@QEAAAEAV0@AEBVT3dDblPoint@@@Z
??YTtuple@@QEAAAEAV0@AEBVT4dDblPoint@@@Z
??YTtuple@@QEAAAEAV0@AEBVT4dDblVector@@@Z
??ZT2dFltPoint@@QEAAAEAV0@AEBVT2dFltVector@@@Z
??ZT2dFltVector@@QEAAAEAV0@AEBV0@@Z
??ZT3dDblPoint@@QEAAAEAV0@AEBVT4dDblVector@@@Z
??ZT3dFltPoint@@QEAAAEAV0@AEBVT3dFltVector@@@Z
??ZT3dFltVector@@QEAAAEAV0@AEBV0@@Z
??ZT4dDblMatrix@@QEAAAEAV0@AEBV0@@Z
??ZT4dDblPoint@@QEAAAEAV0@AEBVT4dDblVector@@@Z
??ZT4dDblVector@@QEAAAEAV0@AEBV0@@Z
??ZT4dFltMatrix@@QEAAAEAV0@AEBV0@@Z
??ZT4dFltPoint@@QEAAAEAV0@AEBVT3dFltVector@@@Z
??ZTangle@@QEAAAEAV0@AEBV0@@Z
??ZTanimTime@@QEAAAEAV0@AEBV0@@Z
??ZTdata@@QEAAXAEBV0@@Z
??ZTdataLetter@@UEAAXAEBV0@@Z
??ZTdataLetter@@UEAAXAEBVTdata@@@Z
??ZTdataMatrix@@UEAAXAEBV0@@Z
??ZTdataMatrix@@UEAAXAEBVTdata@@@Z
??ZTdataMatrix@@UEAAXAEBVTdataLetter@@@Z
??ZTdblPoint@@QEAAAEAV0@AEBV0@@Z
??ZTduration@@QEAAAEAV0@AEBV0@@Z
??ZTfltPoint@@QEAAAEAV0@AEBV0@@Z
??ZTfltTuple@@QEAAAEAV0@AEBV0@@Z
??ZTfltTuple@@QEAAAEAV0@AEBVT3dFltPoint@@@Z
??ZTfltTuple@@QEAAAEAV0@AEBVT3dFltVector@@@Z
??ZTfltTuple@@QEAAAEAV0@AEBVT4dFltPoint@@@Z
??ZTlinear@@QEAAAEAV0@AEBV0@@Z
??ZTosTime@@QEAA?AV0@AEBV0@@Z
??ZTpoint@@QEAAXAEBV0@@Z
??ZTportColor@@QEAAAEAV0@AEBV0@@Z
??ZTportColor@@QEAAAEAV0@M@Z
??ZTquaternion@@QEAAAEAV0@AEBV0@@Z
??ZTreflectance@@AEAAXAEBVTspectrum@@@Z
??ZTrotateXYZ@@QEAAAEAV0@AEBV0@@Z
??ZTspectrum@@QEAAXAEBV0@@Z
??ZTtime@@QEAAAEAV0@AEBVTduration@@@Z
??ZTtuple@@QEAAAEAV0@AEBV0@@Z
??ZTtuple@@QEAAAEAV0@AEBVT3dDblPoint@@@Z
??ZTtuple@@QEAAAEAV0@AEBVT4dDblPoint@@@Z
??ZTtuple@@QEAAAEAV0@AEBVT4dDblVector@@@Z
??_0T2dFltPoint@@QEAAAEAV0@M@Z
??_0T2dFltVector@@QEAAAEAV0@M@Z
??_0T3dDblPoint@@QEAAAEAV0@N@Z
??_0T3dFltPoint@@QEAAAEAV0@M@Z
??_0T3dFltVector@@QEAAAEAV0@M@Z
??_0T4dDblPoint@@QEAAAEAV0@N@Z
??_0T4dDblVector@@QEAAAEAV0@N@Z
??_0T4dFltPoint@@QEAAAEAV0@M@Z
??_0Tangle@@QEAAAEAV0@N@Z
??_0TanimTime@@QEAAAEAV0@AEBV0@@Z
??_0TanimTime@@QEAAAEAV0@N@Z
??_0Tdata@@QEAAXAEBV0@@Z
??_0TdataLetter@@UEAAXAEBV0@@Z
??_0TdataLetter@@UEAAXAEBVTdata@@@Z
??_0TdataMatrix@@UEAAXAEBV0@@Z
??_0TdataMatrix@@UEAAXAEBVTdata@@@Z
??_0TdataMatrix@@UEAAXAEBVTdataLetter@@@Z
??_0TfltTuple@@QEAAAEAV0@M@Z
??_0Tlinear@@QEAAAEAV0@N@Z
??_0TportColor@@QEAAAEAV0@AEBV0@@Z
??_0TportColor@@QEAAAEAV0@M@Z
??_0Treflectance@@AEAAXM@Z
??_0Tscale@@QEAAAEAV0@AEBV0@@Z
??_0Tshear2@@QEAAAEAV0@AEBV0@@Z
??_0Tshear@@QEAAAEAV0@AEBV0@@Z
??_0Tspectrum@@QEAAXM@Z
??_0Ttuple@@QEAAAEAV0@N@Z
??_4TbitField128@@QEAAAEAV0@AEBV0@@Z
??_4TbitField16@@QEAAAEAV0@AEBV0@@Z
??_4TbitField16@@QEAAAEAV0@G@Z
??_4TbitField32@@QEAAAEAV0@AEBV0@@Z
??_4TbitField32@@QEAAAEAV0@I@Z
??_4TbitField64@@QEAAAEAV0@AEBV0@@Z
??_4TbitField64@@QEAAAEAV0@_K@Z
??_5TbitField128@@QEAAAEAV0@AEBV0@@Z
??_5TbitField16@@QEAAAEAV0@AEBV0@@Z
??_5TbitField16@@QEAAAEAV0@G@Z
??_5TbitField32@@QEAAAEAV0@AEBV0@@Z
??_5TbitField32@@QEAAAEAV0@I@Z
??_5TbitField64@@QEAAAEAV0@AEBV0@@Z
??_5TbitField64@@QEAAAEAV0@_K@Z
??_6TportColor@@QEAAAEAV0@AEBV0@@Z
??_7?$TdataHashTable@IPEAVTmetaclass@@@@6B@
??_7?$TdataHashTable@PEAVTbdData@@PEAV1@@@6B@
??_7?$TdataHashTable@PEAXVTstring@@@@6B@
??_7?$TdataHashTable@VTstring@@H@@6B@
??_7?$TdataHashTable@VTstring@@PEAVTmetaclass@@@@6B@
??_7?$TdataHashTable@VTstring@@V1@@@6B@
??_7?$Toctree@I@@6B?$TotNode@I@@@
??_7?$Toctree@I@@6BTsharedObject@@@
??_7?$Toctree@VToctreePoint@@@@6B?$TotNode@VToctreePoint@@@@@
??_7?$Toctree@VToctreePoint@@@@6BTsharedObject@@@
??_7?$TotNode@I@@6B@
??_7?$TotNode@VToctreePoint@@@@6B@
??_7?$TotRayWalker@IVToctreeTriangleIntersection@@@@6B@
??_7?$TotSphereWalker@I@@6B@
??_7?$TotSphereWalker@VToctreePoint@@@@6B@
??_7?$basic_fstream@DU?$char_traits@D@std@@@std@@6B@
??_7Iterator@TkeyWordHashTable@@6B@
??_7Iterator@TptrHashTable@@6B@
??_7Iterator@TstringKeyHashTable@@6B@
??_7MPtrBase@@6B@
??_7MPxEditData@@6B@
??_7T2FloatArray@@6B@
??_7T2dFfd@@6B@
??_7T3DoubleArray@@6B@
??_7T3FloatArray@@6B@
??_7T3dDblPointArray@@6B@
??_7T3dDblPointArrayPtrArray@@6B@
??_7T3dFltPointArray@@6B@
??_7T3dFltVectorArray@@6B@
??_7T3floatVoxelGrid@@6B@
??_7T4dDblMatrixArray@@6B@
??_7T4dDblPointArray@@6B@
??_7T4dDblPointArrayPtrArray@@6B@
??_7T4dDblVectorArray@@6B@
??_7T4dDblVectorArrayPtrArray@@6B@
??_7T4dFltMatrixArray@@6B@
??_7T4dFltPointArray@@6B@
??_7TCIPClient@@6B@
??_7TDarray@@6B@
??_7TTuInt32Array@@6B@
??_7TadlmLicenseManager@@6B@
??_7Tallocator@@6B@
??_7TanimTimeArray@@6B@
??_7TanimTimeSortedArray@@6B@
??_7TappDirectory@@6B@
??_7TargList@@6B@
??_7TargListPtrArray@@6B@
??_7TargTypeArray@@6B@
??_7Tarray@@6B@
??_7TbaseArena@@6B@
??_7TbaseLicenseManager@@6B@
??_7TbaseSyntax@@6B@
??_7Tbasket@@6B@
??_7TbatchGlobals@@6B@
??_7TbdDataPtrArrayContainer@@6B@
??_7TbdDataPtrHashTable@@6B@
??_7TbdInfo@@6B@
??_7TbdTable@@6B@
??_7TbdTableProcessorBase@@6B@
??_7TblendFactor@@6B@
??_7TbooleanArray@@6B@
??_7TbooleanArrayPtrArray@@6B@
??_7TboundaryValueException@@6B@
??_7TcacheArray@@6B@
??_7TcharArray@@6B@
??_7TcharPtrArray@@6B@
??_7Tclient@@6B@
??_7TclientCondition@@6BTclient@@@
??_7TclientCondition@@6BTcondition@@@
??_7TclientQObjectInterface@@6BQObject@@@
??_7TclientQObjectInterface@@6BTclientServer@@@
??_7TclientServer@@6B@
??_7Tclock@@6B@
??_7TcompactArena@@6B@
??_7Tcomponent@@6BMPtrBase@@@
??_7Tcomponent@@6BTsharedObject@@@
??_7TcomponentPtrArray@@6B@
??_7TcomponentWeights@@6B@
??_7Tcomputation@@6B@
??_7Tcondition@@6B@
??_7TconditionChangedMsg@@6B@
??_7TconditionOffMsg@@6B@
??_7TconditionOnMsg@@6B@
??_7TconstructorClass@@6B@
??_7Tdata2Double@@6BMPtrBase@@@
??_7Tdata2Double@@6BTmultiSharedObject@@@
??_7Tdata2Float@@6BMPtrBase@@@
??_7Tdata2Float@@6BTmultiSharedObject@@@
??_7Tdata2Int16@@6BMPtrBase@@@
??_7Tdata2Int16@@6BTmultiSharedObject@@@
??_7Tdata2Int32@@6BMPtrBase@@@
??_7Tdata2Int32@@6BTmultiSharedObject@@@
??_7Tdata3Double@@6BMPtrBase@@@
??_7Tdata3Double@@6BTmultiSharedObject@@@
??_7Tdata3Float@@6BMPtrBase@@@
??_7Tdata3Float@@6BTmultiSharedObject@@@
??_7Tdata3Int16@@6BMPtrBase@@@
??_7Tdata3Int16@@6BTmultiSharedObject@@@
??_7Tdata3Int32@@6BMPtrBase@@@
??_7Tdata3Int32@@6BTmultiSharedObject@@@
??_7Tdata4Double@@6BMPtrBase@@@
??_7Tdata4Double@@6BTmultiSharedObject@@@
??_7TdataArrayAttrs@@6BMPtrBase@@@
??_7TdataArrayAttrs@@6BTmultiSharedObject@@@
??_7TdataBinary@@6BMPtrBase@@@
??_7TdataBinary@@6BTmultiSharedObject@@@
??_7TdataCompound@@6BMPtrBase@@@
??_7TdataCompound@@6BTmultiSharedObject@@@
??_7TdataDoubleArray@@6B@
??_7TdataDoubleArray@@6BMPtrBase@@@
??_7TdataDoubleArray@@6BTmultiSharedObject@@@
??_7TdataFloatArray@@6B@
??_7TdataFloatArray@@6BMPtrBase@@@
??_7TdataFloatArray@@6BTmultiSharedObject@@@
??_7TdataFunction@@6BMPtrBase@@@
??_7TdataFunction@@6BTmultiSharedObject@@@
??_7TdataInt32Array@@6B@
??_7TdataInt32Array@@6BMPtrBase@@@
??_7TdataInt32Array@@6BTmultiSharedObject@@@
??_7TdataLetter@@6BMPtrBase@@@
??_7TdataLetter@@6BTmultiSharedObject@@@
??_7TdataMatrix@@6BMPtrBase@@@
??_7TdataMatrix@@6BTmultiSharedObject@@@
??_7TdataReflectance@@6BMPtrBase@@@
??_7TdataReflectance@@6BTmultiSharedObject@@@
??_7TdataSpectrum@@6BMPtrBase@@@
??_7TdataSpectrum@@6BTmultiSharedObject@@@
??_7TdataUInt64Array@@6B@
??_7TdataUInt64Array@@6BMPtrBase@@@
??_7TdataUInt64Array@@6BTmultiSharedObject@@@
??_7TdataUnknown@@6BMPtrBase@@@
??_7TdataUnknown@@6BTmultiSharedObject@@@
??_7TdataVoidPtr@@6BMPtrBase@@@
??_7TdataVoidPtr@@6BTmultiSharedObject@@@
??_7TdbOperation@@6B@
??_7TdbRequireCount@@6B@
??_7TdbRequireOutput@@6B@
??_7TdbRequirement@@6B@
??_7TdbTrace@@6B@
??_7TdblPointArray@@6B@
??_7TdebugOutput@@6B@
??_7TdebugOutputFile@@6B@
??_7TdebugOutputString@@6B@
??_7TdebugOutputTrace@@6B@
??_7TdebugReporter@@6B@
??_7TdelayedClientServer@@6B@
??_7TdelayedMsgTypeArray@@6B@
??_7TdepthBuffer@@6B@
??_7Tdictionary@@6B@
??_7TdictionaryNode@@6B@
??_7TdirIterator@@6B@
??_7Tdirectory@@6B@
??_7TdirectoryPath@@6B@
??_7TdoubleArray@@6B@
??_7TdoubleArrayPtrArray@@6B@
??_7TdoubleIndexLongArray@@6B@
??_7TdoubleIndexedComponent@@6BMPtrBase@@@
??_7TdoubleIndexedComponent@@6BTsharedObject@@@
??_7TdoublePtrArray@@6B@
??_7TdoubleRangeArray@@6B@
??_7TdoubleSortedArray@@6B@
??_7TdualQuaternionArray@@6B@
??_7Texception@@6B@
??_7TfailedException@@6B@
??_7Tfile@@6B@
??_7TfileErrorReporter@@6B@
??_7TfileException@@6B@
??_7TfileName@@6B@
??_7TfilePath@@6B@
??_7TfilePathArray@@6B@
??_7TfilePathList@@6B@
??_7TfileRequestor@@6B@
??_7TfileResolverBase@@6B@
??_7TfileResolverMgrBase@@6B@
??_7TfileStream@@6B?$basic_fstream@DU?$char_traits@D@std@@@std@@@
??_7TfileStream@@6BTfileSystemEntity@@@
??_7TfileSystemEntity@@6B@
??_7Tfile_fstream@@6B?$basic_fstream@DU?$char_traits@D@std@@@std@@@
??_7Tfile_fstream@@6BTfile_iostream@@@
??_7Tfile_iostream@@6B@
??_7TfixedArena@@6B@
??_7TfloatArray@@6B@
??_7TfloatArrayPtrArray@@6B@
??_7TfloatArrayPtrArrayPtrArray@@6B@
??_7TfloatConstPtrArray@@6B@
??_7TfloatPtrArray@@6B@
??_7TfloatRangeArray@@6B@
??_7TfloatVoxelGrid@@6B@
??_7TfltBoundingBox@@6B@
??_7TfltBoundingSphere@@6B@
??_7TfltBounds@@6B@
??_7TfltFrustum@@6B@
??_7TfltLineArray@@6B@
??_7TfltLineSegment@@6B@
??_7TfltNullBounds@@6B@
??_7TfltPointArray@@6B@
??_7TfltUnBounded@@6B@
??_7Tfunction@@6B@
??_7TfunctionMapping@@6B@
??_7TgroupedObject@@6B@
??_7ThandledException@@6B@
??_7ThashTable@@6B@
??_7ThashTableEntry@@6B@
??_7ThashTableIterator@@6B@
??_7TheapArena@@6B@
??_7ThighlightColor@@6B@
??_7ThwrCallback@@6B@
??_7TiffFile4@@6B@
??_7TiffFile8@@6B@
??_7TiffFile@@6B@
??_7TiffParserCallback@@6B@
??_7TiffTable@@6B@
??_7TiffTagArray@@6B@
??_7TincompatibleData@@6B@
??_7TindexArray@@6B@
??_7TindexDictionary@@6B@
??_7TindexDictionaryNode@@6B@
??_7TindexRangeArray@@6B@
??_7Tint16Array@@6B@
??_7Tint32Array@@6B@
??_7Tint32ArrayPtrArray@@6B@
??_7Tint32SortedArray@@6B@
??_7Tint64Array@@6B@
??_7TkeyWordHashTable@@6B@
??_7TlicenseModifiedMsg@@6B@
??_7Tline@@6B@
??_7TlineArray@@6B@
??_7TlineSegment@@6B@
??_7TlinearString@@6B@
??_7TlockingManager@@6B@
??_7TlongDoubleIndexedComponent@@6BMPtrBase@@@
??_7TlongDoubleIndexedComponent@@6BTsharedObject@@@
??_7TlowLevelReporter@@6B@
??_7TmallocAllocator@@6B@
??_7TmaxViewRegionModifiedMsg@@6B@
??_7TmemoryAlert@@6B@
??_7TmemoryException@@6B@
??_7TmessageCenter@@6B@
??_7TmetaLetter@@6B@
??_7TmintLicenseManager@@6B@
??_7TmtCompactArena@@6B@
??_7TmtStackArena@@6B@
??_7TmtThreadPtrArray@@6B@
??_7TmtVariantArena@@6B@
??_7TmultiSharedObject@@6B@
??_7TnameObject@@6B@
??_7TnameObjectCollectionIterator@@6B@
??_7TnameObjectPtrArray@@6B@
??_7TnameTable@@6B@
??_7Tnamespace@@6B@
??_7TnamespaceIterator@@6B@
??_7TnamespacePtrArray@@6B@
??_7TnamespaceRenamedMsg@@6B@
??_7TobjArray@@6B@
??_7TobjArrayTbasketPtr@@6B@
??_7TobjectGroup@@6B@
??_7TobjectGroupIdArray@@6B@
??_7TobjectGroupPtrArray@@6B@
??_7ToptionVar@@6B@
??_7ToptionVarChangedMsg@@6B@
??_7TpixelMap@@6B@
??_7TpixelMapPtrArray@@6B@
??_7TplaceHolderNamespaceUtil@@6B@
??_7Tplane@@6B@
??_7TpointArray@@6B@
??_7TpointOctree@@6B?$TotNode@VToctreePoint@@@@@
??_7TpointOctree@@6BTsharedObject@@@
??_7TpointOctreeWalker@@6B@
??_7TpolyBdVertexFaceBase@@6B@
??_7TpolyMap@@6B@
??_7TpolyMapArray@@6B@
??_7TpolyMapArrayShared@@6B@
??_7TpolyTangentSetArray@@6B@
??_7TpolyTangentSetArrayShared@@6B@
??_7TpoolAllocatorPtrArray@@6B@
??_7TpoolData@@6B@
??_7TpoolManager@@6B@
??_7TportColorArray@@6B@
??_7TportRect@@6B@
??_7TprefOptionVars@@6B@
??_7TpreferenceItem@@6B@
??_7TpreferenceItemPtrArray@@6B@
??_7TpreferencesDirectory@@6B@
??_7TpresetsDirectory@@6B@
??_7TpriorityQueue@@6B@
??_7TprofilerBufferSizeChangedMsg@@6B@
??_7TprofilerCategoryAddedMsg@@6B@
??_7TprofilerCategoryRemovedMsg@@6B@
??_7TprofilerCategoryUpdatedMsg@@6B@
??_7TprofilerManager@@6BTclient@@@
??_7TprofilerManager@@6BTclientServer@@@
??_7TprofilerRecordingStartedMsg@@6B@
??_7TprofilerRecordingStoppedMsg@@6B@
??_7TprofilerResetDataMsg@@6B@
??_7TprogressIndicator@@6B@
??_7TprojectMgrBase@@6B@
??_7TprojectsDirectory@@6B@
??_7TptrHashTable@@6B@
??_7TptrStringHash@@6B@
??_7TptrStringHashStack@@6B@
??_7TpureArena@@6B@
??_7TquaternionArray@@6B@
??_7TquaternionArrayPtrArray@@6B@
??_7TrectArray@@6B@
??_7Treflectance@@6B@
??_7TrenderSpectrum@@6BTblendFactor@@@
??_7TrenderSpectrum@@6BTspectrum@@@
??_7Treporter@@6B@
??_7TresId@@6B@
??_7TresourceException@@6B@
??_7TresourceQuery@@6B@
??_7TrotateXYZArray@@6B@
??_7TsafeFileSave@@6B@
??_7TscaleArray@@6B@
??_7TselectedSrfDirectionsArray@@6B@
??_7TserverCheckMsg@@6B@
??_7TserverDeletedMsg@@6B@
??_7TserverModifiedMsg@@6B@
??_7TserverMsg@@6B@
??_7TsharedDoubleArray@@6B@
??_7TsharedFloatArray@@6B@
??_7TsharedInt32Array@@6B@
??_7TsharedObject@@6B@
??_7TsharedPixelMapArray@@6B@
??_7TsharedReference@@6B@
??_7TsharedUInt64Array@@6B@
??_7TsimpleTess@@6B@
??_7TsingleIndexedComponent@@6BMPtrBase@@@
??_7TsingleIndexedComponent@@6BTsharedObject@@@
??_7TsingleIndexedComponentIterator@@6B@
??_7TsortedArray@@6B@
??_7TsortedBdDataPtrArray@@6B@
??_7TsortedObjectGroupIdArray@@6B@
??_7TsortedStringArray@@6B@
??_7TspatialGrid@@6B@
??_7Tspectrum@@6B@
??_7TsrtComponents@@6B@
??_7Tstack@@6B@
??_7TstackArena@@6B@
??_7TstringArray@@6B@
??_7TstringHashTable@@6B@
??_7TstringIntHashTable@@6B@
??_7TstringKeyHashTable@@6B@
??_7TstringPtrArray@@6B@
??_7Tsubtree@@6B@
??_7TsurfSelectedBoundaryTypeArray@@6B@
??_7TsurfaceDirectionArray@@6B@
??_7TsurfaceIndexArray@@6B@
??_7TtemporaryDirectory@@6B@
??_7TthreadData@@6B@
??_7TthreadSubtree@@6B@
??_7TthreadTree@@6B@
??_7TtimeRangeArray@@6B@
??_7TtimeValueArray@@6B@
??_7TtimeValueArrayPtrArray@@6B@
??_7TtimeValuePtrArray@@6B@
??_7TtoolClipsControlDirectory@@6B@
??_7TtoolClipsDirectory@@6B@
??_7TtoolClipsResourcesDirectory@@6B@
??_7Ttree@@6B@
??_7TtriangleOctree@@6B?$TotNode@I@@@
??_7TtriangleOctree@@6BTsharedObject@@@
??_7TtriangleOctreeRayWalker@@6B@
??_7TtriangleOctreeSphereWalker@@6B@
??_7Ttrigger@@6B@
??_7TtriggerMsg@@6B@
??_7TtriggerPtrArray@@6B@
??_7TtypeDictionary@@6B@
??_7TtypeDictionaryNode@@6B@
??_7TtypeidArray@@6B@
??_7TuInt16Array@@6B@
??_7TuInt16SortedArray@@6B@
??_7TuInt32Array@@6B@
??_7TuInt32ArrayPtrArray@@6B@
??_7TuInt32SortedArray@@6B@
??_7TuInt64Array@@6B@
??_7TuInt64IndexedComponent@@6BMPtrBase@@@
??_7TuInt64IndexedComponent@@6BTsharedObject@@@
??_7TuInt64SortedArray@@6B@
??_7TuInt8Array@@6B@
??_7TuInt8ArrayPtrArray@@6B@
??_7TundoManagerBase@@6B@
??_7TunimplementedException@@6B@
??_7TunitNames@@6B@
??_7TuserBitmapsDirectory@@6B@
??_7TuserHotkeyDirectory@@6B@
??_7TuserMarkingMenuDirectory@@6B@
??_7TuserScriptDirectory@@6B@
??_7TuserShelfDirectory@@6B@
??_7TuvPointArray@@6B@
??_7TvaluesArrayPtrArray@@6B@
??_7TvariantArena@@6B@
??_7TviewCoord@@6B@
??_7TviewRegion@@6B@
??_7TviewRegionArray@@6B@
??_7TviewRegionModifiedMsg@@6B@
??_7TvoidPtrArray@@6B@
??_7TvoidPtrSortedArray@@6B@
??_7TvoxelGrid@@6B@
??_7TwrapperConnection@@6B@
??_7TxformMatrix@@6B@
??_7TxformMatrixArray@@6B@
??_7TxformMatrixPtrArray@@6B@
??_7beginIdleRollupT4@@6B@
??_8?$basic_fstream@DU?$char_traits@D@std@@@std@@7B?$basic_istream@DU?$char_traits@D@std@@@1@@
??_8?$basic_fstream@DU?$char_traits@D@std@@@std@@7B?$basic_ostream@DU?$char_traits@D@std@@@1@@
??_8TfileStream@@7B?$basic_istream@DU?$char_traits@D@std@@@std@@@
??_8TfileStream@@7B?$basic_ostream@DU?$char_traits@D@std@@@std@@@
??_8Tfile_fstream@@7B?$basic_istream@DU?$char_traits@D@std@@@std@@@
??_8Tfile_fstream@@7B?$basic_ostream@DU?$char_traits@D@std@@@std@@@
??_B?1??enableLegacyIncorrectNodeNames@TincorrectNameSet@@CA_NXZ@51
??_B?1??noIncorrectNameWarning@TincorrectNameSet@@SA_NXZ@51
??_D?$basic_fstream@DU?$char_traits@D@std@@@std@@QEAAXXZ
??_DTfileStream@@QEAAXXZ
??_DTfile_fstream@@QEAAXXZ
??_F?$TdataHashTable@IPEAVTmetaclass@@@@QEAAXXZ
??_F?$TdataHashTable@PEAVTbdData@@PEAV1@@@QEAAXXZ
??_F?$TdataHashTable@PEAXVTstring@@@@QEAAXXZ
??_F?$TdataHashTable@VTstring@@H@@QEAAXXZ
??_F?$TdataHashTable@VTstring@@PEAVTmetaclass@@@@QEAAXXZ
??_F?$TdataHashTable@VTstring@@V1@@@QEAAXXZ
??_F?$Toctree@I@@QEAAXXZ
??_F?$Toctree@VToctreePoint@@@@QEAAXXZ
??_F?$_Tree_alloc@$0A@U?$_Tree_base_types@U?$pair@$$CBV?$basic_string@DU?$char_traits@D@std@@V?$allocator@D@2@@std@@PEAVTresourceElement@@@std@@V?$allocator@U?$pair@$$CBV?$basic_string@DU?$char_traits@D@std@@V?$allocator@D@2@@std@@PEAVTresourceElement@@@std@@@2@@std@@@std@@QEAAXXZ
??_F?$_Tree_alloc@$0A@U?$_Tree_base_types@U?$pair@$$CBV?$basic_string@DU?$char_traits@D@std@@V?$allocator@D@2@@std@@PEAVTresourceGroup@@@std@@V?$allocator@U?$pair@$$CBV?$basic_string@DU?$char_traits@D@std@@V?$allocator@D@2@@std@@PEAVTresourceGroup@@@std@@@2@@std@@@std@@QEAAXXZ
??_F?$_Tree_buy@U?$pair@$$CBV?$basic_string@DU?$char_traits@D@std@@V?$allocator@D@2@@std@@PEAVTresourceElement@@@std@@V?$allocator@U?$pair@$$CBV?$basic_string@DU?$char_traits@D@std@@V?$allocator@D@2@@std@@PEAVTresourceElement@@@std@@@2@@std@@QEAAXXZ
??_F?$_Tree_buy@U?$pair@$$CBV?$basic_string@DU?$char_traits@D@std@@V?$allocator@D@2@@std@@PEAVTresourceGroup@@@std@@V?$allocator@U?$pair@$$CBV?$basic_string@DU?$char_traits@D@std@@V?$allocator@D@2@@std@@PEAVTresourceGroup@@@std@@@2@@std@@QEAAXXZ
??_FT2FloatArray@@QEAAXXZ
??_FT3DoubleArray@@QEAAXXZ
??_FT3FloatArray@@QEAAXXZ
??_FT3dDblPointArray@@QEAAXXZ
??_FT3dDblPointArrayPtrArray@@QEAAXXZ
??_FT3dFltPointArray@@QEAAXXZ
??_FT3dFltVectorArray@@QEAAXXZ
??_FT4dDblMatrixArray@@QEAAXXZ
??_FT4dDblPointArray@@QEAAXXZ
??_FT4dDblPointArrayPtrArray@@QEAAXXZ
??_FT4dDblVectorArray@@QEAAXXZ
??_FT4dDblVectorArrayPtrArray@@QEAAXXZ
??_FT4dFltMatrixArray@@QEAAXXZ
??_FT4dFltPointArray@@QEAAXXZ
??_FTDarray@@QEAAXXZ
??_FTTuInt32Array@@QEAAXXZ
??_FTanimTimeArray@@QEAAXXZ
??_FTanimTimeSortedArray@@QEAAXXZ
??_FTappDirectory@@QEAAXXZ
??_FTargListPtrArray@@QEAAXXZ
??_FTargTypeArray@@QEAAXXZ
??_FTbdDataPtrArrayContainer@@QEAAXXZ
??_FTbdDataPtrHashTable@@QEAAXXZ
??_FTbooleanArray@@QEAAXXZ
??_FTbooleanArrayPtrArray@@QEAAXXZ
??_FTcharArray@@QEAAXXZ
??_FTcharPtrArray@@QEAAXXZ
??_FTcomponentPtrArray@@QEAAXXZ
??_FTdataCompound@@QEAAXXZ
??_FTdataFunction@@QEAAXXZ
??_FTdblPointArray@@QEAAXXZ
??_FTdebugOutputTrace@@QEAAXXZ
??_FTdelayedMsgTypeArray@@QEAAXXZ
??_FTdirectory@@QEAAXXZ
??_FTdoubleArray@@QEAAXXZ
??_FTdoubleArrayPtrArray@@QEAAXXZ
??_FTdoubleIndexLongArray@@QEAAXXZ
??_FTdoublePtrArray@@QEAAXXZ
??_FTdoubleRangeArray@@QEAAXXZ
??_FTdoubleSortedArray@@QEAAXXZ
??_FTdualQuaternionArray@@QEAAXXZ
??_FTfailedException@@QEAAXXZ
??_FTfilePathArray@@QEAAXXZ
??_FTfileStream@@QEAAXXZ
??_FTfloatArray@@QEAAXXZ
??_FTfloatArrayPtrArray@@QEAAXXZ
??_FTfloatArrayPtrArrayPtrArray@@QEAAXXZ
??_FTfloatConstPtrArray@@QEAAXXZ
??_FTfloatPtrArray@@QEAAXXZ
??_FTfloatRangeArray@@QEAAXXZ
??_FTfltLineArray@@QEAAXXZ
??_FTfltPlane@@QEAAXXZ
??_FTfltPointArray@@QEAAXXZ
??_FThwrCallback@@QEAAXXZ
??_FTiffTable@@QEAAXXZ
??_FTiffTagArray@@QEAAXXZ
??_FTindexArray@@QEAAXXZ
??_FTindexRangeArray@@QEAAXXZ
??_FTint16Array@@QEAAXXZ
??_FTint32Array@@QEAAXXZ
??_FTint32ArrayPtrArray@@QEAAXXZ
??_FTint32SortedArray@@QEAAXXZ
??_FTint64Array@@QEAAXXZ
??_FTkeyWordHashTable@@QEAAXXZ
??_FTlineArray@@QEAAXXZ
??_FTmemoryAlert@@QEAAXXZ
??_FTmtCriticalSection@@QEAAXXZ
??_FTmtMutex@@QEAAXXZ
??_FTmtRWMutex@@QEAAXXZ
??_FTmtRecursiveCS@@QEAAXXZ
??_FTmtRecursiveMutex@@QEAAXXZ
??_FTmtSpinCriticalSection@@QEAAXXZ
??_FTmtThreadPtrArray@@QEAAXXZ
??_FTmtVariantArena@@QEAAXXZ
??_FTmultiSharedObject@@QEAAXXZ
??_FTnameObjectPtrArray@@QEAAXXZ
??_FTnameTable@@QEAAXXZ
??_FTnamespacePtrArray@@QEAAXXZ
??_FTobjArrayTbasketPtr@@QEAAXXZ
??_FTobjectGroupIdArray@@QEAAXXZ
??_FTobjectGroupPtrArray@@QEAAXXZ
??_FTpixelMapPtrArray@@QEAAXXZ
??_FTpointArray@@QEAAXXZ
??_FTpointOctree@@QEAAXXZ
??_FTpolyMapArray@@QEAAXXZ
??_FTpolyTangentSetArray@@QEAAXXZ
??_FTpoolAllocatorPtrArray@@QEAAXXZ
??_FTportColorArray@@QEAAXXZ
??_FTpreferenceItemPtrArray@@QEAAXXZ
??_FTpresetsDirectory@@QEAAXXZ
??_FTprojectsDirectory@@QEAAXXZ
??_FTptrHashTable@@QEAAXXZ
??_FTptrStringHash@@QEAAXXZ
??_FTquaternionArray@@QEAAXXZ
??_FTquaternionArrayPtrArray@@QEAAXXZ
??_FTrectArray@@QEAAXXZ
??_FTreporter@@QEAAXXZ
??_FTrotateXYZArray@@QEAAXXZ
??_FTscaleArray@@QEAAXXZ
??_FTselectedSrfDirectionsArray@@QEAAXXZ
??_FTsharedPixelMapArray@@QEAAXXZ
??_FTsortedBdDataPtrArray@@QEAAXXZ
??_FTsortedObjectGroupIdArray@@QEAAXXZ
??_FTsortedStringArray@@QEAAXXZ
??_FTstringArray@@QEAAXXZ
??_FTstringHashTable@@QEAAXXZ
??_FTstringIntHashTable@@QEAAXXZ
??_FTstringKeyHashTable@@QEAAXXZ
??_FTstringPtrArray@@QEAAXXZ
??_FTsurfSelectedBoundaryTypeArray@@QEAAXXZ
??_FTsurfaceDirectionArray@@QEAAXXZ
??_FTsurfaceIndexArray@@QEAAXXZ
??_FTtemporaryDirectory@@QEAAXXZ
??_FTtimeRangeArray@@QEAAXXZ
??_FTtimeValueArray@@QEAAXXZ
??_FTtimeValueArrayPtrArray@@QEAAXXZ
??_FTtimeValuePtrArray@@QEAAXXZ
??_FTtoolClipsControlDirectory@@QEAAXXZ
??_FTtoolClipsDirectory@@QEAAXXZ
??_FTtoolClipsResourcesDirectory@@QEAAXXZ
??_FTtriggerPtrArray@@QEAAXXZ
??_FTtypeidArray@@QEAAXXZ
??_FTuInt16Array@@QEAAXXZ
??_FTuInt16SortedArray@@QEAAXXZ
??_FTuInt32Array@@QEAAXXZ
??_FTuInt32ArrayPtrArray@@QEAAXXZ
??_FTuInt32SortedArray@@QEAAXXZ
??_FTuInt64Array@@QEAAXXZ
??_FTuInt64SortedArray@@QEAAXXZ
??_FTuInt8Array@@QEAAXXZ
??_FTuInt8ArrayPtrArray@@QEAAXXZ
??_FTuserBitmapsDirectory@@QEAAXXZ
??_FTuserHotkeyDirectory@@QEAAXXZ
??_FTuserMarkingMenuDirectory@@QEAAXXZ
??_FTuserScriptDirectory@@QEAAXXZ
??_FTuserShelfDirectory@@QEAAXXZ
??_FTuvPointArray@@QEAAXXZ
??_FTvaluesArrayPtrArray@@QEAAXXZ
??_FTvariantArena@@QEAAXXZ
??_FTviewRegionArray@@QEAAXXZ
??_FTvoidPtrArray@@QEAAXXZ
??_FTvoidPtrSortedArray@@QEAAXXZ
??_FTxformMatrixArray@@QEAAXXZ
??_FTxformMatrixPtrArray@@QEAAXXZ
?AND@TbitFieldFixedN@@QEAAXAEBV1@@Z
?AddPCFEvent@@YAXPEADII@Z
?AngleFrom@Tpoint@@QEBANAEBV1@@Z
?AngleFrom@Tpoint@@QEBANFF@Z
?AngleToPt@Tpoint@@QEAAXNF@Z
?B@Trect@@QEAAAEAFXZ
?B@Trect@@QEBAAEBFXZ
?BottomLeft@Trect@@QEBA?AVTpoint@@XZ
?BottomRight@Trect@@QEBA?AVTpoint@@XZ
?Cart_To_Local@Tpoint@@QEBANN@Z
?CenterIn@Trect@@QEAAXAEBV1@@Z
?CenterPt@Trect@@QEBA?AVTpoint@@XZ
?CenterX@Trect@@QEBAFXZ
?CenterY@Trect@@QEBAFXZ
?CopyrightNotice@TcopyrightUtil@@SAAEBVTstring@@W4NoticeType@1@W4CommentType@1@@Z
?D@TvoxelGrid@@QEBA?AVT3dFltPoint@@XZ
?Deflate@Trect@@QEAAXFF@Z
?DistanceBetween@Tpoint@@QEBANAEBV1@@Z
?Dx@TvoxelGrid@@QEBANXZ
?Dy@TvoxelGrid@@QEBANXZ
?Dz@TvoxelGrid@@QEBANXZ
?Empty@Trect@@QEBA_NXZ
?Encloses@Trect@@QEBA_NAEBV1@@Z
?Encloses@Trect@@QEBA_NAEBVTpoint@@@Z
?Equal@Tpoint@@QEBA_NAEBV1@@Z
?Equal@Trect@@QEBA_NAEBV1@@Z
?EqualSize@Trect@@QEBA_NAEBV1@@Z
?Exit@TpidlConverter@@SAX_N@Z
?FitIn@Trect@@QEAANAEBV1@_N@Z
?Flip@Tpoint@@QEAAXF_N@Z
?FlipVert@Trect@@QEAAXF@Z
?FreePidl@TpidlConverter@@SAXPEFAU_ITEMIDLIST@@@Z
?Frequency@?1??cpuTime@TprofilerThreadInfo@@QEAA?AVTprofilerMicroTime@@XZ@4T_LARGE_INTEGER@@A
?Get@Trect@@QEAAXAEAF000@Z
?GetNextItemID@TpidlConverter@@KAPEFAU_ITEMIDLIST@@PEFAU2@@Z
?GetResource@TresourceMap@@QEAA_NPEBD0AEA_K@Z
?GetResourceNumber@TresourceMap@@SAIPEBD0I@Z
?GetResourceString@TresourceMap@@SAPEBDPEBD00@Z
?Grow@Trect@@QEAAXFF@Z
?Height@Trect@@QEBAFXZ
?Inflate@Trect@@QEAAXFF@Z
?Init@TpidlConverter@@SAXXZ
?Int32Array@TdataInt32Array@@QEBAPEAVTint32Array@@XZ
?Intersect@Trect@@QEBA_NAEBV1@PEAV1@@Z
?IsFolder@TpidlConverter@@SA_NAEBVTstring@@@Z
?IsHidden@TpidlConverter@@SA_NAEBVTstring@@@Z
?IsReversible@TpidlConverter@@KA_NAEBVTstring@@@Z
?IsWritable@TpidlConverter@@SA_NAEBVTstring@@@Z
?L@Trect@@QEAAAEAFXZ
?L@Trect@@QEBAAEBFXZ
?L@TvoxelGrid@@QEBA?AVT3dFltPoint@@XZ
?Local_To_Cart@Tpoint@@QEBANN@Z
?Lx@TvoxelGrid@@QEBANXZ
?Ly@TvoxelGrid@@QEBANXZ
?Lz@TvoxelGrid@@QEBANXZ
?MFn_enum_Type_count@@3IB
?MFn_enum_Type_names@@3PAPEBDA
?MFn_enum_Type_values@@3QBHB
?MSpace_enum_Space_count@@3IB
?MSpace_enum_Space_names@@3PAPEBDA
?MSpace_enum_Space_values@@3QBHB
?MidPoint@Tpoint@@QEBA?AV1@AEBV1@@Z
?MoveTo@Trect@@QEAAXFF@Z
?MoveToZero@Trect@@QEAAXXZ
?Notification@Tprofiler@@QEAAXW4TnotificationType@1@H@Z
?Nx@TvoxelGrid@@QEBAIXZ
?Ny@TvoxelGrid@@QEBAIXZ
?Nz@TvoxelGrid@@QEBAIXZ
?OR@TbitFieldFixedN@@QEAAXAEBV1@@Z
?Offset@Tpoint@@QEAAXFF@Z
?Offset@Trect@@QEAAXFF@Z
?OpenEnvironmentFile@TMayaEnvironment@@CAPEAXXZ
?Ox@TvoxelGrid@@QEBAMXZ
?Oy@TvoxelGrid@@QEBAMXZ
?Oz@TvoxelGrid@@QEBAMXZ
?PCFOnExit@@YAXXZ
?PinPt@Trect@@QEBAXAEBVTpoint@@AEAV2@@Z
?Proportion@Trect@@QEAAXAEBV1@@Z
?PtInRect@Trect@@QEBA_NAEBVTpoint@@@Z
?R@Trect@@QEAAAEAFXZ
?R@Trect@@QEBAAEBFXZ
?RD@TvoxelGrid@@QEBA?AVT3dFltPoint@@XZ
?RadixSortFloat32@@YAXPEAM0I@Z
?RadixSortUInt32@@YAXPEAI0I@Z
?RadixSortUInt32Objs@@YAXPEAX0III@Z
?Root@TthreadSubtree@@UEBAPEAXXZ
?Root@TthreadTree@@UEBAPEAXXZ
?Rotate@Tpoint@@QEAAXN@Z
?SecondsSinceStart@Tduration@@SANXZ
?Set@Tpoint@@QEAAXFF@Z
?Set@Trect@@QEAAXAEBVTpoint@@0@Z
?Set@Trect@@QEAAXFFFF@Z
?SetLTRB@Trect@@QEAAXFFFF@Z
?SetLTWH@Trect@@QEAAXFFFF@Z
?SetTLBR@Trect@@QEAAXFFFF@Z
?ShellSortUInt32@@YAXPEAIH@Z
?ShellSortUInt32Objs@@YAXPEAIHHH@Z
?SizeTo@Trect@@QEAAXAEBV1@@Z
?SizeTo@Trect@@QEAAXFF@Z
?StartSample@TprofilingEventHelper@@QEAAXPEBD0HW4kProfilingColors@Tprofiler@@PEAX@Z
?Stop@TprofilingEventHelper@@QEAAXXZ
?T4dDblMatrixOf@T4dFltMatrix@@QEBA?AVT4dDblMatrix@@XZ
?T@Trect@@QEAAAEAFXZ
?T@Trect@@QEBAAEBFXZ
?TargListTmeta@@3PEAVTmetaclass@@EA
?TclientConditionTmeta@@3PEAVTmetaclass@@EA
?TclientServerTmeta@@3PEAVTmetaclass@@EA
?TclientTmeta@@3PEAVTmetaclass@@EA
?TcomponentTmeta@@3PEAVTmetaclass@@EA
?TconditionChangedMsgTmeta@@3PEAVTmetaclass@@EA
?TconditionOffMsgTmeta@@3PEAVTmetaclass@@EA
?TconditionOnMsgTmeta@@3PEAVTmetaclass@@EA
?TconditionTmeta@@3PEAVTmetaclass@@EA
?Tdata2DoubleTmeta@@3PEAVTmetaclass@@EA
?Tdata2FloatTmeta@@3PEAVTmetaclass@@EA
?Tdata2Int16Tmeta@@3PEAVTmetaclass@@EA
?Tdata2Int32Tmeta@@3PEAVTmetaclass@@EA
?Tdata3DoubleTmeta@@3PEAVTmetaclass@@EA
?Tdata3FloatTmeta@@3PEAVTmetaclass@@EA
?Tdata3Int16Tmeta@@3PEAVTmetaclass@@EA
?Tdata3Int32Tmeta@@3PEAVTmetaclass@@EA
?Tdata4DoubleTmeta@@3PEAVTmetaclass@@EA
?TdataArrayAttrsTmeta@@3PEAVTmetaclass@@EA
?TdataBinaryTmeta@@3PEAVTmetaclass@@EA
?TdataCompoundTmeta@@3PEAVTmetaclass@@EA
?TdataDoubleArrayTmeta@@3PEAVTmetaclass@@EA
?TdataFloatArrayTmeta@@3PEAVTmetaclass@@EA
?TdataFunctionTmeta@@3PEAVTmetaclass@@EA
?TdataInt32ArrayTmeta@@3PEAVTmetaclass@@EA
?TdataLetterTmeta@@3PEAVTmetaclass@@EA
?TdataMatrixTmeta@@3PEAVTmetaclass@@EA
?TdataNumericTmeta@@3PEAVTmetaclass@@EA
?TdataReflectanceTmeta@@3PEAVTmetaclass@@EA
?TdataSpectrumTmeta@@3PEAVTmetaclass@@EA
?TdataTmeta@@3PEAVTmetaclass@@EA
?TdataUInt64ArrayTmeta@@3PEAVTmetaclass@@EA
?TdataUnknownTmeta@@3PEAVTmetaclass@@EA
?TdataVoidPtrTmeta@@3PEAVTmetaclass@@EA
?TdbRequireCountTmeta@@3PEAVTmetaclass@@EA
?TdbRequireOutputTmeta@@3PEAVTmetaclass@@EA
?TdbRequirementTmeta@@3PEAVTmetaclass@@EA
?TdbTraceTmeta@@3PEAVTmetaclass@@EA
?TdebugOutputFileTmeta@@3PEAVTmetaclass@@EA
?TdelayedClientServerTmeta@@3PEAVTmetaclass@@EA
?TdictionaryNodeTmeta@@3PEAVTmetaclass@@EA
?TdictionaryTmeta@@3PEAVTmetaclass@@EA
?TdirectoryTmeta@@3PEAVTmetaclass@@EA
?TdoubleIndexedComponentTmeta@@3PEAVTmetaclass@@EA
?TexceptionTmeta@@3PEAVTmetaclass@@EA
?TfailedExceptionTmeta@@3PEAVTmetaclass@@EA
?TfileSystemEntityTmeta@@3PEAVTmetaclass@@EA
?TfileTmeta@@3PEAVTmetaclass@@EA
?TfunctionTmeta@@3PEAVTmetaclass@@EA
?ThandledExceptionTmeta@@3PEAVTmetaclass@@EA
?Timeval@@YA?AUtimeval@@N@Z
?TlicenseModifiedMsgTmeta@@3PEAVTmetaclass@@EA
?TlongDoubleIndexedComponentTmeta@@3PEAVTmetaclass@@EA
?TmaxViewRegionModifiedMsgTmeta@@3PEAVTmetaclass@@EA
?TmemoryExceptionTmeta@@3PEAVTmetaclass@@EA
?TnameObjectTmeta@@3PEAVTmetaclass@@EA
?TnamespaceRenamedMsgTmeta@@3PEAVTmetaclass@@EA
?TnamespaceTmeta@@3PEAVTmetaclass@@EA
?ToPoints@Trect@@QEAAXPEAVTpoint@@0@Z
?TopLeft@Trect@@QEBA?AVTpoint@@XZ
?TopRight@Trect@@QEBA?AVTpoint@@XZ
?ToptionVarChangedMsgTmeta@@3PEAVTmetaclass@@EA
?ToptionVarTmeta@@3PEAVTmetaclass@@EA
?TprefOptionVarsTmeta@@3PEAVTmetaclass@@EA
?TpreferenceItemTmeta@@3PEAVTmetaclass@@EA
?TprofilerBufferSizeChangedMsgTmeta@@3PEAVTmetaclass@@EA
?TprofilerCategoryAddedMsgTmeta@@3PEAVTmetaclass@@EA
?TprofilerCategoryRemovedMsgTmeta@@3PEAVTmetaclass@@EA
?TprofilerCategoryUpdatedMsgTmeta@@3PEAVTmetaclass@@EA
?TprofilerRecordingStartedMsgTmeta@@3PEAVTmetaclass@@EA
?TprofilerRecordingStoppedMsgTmeta@@3PEAVTmetaclass@@EA
?TprofilerResetDataMsgTmeta@@3PEAVTmetaclass@@EA
?TresourceExceptionTmeta@@3PEAVTmetaclass@@EA
?TserverCheckMsgTmeta@@3PEAVTmetaclass@@EA
?TserverDeletedMsgTmeta@@3PEAVTmetaclass@@EA
?TserverModifiedMsgTmeta@@3PEAVTmetaclass@@EA
?TserverMsgTmeta@@3PEAVTmetaclass@@EA
?TsingleIndexedComponentTmeta@@3PEAVTmetaclass@@EA
?Tstring_fromAWCString@@YA?AVTstring@@AEBVCString@awString@@@Z
?Tstring_fromAWCString@@YAAEAVTstring@@AEBVCString@awString@@AEAV1@@Z
?Tstring_fromAWIString@@YA?AVTstring@@AEBVIString@awString@@@Z
?Tstring_fromAWIString@@YAAEAVTstring@@AEBVIString@awString@@AEAV1@@Z
?Tstring_fromQString@@YAAEAVTstring@@VQString@@AEAV1@@Z
?Tstring_toAWCString@@YAAEAVCString@awString@@AEBVTstring@@AEAV12@@Z
?Tstring_toAWIString@@YA?AVIString@awString@@AEBVTstring@@@Z
?Tstring_toAWIString@@YAAEAVIString@awString@@AEBVTstring@@AEAV12@@Z
?Tstring_toQString@@YA?AVQString@@AEBVTstring@@@Z
?TtriggerMsgTmeta@@3PEAVTmetaclass@@EA
?TtriggerTmeta@@3PEAVTmetaclass@@EA
?TuInt64IndexedComponentTmeta@@3PEAVTmetaclass@@EA
?TunimplementedExceptionTmeta@@3PEAVTmetaclass@@EA
?TviewRegionModifiedMsgTmeta@@3PEAVTmetaclass@@EA
?UINamespace@TnamespaceManager@@QEBAPEAVTnamespace@@XZ
?Union@Trect@@QEAAXAEBV1@@Z
?Union@Trect@@QEAAXAEBV1@AEAV1@@Z
?Valid@Trect@@QEBA_NXZ
?Width@Trect@@QEBAFXZ
?XOR@TbitFieldFixedN@@QEAAXAEBV1@@Z
?Zero@Trect@@QEAAXXZ
?_AngleFrom_@Tpoint@@QEBANFF@Z
?_AngleToPt_@Tpoint@@QEAAXNF@Z
?_Assign_rv@?$_Tree@V?$_Tmap_traits@V?$basic_string@DU?$char_traits@D@std@@V?$allocator@D@2@@std@@PEAVTresourceElement@@U?$less@V?$basic_string@DU?$char_traits@D@std@@V?$allocator@D@2@@std@@@2@V?$allocator@U?$pair@$$CBV?$basic_string@DU?$char_traits@D@std@@V?$allocator@D@2@@std@@PEAVTresourceElement@@@std@@@2@$0A@@std@@@std@@QEAAX$$QEAV12@@Z
?_Assign_rv@?$_Tree@V?$_Tmap_traits@V?$basic_string@DU?$char_traits@D@std@@V?$allocator@D@2@@std@@PEAVTresourceGroup@@U?$less@V?$basic_string@DU?$char_traits@D@std@@V?$allocator@D@2@@std@@@2@V?$allocator@U?$pair@$$CBV?$basic_string@DU?$char_traits@D@std@@V?$allocator@D@2@@std@@PEAVTresourceGroup@@@std@@@2@$0A@@std@@@std@@QEAAX$$QEAV12@@Z
?_Assign_rv@?$basic_fstream@DU?$char_traits@D@std@@@std@@QEAAX$$QEAV12@@Z
?_Buyheadnode@?$_Tree_alloc@$0A@U?$_Tree_base_types@U?$pair@$$CBV?$basic_string@DU?$char_traits@D@std@@V?$allocator@D@2@@std@@PEAVTresourceElement@@@std@@V?$allocator@U?$pair@$$CBV?$basic_string@DU?$char_traits@D@std@@V?$allocator@D@2@@std@@PEAVTresourceElement@@@std@@@2@@std@@@std@@QEAAPEAU?$_Tree_node@U?$pair@$$CBV?$basic_string@DU?$char_traits@D@std@@V?$allocator@D@2@@std@@PEAVTresourceElement@@@std@@PEAX@2@XZ
?_Buyheadnode@?$_Tree_alloc@$0A@U?$_Tree_base_types@U?$pair@$$CBV?$basic_string@DU?$char_traits@D@std@@V?$allocator@D@2@@std@@PEAVTresourceGroup@@@std@@V?$allocator@U?$pair@$$CBV?$basic_string@DU?$char_traits@D@std@@V?$allocator@D@2@@std@@PEAVTresourceGroup@@@std@@@2@@std@@@std@@QEAAPEAU?$_Tree_node@U?$pair@$$CBV?$basic_string@DU?$char_traits@D@std@@V?$allocator@D@2@@std@@PEAVTresourceGroup@@@std@@PEAX@2@XZ
?_Buynode0@?$_Tree_buy@U?$pair@$$CBV?$basic_string@DU?$char_traits@D@std@@V?$allocator@D@2@@std@@PEAVTresourceElement@@@std@@V?$allocator@U?$pair@$$CBV?$basic_string@DU?$char_traits@D@std@@V?$allocator@D@2@@std@@PEAVTresourceElement@@@std@@@2@@std@@QEAAPEAU?$_Tree_node@U?$pair@$$CBV?$basic_string@DU?$char_traits@D@std@@V?$allocator@D@2@@std@@PEAVTresourceElement@@@std@@PEAX@2@XZ
?_Buynode0@?$_Tree_buy@U?$pair@$$CBV?$basic_string@DU?$char_traits@D@std@@V?$allocator@D@2@@std@@PEAVTresourceGroup@@@std@@V?$allocator@U?$pair@$$CBV?$basic_string@DU?$char_traits@D@std@@V?$allocator@D@2@@std@@PEAVTresourceGroup@@@std@@@2@@std@@QEAAPEAU?$_Tree_node@U?$pair@$$CBV?$basic_string@DU?$char_traits@D@std@@V?$allocator@D@2@@std@@PEAVTresourceGroup@@@std@@PEAX@2@XZ
?_Buynode@?$_Tree_buy@U?$pair@$$CBV?$basic_string@DU?$char_traits@D@std@@V?$allocator@D@2@@std@@PEAVTresourceElement@@@std@@V?$allocator@U?$pair@$$CBV?$basic_string@DU?$char_traits@D@std@@V?$allocator@D@2@@std@@PEAVTresourceElement@@@std@@@2@@std@@QEAAPEAU?$_Tree_node@U?$pair@$$CBV?$basic_string@DU?$char_traits@D@std@@V?$allocator@D@2@@std@@PEAVTresourceElement@@@std@@PEAX@2@XZ
?_Buynode@?$_Tree_buy@U?$pair@$$CBV?$basic_string@DU?$char_traits@D@std@@V?$allocator@D@2@@std@@PEAVTresourceGroup@@@std@@V?$allocator@U?$pair@$$CBV?$basic_string@DU?$char_traits@D@std@@V?$allocator@D@2@@std@@PEAVTresourceGroup@@@std@@@2@@std@@QEAAPEAU?$_Tree_node@U?$pair@$$CBV?$basic_string@DU?$char_traits@D@std@@V?$allocator@D@2@@std@@PEAVTresourceGroup@@@std@@PEAX@2@XZ
?_Change_alloc@?$_Tree_alloc@$0A@U?$_Tree_base_types@U?$pair@$$CBV?$basic_string@DU?$char_traits@D@std@@V?$allocator@D@2@@std@@PEAVTresourceElement@@@std@@V?$allocator@U?$pair@$$CBV?$basic_string@DU?$char_traits@D@std@@V?$allocator@D@2@@std@@PEAVTresourceElement@@@std@@@2@@std@@@std@@QEAAXAEBU?$_Wrap_alloc@V?$allocator@U?$_Tree_node@U?$pair@$$CBV?$basic_string@DU?$char_traits@D@std@@V?$allocator@D@2@@std@@PEAVTresourceElement@@@std@@PEAX@std@@@std@@@2@@Z
?_Change_alloc@?$_Tree_alloc@$0A@U?$_Tree_base_types@U?$pair@$$CBV?$basic_string@DU?$char_traits@D@std@@V?$allocator@D@2@@std@@PEAVTresourceGroup@@@std@@V?$allocator@U?$pair@$$CBV?$basic_string@DU?$char_traits@D@std@@V?$allocator@D@2@@std@@PEAVTresourceGroup@@@std@@@2@@std@@@std@@QEAAXAEBU?$_Wrap_alloc@V?$allocator@U?$_Tree_node@U?$pair@$$CBV?$basic_string@DU?$char_traits@D@std@@V?$allocator@D@2@@std@@PEAVTresourceGroup@@@std@@PEAX@std@@@std@@@2@@Z
?_Color@?$_Tree_val@U?$_Tree_simple_types@U?$pair@$$CBV?$basic_string@DU?$char_traits@D@std@@V?$allocator@D@2@@std@@PEAVTresourceElement@@@std@@@std@@@std@@SAAEADPEAU?$_Tree_node@U?$pair@$$CBV?$basic_string@DU?$char_traits@D@std@@V?$allocator@D@2@@std@@PEAVTresourceElement@@@std@@PEAX@2@@Z
?_Color@?$_Tree_val@U?$_Tree_simple_types@U?$pair@$$CBV?$basic_string@DU?$char_traits@D@std@@V?$allocator@D@2@@std@@PEAVTresourceGroup@@@std@@@std@@@std@@SAAEADPEAU?$_Tree_node@U?$pair@$$CBV?$basic_string@DU?$char_traits@D@std@@V?$allocator@D@2@@std@@PEAVTresourceGroup@@@std@@PEAX@2@@Z
?_Copy_or_move@?$_Tree@V?$_Tmap_traits@V?$basic_string@DU?$char_traits@D@std@@V?$allocator@D@2@@std@@PEAVTresourceElement@@U?$less@V?$basic_string@DU?$char_traits@D@std@@V?$allocator@D@2@@std@@@2@V?$allocator@U?$pair@$$CBV?$basic_string@DU?$char_traits@D@std@@V?$allocator@D@2@@std@@PEAVTresourceElement@@@std@@@2@$0A@@std@@@std@@IEAAPEAU?$_Tree_node@U?$pair@$$CBV?$basic_string@DU?$char_traits@D@std@@V?$allocator@D@2@@std@@PEAVTresourceElement@@@std@@PEAX@2@PEAU32@U?$integral_constant@_N$00@2@1@Z
?_Copy_or_move@?$_Tree@V?$_Tmap_traits@V?$basic_string@DU?$char_traits@D@std@@V?$allocator@D@2@@std@@PEAVTresourceGroup@@U?$less@V?$basic_string@DU?$char_traits@D@std@@V?$allocator@D@2@@std@@@2@V?$allocator@U?$pair@$$CBV?$basic_string@DU?$char_traits@D@std@@V?$allocator@D@2@@std@@PEAVTresourceGroup@@@std@@@2@$0A@@std@@@std@@IEAAPEAU?$_Tree_node@U?$pair@$$CBV?$basic_string@DU?$char_traits@D@std@@V?$allocator@D@2@@std@@PEAVTresourceGroup@@@std@@PEAX@2@PEAU32@U?$integral_constant@_N$00@2@1@Z
?_Destroy_if_not_nil@?$_Tree@V?$_Tmap_traits@V?$basic_string@DU?$char_traits@D@std@@V?$allocator@D@2@@std@@PEAVTresourceElement@@U?$less@V?$basic_string@DU?$char_traits@D@std@@V?$allocator@D@2@@std@@@2@V?$allocator@U?$pair@$$CBV?$basic_string@DU?$char_traits@D@std@@V?$allocator@D@2@@std@@PEAVTresourceElement@@@std@@@2@$0A@@std@@@std@@IEAAXPEAU?$_Tree_node@U?$pair@$$CBV?$basic_string@DU?$char_traits@D@std@@V?$allocator@D@2@@std@@PEAVTresourceElement@@@std@@PEAX@2@@Z
?_Destroy_if_not_nil@?$_Tree@V?$_Tmap_traits@V?$basic_string@DU?$char_traits@D@std@@V?$allocator@D@2@@std@@PEAVTresourceElement@@U?$less@V?$basic_string@DU?$char_traits@D@std@@V?$allocator@D@2@@std@@@2@V?$allocator@U?$pair@$$CBV?$basic_string@DU?$char_traits@D@std@@V?$allocator@D@2@@std@@PEAVTresourceElement@@@std@@@2@$0A@@std@@@std@@IEAAXU_Nil@2@@Z
?_Destroy_if_not_nil@?$_Tree@V?$_Tmap_traits@V?$basic_string@DU?$char_traits@D@std@@V?$allocator@D@2@@std@@PEAVTresourceGroup@@U?$less@V?$basic_string@DU?$char_traits@D@std@@V?$allocator@D@2@@std@@@2@V?$allocator@U?$pair@$$CBV?$basic_string@DU?$char_traits@D@std@@V?$allocator@D@2@@std@@PEAVTresourceGroup@@@std@@@2@$0A@@std@@@std@@IEAAXPEAU?$_Tree_node@U?$pair@$$CBV?$basic_string@DU?$char_traits@D@std@@V?$allocator@D@2@@std@@PEAVTresourceGroup@@@std@@PEAX@2@@Z
?_Destroy_if_not_nil@?$_Tree@V?$_Tmap_traits@V?$basic_string@DU?$char_traits@D@std@@V?$allocator@D@2@@std@@PEAVTresourceGroup@@U?$less@V?$basic_string@DU?$char_traits@D@std@@V?$allocator@D@2@@std@@@2@V?$allocator@U?$pair@$$CBV?$basic_string@DU?$char_traits@D@std@@V?$allocator@D@2@@std@@PEAVTresourceGroup@@@std@@@2@$0A@@std@@@std@@IEAAXU_Nil@2@@Z
?_Eqrange@?$_Tree@V?$_Tmap_traits@V?$basic_string@DU?$char_traits@D@std@@V?$allocator@D@2@@std@@PEAVTresourceElement@@U?$less@V?$basic_string@DU?$char_traits@D@std@@V?$allocator@D@2@@std@@@2@V?$allocator@U?$pair@$$CBV?$basic_string@DU?$char_traits@D@std@@V?$allocator@D@2@@std@@PEAVTresourceElement@@@std@@@2@$0A@@std@@@std@@IEAA?AU?$pair@V?$_Tree_iterator@V?$_Tree_val@U?$_Tree_simple_types@U?$pair@$$CBV?$basic_string@DU?$char_traits@D@std@@V?$allocator@D@2@@std@@PEAVTresourceElement@@@std@@@std@@@std@@@std@@V12@@2@AEBV?$basic_string@DU?$char_traits@D@std@@V?$allocator@D@2@@2@@Z
?_Eqrange@?$_Tree@V?$_Tmap_traits@V?$basic_string@DU?$char_traits@D@std@@V?$allocator@D@2@@std@@PEAVTresourceElement@@U?$less@V?$basic_string@DU?$char_traits@D@std@@V?$allocator@D@2@@std@@@2@V?$allocator@U?$pair@$$CBV?$basic_string@DU?$char_traits@D@std@@V?$allocator@D@2@@std@@PEAVTresourceElement@@@std@@@2@$0A@@std@@@std@@IEBA?AU?$pair@V?$_Tree_const_iterator@V?$_Tree_val@U?$_Tree_simple_types@U?$pair@$$CBV?$basic_string@DU?$char_traits@D@std@@V?$allocator@D@2@@std@@PEAVTresourceElement@@@std@@@std@@@std@@@std@@V12@@2@AEBV?$basic_string@DU?$char_traits@D@std@@V?$allocator@D@2@@2@@Z
?_Eqrange@?$_Tree@V?$_Tmap_traits@V?$basic_string@DU?$char_traits@D@std@@V?$allocator@D@2@@std@@PEAVTresourceGroup@@U?$less@V?$basic_string@DU?$char_traits@D@std@@V?$allocator@D@2@@std@@@2@V?$allocator@U?$pair@$$CBV?$basic_string@DU?$char_traits@D@std@@V?$allocator@D@2@@std@@PEAVTresourceGroup@@@std@@@2@$0A@@std@@@std@@IEAA?AU?$pair@V?$_Tree_iterator@V?$_Tree_val@U?$_Tree_simple_types@U?$pair@$$CBV?$basic_string@DU?$char_traits@D@std@@V?$allocator@D@2@@std@@PEAVTresourceGroup@@@std@@@std@@@std@@@std@@V12@@2@AEBV?$basic_string@DU?$char_traits@D@std@@V?$allocator@D@2@@2@@Z
?_Eqrange@?$_Tree@V?$_Tmap_traits@V?$basic_string@DU?$char_traits@D@std@@V?$allocator@D@2@@std@@PEAVTresourceGroup@@U?$less@V?$basic_string@DU?$char_traits@D@std@@V?$allocator@D@2@@std@@@2@V?$allocator@U?$pair@$$CBV?$basic_string@DU?$char_traits@D@std@@V?$allocator@D@2@@std@@PEAVTresourceGroup@@@std@@@2@$0A@@std@@@std@@IEBA?AU?$pair@V?$_Tree_const_iterator@V?$_Tree_val@U?$_Tree_simple_types@U?$pair@$$CBV?$basic_string@DU?$char_traits@D@std@@V?$allocator@D@2@@std@@PEAVTresourceGroup@@@std@@@std@@@std@@@std@@V12@@2@AEBV?$basic_string@DU?$char_traits@D@std@@V?$allocator@D@2@@2@@Z
?_Erase@?$_Tree@V?$_Tmap_traits@V?$basic_string@DU?$char_traits@D@std@@V?$allocator@D@2@@std@@PEAVTresourceElement@@U?$less@V?$basic_string@DU?$char_traits@D@std@@V?$allocator@D@2@@std@@@2@V?$allocator@U?$pair@$$CBV?$basic_string@DU?$char_traits@D@std@@V?$allocator@D@2@@std@@PEAVTresourceElement@@@std@@@2@$0A@@std@@@std@@IEAAXPEAU?$_Tree_node@U?$pair@$$CBV?$basic_string@DU?$char_traits@D@std@@V?$allocator@D@2@@std@@PEAVTresourceElement@@@std@@PEAX@2@@Z
?_Erase@?$_Tree@V?$_Tmap_traits@V?$basic_string@DU?$char_traits@D@std@@V?$allocator@D@2@@std@@PEAVTresourceGroup@@U?$less@V?$basic_string@DU?$char_traits@D@std@@V?$allocator@D@2@@std@@@2@V?$allocator@U?$pair@$$CBV?$basic_string@DU?$char_traits@D@std@@V?$allocator@D@2@@std@@PEAVTresourceGroup@@@std@@@2@$0A@@std@@@std@@IEAAXPEAU?$_Tree_node@U?$pair@$$CBV?$basic_string@DU?$char_traits@D@std@@V?$allocator@D@2@@std@@PEAVTresourceGroup@@@std@@PEAX@2@@Z
?_Freeheadnode@?$_Tree_alloc@$0A@U?$_Tree_base_types@U?$pair@$$CBV?$basic_string@DU?$char_traits@D@std@@V?$allocator@D@2@@std@@PEAVTresourceElement@@@std@@V?$allocator@U?$pair@$$CBV?$basic_string@DU?$char_traits@D@std@@V?$allocator@D@2@@std@@PEAVTresourceElement@@@std@@@2@@std@@@std@@QEAAXPEAU?$_Tree_node@U?$pair@$$CBV?$basic_string@DU?$char_traits@D@std@@V?$allocator@D@2@@std@@PEAVTresourceElement@@@std@@PEAX@2@@Z
?_Freeheadnode@?$_Tree_alloc@$0A@U?$_Tree_base_types@U?$pair@$$CBV?$basic_string@DU?$char_traits@D@std@@V?$allocator@D@2@@std@@PEAVTresourceGroup@@@std@@V?$allocator@U?$pair@$$CBV?$basic_string@DU?$char_traits@D@std@@V?$allocator@D@2@@std@@PEAVTresourceGroup@@@std@@@2@@std@@@std@@QEAAXPEAU?$_Tree_node@U?$pair@$$CBV?$basic_string@DU?$char_traits@D@std@@V?$allocator@D@2@@std@@PEAVTresourceGroup@@@std@@PEAX@2@@Z
?_Freenode0@?$_Tree_buy@U?$pair@$$CBV?$basic_string@DU?$char_traits@D@std@@V?$allocator@D@2@@std@@PEAVTresourceElement@@@std@@V?$allocator@U?$pair@$$CBV?$basic_string@DU?$char_traits@D@std@@V?$allocator@D@2@@std@@PEAVTresourceElement@@@std@@@2@@std@@QEAAXPEAU?$_Tree_node@U?$pair@$$CBV?$basic_string@DU?$char_traits@D@std@@V?$allocator@D@2@@std@@PEAVTresourceElement@@@std@@PEAX@2@@Z
?_Freenode0@?$_Tree_buy@U?$pair@$$CBV?$basic_string@DU?$char_traits@D@std@@V?$allocator@D@2@@std@@PEAVTresourceGroup@@@std@@V?$allocator@U?$pair@$$CBV?$basic_string@DU?$char_traits@D@std@@V?$allocator@D@2@@std@@PEAVTresourceGroup@@@std@@@2@@std@@QEAAXPEAU?$_Tree_node@U?$pair@$$CBV?$basic_string@DU?$char_traits@D@std@@V?$allocator@D@2@@std@@PEAVTresourceGroup@@@std@@PEAX@2@@Z
?_Getal@?$_Tree_alloc@$0A@U?$_Tree_base_types@U?$pair@$$CBV?$basic_string@DU?$char_traits@D@std@@V?$allocator@D@2@@std@@PEAVTresourceElement@@@std@@V?$allocator@U?$pair@$$CBV?$basic_string@DU?$char_traits@D@std@@V?$allocator@D@2@@std@@PEAVTresourceElement@@@std@@@2@@std@@@std@@QEBA?AU?$_Wrap_alloc@V?$allocator@U?$_Tree_node@U?$pair@$$CBV?$basic_string@DU?$char_traits@D@std@@V?$allocator@D@2@@std@@PEAVTresourceElement@@@std@@PEAX@std@@@std@@@2@XZ
?_Getal@?$_Tree_alloc@$0A@U?$_Tree_base_types@U?$pair@$$CBV?$basic_string@DU?$char_traits@D@std@@V?$allocator@D@2@@std@@PEAVTresourceGroup@@@std@@V?$allocator@U?$pair@$$CBV?$basic_string@DU?$char_traits@D@std@@V?$allocator@D@2@@std@@PEAVTresourceGroup@@@std@@@2@@std@@@std@@QEBA?AU?$_Wrap_alloc@V?$allocator@U?$_Tree_node@U?$pair@$$CBV?$basic_string@DU?$char_traits@D@std@@V?$allocator@D@2@@std@@PEAVTresourceGroup@@@std@@PEAX@std@@@std@@@2@XZ
?_Getcomp@?$_Tree_comp@$0A@V?$_Tmap_traits@V?$basic_string@DU?$char_traits@D@std@@V?$allocator@D@2@@std@@PEAVTresourceElement@@U?$less@V?$basic_string@DU?$char_traits@D@std@@V?$allocator@D@2@@std@@@2@V?$allocator@U?$pair@$$CBV?$basic_string@DU?$char_traits@D@std@@V?$allocator@D@2@@std@@PEAVTresourceElement@@@std@@@2@$0A@@std@@@std@@QEBA?AU?$less@V?$basic_string@DU?$char_traits@D@std@@V?$allocator@D@2@@std@@@2@XZ
?_Getcomp@?$_Tree_comp@$0A@V?$_Tmap_traits@V?$basic_string@DU?$char_traits@D@std@@V?$allocator@D@2@@std@@PEAVTresourceGroup@@U?$less@V?$basic_string@DU?$char_traits@D@std@@V?$allocator@D@2@@std@@@2@V?$allocator@U?$pair@$$CBV?$basic_string@DU?$char_traits@D@std@@V?$allocator@D@2@@std@@PEAVTresourceGroup@@@std@@@2@$0A@@std@@@std@@QEBA?AU?$less@V?$basic_string@DU?$char_traits@D@std@@V?$allocator@D@2@@std@@@2@XZ
?_Isnil@?$_Tree_val@U?$_Tree_simple_types@U?$pair@$$CBV?$basic_string@DU?$char_traits@D@std@@V?$allocator@D@2@@std@@PEAVTresourceElement@@@std@@@std@@@std@@SAAEADPEAU?$_Tree_node@U?$pair@$$CBV?$basic_string@DU?$char_traits@D@std@@V?$allocator@D@2@@std@@PEAVTresourceElement@@@std@@PEAX@2@@Z
?_Isnil@?$_Tree_val@U?$_Tree_simple_types@U?$pair@$$CBV?$basic_string@DU?$char_traits@D@std@@V?$allocator@D@2@@std@@PEAVTresourceGroup@@@std@@@std@@@std@@SAAEADPEAU?$_Tree_node@U?$pair@$$CBV?$basic_string@DU?$char_traits@D@std@@V?$allocator@D@2@@std@@PEAVTresourceGroup@@@std@@PEAX@2@@Z
?_Key@?$_Tree@V?$_Tmap_traits@V?$basic_string@DU?$char_traits@D@std@@V?$allocator@D@2@@std@@PEAVTresourceElement@@U?$less@V?$basic_string@DU?$char_traits@D@std@@V?$allocator@D@2@@std@@@2@V?$allocator@U?$pair@$$CBV?$basic_string@DU?$char_traits@D@std@@V?$allocator@D@2@@std@@PEAVTresourceElement@@@std@@@2@$0A@@std@@@std@@IEBAAEBV?$basic_string@DU?$char_traits@D@std@@V?$allocator@D@2@@2@PEAU?$_Tree_node@U?$pair@$$CBV?$basic_string@DU?$char_traits@D@std@@V?$allocator@D@2@@std@@PEAVTresourceElement@@@std@@PEAX@2@@Z
?_Key@?$_Tree@V?$_Tmap_traits@V?$basic_string@DU?$char_traits@D@std@@V?$allocator@D@2@@std@@PEAVTresourceGroup@@U?$less@V?$basic_string@DU?$char_traits@D@std@@V?$allocator@D@2@@std@@@2@V?$allocator@U?$pair@$$CBV?$basic_string@DU?$char_traits@D@std@@V?$allocator@D@2@@std@@PEAVTresourceGroup@@@std@@@2@$0A@@std@@@std@@IEBAAEBV?$basic_string@DU?$char_traits@D@std@@V?$allocator@D@2@@2@PEAU?$_Tree_node@U?$pair@$$CBV?$basic_string@DU?$char_traits@D@std@@V?$allocator@D@2@@std@@PEAVTresourceGroup@@@std@@PEAX@2@@Z
?_Kfn@?$_Tree@V?$_Tmap_traits@V?$basic_string@DU?$char_traits@D@std@@V?$allocator@D@2@@std@@PEAVTresourceElement@@U?$less@V?$basic_string@DU?$char_traits@D@std@@V?$allocator@D@2@@std@@@2@V?$allocator@U?$pair@$$CBV?$basic_string@DU?$char_traits@D@std@@V?$allocator@D@2@@std@@PEAVTresourceElement@@@std@@@2@$0A@@std@@@std@@IEBAAEBV?$basic_string@DU?$char_traits@D@std@@V?$allocator@D@2@@2@AEBU?$pair@$$CBV?$basic_string@DU?$char_traits@D@std@@V?$allocator@D@2@@std@@PEAVTresourceElement@@@2@@Z
?_Kfn@?$_Tree@V?$_Tmap_traits@V?$basic_string@DU?$char_traits@D@std@@V?$allocator@D@2@@std@@PEAVTresourceGroup@@U?$less@V?$basic_string@DU?$char_traits@D@std@@V?$allocator@D@2@@std@@@2@V?$allocator@U?$pair@$$CBV?$basic_string@DU?$char_traits@D@std@@V?$allocator@D@2@@std@@PEAVTresourceGroup@@@std@@@2@$0A@@std@@@std@@IEBAAEBV?$basic_string@DU?$char_traits@D@std@@V?$allocator@D@2@@2@AEBU?$pair@$$CBV?$basic_string@DU?$char_traits@D@std@@V?$allocator@D@2@@std@@PEAVTresourceGroup@@@2@@Z
?_Lbound@?$_Tree@V?$_Tmap_traits@V?$basic_string@DU?$char_traits@D@std@@V?$allocator@D@2@@std@@PEAVTresourceElement@@U?$less@V?$basic_string@DU?$char_traits@D@std@@V?$allocator@D@2@@std@@@2@V?$allocator@U?$pair@$$CBV?$basic_string@DU?$char_traits@D@std@@V?$allocator@D@2@@std@@PEAVTresourceElement@@@std@@@2@$0A@@std@@@std@@IEAAPEAU?$_Tree_node@U?$pair@$$CBV?$basic_string@DU?$char_traits@D@std@@V?$allocator@D@2@@std@@PEAVTresourceElement@@@std@@PEAX@2@AEBV?$basic_string@DU?$char_traits@D@std@@V?$allocator@D@2@@2@@Z
?_Lbound@?$_Tree@V?$_Tmap_traits@V?$basic_string@DU?$char_traits@D@std@@V?$allocator@D@2@@std@@PEAVTresourceElement@@U?$less@V?$basic_string@DU?$char_traits@D@std@@V?$allocator@D@2@@std@@@2@V?$allocator@U?$pair@$$CBV?$basic_string@DU?$char_traits@D@std@@V?$allocator@D@2@@std@@PEAVTresourceElement@@@std@@@2@$0A@@std@@@std@@IEBAPEAU?$_Tree_node@U?$pair@$$CBV?$basic_string@DU?$char_traits@D@std@@V?$allocator@D@2@@std@@PEAVTresourceElement@@@std@@PEAX@2@AEBV?$basic_string@DU?$char_traits@D@std@@V?$allocator@D@2@@2@@Z
?_Lbound@?$_Tree@V?$_Tmap_traits@V?$basic_string@DU?$char_traits@D@std@@V?$allocator@D@2@@std@@PEAVTresourceGroup@@U?$less@V?$basic_string@DU?$char_traits@D@std@@V?$allocator@D@2@@std@@@2@V?$allocator@U?$pair@$$CBV?$basic_string@DU?$char_traits@D@std@@V?$allocator@D@2@@std@@PEAVTresourceGroup@@@std@@@2@$0A@@std@@@std@@IEAAPEAU?$_Tree_node@U?$pair@$$CBV?$basic_string@DU?$char_traits@D@std@@V?$allocator@D@2@@std@@PEAVTresourceGroup@@@std@@PEAX@2@AEBV?$basic_string@DU?$char_traits@D@std@@V?$allocator@D@2@@2@@Z
?_Lbound@?$_Tree@V?$_Tmap_traits@V?$basic_string@DU?$char_traits@D@std@@V?$allocator@D@2@@std@@PEAVTresourceGroup@@U?$less@V?$basic_string@DU?$char_traits@D@std@@V?$allocator@D@2@@std@@@2@V?$allocator@U?$pair@$$CBV?$basic_string@DU?$char_traits@D@std@@V?$allocator@D@2@@std@@PEAVTresourceGroup@@@std@@@2@$0A@@std@@@std@@IEBAPEAU?$_Tree_node@U?$pair@$$CBV?$basic_string@DU?$char_traits@D@std@@V?$allocator@D@2@@std@@PEAVTresourceGroup@@@std@@PEAX@2@AEBV?$basic_string@DU?$char_traits@D@std@@V?$allocator@D@2@@2@@Z
?_Left@?$_Tree_val@U?$_Tree_simple_types@U?$pair@$$CBV?$basic_string@DU?$char_traits@D@std@@V?$allocator@D@2@@std@@PEAVTresourceElement@@@std@@@std@@@std@@SAAEAPEAU?$_Tree_node@U?$pair@$$CBV?$basic_string@DU?$char_traits@D@std@@V?$allocator@D@2@@std@@PEAVTresourceElement@@@std@@PEAX@2@PEAU32@@Z
?_Left@?$_Tree_val@U?$_Tree_simple_types@U?$pair@$$CBV?$basic_string@DU?$char_traits@D@std@@V?$allocator@D@2@@std@@PEAVTresourceGroup@@@std@@@std@@@std@@SAAEAPEAU?$_Tree_node@U?$pair@$$CBV?$basic_string@DU?$char_traits@D@std@@V?$allocator@D@2@@std@@PEAVTresourceGroup@@@std@@PEAX@2@PEAU32@@Z
?_Lmost@?$_Tree@V?$_Tmap_traits@V?$basic_string@DU?$char_traits@D@std@@V?$allocator@D@2@@std@@PEAVTresourceElement@@U?$less@V?$basic_string@DU?$char_traits@D@std@@V?$allocator@D@2@@std@@@2@V?$allocator@U?$pair@$$CBV?$basic_string@DU?$char_traits@D@std@@V?$allocator@D@2@@std@@PEAVTresourceElement@@@std@@@2@$0A@@std@@@std@@IEBAAEAPEAU?$_Tree_node@U?$pair@$$CBV?$basic_string@DU?$char_traits@D@std@@V?$allocator@D@2@@std@@PEAVTresourceElement@@@std@@PEAX@2@XZ
?_Lmost@?$_Tree@V?$_Tmap_traits@V?$basic_string@DU?$char_traits@D@std@@V?$allocator@D@2@@std@@PEAVTresourceGroup@@U?$less@V?$basic_string@DU?$char_traits@D@std@@V?$allocator@D@2@@std@@@2@V?$allocator@U?$pair@$$CBV?$basic_string@DU?$char_traits@D@std@@V?$allocator@D@2@@std@@PEAVTresourceGroup@@@std@@@2@$0A@@std@@@std@@IEBAAEAPEAU?$_Tree_node@U?$pair@$$CBV?$basic_string@DU?$char_traits@D@std@@V?$allocator@D@2@@std@@PEAVTresourceGroup@@@std@@PEAX@2@XZ
?_Lrotate@?$_Tree@V?$_Tmap_traits@V?$basic_string@DU?$char_traits@D@std@@V?$allocator@D@2@@std@@PEAVTresourceElement@@U?$less@V?$basic_string@DU?$char_traits@D@std@@V?$allocator@D@2@@std@@@2@V?$allocator@U?$pair@$$CBV?$basic_string@DU?$char_traits@D@std@@V?$allocator@D@2@@std@@PEAVTresourceElement@@@std@@@2@$0A@@std@@@std@@IEAAXPEAU?$_Tree_node@U?$pair@$$CBV?$basic_string@DU?$char_traits@D@std@@V?$allocator@D@2@@std@@PEAVTresourceElement@@@std@@PEAX@2@@Z
?_Lrotate@?$_Tree@V?$_Tmap_traits@V?$basic_string@DU?$char_traits@D@std@@V?$allocator@D@2@@std@@PEAVTresourceGroup@@U?$less@V?$basic_string@DU?$char_traits@D@std@@V?$allocator@D@2@@std@@@2@V?$allocator@U?$pair@$$CBV?$basic_string@DU?$char_traits@D@std@@V?$allocator@D@2@@std@@PEAVTresourceGroup@@@std@@@2@$0A@@std@@@std@@IEAAXPEAU?$_Tree_node@U?$pair@$$CBV?$basic_string@DU?$char_traits@D@std@@V?$allocator@D@2@@std@@PEAVTresourceGroup@@@std@@PEAX@2@@Z
?_Max@?$_Tree_val@U?$_Tree_simple_types@U?$pair@$$CBV?$basic_string@DU?$char_traits@D@std@@V?$allocator@D@2@@std@@PEAVTresourceElement@@@std@@@std@@@std@@SAPEAU?$_Tree_node@U?$pair@$$CBV?$basic_string@DU?$char_traits@D@std@@V?$allocator@D@2@@std@@PEAVTresourceElement@@@std@@PEAX@2@PEAU32@@Z
?_Max@?$_Tree_val@U?$_Tree_simple_types@U?$pair@$$CBV?$basic_string@DU?$char_traits@D@std@@V?$allocator@D@2@@std@@PEAVTresourceGroup@@@std@@@std@@@std@@SAPEAU?$_Tree_node@U?$pair@$$CBV?$basic_string@DU?$char_traits@D@std@@V?$allocator@D@2@@std@@PEAVTresourceGroup@@@std@@PEAX@2@PEAU32@@Z
?_Min@?$_Tree_val@U?$_Tree_simple_types@U?$pair@$$CBV?$basic_string@DU?$char_traits@D@std@@V?$allocator@D@2@@std@@PEAVTresourceElement@@@std@@@std@@@std@@SAPEAU?$_Tree_node@U?$pair@$$CBV?$basic_string@DU?$char_traits@D@std@@V?$allocator@D@2@@std@@PEAVTresourceElement@@@std@@PEAX@2@PEAU32@@Z
?_Min@?$_Tree_val@U?$_Tree_simple_types@U?$pair@$$CBV?$basic_string@DU?$char_traits@D@std@@V?$allocator@D@2@@std@@PEAVTresourceGroup@@@std@@@std@@@std@@SAPEAU?$_Tree_node@U?$pair@$$CBV?$basic_string@DU?$char_traits@D@std@@V?$allocator@D@2@@std@@PEAVTresourceGroup@@@std@@PEAX@2@PEAU32@@Z
?_Myval@?$_Tree_val@U?$_Tree_simple_types@U?$pair@$$CBV?$basic_string@DU?$char_traits@D@std@@V?$allocator@D@2@@std@@PEAVTresourceElement@@@std@@@std@@@std@@SAAEAU?$pair@$$CBV?$basic_string@DU?$char_traits@D@std@@V?$allocator@D@2@@std@@PEAVTresourceElement@@@2@PEAU?$_Tree_node@U?$pair@$$CBV?$basic_string@DU?$char_traits@D@std@@V?$allocator@D@2@@std@@PEAVTresourceElement@@@std@@PEAX@2@@Z
?_Myval@?$_Tree_val@U?$_Tree_simple_types@U?$pair@$$CBV?$basic_string@DU?$char_traits@D@std@@V?$allocator@D@2@@std@@PEAVTresourceGroup@@@std@@@std@@@std@@SAAEAU?$pair@$$CBV?$basic_string@DU?$char_traits@D@std@@V?$allocator@D@2@@std@@PEAVTresourceGroup@@@2@PEAU?$_Tree_node@U?$pair@$$CBV?$basic_string@DU?$char_traits@D@std@@V?$allocator@D@2@@std@@PEAVTresourceGroup@@@std@@PEAX@2@@Z
?_Parent@?$_Tree_val@U?$_Tree_simple_types@U?$pair@$$CBV?$basic_string@DU?$char_traits@D@std@@V?$allocator@D@2@@std@@PEAVTresourceElement@@@std@@@std@@@std@@SAAEAPEAU?$_Tree_node@U?$pair@$$CBV?$basic_string@DU?$char_traits@D@std@@V?$allocator@D@2@@std@@PEAVTresourceElement@@@std@@PEAX@2@PEAU32@@Z
?_Parent@?$_Tree_val@U?$_Tree_simple_types@U?$pair@$$CBV?$basic_string@DU?$char_traits@D@std@@V?$allocator@D@2@@std@@PEAVTresourceGroup@@@std@@@std@@@std@@SAAEAPEAU?$_Tree_node@U?$pair@$$CBV?$basic_string@DU?$char_traits@D@std@@V?$allocator@D@2@@std@@PEAVTresourceGroup@@@std@@PEAX@2@PEAU32@@Z
?_Right@?$_Tree_val@U?$_Tree_simple_types@U?$pair@$$CBV?$basic_string@DU?$char_traits@D@std@@V?$allocator@D@2@@std@@PEAVTresourceElement@@@std@@@std@@@std@@SAAEAPEAU?$_Tree_node@U?$pair@$$CBV?$basic_string@DU?$char_traits@D@std@@V?$allocator@D@2@@std@@PEAVTresourceElement@@@std@@PEAX@2@PEAU32@@Z
?_Right@?$_Tree_val@U?$_Tree_simple_types@U?$pair@$$CBV?$basic_string@DU?$char_traits@D@std@@V?$allocator@D@2@@std@@PEAVTresourceGroup@@@std@@@std@@@std@@SAAEAPEAU?$_Tree_node@U?$pair@$$CBV?$basic_string@DU?$char_traits@D@std@@V?$allocator@D@2@@std@@PEAVTresourceGroup@@@std@@PEAX@2@PEAU32@@Z
?_Rmost@?$_Tree@V?$_Tmap_traits@V?$basic_string@DU?$char_traits@D@std@@V?$allocator@D@2@@std@@PEAVTresourceElement@@U?$less@V?$basic_string@DU?$char_traits@D@std@@V?$allocator@D@2@@std@@@2@V?$allocator@U?$pair@$$CBV?$basic_string@DU?$char_traits@D@std@@V?$allocator@D@2@@std@@PEAVTresourceElement@@@std@@@2@$0A@@std@@@std@@IEBAAEAPEAU?$_Tree_node@U?$pair@$$CBV?$basic_string@DU?$char_traits@D@std@@V?$allocator@D@2@@std@@PEAVTresourceElement@@@std@@PEAX@2@XZ
?_Rmost@?$_Tree@V?$_Tmap_traits@V?$basic_string@DU?$char_traits@D@std@@V?$allocator@D@2@@std@@PEAVTresourceGroup@@U?$less@V?$basic_string@DU?$char_traits@D@std@@V?$allocator@D@2@@std@@@2@V?$allocator@U?$pair@$$CBV?$basic_string@DU?$char_traits@D@std@@V?$allocator@D@2@@std@@PEAVTresourceGroup@@@std@@@2@$0A@@std@@@std@@IEBAAEAPEAU?$_Tree_node@U?$pair@$$CBV?$basic_string@DU?$char_traits@D@std@@V?$allocator@D@2@@std@@PEAVTresourceGroup@@@std@@PEAX@2@XZ
?_Root@?$_Tree@V?$_Tmap_traits@V?$basic_string@DU?$char_traits@D@std@@V?$allocator@D@2@@std@@PEAVTresourceElement@@U?$less@V?$basic_string@DU?$char_traits@D@std@@V?$allocator@D@2@@std@@@2@V?$allocator@U?$pair@$$CBV?$basic_string@DU?$char_traits@D@std@@V?$allocator@D@2@@std@@PEAVTresourceElement@@@std@@@2@$0A@@std@@@std@@IEBAAEAPEAU?$_Tree_node@U?$pair@$$CBV?$basic_string@DU?$char_traits@D@std@@V?$allocator@D@2@@std@@PEAVTresourceElement@@@std@@PEAX@2@XZ
?_Root@?$_Tree@V?$_Tmap_traits@V?$basic_string@DU?$char_traits@D@std@@V?$allocator@D@2@@std@@PEAVTresourceGroup@@U?$less@V?$basic_string@DU?$char_traits@D@std@@V?$allocator@D@2@@std@@@2@V?$allocator@U?$pair@$$CBV?$basic_string@DU?$char_traits@D@std@@V?$allocator@D@2@@std@@PEAVTresourceGroup@@@std@@@2@$0A@@std@@@std@@IEBAAEAPEAU?$_Tree_node@U?$pair@$$CBV?$basic_string@DU?$char_traits@D@std@@V?$allocator@D@2@@std@@PEAVTresourceGroup@@@std@@PEAX@2@XZ
?_Rrotate@?$_Tree@V?$_Tmap_traits@V?$basic_string@DU?$char_traits@D@std@@V?$allocator@D@2@@std@@PEAVTresourceElement@@U?$less@V?$basic_string@DU?$char_traits@D@std@@V?$allocator@D@2@@std@@@2@V?$allocator@U?$pair@$$CBV?$basic_string@DU?$char_traits@D@std@@V?$allocator@D@2@@std@@PEAVTresourceElement@@@std@@@2@$0A@@std@@@std@@IEAAXPEAU?$_Tree_node@U?$pair@$$CBV?$basic_string@DU?$char_traits@D@std@@V?$allocator@D@2@@std@@PEAVTresourceElement@@@std@@PEAX@2@@Z
?_Rrotate@?$_Tree@V?$_Tmap_traits@V?$basic_string@DU?$char_traits@D@std@@V?$allocator@D@2@@std@@PEAVTresourceGroup@@U?$less@V?$basic_string@DU?$char_traits@D@std@@V?$allocator@D@2@@std@@@2@V?$allocator@U?$pair@$$CBV?$basic_string@DU?$char_traits@D@std@@V?$allocator@D@2@@std@@PEAVTresourceGroup@@@std@@@2@$0A@@std@@@std@@IEAAXPEAU?$_Tree_node@U?$pair@$$CBV?$basic_string@DU?$char_traits@D@std@@V?$allocator@D@2@@std@@PEAVTresourceGroup@@@std@@PEAX@2@@Z
?_Setcomp@?$_Tree_comp@$0A@V?$_Tmap_traits@V?$basic_string@DU?$char_traits@D@std@@V?$allocator@D@2@@std@@PEAVTresourceElement@@U?$less@V?$basic_string@DU?$char_traits@D@std@@V?$allocator@D@2@@std@@@2@V?$allocator@U?$pair@$$CBV?$basic_string@DU?$char_traits@D@std@@V?$allocator@D@2@@std@@PEAVTresourceElement@@@std@@@2@$0A@@std@@@std@@QEAAXAEBU?$less@V?$basic_string@DU?$char_traits@D@std@@V?$allocator@D@2@@std@@@2@@Z
?_Setcomp@?$_Tree_comp@$0A@V?$_Tmap_traits@V?$basic_string@DU?$char_traits@D@std@@V?$allocator@D@2@@std@@PEAVTresourceGroup@@U?$less@V?$basic_string@DU?$char_traits@D@std@@V?$allocator@D@2@@std@@@2@V?$allocator@U?$pair@$$CBV?$basic_string@DU?$char_traits@D@std@@V?$allocator@D@2@@std@@PEAVTresourceGroup@@@std@@@2@$0A@@std@@@std@@QEAAXAEBU?$less@V?$basic_string@DU?$char_traits@D@std@@V?$allocator@D@2@@std@@@2@@Z
?_Swap_alloc@?$_Tree_alloc@$0A@U?$_Tree_base_types@U?$pair@$$CBV?$basic_string@DU?$char_traits@D@std@@V?$allocator@D@2@@std@@PEAVTresourceElement@@@std@@V?$allocator@U?$pair@$$CBV?$basic_string@DU?$char_traits@D@std@@V?$allocator@D@2@@std@@PEAVTresourceElement@@@std@@@2@@std@@@std@@QEAAXAEAV12@@Z
?_Swap_alloc@?$_Tree_alloc@$0A@U?$_Tree_base_types@U?$pair@$$CBV?$basic_string@DU?$char_traits@D@std@@V?$allocator@D@2@@std@@PEAVTresourceGroup@@@std@@V?$allocator@U?$pair@$$CBV?$basic_string@DU?$char_traits@D@std@@V?$allocator@D@2@@std@@PEAVTresourceGroup@@@std@@@2@@std@@@std@@QEAAXAEAV12@@Z
?_Swapcomp@?$_Tree_comp@$0A@V?$_Tmap_traits@V?$basic_string@DU?$char_traits@D@std@@V?$allocator@D@2@@std@@PEAVTresourceElement@@U?$less@V?$basic_string@DU?$char_traits@D@std@@V?$allocator@D@2@@std@@@2@V?$allocator@U?$pair@$$CBV?$basic_string@DU?$char_traits@D@std@@V?$allocator@D@2@@std@@PEAVTresourceElement@@@std@@@2@$0A@@std@@@std@@QEAAXAEBU?$less@V?$basic_string@DU?$char_traits@D@std@@V?$allocator@D@2@@std@@@2@@Z
?_Swapcomp@?$_Tree_comp@$0A@V?$_Tmap_traits@V?$basic_string@DU?$char_traits@D@std@@V?$allocator@D@2@@std@@PEAVTresourceGroup@@U?$less@V?$basic_string@DU?$char_traits@D@std@@V?$allocator@D@2@@std@@@2@V?$allocator@U?$pair@$$CBV?$basic_string@DU?$char_traits@D@std@@V?$allocator@D@2@@std@@PEAVTresourceGroup@@@std@@@2@$0A@@std@@@std@@QEAAXAEBU?$less@V?$basic_string@DU?$char_traits@D@std@@V?$allocator@D@2@@std@@@2@@Z
?_Tidy@?$_Tree@V?$_Tmap_traits@V?$basic_string@DU?$char_traits@D@std@@V?$allocator@D@2@@std@@PEAVTresourceElement@@U?$less@V?$basic_string@DU?$char_traits@D@std@@V?$allocator@D@2@@std@@@2@V?$allocator@U?$pair@$$CBV?$basic_string@DU?$char_traits@D@std@@V?$allocator@D@2@@std@@PEAVTresourceElement@@@std@@@2@$0A@@std@@@std@@IEAAXXZ
?_Tidy@?$_Tree@V?$_Tmap_traits@V?$basic_string@DU?$char_traits@D@std@@V?$allocator@D@2@@std@@PEAVTresourceGroup@@U?$less@V?$basic_string@DU?$char_traits@D@std@@V?$allocator@D@2@@std@@@2@V?$allocator@U?$pair@$$CBV?$basic_string@DU?$char_traits@D@std@@V?$allocator@D@2@@std@@PEAVTresourceGroup@@@std@@@2@$0A@@std@@@std@@IEAAXXZ
?_Ubound@?$_Tree@V?$_Tmap_traits@V?$basic_string@DU?$char_traits@D@std@@V?$allocator@D@2@@std@@PEAVTresourceElement@@U?$less@V?$basic_string@DU?$char_traits@D@std@@V?$allocator@D@2@@std@@@2@V?$allocator@U?$pair@$$CBV?$basic_string@DU?$char_traits@D@std@@V?$allocator@D@2@@std@@PEAVTresourceElement@@@std@@@2@$0A@@std@@@std@@IEAAPEAU?$_Tree_node@U?$pair@$$CBV?$basic_string@DU?$char_traits@D@std@@V?$allocator@D@2@@std@@PEAVTresourceElement@@@std@@PEAX@2@AEBV?$basic_string@DU?$char_traits@D@std@@V?$allocator@D@2@@2@@Z
?_Ubound@?$_Tree@V?$_Tmap_traits@V?$basic_string@DU?$char_traits@D@std@@V?$allocator@D@2@@std@@PEAVTresourceElement@@U?$less@V?$basic_string@DU?$char_traits@D@std@@V?$allocator@D@2@@std@@@2@V?$allocator@U?$pair@$$CBV?$basic_string@DU?$char_traits@D@std@@V?$allocator@D@2@@std@@PEAVTresourceElement@@@std@@@2@$0A@@std@@@std@@IEBAPEAU?$_Tree_node@U?$pair@$$CBV?$basic_string@DU?$char_traits@D@std@@V?$allocator@D@2@@std@@PEAVTresourceElement@@@std@@PEAX@2@AEBV?$basic_string@DU?$char_traits@D@std@@V?$allocator@D@2@@2@@Z
?_Ubound@?$_Tree@V?$_Tmap_traits@V?$basic_string@DU?$char_traits@D@std@@V?$allocator@D@2@@std@@PEAVTresourceGroup@@U?$less@V?$basic_string@DU?$char_traits@D@std@@V?$allocator@D@2@@std@@@2@V?$allocator@U?$pair@$$CBV?$basic_string@DU?$char_traits@D@std@@V?$allocator@D@2@@std@@PEAVTresourceGroup@@@std@@@2@$0A@@std@@@std@@IEAAPEAU?$_Tree_node@U?$pair@$$CBV?$basic_string@DU?$char_traits@D@std@@V?$allocator@D@2@@std@@PEAVTresourceGroup@@@std@@PEAX@2@AEBV?$basic_string@DU?$char_traits@D@std@@V?$allocator@D@2@@2@@Z
?_Ubound@?$_Tree@V?$_Tmap_traits@V?$basic_string@DU?$char_traits@D@std@@V?$allocator@D@2@@std@@PEAVTresourceGroup@@U?$less@V?$basic_string@DU?$char_traits@D@std@@V?$allocator@D@2@@std@@@2@V?$allocator@U?$pair@$$CBV?$basic_string@DU?$char_traits@D@std@@V?$allocator@D@2@@std@@PEAVTresourceGroup@@@std@@@2@$0A@@std@@@std@@IEBAPEAU?$_Tree_node@U?$pair@$$CBV?$basic_string@DU?$char_traits@D@std@@V?$allocator@D@2@@std@@PEAVTresourceGroup@@@std@@PEAX@2@AEBV?$basic_string@DU?$char_traits@D@std@@V?$allocator@D@2@@2@@Z
?_first@ThashTableIterator@@IEAAPEAVThashTableEntry@@I@Z
?_first@ThashTableIterator@@IEAA_NXZ
?_fsRegister@TanimTime@@2VTfootprintRegister@@A
?_fsRegister@Tclient@@2VTfootprintRegister@@A
?_fsRegister@TclientServer@@2VTfootprintRegister@@A
?_fsRegister@Tdata@@2VTfootprintRegister@@A
?_fsRegister@TdataLetter@@2VTfootprintRegister@@A
?_fsRegister@TdelayedClientServer@@2VTfootprintRegister@@A
?_fsRegister@TdelayedMsgType@@2VTfootprintRegister@@A
?_fsRegister@TnameObject@@2VTfootprintRegister@@A
?_getFootprint@TanimTime@@QEBA_NAEAVTfootprintInfo@@@Z
?_getFootprint@Tclient@@QEBA_NAEAVTfootprintInfo@@@Z
?_getFootprint@TclientServer@@QEBA_NAEAVTfootprintInfo@@@Z
?_getFootprint@Tdata@@QEBA_NAEAVTfootprintInfo@@@Z
?_getFootprint@TdataLetter@@UEBA_NAEAVTfootprintInfo@@@Z
?_getFootprint@TdelayedClientServer@@QEBA_NAEAVTfootprintInfo@@@Z
?_getFootprint@TdelayedMsgType@@QEBA_NAEAVTfootprintInfo@@@Z
?_getFootprint@TnameObject@@UEBA_NAEAVTfootprintInfo@@@Z
?_next@ThashTableIterator@@IEAA_NXZ
?_remove@ThashTableIterator@@IEAAXPEAVThashTableEntry@@I@Z
?_sGetFootprint@TanimTime@@SA_NPEBV1@AEAVTfootprintInfo@@@Z
?_sGetFootprint@Tclient@@SA_NPEBV1@AEAVTfootprintInfo@@@Z
?_sGetFootprint@TclientServer@@SA_NPEBV1@AEAVTfootprintInfo@@@Z
?_sGetFootprint@Tdata@@SA_NPEBV1@AEAVTfootprintInfo@@@Z
?_sGetFootprint@TdataLetter@@SA_NPEBV1@AEAVTfootprintInfo@@@Z
?_sGetFootprint@TdelayedClientServer@@SA_NPEBV1@AEAVTfootprintInfo@@@Z
?_sGetFootprint@TdelayedMsgType@@SA_NPEBV1@AEAVTfootprintInfo@@@Z
?_sGetFootprint@TnameObject@@SA_NPEBV1@AEAVTfootprintInfo@@@Z
?_setltrb@Trect@@IEAAXFFFF@Z
?_setrct@Trect@@IEAAXAEBV1@@Z
?abortBadMagic@TpureArena@@CAXXZ
?abortWrite@TsafeFileSave@@QEAAXXZ
?absMax@TfloatVoxelGrid@@QEBAMXZ
?absMaxU@T3floatVoxelGrid@@QEBAMXZ
?absMaxV@T3floatVoxelGrid@@QEBAMXZ
?absMaxW@T3floatVoxelGrid@@QEBAMXZ
?absoluteName@TnameObject@@QEBA?AVTstring@@XZ
?acceptsValue@TdbFlag@@QEBA_NXZ
?accumulate@Tspectrum@@QEAAXAEBV1@0@Z
?accumulate@Tspectrum@@QEAAXAEBV1@@Z
?accumulate@Tspectrum@@QEAAXAEBV1@M0@Z
?accumulateAlpha@TblendFactor@@QEAAXAEBV1@@Z
?acquire@TmtCriticalSection@@QEAA?AV?$TmtLock@VTmtCriticalSection@@@@XZ
?acquire@TmtMutex@@QEAA?AV?$TmtLock@VTmtMutex@@@@XZ
?acquire@TmtRWMutex@@QEAA?AV?$TmtLock@VTmtRWMutex@@@@XZ
?acquire@TmtRecursiveCS@@QEAA?AV?$TmtLock@VTmtRecursiveCS@@@@XZ
?acquire@TmtRecursiveMutex@@QEAA?AV?$TmtLock@VTmtRecursiveMutex@@@@XZ
?acquire@TmtSemaphore@@QEAA?AV?$TmtLock@VTmtSemaphore@@@@XZ
?acquire@TmtSpinCriticalSection@@QEAA?AV?$TmtLock@VTmtSpinCriticalSection@@@@XZ
?acquireDataStorage@TlockingManager@@QEAAPEAXAEAJ@Z
?acquireKey@TmtTSSCollection@@QEAAKXZ
?acquireOwnership@TdebugOutput@@IEAA_NXZ
?acquireRead@TmtCriticalSection@@QEAA?AV?$TmtLock@VTmtCriticalSection@@@@XZ
?acquireRead@TmtMutex@@QEAA?AV?$TmtLock@VTmtMutex@@@@XZ
?acquireRead@TmtRWMutex@@QEAA?AV?$TmtLock@VTmtRWMutex@@@@XZ
?acquireRead@TmtRecursiveCS@@QEAA?AV?$TmtLock@VTmtRecursiveCS@@@@XZ
?acquireRead@TmtRecursiveMutex@@QEAA?AV?$TmtLock@VTmtRecursiveMutex@@@@XZ
?acquireRead@TmtSemaphore@@QEAA?AV?$TmtLock@VTmtSemaphore@@@@XZ
?acquireRead@TmtSpinCriticalSection@@QEAA?AV?$TmtLock@VTmtSpinCriticalSection@@@@XZ
?acquireWithTimeout@TmtRecursiveCS@@QEAA?AV?$TmtLock@VTmtRecursiveCS@@@@I@Z
?acquireWrite@TmtCriticalSection@@QEAA?AV?$TmtLock@VTmtCriticalSection@@@@XZ
?acquireWrite@TmtMutex@@QEAA?AV?$TmtLock@VTmtMutex@@@@XZ
?acquireWrite@TmtRWMutex@@QEAA?AV?$TmtLock@VTmtRWMutex@@@@XZ
?acquireWrite@TmtRecursiveCS@@QEAA?AV?$TmtLock@VTmtRecursiveCS@@@@XZ
?acquireWrite@TmtRecursiveMutex@@QEAA?AV?$TmtLock@VTmtRecursiveMutex@@@@XZ
?acquireWrite@TmtSemaphore@@QEAA?AV?$TmtLock@VTmtSemaphore@@@@XZ
?acquireWrite@TmtSpinCriticalSection@@QEAA?AV?$TmtLock@VTmtSpinCriticalSection@@@@XZ
?active@TCIPClient@@QEAA_NXZ
?add@MObjBase@@SA_NW4Type@MFn@@0@Z
?add@MObjBase@@SA_NW4Type@MFn@@PEBW423@I@Z
?add@T2dIntSequence@@QEAA_NHH@Z
?add@T3dIntSequence@@QEAA_NHHH@Z
?add@TdataArrayAttrs@@QEAAXAEBV1@@Z
?add@TdataArrayAttrs@@QEAAXAEBVTstring@@AEBVTdataDoubleArray@@@Z
?add@TdataArrayAttrs@@QEAAXAEBVTstring@@AEBVTdataInt32Array@@@Z
?add@TdataLetterCopyManager@@QEAAXPEAVTdataLetter@@@Z
?add@TdblRect@@QEAAAEAV1@AEBV1@@Z
?add@TdblRect@@QEAAAEAV1@NN@Z
?add@TfunctionArgs@@QEAAIAEBVTstring@@IPEAX@Z
?add@TintSequence@@QEAA_NH@Z
?add@TmtRefCounter@@QEAAHXZ
?add@TpolyMapArrayShared@@QEAAIPEBVTstring@@@Z
?add@TpolyTangentSetArrayShared@@QEAAIXZ
?add@TportRect@@QEAAAEAV1@AEBV1@@Z
?add@TshapeAlgebra@@QEAAXAEBV1@@Z
?add@TuIntSequence@@QEAA_NI@Z
?addArray@TfootprintInfo@@QEAAXPEBDPEBX_K0@Z
?addArray@TfootprintInfo@@QEAAXPEBDPEBX_K2@Z
?addAttribute@TCIPState@@QEAAXAEBVTstring@@0@Z
?addAttribute@TCIPState@@QEAAXAEBVTstring@@H@Z
?addAttribute@TCIPState@@QEAAXAEBVTstring@@M@Z
?addAttribute@TCIPState@@QEAAXAEBVTstring@@N@Z
?addAttribute@TCIPState@@QEAAXAEBVTstring@@_J@Z
?addAttribute@TCIPState@@QEAAXAEBVTstring@@_N@Z
?addBasket@TglobalPrefMgr@@SAXAEAVTbasket@@@Z
?addBd@TbdTable@@QEAAIHAEBVTstring@@0I@Z
?addBinarySetting@TMayaRegNT@@SAHPEBDPEBEH@Z
?addBooleanData@TdataArrayAttrs@@QEAAPEAVTbooleanArray@@AEBVTstring@@@Z
?addByPattern@TfilePathList@@QEAAXAEBVTstring@@@Z
?addCallback@ThwrCallback@@SAXPEAV1@@Z
?addCategory@Tprofiler@@QEAAHPEBD@Z
?addClient@TclientServer@@QEAA_NPEAVTclient@@PEAVTmetaclass@@P6AX0PEAV1@AEBVTserverMsg@@@Z14141414@Z
?addClient@TclientServer@@QEAA_NPEAVTclient@@PEAVTmetaclass@@P6AX0PEAV1@AEBVTserverMsg@@@Z@Z
?addClient@TclientServer@@QEBA_NPEAVTclient@@PEAVTmetaclass@@P6AX0PEBV1@AEBVTserverMsg@@@Z14141414@Z
?addClient@TclientServer@@QEBA_NPEAVTclient@@PEAVTmetaclass@@P6AX0PEBV1@AEBVTserverMsg@@@Z@Z
?addClient@TprefOptionVar@@SA_NAEBVTstring@@PEAVTclient@@PEAVTmetaclass@@P6AX1PEBVTclientServer@@AEBVTserverMsg@@@Z@Z
?addClient@TprefOptionVars@@QEAA_NAEBVTstring@@PEAVTclient@@PEAVTmetaclass@@P6AX1PEBVTclientServer@@AEBVTserverMsg@@@Z@Z
?addClientHook@TclientServer@@MEAAXPEAVTclient@@PEAVTmetaclass@@@Z
?addData@TdataCompound@@QEAAIVTdata@@@Z
?addDoubleData@TdataArrayAttrs@@QEAAPEAVTdoubleArray@@AEBVTstring@@@Z
?addElement@TdoubleIndexedComponent@@QEAAXAEBVTsurfaceIndex@@@Z
?addElement@TdoubleIndexedComponent@@QEAAXII@Z
?addElement@TlongDoubleIndexedComponent@@QEAAXAEBVTdoubleIndexLong@@@Z
?addElement@TlongDoubleIndexedComponent@@QEAAXII@Z
?addElement@TlongDoubleIndexedComponent@@QEAA_NAEBVTcomponent@@@Z
?addElement@TsingleIndexedComponent@@QEAAXH@Z
?addElement@TuInt64IndexedComponent@@UEAAX_K@Z
?addEntry@?$Toctree@I@@QEAAXAEBI@Z
?addEntry@?$Toctree@VToctreePoint@@@@QEAAXAEBVToctreePoint@@@Z
?addEntry@?$TotNode@I@@QEAAXAEBIPEBV?$Toctree@I@@I@Z
?addEntry@?$TotNode@VToctreePoint@@@@QEAAXAEBVToctreePoint@@PEBV?$Toctree@VToctreePoint@@@@I@Z
?addEntry@TpointOctree@@QEAAXAEBVT3dFltPoint@@I@Z
?addEntry@TtriangleOctree@@QEAAXAEBVT3dFltPoint@@00II@Z
?addFlag@TdbOperation@@IEAAXPEBVTdbFlag@@@Z
?addInfluenceWeight@TcomponentWeights@@QEAAXM@Z
?addInput@TvsArgs@@QEAAIAEBVTstring@@IPEAX@Z
?addInstanceIndex@TpolyBdVertexFaceBase@@QEAAXI@Z
?addInt32Data@TdataArrayAttrs@@QEAAPEAVTint32Array@@AEBVTstring@@@Z
?addIntersection@?$TotRayWalker@IVToctreeTriangleIntersection@@@@AEAAXPEAV?$TotRayIntersection@IVToctreeTriangleIntersection@@@@@Z
?addLast@T2FloatArray@@QEAAHAEBVT2Float@@@Z
?addLast@T2FloatArray@@QEAAXQEBVT2Float@@I@Z
?addLast@T3DoubleArray@@QEAAHAEBVT3Double@@@Z
?addLast@T3DoubleArray@@QEAAXQEBVT3Double@@I@Z
?addLast@T3FloatArray@@QEAAHAEBVT3Float@@@Z
?addLast@T3FloatArray@@QEAAXQEBVT3Float@@I@Z
?addLast@T3dDblPointArray@@QEAAHAEBVT3dDblPoint@@@Z
?addLast@T3dDblPointArray@@QEAAXQEBVT3dDblPoint@@I@Z
?addLast@T3dDblPointArrayPtrArray@@QEAAHAEBQEAVT3dDblPointArray@@@Z
?addLast@T3dDblPointArrayPtrArray@@QEAAXQEBQEAVT3dDblPointArray@@I@Z
?addLast@T3dFltPointArray@@QEAAHAEBVT3dFltPoint@@@Z
?addLast@T3dFltPointArray@@QEAAXQEBVT3dFltPoint@@I@Z
?addLast@T3dFltVectorArray@@QEAAHAEBVT3dFltVector@@@Z
?addLast@T3dFltVectorArray@@QEAAXQEBVT3dFltVector@@I@Z
?addLast@T4dDblMatrixArray@@QEAAHAEBVT4dDblMatrix@@@Z
?addLast@T4dDblMatrixArray@@QEAAXQEBVT4dDblMatrix@@I@Z
?addLast@T4dDblPointArray@@QEAAHAEBVT4dDblPoint@@@Z
?addLast@T4dDblPointArray@@QEAAXQEBVT4dDblPoint@@I@Z
?addLast@T4dDblPointArrayPtrArray@@QEAAHAEBQEAVT4dDblPointArray@@@Z
?addLast@T4dDblPointArrayPtrArray@@QEAAXQEBQEAVT4dDblPointArray@@I@Z
?addLast@T4dDblVectorArray@@QEAAHAEBVT4dDblVector@@@Z
?addLast@T4dDblVectorArray@@QEAAXQEBVT4dDblVector@@I@Z
?addLast@T4dDblVectorArrayPtrArray@@QEAAHAEBQEAVT4dDblVectorArray@@@Z
?addLast@T4dDblVectorArrayPtrArray@@QEAAXQEBQEAVT4dDblVectorArray@@I@Z
?addLast@T4dFltMatrixArray@@QEAAHAEBVT4dFltMatrix@@@Z
?addLast@T4dFltMatrixArray@@QEAAXQEBVT4dFltMatrix@@I@Z
?addLast@T4dFltPointArray@@QEAAHAEBVT4dFltPoint@@@Z
?addLast@T4dFltPointArray@@QEAAXQEBVT4dFltPoint@@I@Z
?addLast@TDarray@@QEAAXAEBVTdata@@@Z
?addLast@TDarray@@QEAAXQEBVTdata@@I@Z
?addLast@TTuInt32Array@@QEAAHAEBI@Z
?addLast@TTuInt32Array@@QEAAXQEBII@Z
?addLast@TanimTimeArray@@QEAAXAEBVTanimTime@@@Z
?addLast@TanimTimeArray@@QEAAXQEBVTanimTime@@I@Z
?addLast@TanimTimeSortedArray@@IEAAXAEBVTanimTime@@@Z
?addLast@TargListPtrArray@@QEAAHAEBQEAVTargList@@@Z
?addLast@TargListPtrArray@@QEAAXQEBQEAVTargList@@I@Z
?addLast@TargTypeArray@@QEAAHAEBVTargType@@@Z
?addLast@TargTypeArray@@QEAAXQEBVTargType@@I@Z
?addLast@TbdDataPtrArray@@QEAAXAEBQEAVTbdData@@@Z
?addLast@TbdDataPtrArrayContainer@@QEAAHAEBQEAVTbdData@@@Z
?addLast@TbdDataPtrArrayContainer@@QEAAXQEBQEAVTbdData@@I@Z
?addLast@TbooleanArray@@QEAAHAEB_N@Z
?addLast@TbooleanArray@@QEAAXQEB_NI@Z
?addLast@TbooleanArrayPtrArray@@QEAAHAEBQEAVTbooleanArray@@@Z
?addLast@TbooleanArrayPtrArray@@QEAAXQEBQEAVTbooleanArray@@I@Z
?addLast@TcharArray@@QEAAHAEBD@Z
?addLast@TcharArray@@QEAAXQEBDI@Z
?addLast@TcharPtrArray@@QEAAHAEBQEAD@Z
?addLast@TcharPtrArray@@QEAAXQEBQEADI@Z
?addLast@TcomponentPtrArray@@QEAAXAEBQEAVTcomponent@@@Z
?addLast@TcomponentPtrArray@@QEAAXQEBQEAVTcomponent@@I@Z
?addLast@TdblPointArray@@QEAAHAEBVTdblPoint@@@Z
?addLast@TdblPointArray@@QEAAXQEBVTdblPoint@@I@Z
?addLast@TdelayedMsgTypeArray@@QEAAXAEBVTdelayedMsgType@@@Z
?addLast@TdelayedMsgTypeArray@@QEAAXQEBVTdelayedMsgType@@I@Z
?addLast@TdoubleArray@@QEAAHAEBN@Z
?addLast@TdoubleArray@@QEAAXQEBNI@Z
?addLast@TdoubleArrayPtrArray@@QEAAHAEBQEAVTdoubleArray@@@Z
?addLast@TdoubleArrayPtrArray@@QEAAXQEBQEAVTdoubleArray@@I@Z
?addLast@TdoubleIndexLongArray@@QEAAXAEBVTdoubleIndexLong@@@Z
?addLast@TdoubleIndexLongArray@@QEAAXQEBVTdoubleIndexLong@@I@Z
?addLast@TdoublePtrArray@@QEAAHAEBQEAN@Z
?addLast@TdoublePtrArray@@QEAAXQEBQEANI@Z
?addLast@TdoubleRangeArray@@QEAAXAEBVTdoubleRange@@@Z
?addLast@TdoubleRangeArray@@QEAAXQEBVTdoubleRange@@I@Z
?addLast@TdoubleSortedArray@@IEAAXAEBN@Z
?addLast@TdualQuaternionArray@@QEAAHAEBVTdualQuaternion@@@Z
?addLast@TdualQuaternionArray@@QEAAXQEBVTdualQuaternion@@I@Z
?addLast@TfilePathArray@@QEAAXAEBVTfilePath@@@Z
?addLast@TfilePathArray@@QEAAXQEBVTfilePath@@I@Z
?addLast@TfilePathList@@QEAAXAEBVTdirectoryPath@@@Z
?addLast@TfilePathList@@QEAAXAEBVTfilePath@@@Z
?addLast@TfilePathList@@QEAAXAEBVTstring@@@Z
?addLast@TfloatArray@@QEAAHAEBM@Z
?addLast@TfloatArray@@QEAAXQEBMI@Z
?addLast@TfloatArrayPtrArray@@QEAAHAEBQEAVTfloatArray@@@Z
?addLast@TfloatArrayPtrArray@@QEAAXQEBQEAVTfloatArray@@I@Z
?addLast@TfloatArrayPtrArrayPtrArray@@QEAAHAEBQEAVTfloatArrayPtrArray@@@Z
?addLast@TfloatArrayPtrArrayPtrArray@@QEAAXQEBQEAVTfloatArrayPtrArray@@I@Z
?addLast@TfloatConstPtrArray@@QEAAHAEBQEBM@Z
?addLast@TfloatConstPtrArray@@QEAAXQEBQEBMI@Z
?addLast@TfloatPtrArray@@QEAAHAEBQEAM@Z
?addLast@TfloatPtrArray@@QEAAXQEBQEAMI@Z
?addLast@TfloatRangeArray@@QEAAXAEBVTfloatRange@@@Z
?addLast@TfloatRangeArray@@QEAAXQEBVTfloatRange@@I@Z
?addLast@TfltLineArray@@QEAAHAEBVTfltLine@@@Z
?addLast@TfltLineArray@@QEAAXQEBVTfltLine@@I@Z
?addLast@TfltPointArray@@QEAAHAEBVTfltPoint@@@Z
?addLast@TfltPointArray@@QEAAXQEBVTfltPoint@@I@Z
?addLast@TiffTagArray@@QEAAHAEBVTiffTag@@@Z
?addLast@TiffTagArray@@QEAAXQEBVTiffTag@@I@Z
?addLast@TindexArray@@QEAAHAEBI@Z
?addLast@TindexArray@@QEAAXQEBII@Z
?addLast@TindexRangeArray@@QEAAXAEBVTindexRange@@@Z
?addLast@TindexRangeArray@@QEAAXQEBVTindexRange@@I@Z
?addLast@Tint16Array@@QEAAHAEBF@Z
?addLast@Tint16Array@@QEAAXQEBFI@Z
?addLast@Tint32Array@@QEAAHAEBH@Z
?addLast@Tint32Array@@QEAAXQEBHI@Z
?addLast@Tint32ArrayPtrArray@@QEAAHAEBQEAVTint32Array@@@Z
?addLast@Tint32ArrayPtrArray@@QEAAXQEBQEAVTint32Array@@I@Z
?addLast@Tint32SortedArray@@IEAAXAEBH@Z
?addLast@Tint64Array@@QEAAHAEB_J@Z
?addLast@Tint64Array@@QEAAXQEB_JI@Z
?addLast@TlineArray@@QEAAHAEBVTline@@@Z
?addLast@TlineArray@@QEAAXQEBVTline@@I@Z
?addLast@TmtThreadPtrArray@@QEAAHAEBQEAVTmtThread@@@Z
?addLast@TmtThreadPtrArray@@QEAAXQEBQEAVTmtThread@@I@Z
?addLast@TnameObjectPtrArray@@QEAAHAEBQEAVTnameObject@@@Z
?addLast@TnameObjectPtrArray@@QEAAXQEBQEAVTnameObject@@I@Z
?addLast@TnamespacePtrArray@@QEAAHAEBQEAVTnamespace@@@Z
?addLast@TnamespacePtrArray@@QEAAXQEBQEAVTnamespace@@I@Z
?addLast@TobjArrayTbasketPtr@@QEAAXAEBQEAVTbasket@@@Z
?addLast@TobjArrayTbasketPtr@@QEAAXQEBQEAVTbasket@@I@Z
?addLast@TobjectGroupIdArray@@QEAAHAEBI@Z
?addLast@TobjectGroupIdArray@@QEAAXQEBII@Z
?addLast@TobjectGroupPtrArray@@QEAAXAEBQEAVTobjectGroup@@@Z
?addLast@TobjectGroupPtrArray@@QEAAXQEBQEAVTobjectGroup@@I@Z
?addLast@TpixelMapPtrArray@@QEAAHAEBQEAVTpixelMap@@@Z
?addLast@TpixelMapPtrArray@@QEAAXQEBQEAVTpixelMap@@I@Z
?addLast@TpointArray@@QEAAHAEBVTpoint@@@Z
?addLast@TpointArray@@QEAAXQEBVTpoint@@I@Z
?addLast@TpolyMapArray@@QEAAXAEBVTpolyMap@@@Z
?addLast@TpolyMapArray@@QEAAXQEBVTpolyMap@@I@Z
?addLast@TpolyTangentSetArray@@QEAAXAEBVTpolyTangentSet@@@Z
?addLast@TpolyTangentSetArray@@QEAAXQEBVTpolyTangentSet@@I@Z
?addLast@TpoolAllocatorPtrArray@@QEAAHAEBQEAVTpoolAllocator@@@Z
?addLast@TpoolAllocatorPtrArray@@QEAAXQEBQEAVTpoolAllocator@@I@Z
?addLast@TportColorArray@@QEAAHAEBVTportColor@@@Z
?addLast@TportColorArray@@QEAAXQEBVTportColor@@I@Z
?addLast@TpreferenceItemPtrArray@@QEAAXAEBQEAVTpreferenceItem@@@Z
?addLast@TpreferenceItemPtrArray@@QEAAXQEBQEAVTpreferenceItem@@I@Z
?addLast@TquaternionArray@@QEAAXAEBVTquaternion@@@Z
?addLast@TquaternionArray@@QEAAXQEBVTquaternion@@I@Z
?addLast@TquaternionArrayPtrArray@@QEAAHAEBQEAVTquaternionArray@@@Z
?addLast@TquaternionArrayPtrArray@@QEAAXQEBQEAVTquaternionArray@@I@Z
?addLast@TrectArray@@QEAAHAEBVTrect@@@Z
?addLast@TrectArray@@QEAAXQEBVTrect@@I@Z
?addLast@TrotateXYZArray@@QEAAHAEBVTrotateXYZ@@@Z
?addLast@TrotateXYZArray@@QEAAXQEBVTrotateXYZ@@I@Z
?addLast@TscaleArray@@QEAAHAEBVTscale@@@Z
?addLast@TscaleArray@@QEAAXQEBVTscale@@I@Z
?addLast@TsearchPath@@QEAAXAEBVTdirectoryPath@@@Z
?addLast@TsearchPath@@QEAAXAEBVTfilePath@@@Z
?addLast@TsearchPath@@QEAAXAEBVTstring@@@Z
?addLast@TsearchPath@@QEAAXPEBD@Z
?addLast@TselectedSrfDirectionsArray@@QEAAHAEBW4TselectedSrfDirections@@@Z
?addLast@TselectedSrfDirectionsArray@@QEAAXQEBW4TselectedSrfDirections@@I@Z
?addLast@TsharedPixelMapArray@@QEAAXAEBVTsharedPixelMap@@@Z
?addLast@TsharedPixelMapArray@@QEAAXQEBVTsharedPixelMap@@I@Z
?addLast@TsortedBdDataPtrArray@@IEAAXAEBVTbdDataPtrSObj@@@Z
?addLast@TsortedObjectGroupIdArray@@IEAAXAEBI@Z
?addLast@TsortedStringArray@@IEAAXAEBVTstring@@@Z
?addLast@TstringArray@@QEAAXAEBVTstring@@@Z
?addLast@TstringArray@@QEAAXQEBVTstring@@I@Z
?addLast@TstringPtrArray@@QEAAHAEBQEAVTstring@@@Z
?addLast@TstringPtrArray@@QEAAXQEBQEAVTstring@@I@Z
?addLast@TsurfSelectedBoundaryTypeArray@@QEAAHAEBW4TsurfSelectedBoundaryType@@@Z
?addLast@TsurfSelectedBoundaryTypeArray@@QEAAXQEBW4TsurfSelectedBoundaryType@@I@Z
?addLast@TsurfaceDirectionArray@@QEAAHAEBW4TsurfaceDirection@@@Z
?addLast@TsurfaceDirectionArray@@QEAAXQEBW4TsurfaceDirection@@I@Z
?addLast@TsurfaceIndexArray@@QEAAXAEBVTsurfaceIndex@@@Z
?addLast@TsurfaceIndexArray@@QEAAXQEBVTsurfaceIndex@@I@Z
?addLast@TtimeRangeArray@@QEAAXAEBVTtimeRange@@@Z
?addLast@TtimeRangeArray@@QEAAXQEBVTtimeRange@@I@Z
?addLast@TtimeValueArray@@QEAAHAEBVTtimeValue@@@Z
?addLast@TtimeValueArray@@QEAAXQEBVTtimeValue@@I@Z
?addLast@TtimeValueArrayPtrArray@@QEAAHAEBQEAVTtimeValueArray@@@Z
?addLast@TtimeValueArrayPtrArray@@QEAAXQEBQEAVTtimeValueArray@@I@Z
?addLast@TtimeValuePtrArray@@QEAAHAEBQEAPEAVTtimeValue@@@Z
?addLast@TtimeValuePtrArray@@QEAAXQEBQEAPEAVTtimeValue@@I@Z
?addLast@TtriggerPtrArray@@QEAAHAEBQEAVTtrigger@@@Z
?addLast@TtriggerPtrArray@@QEAAXQEBQEAVTtrigger@@I@Z
?addLast@TtypeidArray@@QEAAXAEBQEAVTmetaclass@@@Z
?addLast@TtypeidArray@@QEAAXQEBQEAVTmetaclass@@I@Z
?addLast@TuInt16Array@@QEAAHAEBG@Z
?addLast@TuInt16Array@@QEAAXQEBGI@Z
?addLast@TuInt16SortedArray@@IEAAXAEBG@Z
?addLast@TuInt32Array@@QEAAHAEBI@Z
?addLast@TuInt32Array@@QEAAXQEBII@Z
?addLast@TuInt32ArrayPtrArray@@QEAAHAEBQEAVTuInt32Array@@@Z
?addLast@TuInt32ArrayPtrArray@@QEAAXQEBQEAVTuInt32Array@@I@Z
?addLast@TuInt32SortedArray@@IEAAXAEBI@Z
?addLast@TuInt64Array@@QEAAHAEB_K@Z
?addLast@TuInt64Array@@QEAAXQEB_KI@Z
?addLast@TuInt64SortedArray@@IEAAXAEB_K@Z
?addLast@TuInt8Array@@QEAAHAEBE@Z
?addLast@TuInt8Array@@QEAAXQEBEI@Z
?addLast@TuInt8ArrayPtrArray@@QEAAHAEBQEAVTuInt8Array@@@Z
?addLast@TuInt8ArrayPtrArray@@QEAAXQEBQEAVTuInt8Array@@I@Z
?addLast@TuvPointArray@@QEAAHAEBVTuvPoint@@@Z
?addLast@TuvPointArray@@QEAAXQEBVTuvPoint@@I@Z
?addLast@TvaluesArrayPtrArray@@QEAAHAEBQEAVTdoubleArray@@@Z
?addLast@TvaluesArrayPtrArray@@QEAAXQEBQEAVTdoubleArray@@I@Z
?addLast@TviewRegionArray@@QEAAHAEBVTviewRegion@@@Z
?addLast@TviewRegionArray@@QEAAXQEBVTviewRegion@@I@Z
?addLast@TvoidPtrArray@@QEAAHAEBQEAX@Z
?addLast@TvoidPtrArray@@QEAAXQEBQEAXI@Z
?addLast@TvoidPtrSortedArray@@IEAAXAEBQEAX@Z
?addLast@TxformMatrixArray@@QEAAXAEBVTxformMatrix@@@Z
?addLast@TxformMatrixArray@@QEAAXQEBVTxformMatrix@@I@Z
?addLast@TxformMatrixPtrArray@@QEAAHAEBQEAVTxformMatrix@@@Z
?addLast@TxformMatrixPtrArray@@QEAAXQEBQEAVTxformMatrix@@I@Z
?addLastArrayVar@TprefOptionVars@@QEAA_NAEBVTstring@@0@Z
?addLastArrayVar@TprefOptionVars@@QEAA_NAEBVTstring@@H@Z
?addLastArrayVar@TprefOptionVars@@QEAA_NAEBVTstring@@N@Z
?addLastUnsorted@TanimTimeSortedArray@@QEAAXAEBVTanimTime@@@Z
?addLastUnsorted@TdoubleSortedArray@@QEAAXAEBN@Z
?addLastUnsorted@Tint32SortedArray@@QEAAXAEBH@Z
?addLastUnsorted@TsortedBdDataPtrArray@@QEAAXAEBVTbdDataPtrSObj@@@Z
?addLastUnsorted@TsortedObjectGroupIdArray@@QEAAXAEBI@Z
?addLastUnsorted@TsortedStringArray@@QEAAXAEBVTstring@@@Z
?addLastUnsorted@TuInt16SortedArray@@QEAAXAEBG@Z
?addLastUnsorted@TuInt32SortedArray@@QEAAXAEBI@Z
?addLastUnsorted@TuInt64SortedArray@@QEAAXAEB_K@Z
?addLastUnsorted@TvoidPtrSortedArray@@QEAAXAEBQEAX@Z
?addLastUpdateHash@TbdDataPtrArray@@QEAAXAEBQEAVTbdData@@@Z
?addNamespace@TnamespaceManager@@QEAAPEAVTnamespace@@AEBVTnameString@@PEAV2@PEAVTnamespacePtrArray@@@Z
?addNamespace@TnamespaceManager@@QEAA_NPEAVTnamespace@@0@Z
?addNewBd@TbdTable@@QEAAIHAEBVTstring@@0I@Z
?addObject@Tfootprint@@QEAAXPEBDPEBX@Z
?addObject@TfootprintInfo@@QEAAXPEBDPEBX@Z
?addObject@Tnamespace@@UEAA_NPEAVTnameObject@@@Z
?addObject@TnamespaceManager@@QEAA_NPEAVTnameObject@@PEAVTnamespace@@@Z
?addObjectGroup@TgroupedObject@@QEAAXI@Z
?addObjectGroup@TgroupedObject@@QEAAXPEAVTobjectGroup@@@Z
?addOutput@TvsArgs@@QEAAIAEBVTstring@@IPEAX@Z
?addPage@TbaseArena@@IEAAXPEAVTpage@1@@Z
?addPrefItem@TglobalPrefMgr@@SAXAEAVTpreferenceItem@@@Z
?addPtr@TfootprintInfo@@QEAAXPEBDPEBX@Z
?addQueryItem@TfileURI@@QEAAXAEBVTstring@@0@Z
?addRange@TsingleIndexedComponent@@QEAAXHH@Z
?addRange@TuInt64IndexedComponent@@QEAAX_K0@Z
?addRequirement@TdbOperation@@IEAAXPEAVTdbRequirement@@@Z
?addSeamWeight@TcomponentWeights@@QEAAXM@Z
?addSize@TfootprintInfo@@QEAAX_J@Z
?addSpectrum@Treflectance@@AEBAXAEBVTspectrum@@0AEAV2@@Z
?addSpectrum@Tspectrum@@QEBAXAEBV1@0AEAV1@@Z
?addState@TCIPWaypoint@@QEAAXAEBVTCIPState@@@Z
?addStringData@TdataArrayAttrs@@QEAAPEAVTstringArray@@AEBVTstring@@@Z
?addSuperClass@Tmetaclass@@QEAAXPEAPEAV1@@Z
?addTarray@TfootprintInfo@@QEAAXPEBDPEBVTarray@@0@Z
?addTobjArray@TfootprintInfo@@QEAAXPEBDPEBVTobjArray@@0_N@Z
?addTobjPtrArray@TfootprintInfo@@QEAAXPEBDPEBVTobjArray@@0@Z
?addTrigger@Ttrigger@@IEAAXXZ
?addTsortedArray@TfootprintInfo@@QEAAXPEBDPEBVTsortedArray@@0@Z
?addTsortedPtrArray@TfootprintInfo@@QEAAXPEBDPEBVTsortedArray@@0@Z
?addValue@T3floatVoxelGrid@@UEAAXAEBVT3dFltVector@@I@Z
?addValue@T3floatVoxelGrid@@UEAAXAEBVT3dFltVector@@III@Z
?addValue@TfloatVoxelGrid@@QEAAXMIII@Z
?addVar@TprefOptionVars@@QEAAXAEBVTstring@@0@Z
?addVar@TprefOptionVars@@QEAAXAEBVTstring@@H@Z
?addVar@TprefOptionVars@@QEAAXAEBVTstring@@N@Z
?addVectorData@TdataArrayAttrs@@QEAAPEAVT4dDblVectorArray@@AEBVTstring@@@Z
?addVoidPtrData@TdataArrayAttrs@@QEAAPEAVTvoidPtrArray@@AEBVTstring@@@Z
?addrValue@Tdata@@QEBAPEAXXZ
?address@Tarray@@IEBAPEADI@Z
?address@TobjArray@@IEBAPEADI@Z
?address@TpoolData@@QEAAPEADXZ
?adjoint@T4dDblMatrix@@QEBA?AV1@XZ
?adjoint@T4dFltMatrix@@QEBA?AV1@XZ
?adjointIt@T4dDblMatrix@@QEAAAEAV1@XZ
?adjointIt@T4dFltMatrix@@QEAAAEAV1@XZ
?adjustFreeMemory@TmallocAllocator@@SA_K_J@Z
?affinePostmultBy@T4dDblMatrix@@QEAAAEAV1@AEBV1@@Z
?affinePremultBy@T4dDblMatrix@@QEAAAEAV1@AEBV1@@Z
?affineProduct@T4dDblMatrix@@QEAAAEAV1@AEBV1@0@Z
?alert@TassertAlert@@SAXPEBD0H@Z
?alert@TassertAlert@@SAXW4TalertType@1@HPEBDH@Z
?alert@TassertAlert@@SAXW4TalertType@1@PEBD11H@Z
?alert@TassertAlert@@SAXW4TalertType@1@PEBD1H@Z
?allFlags@MObject@@AEBAFXZ
?allFlags@TapiObj@@QEBAGXZ
?allNames@TincorrectNameSet@@SAAEBV?$unordered_set@VTstring@@UHasher@1@U?$equal_to@VTstring@@@std@@V?$allocator@VTstring@@@4@@unordered@awBoost@@XZ
?allRayIntersections@TfltBox@@QEBAHAEBVT4dFltPoint@@AEBVT3dFltVector@@PEAVTfloatArray@@PEAVT4dFltPointArray@@@Z
?alloc@TmallocAllocator@@SAPEAX_KPEBD@Z
?allocate@Talloca@@QEAAPEAX_K@Z
?allocate@TcompactArena@@QEAAPEAXXZ
?allocate@TcompactArena@@QEAAPEAX_K0@Z
?allocate@TcompactArena@@QEAAPEAX_K@Z
?allocate@TcompactPage@TcompactArena@@IEAAPEAXAEAHPEBH@Z
?allocate@TcompactPage@TcompactArena@@QEAAPEAXXZ
?allocate@TdepthBuffer@@QEAAHXZ
?allocate@TfixedArena@@QEAAPEAXXZ
?allocate@TfixedArena@@QEAAPEAX_K0@Z
?allocate@TfixedArena@@QEAAPEAX_K@Z
?allocate@TmallocAllocator@@UEAAPEAX_KPEBD@Z
?allocate@TmtCompactArena@@QEAAPEAXXZ
?allocate@TmtCompactArena@@QEAAPEAX_K0@Z
?allocate@TmtCompactArena@@QEAAPEAX_K@Z
?allocate@TmtStackArena@@QEAAPEAX_K0@Z
?allocate@TmtVariantArena@@QEAAPEAX_K00@Z
?allocate@TmtVariantArena@@QEAAPEAX_K@Z
?allocate@TpixelMap@@IEAAHXZ
?allocate@TstackArena@@QEAAPEAX_K0@Z
?allocate@TstackArena@@QEAAPEAX_K@Z
?allocate@TvariantArena@@QEAAPEAX_K00@Z
?allocate@TvariantArena@@QEAAPEAX_K@Z
?allocateArray@Tarray@@EEAAXI@Z
?allocateArray@TcacheArray@@EEAAXI@Z
?allocateArray@TobjArray@@EEAAXI@Z
?allocateFast@TcompactArena@@IEAAPEAX_K@Z
?allocateFixedPage@TcompactArena@@IEAAPEAVTcompactPage@1@_K0@Z
?allocateFixedPage@TfixedArena@@IEAAPEAVTfixedPage@1@_K0@Z
?allocateFixedPageForBlock@TcompactArena@@IEAAPEAVTcompactPage@1@_K@Z
?allocateFixedPageForBlock@TfixedArena@@IEAAPEAVTfixedPage@1@_K@Z
?allocateInternal@TvariantArena@@IEAAPEAX_K0@Z
?allocateLeftover@TcompactPage@TcompactArena@@IEAAPEAXAEAHPEBH@Z
?allocatePage@TbaseArena@@IEAAPEAX_K@Z
?allocatePage@TbaseArena@@IEAAPEAX_KPEBD@Z
?allocatePurified@TpureArena@@IEAAPEAX_K@Z
?allocateSearch@TcompactPage@TcompactArena@@QEAAPEAXPEAH@Z
?allocateVariantPage@TvariantArena@@IEAAPEAVTvariantFreeList@1@_K@Z
?allocateVariantPageForBlock@TvariantArena@@IEAAPEAVTvariantFreeList@1@_K0@Z
?allocatedDataSize@TstringTestInfo@@SA_KAEBVTstring@@@Z
?allocatedMemory@TbaseArena@@QEBA_KXZ
?allocatedMemory@TvariantArena@@QEBA_JXZ
?allocatedPageMemory@TbaseArena@@IEBA_KXZ
?allocationCount@Tpage@TbaseArena@@QEBA_KXZ
?allow@TsrtComponents@@SAAEAV1@XZ
?allowDuplicates@TsortedArray@@QEAAXXZ
?allowNestedAndNonePlaceHolderNamespaceMappings@TplaceHolderNamespaceUtil@@QEBA_NXZ
?alternateSolution@TrotateXYZ@@QEAAAEAV1@AEBV1@@Z
?alternateSolution@TrotateXYZ@@QEAAAEAV1@XZ
?alwaysWriteReferencedCondition@TglobalTranslatorBase@@SAPEAVTcondition@@XZ
?andFirst64@TbitField128@@QEBA_K_K@Z
?angle@T4dDblVector@@QEBA?AVTangle@@AEBV1@@Z
?angleBetween@T2dFltVector@@QEBA?AVTangle@@AEBV1@@Z
?angleBetween@T3dFltVector@@QEBA?AVTangle@@AEBV1@M@Z
?angleBetween@T4dDblVector@@QEBA?AVTangle@@AEBV1@@Z
?angularUnitChanged@TangleUnit@@2VTtrigger@@A
?anyClear@TbitFieldFixedN@@QEBA_NXZ
?anySet@TbitField128@@QEBA_NXZ
?anySet@TbitField16@@QEBA_NXZ
?anySet@TbitField32@@QEBA_NXZ
?anySet@TbitField64@@QEBA_NXZ
?anySet@TbitFieldFixedN@@QEBA_NAEBV1@@Z
?anySet@TbitFieldFixedN@@QEBA_NXZ
?anySet@TbitFieldN@@QEBA_NXZ
?apiHasReferenceCounting@MPtrBase@@UEAA_NXZ
?apiHasReferenceCounting@Tcomponent@@UEAA_NXZ
?apiHasReferenceCounting@TdataLetter@@UEAA_NXZ
?apiPluginName@TstackTrace@@SAPEADXZ
?apiPtr@MPtrBase@@QEAAPEAV1@XZ
?apiPtr@MPtrBase@@QEBAPEBV1@XZ
?apiPtr@TapiObj@@QEAAPEAVMPtrBase@@XZ
?apiPtr@TapiObj@@QEBAPEBVMPtrBase@@XZ
?apiReference@MPtrBase@@UEAAXXZ
?apiReference@Tcomponent@@UEAAXXZ
?apiReference@TdataLetter@@UEAAXXZ
?apiType@MObject@@QEBA?AW4Type@MFn@@XZ
?apiType@MPtrBase@@UEBA?AVMFn@@XZ
?apiType@TapiObj@@QEBA?AW4Type@MFn@@XZ
?apiType@Tdata2Double@@UEBA?AVMFn@@XZ
?apiType@Tdata2Float@@UEBA?AVMFn@@XZ
?apiType@Tdata2Int16@@UEBA?AVMFn@@XZ
?apiType@Tdata2Int32@@UEBA?AVMFn@@XZ
?apiType@Tdata3Double@@UEBA?AVMFn@@XZ
?apiType@Tdata3Float@@UEBA?AVMFn@@XZ
?apiType@Tdata3Int16@@UEBA?AVMFn@@XZ
?apiType@Tdata3Int32@@UEBA?AVMFn@@XZ
?apiType@Tdata4Double@@UEBA?AVMFn@@XZ
?apiType@TdataArrayAttrs@@UEBA?AVMFn@@XZ
?apiType@TdataBinary@@UEBA?AVMFn@@XZ
?apiType@TdataDoubleArray@@UEBA?AVMFn@@XZ
?apiType@TdataFloatArray@@UEBA?AVMFn@@XZ
?apiType@TdataFunction@@UEBA?AVMFn@@XZ
?apiType@TdataInt32Array@@UEBA?AVMFn@@XZ
?apiType@TdataMatrix@@UEBA?AVMFn@@XZ
?apiType@TdataUInt64Array@@UEBA?AVMFn@@XZ
?apiTypeStr@MObject@@QEBAPEBDXZ
?apiTypeString@MPtrBase@@UEBAPEBDXZ
?apiTypeString@Tdata2Double@@UEBAPEBDXZ
?apiTypeString@Tdata2Float@@UEBAPEBDXZ
?apiTypeString@Tdata2Int16@@UEBAPEBDXZ
?apiTypeString@Tdata2Int32@@UEBAPEBDXZ
?apiTypeString@Tdata3Double@@UEBAPEBDXZ
?apiTypeString@Tdata3Float@@UEBAPEBDXZ
?apiTypeString@Tdata3Int16@@UEBAPEBDXZ
?apiTypeString@Tdata3Int32@@UEBAPEBDXZ
?apiTypeString@Tdata4Double@@UEBAPEBDXZ
?apiTypeString@TdataArrayAttrs@@UEBAPEBDXZ
?apiTypeString@TdataBinary@@UEBAPEBDXZ
?apiTypeString@TdataDoubleArray@@UEBAPEBDXZ
?apiTypeString@TdataFloatArray@@UEBAPEBDXZ
?apiTypeString@TdataFunction@@UEBAPEBDXZ
?apiTypeString@TdataInt32Array@@UEBAPEBDXZ
?apiTypeString@TdataMatrix@@UEBAPEBDXZ
?apiTypeString@TdataUInt64Array@@UEBAPEBDXZ
?apiUnreference@MPtrBase@@UEAAXXZ
?apiUnreference@Tcomponent@@UEAAXXZ
?apiUnreference@TdataLetter@@UEAAXXZ
?apiUserObject@MPtrBase@@UEBAPEAXXZ
?append@Tstring@@QEAAHAEBV1@@Z
?append@Tstring@@QEAAHAEBVTstringId@@@Z
?append@Tstring@@QEAAHPEBDI@Z
?append@Tstring@@QEAAXPEBD@Z
?appendAll@TargList@@UEBAXAEAVTstring@@I@Z
?appendBlock@TsingleIndexedComponent@@QEAAXHH@Z
?appendChar@Tstring@@QEAAHPEBD@Z
?appendChar@Tstring@@QEAAHPEBDI@Z
?appendData@TpolyMap@@EEAAXQEAXI@Z
?appendExtension@TfileSystemEntity@@SA_NAEAVTstring@@DAEBV2@@Z
?appendIndex@TpolyBdVertexFaceBase@@QEAAXH@Z
?appendIndex@TpolyBdVertexFaceBase@@QEAAXPEAHI@Z
?appendItem@TsingleIndexedComponent@@QEAAXH@Z
?appendItem@TsingleIndexedComponent@@QEAAXPEAHI@Z
?appendItem@TuInt64IndexedComponent@@QEAAXPEA_KI@Z
?appendItem@TuInt64IndexedComponent@@QEAAX_K@Z
?appendNewline@Tstring@@QEAAXXZ
?appendSpace@Tstring@@QEAAXXZ
?appendTang@TpolyTangentSet@@AEAAXAEBVT3dFltVector@@@Z
?appendTang@TpolyTangentSet@@AEAAXAEBVT3dFltVector@@I@Z
?appendToExpandedPaths@TfilePath@@KAXAEBVTstring@@AEAVTstringArray@@HH@Z
?appendToExpandedPaths@TfilePath@@KAXAEBVTstringArray@@AEAV2@@Z
?appendUV@TpolyMap@@AEAAXAEBVT2Float@@@Z
?appendUV@TpolyMap@@AEAAXMM@Z
?appendUV@TpolyMap@@AEAAXPEBM@Z
?appendUV@TpolyMap@@AEAAXPEBVT2Float@@H@Z
?appendVersionNumberString@TbatchGlobals@@SAXAEBVTstring@@@Z
?applicationLocale@TbaseLicenseManager@@QEAA?AVTstring@@XZ
?applicationPath@TbaseLicenseManager@@QEAA?AVTstring@@XZ
?applicationVersionNumberString@TbatchGlobals@@SAAEBVTstring@@XZ
?applicationVersionString@TbatchGlobals@@SAAEBVTstring@@XZ
?appliesToIndex@TpolyBdVertexFaceBase@@QEBA_NI@Z
?apply@TfunctionMapping@@UEAA_NXZ
?applyRotation@TpixelMap@@QEAAHAEAV1@@Z
?applyRotation@TpixelMap@@QEAAHXZ
?approxLength@T4dDblVector@@QEBANXZ
?arena@TcompactPage@TcompactArena@@QEBAPEAV2@XZ
?arena@Tpage@TbaseArena@@QEBAPEAV2@XZ
?array@T2dFltPoint@@QEBAPEAMXZ
?array@T2dFltVector@@QEBAPEAMXZ
?array@T3dDblPoint@@QEBAPEANXZ
?array@T3dFltPoint@@QEBAPEAMXZ
?array@T3dFltVector@@QEBAPEAMXZ
?array@T3floatVoxelGrid@@QEAAPEAMI@Z
?array@T3floatVoxelGrid@@QEBAPEBMI@Z
?array@T4dDblPoint@@QEBAPEANXZ
?array@T4dDblVector@@QEBAPEANXZ
?array@T4dFltPoint@@QEBAPEAMXZ
?array@TdataDoubleArray@@QEBAAEBVTdoubleArray@@XZ
?array@TdataFloatArray@@QEBAAEBVTfloatArray@@XZ
?array@TdataInt32Array@@QEBAAEBVTint32Array@@XZ
?array@TdataUInt64Array@@QEBAAEBVTuInt64Array@@XZ
?array@TfloatVoxelGrid@@QEAAPEAMXZ
?array@TfloatVoxelGrid@@QEBAPEBMXZ
?arraySize@ToptionVar@@QEBAIXZ
?arrayU@T3floatVoxelGrid@@QEAAPEAMXZ
?arrayU@T3floatVoxelGrid@@QEBAPEBMXZ
?arrayV@T3floatVoxelGrid@@QEAAPEAMXZ
?arrayV@T3floatVoxelGrid@@QEBAPEBMXZ
?arrayW@T3floatVoxelGrid@@QEAAPEAMXZ
?arrayW@T3floatVoxelGrid@@QEBAPEBMXZ
?asAddr@Tdata@@AEBA_NXZ
?asAnimTime@TtimeValue@@QEBA?AVTanimTime@@XZ
?asBounds@TfltBox@@QEBA?AVTfltBoundingBox@@XZ
?asC@Tstring@@QEBAPEBDXZ
?asC@TuniqueString@@QEBAPEBDXZ
?asCStoreSize@Tstring@@QEBAIXZ
?asDouble@Tdata@@AEBA_NXZ
?asDouble@TenvironmentVariable@@QEAANN@Z
?asDouble@TlinearString@@QEBANXZ
?asDouble@Tstring@@QEBANXZ
?asDoubleArray@ToptionVar@@QEBAPEAVTdoubleArray@@XZ
?asFloat@Tstring@@QEBAMXZ
?asFloat@TtimeValue@@QEBAMXZ
?asInt16@Tstring@@QEBAFXZ
?asInt32@TenvironmentVariable@@QEAAHH@Z
?asInt32@Tstring@@QEBAHXZ
?asInt32Array@ToptionVar@@QEBAPEAVTint32Array@@XZ
?asInt64@Tdata@@AEBA_NXZ
?asIntArray@Tuuid@@QEBAPEBIXZ
?asIntPtrSz@Tstring@@QEBA_JXZ
?asMObject@MPtrBase@@QEAA?AVMObject@@XZ
?asNonConstC@Tstring@@QEBAPEADXZ
?asString@TfileURI@@QEBA?AVTstring@@XZ
?asString@TlinearString@@QEBAAEBVTstring@@_N@Z
?asString@Tuuid@@QEBA?AVTstring@@XZ
?asStringArray@ToptionVar@@QEBAPEAVTstringArray@@XZ
?asStrings@Tcomponent@@UEBAXAEBVTstring@@AEAVTstringArray@@@Z
?asStringsForASCII@Tcomponent@@UEBAXAEBVTstring@@AEAVTstringArray@@@Z
?asTicks@TtimeValue@@QEBAHXZ
?asUInt32@Tstring@@QEBAIXZ
?asUIntPtrSz@TenvironmentVariable@@QEAA_K_K@Z
?asUIntPtrSz@Tstring@@QEBA_KXZ
?asUTF8@Tstring@@QEBAPEBDXZ
?asUTF8@TuniqueString@@QEBAPEBDXZ
?asUTF8StoreSize@Tstring@@QEBAIXZ
?asVector@TrotateXYZ@@QEBA?AVT4dDblVector@@XZ
?asVector@Tscale@@QEBA?AVT4dDblVector@@XZ
?asVector@Tshear2@@QEBA?AVT4dDblVector@@XZ
?asVector@Tshear@@QEBA?AVT4dDblVector@@XZ
?asW@Tstring@@QEBAPEB_WXZ
?asW@TuniqueString@@QEBAPEB_WXZ
?assertionCount@TassertAlert@@SAIXZ
?associatedPartition@Tnamespace@@QEAAPEAXXZ
?at@?$map@V?$basic_string@DU?$char_traits@D@std@@V?$allocator@D@2@@std@@PEAVTresourceElement@@U?$less@V?$basic_string@DU?$char_traits@D@std@@V?$allocator@D@2@@std@@@2@V?$allocator@U?$pair@$$CBV?$basic_string@DU?$char_traits@D@std@@V?$allocator@D@2@@std@@PEAVTresourceElement@@@std@@@2@@std@@QEAAAEAPEAVTresourceElement@@AEBV?$basic_string@DU?$char_traits@D@std@@V?$allocator@D@2@@2@@Z
?at@?$map@V?$basic_string@DU?$char_traits@D@std@@V?$allocator@D@2@@std@@PEAVTresourceElement@@U?$less@V?$basic_string@DU?$char_traits@D@std@@V?$allocator@D@2@@std@@@2@V?$allocator@U?$pair@$$CBV?$basic_string@DU?$char_traits@D@std@@V?$allocator@D@2@@std@@PEAVTresourceElement@@@std@@@2@@std@@QEBAAEBQEAVTresourceElement@@AEBV?$basic_string@DU?$char_traits@D@std@@V?$allocator@D@2@@2@@Z
?at@?$map@V?$basic_string@DU?$char_traits@D@std@@V?$allocator@D@2@@std@@PEAVTresourceGroup@@U?$less@V?$basic_string@DU?$char_traits@D@std@@V?$allocator@D@2@@std@@@2@V?$allocator@U?$pair@$$CBV?$basic_string@DU?$char_traits@D@std@@V?$allocator@D@2@@std@@PEAVTresourceGroup@@@std@@@2@@std@@QEAAAEAPEAVTresourceGroup@@AEBV?$basic_string@DU?$char_traits@D@std@@V?$allocator@D@2@@2@@Z
?at@?$map@V?$basic_string@DU?$char_traits@D@std@@V?$allocator@D@2@@std@@PEAVTresourceGroup@@U?$less@V?$basic_string@DU?$char_traits@D@std@@V?$allocator@D@2@@std@@@2@V?$allocator@U?$pair@$$CBV?$basic_string@DU?$char_traits@D@std@@V?$allocator@D@2@@std@@PEAVTresourceGroup@@@std@@@2@@std@@QEBAAEBQEAVTresourceGroup@@AEBV?$basic_string@DU?$char_traits@D@std@@V?$allocator@D@2@@2@@Z
?at@Tstring@@QEBA_WI@Z
?autoMap@TfunctionMapping@@QEAA_NAEBVTfunction@@@Z
?availableCount@TpoolManager@@QEAAHXZ
?awaitCompletion@Tcomputation@@UEAA_NXZ
?bad@Tfile_iostream@@UEBAHXZ
?badStream@Tfile@@MEAAXXZ
?bary@TtriangleOctreeRayWalker@@QEBANI@Z
?base@TcompactPage@TcompactArena@@QEBAPEADXZ
?baseApplicationVersionNumberString@TbatchGlobals@@SAAEBVTstring@@XZ
?baseName@TfileName@@QEBA?AVTstring@@XZ
?baseName@TfilePath@@QEBA?AVTstring@@XZ
?baseName@TnameObject@@QEBAAEBVTuniqueString@@XZ
?baseName@TpolyMapArrayShared@@QEBA_NAEAVTstring@@I@Z
?baseName@Tstring@@QEBA?AV1@XZ
?basePrefix@TfileName@@QEBA?AVTstring@@XZ
?baseString@TnameString@@QEBA?AVTstring@@XZ
?bbox@TfltFrustum@@QEBA?AVTfltBox@@XZ
?bbox@Tfrustum@@QEBA?AVTboundingBox@@XZ
?begin@?$_Tree@V?$_Tmap_traits@V?$basic_string@DU?$char_traits@D@std@@V?$allocator@D@2@@std@@PEAVTresourceElement@@U?$less@V?$basic_string@DU?$char_traits@D@std@@V?$allocator@D@2@@std@@@2@V?$allocator@U?$pair@$$CBV?$basic_string@DU?$char_traits@D@std@@V?$allocator@D@2@@std@@PEAVTresourceElement@@@std@@@2@$0A@@std@@@std@@QEAA?AV?$_Tree_iterator@V?$_Tree_val@U?$_Tree_simple_types@U?$pair@$$CBV?$basic_string@DU?$char_traits@D@std@@V?$allocator@D@2@@std@@PEAVTresourceElement@@@std@@@std@@@std@@@2@XZ
?begin@?$_Tree@V?$_Tmap_traits@V?$basic_string@DU?$char_traits@D@std@@V?$allocator@D@2@@std@@PEAVTresourceElement@@U?$less@V?$basic_string@DU?$char_traits@D@std@@V?$allocator@D@2@@std@@@2@V?$allocator@U?$pair@$$CBV?$basic_string@DU?$char_traits@D@std@@V?$allocator@D@2@@std@@PEAVTresourceElement@@@std@@@2@$0A@@std@@@std@@QEBA?AV?$_Tree_const_iterator@V?$_Tree_val@U?$_Tree_simple_types@U?$pair@$$CBV?$basic_string@DU?$char_traits@D@std@@V?$allocator@D@2@@std@@PEAVTresourceElement@@@std@@@std@@@std@@@2@XZ
?begin@?$_Tree@V?$_Tmap_traits@V?$basic_string@DU?$char_traits@D@std@@V?$allocator@D@2@@std@@PEAVTresourceGroup@@U?$less@V?$basic_string@DU?$char_traits@D@std@@V?$allocator@D@2@@std@@@2@V?$allocator@U?$pair@$$CBV?$basic_string@DU?$char_traits@D@std@@V?$allocator@D@2@@std@@PEAVTresourceGroup@@@std@@@2@$0A@@std@@@std@@QEAA?AV?$_Tree_iterator@V?$_Tree_val@U?$_Tree_simple_types@U?$pair@$$CBV?$basic_string@DU?$char_traits@D@std@@V?$allocator@D@2@@std@@PEAVTresourceGroup@@@std@@@std@@@std@@@2@XZ
?begin@?$_Tree@V?$_Tmap_traits@V?$basic_string@DU?$char_traits@D@std@@V?$allocator@D@2@@std@@PEAVTresourceGroup@@U?$less@V?$basic_string@DU?$char_traits@D@std@@V?$allocator@D@2@@std@@@2@V?$allocator@U?$pair@$$CBV?$basic_string@DU?$char_traits@D@std@@V?$allocator@D@2@@std@@PEAVTresourceGroup@@@std@@@2@$0A@@std@@@std@@QEBA?AV?$_Tree_const_iterator@V?$_Tree_val@U?$_Tree_simple_types@U?$pair@$$CBV?$basic_string@DU?$char_traits@D@std@@V?$allocator@D@2@@std@@PEAVTresourceGroup@@@std@@@std@@@std@@@2@XZ
?begin@T2FloatArray@@QEAA?AV?$iterator_impl@VT2Float@@@1@XZ
?begin@T2FloatArray@@QEBA?AV?$iterator_impl@$$CBVT2Float@@@1@XZ
?begin@T3DoubleArray@@QEAA?AV?$iterator_impl@VT3Double@@@1@XZ
?begin@T3DoubleArray@@QEBA?AV?$iterator_impl@$$CBVT3Double@@@1@XZ
?begin@T3FloatArray@@QEAA?AV?$iterator_impl@VT3Float@@@1@XZ
?begin@T3FloatArray@@QEBA?AV?$iterator_impl@$$CBVT3Float@@@1@XZ
?begin@T3dDblPointArray@@QEAA?AV?$iterator_impl@VT3dDblPoint@@@1@XZ
?begin@T3dDblPointArray@@QEBA?AV?$iterator_impl@$$CBVT3dDblPoint@@@1@XZ
?begin@T3dDblPointArrayPtrArray@@QEAA?AV?$iterator_impl@PEAVT3dDblPointArray@@@1@XZ
?begin@T3dDblPointArrayPtrArray@@QEBA?AV?$iterator_impl@QEAVT3dDblPointArray@@@1@XZ
?begin@T3dFltPointArray@@QEAA?AV?$iterator_impl@VT3dFltPoint@@@1@XZ
?begin@T3dFltPointArray@@QEBA?AV?$iterator_impl@$$CBVT3dFltPoint@@@1@XZ
?begin@T3dFltVectorArray@@QEAA?AV?$iterator_impl@VT3dFltVector@@@1@XZ
?begin@T3dFltVectorArray@@QEBA?AV?$iterator_impl@$$CBVT3dFltVector@@@1@XZ
?begin@T4dDblMatrixArray@@QEAA?AV?$iterator_impl@VT4dDblMatrix@@@1@XZ
?begin@T4dDblMatrixArray@@QEBA?AV?$iterator_impl@$$CBVT4dDblMatrix@@@1@XZ
?begin@T4dDblPointArray@@QEAA?AV?$iterator_impl@VT4dDblPoint@@@1@XZ
?begin@T4dDblPointArray@@QEBA?AV?$iterator_impl@$$CBVT4dDblPoint@@@1@XZ
?begin@T4dDblPointArrayPtrArray@@QEAA?AV?$iterator_impl@PEAVT4dDblPointArray@@@1@XZ
?begin@T4dDblPointArrayPtrArray@@QEBA?AV?$iterator_impl@QEAVT4dDblPointArray@@@1@XZ
?begin@T4dDblVectorArray@@QEAA?AV?$iterator_impl@VT4dDblVector@@@1@XZ
?begin@T4dDblVectorArray@@QEBA?AV?$iterator_impl@$$CBVT4dDblVector@@@1@XZ
?begin@T4dDblVectorArrayPtrArray@@QEAA?AV?$iterator_impl@PEAVT4dDblVectorArray@@@1@XZ
?begin@T4dDblVectorArrayPtrArray@@QEBA?AV?$iterator_impl@QEAVT4dDblVectorArray@@@1@XZ
?begin@T4dFltMatrixArray@@QEAA?AV?$iterator_impl@VT4dFltMatrix@@@1@XZ
?begin@T4dFltMatrixArray@@QEBA?AV?$iterator_impl@$$CBVT4dFltMatrix@@@1@XZ
?begin@T4dFltPointArray@@QEAA?AV?$iterator_impl@VT4dFltPoint@@@1@XZ
?begin@T4dFltPointArray@@QEBA?AV?$iterator_impl@$$CBVT4dFltPoint@@@1@XZ
?begin@TTuInt32Array@@QEAA?AV?$iterator_impl@I@1@XZ
?begin@TTuInt32Array@@QEBA?AV?$iterator_impl@$$CBI@1@XZ
?begin@TbdDataPtrArrayContainer@@QEAA?AV?$iterator_impl@PEAVTbdData@@@1@XZ
?begin@TbdDataPtrArrayContainer@@QEBA?AV?$iterator_impl@QEAVTbdData@@@1@XZ
?begin@TbooleanArray@@QEAA?AV?$iterator_impl@_N@1@XZ
?begin@TbooleanArray@@QEBA?AV?$iterator_impl@$$CB_N@1@XZ
?begin@TbooleanArrayPtrArray@@QEAA?AV?$iterator_impl@PEAVTbooleanArray@@@1@XZ
?begin@TbooleanArrayPtrArray@@QEBA?AV?$iterator_impl@QEAVTbooleanArray@@@1@XZ
?begin@TcharArray@@QEAA?AV?$iterator_impl@D@1@XZ
?begin@TcharArray@@QEBA?AV?$iterator_impl@$$CBD@1@XZ
?begin@TcharPtrArray@@QEAA?AV?$iterator_impl@PEAD@1@XZ
?begin@TcharPtrArray@@QEBA?AV?$iterator_impl@QEAD@1@XZ
?begin@TdblPointArray@@QEAA?AV?$iterator_impl@VTdblPoint@@@1@XZ
?begin@TdblPointArray@@QEBA?AV?$iterator_impl@$$CBVTdblPoint@@@1@XZ
?begin@TdoubleArray@@QEAA?AV?$iterator_impl@N@1@XZ
?begin@TdoubleArray@@QEBA?AV?$iterator_impl@$$CBN@1@XZ
?begin@TdoubleArrayPtrArray@@QEAA?AV?$iterator_impl@PEAVTdoubleArray@@@1@XZ
?begin@TdoubleArrayPtrArray@@QEBA?AV?$iterator_impl@QEAVTdoubleArray@@@1@XZ
?begin@TdoublePtrArray@@QEAA?AV?$iterator_impl@PEAN@1@XZ
?begin@TdoublePtrArray@@QEBA?AV?$iterator_impl@QEAN@1@XZ
?begin@TdualQuaternionArray@@QEAA?AV?$iterator_impl@VTdualQuaternion@@@1@XZ
?begin@TdualQuaternionArray@@QEBA?AV?$iterator_impl@$$CBVTdualQuaternion@@@1@XZ
?begin@TfloatArray@@QEAA?AV?$iterator_impl@M@1@XZ
?begin@TfloatArray@@QEBA?AV?$iterator_impl@$$CBM@1@XZ
?begin@TfloatArrayPtrArray@@QEAA?AV?$iterator_impl@PEAVTfloatArray@@@1@XZ
?begin@TfloatArrayPtrArray@@QEBA?AV?$iterator_impl@QEAVTfloatArray@@@1@XZ
?begin@TfloatArrayPtrArrayPtrArray@@QEAA?AV?$iterator_impl@PEAVTfloatArrayPtrArray@@@1@XZ
?begin@TfloatArrayPtrArrayPtrArray@@QEBA?AV?$iterator_impl@QEAVTfloatArrayPtrArray@@@1@XZ
?begin@TfloatConstPtrArray@@QEAA?AV?$iterator_impl@PEBM@1@XZ
?begin@TfloatConstPtrArray@@QEBA?AV?$iterator_impl@QEBM@1@XZ
?begin@TfloatPtrArray@@QEAA?AV?$iterator_impl@PEAM@1@XZ
?begin@TfloatPtrArray@@QEBA?AV?$iterator_impl@QEAM@1@XZ
?begin@TfltLineArray@@QEAA?AV?$iterator_impl@VTfltLine@@@1@XZ
?begin@TfltLineArray@@QEBA?AV?$iterator_impl@$$CBVTfltLine@@@1@XZ
?begin@TfltPointArray@@QEAA?AV?$iterator_impl@VTfltPoint@@@1@XZ
?begin@TfltPointArray@@QEBA?AV?$iterator_impl@$$CBVTfltPoint@@@1@XZ
?begin@TiffTagArray@@QEAA?AV?$iterator_impl@VTiffTag@@@1@XZ
?begin@TiffTagArray@@QEBA?AV?$iterator_impl@$$CBVTiffTag@@@1@XZ
?begin@TindexArray@@QEAA?AV?$iterator_impl@I@1@XZ
?begin@TindexArray@@QEBA?AV?$iterator_impl@$$CBI@1@XZ
?begin@Tint16Array@@QEAA?AV?$iterator_impl@F@1@XZ
?begin@Tint16Array@@QEBA?AV?$iterator_impl@$$CBF@1@XZ
?begin@Tint32Array@@QEAA?AV?$iterator_impl@H@1@XZ
?begin@Tint32Array@@QEBA?AV?$iterator_impl@$$CBH@1@XZ
?begin@Tint32ArrayPtrArray@@QEAA?AV?$iterator_impl@PEAVTint32Array@@@1@XZ
?begin@Tint32ArrayPtrArray@@QEBA?AV?$iterator_impl@QEAVTint32Array@@@1@XZ
?begin@Tint64Array@@QEAA?AV?$iterator_impl@_J@1@XZ
?begin@Tint64Array@@QEBA?AV?$iterator_impl@$$CB_J@1@XZ
?begin@TlineArray@@QEAA?AV?$iterator_impl@VTline@@@1@XZ
?begin@TlineArray@@QEBA?AV?$iterator_impl@$$CBVTline@@@1@XZ
?begin@TmtThreadPtrArray@@QEAA?AV?$iterator_impl@PEAVTmtThread@@@1@XZ
?begin@TmtThreadPtrArray@@QEBA?AV?$iterator_impl@QEAVTmtThread@@@1@XZ
?begin@TnameObjectPtrArray@@QEAA?AV?$iterator_impl@PEAVTnameObject@@@1@XZ
?begin@TnameObjectPtrArray@@QEBA?AV?$iterator_impl@QEAVTnameObject@@@1@XZ
?begin@TnamespacePtrArray@@QEAA?AV?$iterator_impl@PEAVTnamespace@@@1@XZ
?begin@TnamespacePtrArray@@QEBA?AV?$iterator_impl@QEAVTnamespace@@@1@XZ
?begin@TobjectGroupIdArray@@QEAA?AV?$iterator_impl@I@1@XZ
?begin@TobjectGroupIdArray@@QEBA?AV?$iterator_impl@$$CBI@1@XZ
?begin@TpixelMapPtrArray@@QEAA?AV?$iterator_impl@PEAVTpixelMap@@@1@XZ
?begin@TpixelMapPtrArray@@QEBA?AV?$iterator_impl@QEAVTpixelMap@@@1@XZ
?begin@TpointArray@@QEAA?AV?$iterator_impl@VTpoint@@@1@XZ
?begin@TpointArray@@QEBA?AV?$iterator_impl@$$CBVTpoint@@@1@XZ
?begin@TpoolAllocatorPtrArray@@QEAA?AV?$iterator_impl@PEAVTpoolAllocator@@@1@XZ
?begin@TpoolAllocatorPtrArray@@QEBA?AV?$iterator_impl@QEAVTpoolAllocator@@@1@XZ
?begin@TportColorArray@@QEAA?AV?$iterator_impl@VTportColor@@@1@XZ
?begin@TportColorArray@@QEBA?AV?$iterator_impl@$$CBVTportColor@@@1@XZ
?begin@TquaternionArrayPtrArray@@QEAA?AV?$iterator_impl@PEAVTquaternionArray@@@1@XZ
?begin@TquaternionArrayPtrArray@@QEBA?AV?$iterator_impl@QEAVTquaternionArray@@@1@XZ
?begin@TrectArray@@QEAA?AV?$iterator_impl@VTrect@@@1@XZ
?begin@TrectArray@@QEBA?AV?$iterator_impl@$$CBVTrect@@@1@XZ
?begin@TrotateXYZArray@@QEAA?AV?$iterator_impl@VTrotateXYZ@@@1@XZ
?begin@TrotateXYZArray@@QEBA?AV?$iterator_impl@$$CBVTrotateXYZ@@@1@XZ
?begin@TscaleArray@@QEAA?AV?$iterator_impl@VTscale@@@1@XZ
?begin@TscaleArray@@QEBA?AV?$iterator_impl@$$CBVTscale@@@1@XZ
?begin@TselectedSrfDirectionsArray@@QEAA?AV?$iterator_impl@W4TselectedSrfDirections@@@1@XZ
?begin@TselectedSrfDirectionsArray@@QEBA?AV?$iterator_impl@$$CBW4TselectedSrfDirections@@@1@XZ
?begin@TstringPtrArray@@QEAA?AV?$iterator_impl@PEAVTstring@@@1@XZ
?begin@TstringPtrArray@@QEBA?AV?$iterator_impl@QEAVTstring@@@1@XZ
?begin@TsurfSelectedBoundaryTypeArray@@QEAA?AV?$iterator_impl@W4TsurfSelectedBoundaryType@@@1@XZ
?begin@TsurfSelectedBoundaryTypeArray@@QEBA?AV?$iterator_impl@$$CBW4TsurfSelectedBoundaryType@@@1@XZ
?begin@TsurfaceDirectionArray@@QEAA?AV?$iterator_impl@W4TsurfaceDirection@@@1@XZ
?begin@TsurfaceDirectionArray@@QEBA?AV?$iterator_impl@$$CBW4TsurfaceDirection@@@1@XZ
?begin@TtimeValueArray@@QEAA?AV?$iterator_impl@VTtimeValue@@@1@XZ
?begin@TtimeValueArray@@QEBA?AV?$iterator_impl@$$CBVTtimeValue@@@1@XZ
?begin@TtimeValueArrayPtrArray@@QEAA?AV?$iterator_impl@PEAVTtimeValueArray@@@1@XZ
?begin@TtimeValueArrayPtrArray@@QEBA?AV?$iterator_impl@QEAVTtimeValueArray@@@1@XZ
?begin@TtimeValuePtrArray@@QEAA?AV?$iterator_impl@PEAPEAVTtimeValue@@@1@XZ
?begin@TtimeValuePtrArray@@QEBA?AV?$iterator_impl@QEAPEAVTtimeValue@@@1@XZ
?begin@TtriggerPtrArray@@QEAA?AV?$iterator_impl@PEAVTtrigger@@@1@XZ
?begin@TtriggerPtrArray@@QEBA?AV?$iterator_impl@QEAVTtrigger@@@1@XZ
?begin@TuInt16Array@@QEAA?AV?$iterator_impl@G@1@XZ
?begin@TuInt16Array@@QEBA?AV?$iterator_impl@$$CBG@1@XZ
?begin@TuInt32Array@@QEAA?AV?$iterator_impl@I@1@XZ
?begin@TuInt32Array@@QEBA?AV?$iterator_impl@$$CBI@1@XZ
?begin@TuInt32ArrayPtrArray@@QEAA?AV?$iterator_impl@PEAVTuInt32Array@@@1@XZ
?begin@TuInt32ArrayPtrArray@@QEBA?AV?$iterator_impl@QEAVTuInt32Array@@@1@XZ
?begin@TuInt64Array@@QEAA?AV?$iterator_impl@_K@1@XZ
?begin@TuInt64Array@@QEBA?AV?$iterator_impl@$$CB_K@1@XZ
?begin@TuInt8Array@@QEAA?AV?$iterator_impl@E@1@XZ
?begin@TuInt8Array@@QEBA?AV?$iterator_impl@$$CBE@1@XZ
?begin@TuInt8ArrayPtrArray@@QEAA?AV?$iterator_impl@PEAVTuInt8Array@@@1@XZ
?begin@TuInt8ArrayPtrArray@@QEBA?AV?$iterator_impl@QEAVTuInt8Array@@@1@XZ
?begin@TuvPointArray@@QEAA?AV?$iterator_impl@VTuvPoint@@@1@XZ
?begin@TuvPointArray@@QEBA?AV?$iterator_impl@$$CBVTuvPoint@@@1@XZ
?begin@TvaluesArrayPtrArray@@QEAA?AV?$iterator_impl@PEAVTdoubleArray@@@1@XZ
?begin@TvaluesArrayPtrArray@@QEBA?AV?$iterator_impl@QEAVTdoubleArray@@@1@XZ
?begin@TviewRegionArray@@QEAA?AV?$iterator_impl@VTviewRegion@@@1@XZ
?begin@TviewRegionArray@@QEBA?AV?$iterator_impl@$$CBVTviewRegion@@@1@XZ
?begin@TvoidPtrArray@@QEAA?AV?$iterator_impl@PEAX@1@XZ
?begin@TvoidPtrArray@@QEBA?AV?$iterator_impl@QEAX@1@XZ
?begin@TxformMatrixPtrArray@@QEAA?AV?$iterator_impl@PEAVTxformMatrix@@@1@XZ
?begin@TxformMatrixPtrArray@@QEBA?AV?$iterator_impl@QEAVTxformMatrix@@@1@XZ
?beginComputation@Tcomputation@@UEAAX_N0@Z
?beginComputationAndWrap@Tcomputation@@QEAAXXZ
?beginGet@TiffFile4@@UEAAHAEAVTiffTag@@PEAI@Z
?beginGet@TiffFile8@@UEAAHAEAVTiffTag@@PEAI@Z
?beginIdleRollupT6@beginIdleRollupT4@@SAXG@Z
?beginProgressiveComputation@Tcomputation@@UEAAXW4TprogressStyle@1@_N1@Z
?beginPut@TiffFile4@@UEAAHAEBVTiffTag@@@Z
?beginPut@TiffFile4@@UEAAHAEBVTiffTag@@I@Z
?beginPut@TiffFile8@@UEAAHAEBVTiffTag@@@Z
?beginPut@TiffFile8@@UEAAHAEBVTiffTag@@I@Z
?beginRead@TiffFile4@@UEAAPEBXI@Z
?beginRead@TiffFile8@@UEAAPEBXI@Z
?beginReadGroup@TiffFile4@@UEAAHAEAVTiffTag@@0@Z
?beginReadGroup@TiffFile8@@UEAAHAEAVTiffTag@@0@Z
?beginSection@TdbTrace@@QEAAXPEBDZZ
?beginSection@TdebugOutput@@UEAA?AVTstring@@PEBDZZ
?beginWrite@TiffFile4@@UEAAPEAXI@Z
?beginWrite@TiffFile8@@UEAAPEAXI@Z
?beginWriteBufferedChunk@TiffFile4@@UEAAPEAXAEBVTiffTag@@I@Z
?beginWriteBufferedChunk@TiffFile8@@UEAAPEAXAEBVTiffTag@@I@Z
?beginWriteGroup@TiffFile4@@UEAAHAEBVTiffTag@@0@Z
?beginWriteGroup@TiffFile8@@UEAAHAEBVTiffTag@@0@Z
?bezier@@YA?AVTquaternion@@AEBV1@000N@Z
?bezierPt@@YA?AVTquaternion@@AEBV1@00_N@Z
?bgraSwitch@TpixelMap@@QEAAXXZ
?binomialTable@T2dFfd@@SAPEAPEAHXZ
?binomialTableWidth@T2dFfd@@SAIXZ
?bitCount@TbitFieldFixedN@@QEBAIXZ
?bitField@TbitMatrix@@QEBAAEBVTbitFieldFixedN@@XZ
?bitmask@TbitField128@@SA?AV1@I@Z
?bitsSet@TbitFieldFixedN@@QEBAIXZ
?blockLimit@TcompactPage@TcompactArena@@QEBAPEAVTcompact@2@XZ
?blockSize@TcompactArena@@QEBA_KXZ
?blockSize@TcompactPage@TcompactArena@@QEBA_KXZ
?blockSize@TfixedArena@@QEBA_KXZ
?booleanValue@Tdata@@QEBA_NXZ
?borderEdgeIndex@TpolyMapShell@@QEAAAEAVTuInt32Array@@XZ
?bottom@TdblRect@@QEAAAEANXZ
?bottom@TdblRect@@QEBAAEBNXZ
?bottom@TportRect@@QEAAAEAFXZ
?bottom@TportRect@@QEBAAEBFXZ
?bottom@Trect@@QEAAAEAFXZ
?bottom@Trect@@QEBAAEBFXZ
?bottomRight@Trect@@QEAA?AVTpoint@@XZ
?bound@TrotateXYZ@@QEAAAEAV1@AEBV1@@Z
?bound@TrotateXYZ@@QEAAAEAV1@XZ
?boundIndexX@TvoxelGrid@@QEBAXAEAH@Z
?boundIndexY@TvoxelGrid@@QEBAXAEAH@Z
?boundIndexZ@TvoxelGrid@@QEBAXAEAH@Z
?boundIndices@TvoxelGrid@@QEBAXAEAH00000@Z
?boundIndices@TvoxelGrid@@QEBAXAEAH000@Z
?boundIndices@TvoxelGrid@@QEBAXAEAH00@Z
?boundIndices@TvoxelGrid@@QEBAXAEAH0@Z
?boundedIndex@TvoxelGrid@@QEBAIHH@Z
?boundedIndex@TvoxelGrid@@QEBAIHHH@Z
?boundedIndex@TvoxelGrid@@SAIHHHIII@Z
?boundedIndex@TvoxelGrid@@SAIHHII@Z
?bounds@TspatialGrid@@IEAAAEBVTfltBoundingBox@@XZ
?bounds@TspatialGrid@@IEAAXAEAVT3dFltPoint@@0@Z
?boundsX@TvoxelGrid@@QEBA?AW4TgridBounds@1@XZ
?boundsY@TvoxelGrid@@QEBA?AW4TgridBounds@1@XZ
?boundsZ@TvoxelGrid@@QEBA?AW4TgridBounds@1@XZ
?broadcast@TmtConditionVar@@QEAA_NXZ
?buffer@Tarray@@QEAAXI@Z
?buffer@TbdDataPtrArray@@QEAAXI@Z
?buffer@TcomponentWeights@@QEAAXI@Z
?buffer@TobjArray@@QEAAXI@Z
?buffer@TpolyTangentSet@@AEAAXI@Z
?buildBinomialTable@T2dFfd@@SAXI@Z
?buildHashTable@TbdDataPtrArray@@IEAAXXZ
?buildNamespacePath@TnamespaceManager@@QEAA?AVTstring@@PEAVTnameObject@@PEAVTnamespace@@@Z
?buildTable@Tmetaclass@@AEAAXXZ
?buildUniqueName@TnamespaceManager@@QEBA?AVTnameString@@AEBVTstring@@@Z
?buildUniqueName@TnamespaceManager@@QEBA?AVTnameString@@AEBVTstring@@PEBVTnamespace@@@Z
?buildUserShelfDirectory@TuserShelfDirectory@@QEAAXPEAVTfileErrorReporter@@@Z
?buildingEdits@TglobalTranslatorBase@@SA_NXZ
?byteValue@Tdata@@QEBAEXZ
?bytesNeeded@TbitFieldFixedN@@SAII@Z
?cFormat@Tstring@@QEAAHPEBDZZ
?cFormatString@Tstring@@SA?AV1@PEBDZZ
?cache@TboundaryValueException@@UEBAPEAVTexception@@XZ
?cache@TfailedException@@UEBAPEAVTexception@@XZ
?cache@TfileException@@UEBAPEAVTexception@@XZ
?cache@ThandledException@@UEBAPEAVTexception@@XZ
?cache@TincompatibleData@@UEBAPEAVTexception@@XZ
?cache@TmemoryException@@UEBAPEAVTexception@@XZ
?cache@TresourceException@@UEBAPEAVTexception@@XZ
?cache@TunimplementedException@@UEBAPEAVTexception@@XZ
?calcDistToPointSq@TpointOctreeWalker@@UEBANAEBVToctreePoint@@AEBVT3dFltPoint@@_N22@Z
?calcDistToPointSq@TtriangleOctreeSphereWalker@@UEBANAEBIAEBVT3dFltPoint@@_N22@Z
?calcLineIntersection@TtriangleOctreeRayWalker@@UEBA_NAEBIAEBVT3dDblPoint@@AEBVT4dDblVector@@NNAEANAEAVToctreeTriangleIntersection@@@Z
?calcSum@TfloatVoxelGrid@@QEAAXXZ
?calcSum_TBB@TfloatVoxelGrid@@QEAAXXZ
?calculateTreeDepth@TtriangleOctree@@SAIII@Z
?calendarUptime@TCERMetricsRecorder@@QEBA_KXZ
?callback@TnestedTimers@@0PAP6AXPEAD@ZA
?callbacksExist@ThwrCallback@@SA_NXZ
?canBeHidden@Tcomponent@@QEBA_NXZ
?canFreeMemory@TbaseArena@@QEBA_NXZ
?canonicalizeDirectoryPaths@TfilePath@@SA?AVTstring@@AEBV2@@Z
?canonicalizeURI@TfileURI@@SA?AVTstring@@AEBV2@@Z
?capitalize@Tstring@@QEAAAEAV1@XZ
?cartesian@T4dDblPoint@@QEBA?AV1@XZ
?cartesian@T4dFltPoint@@QEBA?AV1@XZ
?cartesianAdd@T4dDblPoint@@AEBA?AV1@AEBVT4dDblVector@@@Z
?cartesianSub@T4dDblPoint@@AEBA?AV1@AEBVT4dDblVector@@@Z
?cartesianSub@T4dDblPoint@@AEBA?AVT4dDblVector@@AEBV1@@Z
?cartesianSub@T4dDblPoint@@AEBA?AVT4dDblVector@@AEBVT3dDblPoint@@@Z
?cartesianizeIt@T4dDblPoint@@QEAAAEAV1@XZ
?cartesianizeIt@T4dFltPoint@@QEAAAEAV1@XZ
?caseCompare@Tstring@@QEBAHAEBV1@@Z
?caseCompare@Tstring@@QEBAHPEBD@Z
?caseCompare@TuniqueString@@QEBAHAEBVTstring@@@Z
?cast@TCIPClient@@UEAAPEAXPEAVTmetaclass@@@Z
?cast@TappDirectory@@UEAAPEAXPEAVTmetaclass@@@Z
?cast@TargList@@UEAAPEAXPEAVTmetaclass@@@Z
?cast@TboundaryValueException@@UEAAPEAXPEAVTmetaclass@@@Z
?cast@Tclient@@UEAAPEAXPEAVTmetaclass@@@Z
?cast@TclientCondition@@UEAAPEAXPEAVTmetaclass@@@Z
?cast@TclientServer@@UEAAPEAXPEAVTmetaclass@@@Z
?cast@Tcomponent@@UEAAPEAXPEAVTmetaclass@@@Z
?cast@Tcondition@@UEAAPEAXPEAVTmetaclass@@@Z
?cast@TconditionChangedMsg@@UEAAPEAXPEAVTmetaclass@@@Z
?cast@TconditionOffMsg@@UEAAPEAXPEAVTmetaclass@@@Z
?cast@TconditionOnMsg@@UEAAPEAXPEAVTmetaclass@@@Z
?cast@Tdata2Double@@UEAAPEAXPEAVTmetaclass@@@Z
?cast@Tdata2Float@@UEAAPEAXPEAVTmetaclass@@@Z
?cast@Tdata2Int16@@UEAAPEAXPEAVTmetaclass@@@Z
?cast@Tdata2Int32@@UEAAPEAXPEAVTmetaclass@@@Z
?cast@Tdata3Double@@UEAAPEAXPEAVTmetaclass@@@Z
?cast@Tdata3Float@@UEAAPEAXPEAVTmetaclass@@@Z
?cast@Tdata3Int16@@UEAAPEAXPEAVTmetaclass@@@Z
?cast@Tdata3Int32@@UEAAPEAXPEAVTmetaclass@@@Z
?cast@Tdata4Double@@UEAAPEAXPEAVTmetaclass@@@Z
?cast@Tdata@@QEBAPEAXPEAVTmetaclass@@@Z
?cast@TdataArrayAttrs@@UEAAPEAXPEAVTmetaclass@@@Z
?cast@TdataBinary@@UEAAPEAXPEAVTmetaclass@@@Z
?cast@TdataCompound@@UEAAPEAXPEAVTmetaclass@@@Z
?cast@TdataDoubleArray@@UEAAPEAXPEAVTmetaclass@@@Z
?cast@TdataFloatArray@@UEAAPEAXPEAVTmetaclass@@@Z
?cast@TdataFunction@@UEAAPEAXPEAVTmetaclass@@@Z
?cast@TdataInt32Array@@UEAAPEAXPEAVTmetaclass@@@Z
?cast@TdataLetter@@UEAAPEAXPEAVTmetaclass@@@Z
?cast@TdataMatrix@@UEAAPEAXPEAVTmetaclass@@@Z
?cast@TdataReflectance@@UEAAPEAXPEAVTmetaclass@@@Z
?cast@TdataSpectrum@@UEAAPEAXPEAVTmetaclass@@@Z
?cast@TdataUInt64Array@@UEAAPEAXPEAVTmetaclass@@@Z
?cast@TdataUnknown@@UEAAPEAXPEAVTmetaclass@@@Z
?cast@TdataVoidPtr@@UEAAPEAXPEAVTmetaclass@@@Z
?cast@TdbRequireCount@@UEAAPEAXPEAVTmetaclass@@@Z
?cast@TdbRequireOutput@@UEAAPEAXPEAVTmetaclass@@@Z
?cast@TdbRequirement@@UEAAPEAXPEAVTmetaclass@@@Z
?cast@TdbTrace@@UEAAPEAXPEAVTmetaclass@@@Z
?cast@TdebugOutput@@UEAAPEAXPEAVTmetaclass@@@Z
?cast@TdebugOutputFile@@UEAAPEAXPEAVTmetaclass@@@Z
?cast@TdebugOutputString@@UEAAPEAXPEAVTmetaclass@@@Z
?cast@TdebugOutputTrace@@UEAAPEAXPEAVTmetaclass@@@Z
?cast@TdelayedClientServer@@UEAAPEAXPEAVTmetaclass@@@Z
?cast@Tdictionary@@UEAAPEAXPEAVTmetaclass@@@Z
?cast@TdictionaryNode@@UEAAPEAXPEAVTmetaclass@@@Z
?cast@Tdirectory@@UEAAPEAXPEAVTmetaclass@@@Z
?cast@TdoubleIndexedComponent@@UEAAPEAXPEAVTmetaclass@@@Z
?cast@Texception@@UEAAPEAXPEAVTmetaclass@@@Z
?cast@TfailedException@@UEAAPEAXPEAVTmetaclass@@@Z
?cast@Tfile@@UEAAPEAXPEAVTmetaclass@@@Z
?cast@TfileException@@UEAAPEAXPEAVTmetaclass@@@Z
?cast@TfileStream@@UEAAPEAXPEAVTmetaclass@@@Z
?cast@TfileSystemEntity@@UEAAPEAXPEAVTmetaclass@@@Z
?cast@Tfunction@@UEAAPEAXPEAVTmetaclass@@@Z
?cast@ThandledException@@UEAAPEAXPEAVTmetaclass@@@Z
?cast@TincompatibleData@@UEAAPEAXPEAVTmetaclass@@@Z
?cast@TindexDictionary@@UEAAPEAXPEAVTmetaclass@@@Z
?cast@TindexDictionaryNode@@UEAAPEAXPEAVTmetaclass@@@Z
?cast@TlicenseModifiedMsg@@UEAAPEAXPEAVTmetaclass@@@Z
?cast@TlongDoubleIndexedComponent@@UEAAPEAXPEAVTmetaclass@@@Z
?cast@TmaxViewRegionModifiedMsg@@UEAAPEAXPEAVTmetaclass@@@Z
?cast@TmemoryException@@UEAAPEAXPEAVTmetaclass@@@Z
?cast@TmessageCenter@@UEAAPEAXPEAVTmetaclass@@@Z
?cast@TnameObject@@UEAAPEAXPEAVTmetaclass@@@Z
?cast@Tnamespace@@UEAAPEAXPEAVTmetaclass@@@Z
?cast@TnamespaceRenamedMsg@@UEAAPEAXPEAVTmetaclass@@@Z
?cast@ToptionVar@@UEAAPEAXPEAVTmetaclass@@@Z
?cast@ToptionVarChangedMsg@@UEAAPEAXPEAVTmetaclass@@@Z
?cast@TprefOptionVars@@UEAAPEAXPEAVTmetaclass@@@Z
?cast@TpreferenceItem@@UEAAPEAXPEAVTmetaclass@@@Z
?cast@TpreferencesDirectory@@UEAAPEAXPEAVTmetaclass@@@Z
?cast@TpresetsDirectory@@UEAAPEAXPEAVTmetaclass@@@Z
?cast@TprofilerBufferSizeChangedMsg@@UEAAPEAXPEAVTmetaclass@@@Z
?cast@TprofilerCategoryAddedMsg@@UEAAPEAXPEAVTmetaclass@@@Z
?cast@TprofilerCategoryRemovedMsg@@UEAAPEAXPEAVTmetaclass@@@Z
?cast@TprofilerCategoryUpdatedMsg@@UEAAPEAXPEAVTmetaclass@@@Z
?cast@TprofilerRecordingStartedMsg@@UEAAPEAXPEAVTmetaclass@@@Z
?cast@TprofilerRecordingStoppedMsg@@UEAAPEAXPEAVTmetaclass@@@Z
?cast@TprofilerResetDataMsg@@UEAAPEAXPEAVTmetaclass@@@Z
?cast@TprojectsDirectory@@UEAAPEAXPEAVTmetaclass@@@Z
?cast@TresourceException@@UEAAPEAXPEAVTmetaclass@@@Z
?cast@TserverCheckMsg@@UEAAPEAXPEAVTmetaclass@@@Z
?cast@TserverDeletedMsg@@UEAAPEAXPEAVTmetaclass@@@Z
?cast@TserverModifiedMsg@@UEAAPEAXPEAVTmetaclass@@@Z
?cast@TserverMsg@@UEAAPEAXPEAVTmetaclass@@@Z
?cast@TsingleIndexedComponent@@UEAAPEAXPEAVTmetaclass@@@Z
?cast@TtemporaryDirectory@@UEAAPEAXPEAVTmetaclass@@@Z
?cast@TtoolClipsControlDirectory@@UEAAPEAXPEAVTmetaclass@@@Z
?cast@TtoolClipsDirectory@@UEAAPEAXPEAVTmetaclass@@@Z
?cast@TtoolClipsResourcesDirectory@@UEAAPEAXPEAVTmetaclass@@@Z
?cast@Ttrigger@@UEAAPEAXPEAVTmetaclass@@@Z
?cast@TtriggerMsg@@UEAAPEAXPEAVTmetaclass@@@Z
?cast@TtypeDictionary@@UEAAPEAXPEAVTmetaclass@@@Z
?cast@TtypeDictionaryNode@@UEAAPEAXPEAVTmetaclass@@@Z
?cast@TuInt64IndexedComponent@@UEAAPEAXPEAVTmetaclass@@@Z
?cast@TunimplementedException@@UEAAPEAXPEAVTmetaclass@@@Z
?cast@TuserBitmapsDirectory@@UEAAPEAXPEAVTmetaclass@@@Z
?cast@TuserHotkeyDirectory@@UEAAPEAXPEAVTmetaclass@@@Z
?cast@TuserMarkingMenuDirectory@@UEAAPEAXPEAVTmetaclass@@@Z
?cast@TuserScriptDirectory@@UEAAPEAXPEAVTmetaclass@@@Z
?cast@TuserShelfDirectory@@UEAAPEAXPEAVTmetaclass@@@Z
?cast@TviewRegionModifiedMsg@@UEAAPEAXPEAVTmetaclass@@@Z
?categoryCount@Tprofiler@@QEAAHXZ
?categoryName@Tprofiler@@QEAAPEBDH@Z
?categoryRemoved@Tprofiler@@QEAA_NH@Z
?categorySampling@Tprofiler@@QEAA_NH@Z
?catenate@T2FloatArray@@QEAAHAEBV1@@Z
?catenate@T2FloatArray@@QEAAHAEBV1@I@Z
?catenate@T2FloatArray@@QEAAHAEBV1@II@Z
?catenate@T3DoubleArray@@QEAAHAEBV1@@Z
?catenate@T3DoubleArray@@QEAAHAEBV1@I@Z
?catenate@T3DoubleArray@@QEAAHAEBV1@II@Z
?catenate@T3FloatArray@@QEAAHAEBV1@@Z
?catenate@T3FloatArray@@QEAAHAEBV1@I@Z
?catenate@T3FloatArray@@QEAAHAEBV1@II@Z
?catenate@T3dDblPointArray@@QEAAHAEBV1@@Z
?catenate@T3dDblPointArray@@QEAAHAEBV1@I@Z
?catenate@T3dDblPointArray@@QEAAHAEBV1@II@Z
?catenate@T3dDblPointArrayPtrArray@@QEAAHAEBV1@@Z
?catenate@T3dDblPointArrayPtrArray@@QEAAHAEBV1@I@Z
?catenate@T3dDblPointArrayPtrArray@@QEAAHAEBV1@II@Z
?catenate@T3dFltPointArray@@QEAAHAEBV1@@Z
?catenate@T3dFltPointArray@@QEAAHAEBV1@I@Z
?catenate@T3dFltPointArray@@QEAAHAEBV1@II@Z
?catenate@T3dFltVectorArray@@QEAAHAEBV1@@Z
?catenate@T3dFltVectorArray@@QEAAHAEBV1@I@Z
?catenate@T3dFltVectorArray@@QEAAHAEBV1@II@Z
?catenate@T4dDblMatrixArray@@QEAAHAEBV1@@Z
?catenate@T4dDblMatrixArray@@QEAAHAEBV1@I@Z
?catenate@T4dDblMatrixArray@@QEAAHAEBV1@II@Z
?catenate@T4dDblPointArray@@QEAAHAEBV1@@Z
?catenate@T4dDblPointArray@@QEAAHAEBV1@I@Z
?catenate@T4dDblPointArray@@QEAAHAEBV1@II@Z
?catenate@T4dDblPointArrayPtrArray@@QEAAHAEBV1@@Z
?catenate@T4dDblPointArrayPtrArray@@QEAAHAEBV1@I@Z
?catenate@T4dDblPointArrayPtrArray@@QEAAHAEBV1@II@Z
?catenate@T4dDblVectorArray@@QEAAHAEBV1@@Z
?catenate@T4dDblVectorArray@@QEAAHAEBV1@I@Z
?catenate@T4dDblVectorArray@@QEAAHAEBV1@II@Z
?catenate@T4dDblVectorArrayPtrArray@@QEAAHAEBV1@@Z
?catenate@T4dDblVectorArrayPtrArray@@QEAAHAEBV1@I@Z
?catenate@T4dDblVectorArrayPtrArray@@QEAAHAEBV1@II@Z
?catenate@T4dFltMatrixArray@@QEAAHAEBV1@@Z
?catenate@T4dFltMatrixArray@@QEAAHAEBV1@I@Z
?catenate@T4dFltMatrixArray@@QEAAHAEBV1@II@Z
?catenate@T4dFltPointArray@@QEAAHAEBV1@@Z
?catenate@T4dFltPointArray@@QEAAHAEBV1@I@Z
?catenate@T4dFltPointArray@@QEAAHAEBV1@II@Z
?catenate@TDarray@@QEAAXAEBV1@@Z
?catenate@TTuInt32Array@@QEAAHAEBV1@@Z
?catenate@TTuInt32Array@@QEAAHAEBV1@I@Z
?catenate@TTuInt32Array@@QEAAHAEBV1@II@Z
?catenate@TanimTimeArray@@QEAAXAEBV1@@Z
?catenate@TargListPtrArray@@QEAAHAEBV1@@Z
?catenate@TargListPtrArray@@QEAAHAEBV1@I@Z
?catenate@TargListPtrArray@@QEAAHAEBV1@II@Z
?catenate@TargTypeArray@@QEAAHAEBV1@@Z
?catenate@TargTypeArray@@QEAAHAEBV1@I@Z
?catenate@TargTypeArray@@QEAAHAEBV1@II@Z
?catenate@TbdDataPtrArrayContainer@@QEAAHAEBV1@@Z
?catenate@TbdDataPtrArrayContainer@@QEAAHAEBV1@I@Z
?catenate@TbdDataPtrArrayContainer@@QEAAHAEBV1@II@Z
?catenate@TbooleanArray@@QEAAHAEBV1@@Z
?catenate@TbooleanArray@@QEAAHAEBV1@I@Z
?catenate@TbooleanArray@@QEAAHAEBV1@II@Z
?catenate@TbooleanArrayPtrArray@@QEAAHAEBV1@@Z
?catenate@TbooleanArrayPtrArray@@QEAAHAEBV1@I@Z
?catenate@TbooleanArrayPtrArray@@QEAAHAEBV1@II@Z
?catenate@TcharArray@@QEAAHAEBV1@@Z
?catenate@TcharArray@@QEAAHAEBV1@I@Z
?catenate@TcharArray@@QEAAHAEBV1@II@Z
?catenate@TcharPtrArray@@QEAAHAEBV1@@Z
?catenate@TcharPtrArray@@QEAAHAEBV1@I@Z
?catenate@TcharPtrArray@@QEAAHAEBV1@II@Z
?catenate@TcomponentPtrArray@@QEAAXAEBV1@@Z
?catenate@TdblPointArray@@QEAAHAEBV1@@Z
?catenate@TdblPointArray@@QEAAHAEBV1@I@Z
?catenate@TdblPointArray@@QEAAHAEBV1@II@Z
?catenate@TdelayedMsgTypeArray@@QEAAXAEBV1@@Z
?catenate@TdoubleArray@@QEAAHAEBV1@@Z
?catenate@TdoubleArray@@QEAAHAEBV1@I@Z
?catenate@TdoubleArray@@QEAAHAEBV1@II@Z
?catenate@TdoubleArrayPtrArray@@QEAAHAEBV1@@Z
?catenate@TdoubleArrayPtrArray@@QEAAHAEBV1@I@Z
?catenate@TdoubleArrayPtrArray@@QEAAHAEBV1@II@Z
?catenate@TdoubleIndexLongArray@@QEAAXAEBV1@@Z
?catenate@TdoublePtrArray@@QEAAHAEBV1@@Z
?catenate@TdoublePtrArray@@QEAAHAEBV1@I@Z
?catenate@TdoublePtrArray@@QEAAHAEBV1@II@Z
?catenate@TdoubleRangeArray@@QEAAXAEBV1@@Z
?catenate@TdualQuaternionArray@@QEAAHAEBV1@@Z
?catenate@TdualQuaternionArray@@QEAAHAEBV1@I@Z
?catenate@TdualQuaternionArray@@QEAAHAEBV1@II@Z
?catenate@TfilePathArray@@QEAAXAEBV1@@Z
?catenate@TfloatArray@@QEAAHAEBV1@@Z
?catenate@TfloatArray@@QEAAHAEBV1@I@Z
?catenate@TfloatArray@@QEAAHAEBV1@II@Z
?catenate@TfloatArrayPtrArray@@QEAAHAEBV1@@Z
?catenate@TfloatArrayPtrArray@@QEAAHAEBV1@I@Z
?catenate@TfloatArrayPtrArray@@QEAAHAEBV1@II@Z
?catenate@TfloatArrayPtrArrayPtrArray@@QEAAHAEBV1@@Z
?catenate@TfloatArrayPtrArrayPtrArray@@QEAAHAEBV1@I@Z
?catenate@TfloatArrayPtrArrayPtrArray@@QEAAHAEBV1@II@Z
?catenate@TfloatConstPtrArray@@QEAAHAEBV1@@Z
?catenate@TfloatConstPtrArray@@QEAAHAEBV1@I@Z
?catenate@TfloatConstPtrArray@@QEAAHAEBV1@II@Z
?catenate@TfloatPtrArray@@QEAAHAEBV1@@Z
?catenate@TfloatPtrArray@@QEAAHAEBV1@I@Z
?catenate@TfloatPtrArray@@QEAAHAEBV1@II@Z
?catenate@TfloatRangeArray@@QEAAXAEBV1@@Z
?catenate@TfltLineArray@@QEAAHAEBV1@@Z
?catenate@TfltLineArray@@QEAAHAEBV1@I@Z
?catenate@TfltLineArray@@QEAAHAEBV1@II@Z
?catenate@TfltPointArray@@QEAAHAEBV1@@Z
?catenate@TfltPointArray@@QEAAHAEBV1@I@Z
?catenate@TfltPointArray@@QEAAHAEBV1@II@Z
?catenate@TiffTagArray@@QEAAHAEBV1@@Z
?catenate@TiffTagArray@@QEAAHAEBV1@I@Z
?catenate@TiffTagArray@@QEAAHAEBV1@II@Z
?catenate@TindexArray@@QEAAHAEBV1@@Z
?catenate@TindexArray@@QEAAHAEBV1@I@Z
?catenate@TindexArray@@QEAAHAEBV1@II@Z
?catenate@TindexRangeArray@@QEAAXAEBV1@@Z
?catenate@Tint16Array@@QEAAHAEBV1@@Z
?catenate@Tint16Array@@QEAAHAEBV1@I@Z
?catenate@Tint16Array@@QEAAHAEBV1@II@Z
?catenate@Tint32Array@@QEAAHAEBV1@@Z
?catenate@Tint32Array@@QEAAHAEBV1@I@Z
?catenate@Tint32Array@@QEAAHAEBV1@II@Z
?catenate@Tint32ArrayPtrArray@@QEAAHAEBV1@@Z
?catenate@Tint32ArrayPtrArray@@QEAAHAEBV1@I@Z
?catenate@Tint32ArrayPtrArray@@QEAAHAEBV1@II@Z
?catenate@Tint64Array@@QEAAHAEBV1@@Z
?catenate@Tint64Array@@QEAAHAEBV1@I@Z
?catenate@Tint64Array@@QEAAHAEBV1@II@Z
?catenate@TlineArray@@QEAAHAEBV1@@Z
?catenate@TlineArray@@QEAAHAEBV1@I@Z
?catenate@TlineArray@@QEAAHAEBV1@II@Z
?catenate@TmtThreadPtrArray@@QEAAHAEBV1@@Z
?catenate@TmtThreadPtrArray@@QEAAHAEBV1@I@Z
?catenate@TmtThreadPtrArray@@QEAAHAEBV1@II@Z
?catenate@TnameObjectPtrArray@@QEAAHAEBV1@@Z
?catenate@TnameObjectPtrArray@@QEAAHAEBV1@I@Z
?catenate@TnameObjectPtrArray@@QEAAHAEBV1@II@Z
?catenate@TnamespacePtrArray@@QEAAHAEBV1@@Z
?catenate@TnamespacePtrArray@@QEAAHAEBV1@I@Z
?catenate@TnamespacePtrArray@@QEAAHAEBV1@II@Z
?catenate@TobjArrayTbasketPtr@@QEAAXAEBV1@@Z
?catenate@TobjectGroupIdArray@@QEAAHAEBV1@@Z
?catenate@TobjectGroupIdArray@@QEAAHAEBV1@I@Z
?catenate@TobjectGroupIdArray@@QEAAHAEBV1@II@Z
?catenate@TobjectGroupPtrArray@@QEAAXAEBV1@@Z
?catenate@TpixelMapPtrArray@@QEAAHAEBV1@@Z
?catenate@TpixelMapPtrArray@@QEAAHAEBV1@I@Z
?catenate@TpixelMapPtrArray@@QEAAHAEBV1@II@Z
?catenate@TpointArray@@QEAAHAEBV1@@Z
?catenate@TpointArray@@QEAAHAEBV1@I@Z
?catenate@TpointArray@@QEAAHAEBV1@II@Z
?catenate@TpolyMapArray@@QEAAXAEBV1@@Z
?catenate@TpolyTangentSetArray@@QEAAXAEBV1@@Z
?catenate@TpoolAllocatorPtrArray@@QEAAHAEBV1@@Z
?catenate@TpoolAllocatorPtrArray@@QEAAHAEBV1@I@Z
?catenate@TpoolAllocatorPtrArray@@QEAAHAEBV1@II@Z
?catenate@TportColorArray@@QEAAHAEBV1@@Z
?catenate@TportColorArray@@QEAAHAEBV1@I@Z
?catenate@TportColorArray@@QEAAHAEBV1@II@Z
?catenate@TpreferenceItemPtrArray@@QEAAXAEBV1@@Z
?catenate@TquaternionArray@@QEAAXAEBV1@@Z
?catenate@TquaternionArrayPtrArray@@QEAAHAEBV1@@Z
?catenate@TquaternionArrayPtrArray@@QEAAHAEBV1@I@Z
?catenate@TquaternionArrayPtrArray@@QEAAHAEBV1@II@Z
?catenate@TrectArray@@QEAAHAEBV1@@Z
?catenate@TrectArray@@QEAAHAEBV1@I@Z
?catenate@TrectArray@@QEAAHAEBV1@II@Z
?catenate@TrotateXYZArray@@QEAAHAEBV1@@Z
?catenate@TrotateXYZArray@@QEAAHAEBV1@I@Z
?catenate@TrotateXYZArray@@QEAAHAEBV1@II@Z
?catenate@TscaleArray@@QEAAHAEBV1@@Z
?catenate@TscaleArray@@QEAAHAEBV1@I@Z
?catenate@TscaleArray@@QEAAHAEBV1@II@Z
?catenate@TselectedSrfDirectionsArray@@QEAAHAEBV1@@Z
?catenate@TselectedSrfDirectionsArray@@QEAAHAEBV1@I@Z
?catenate@TselectedSrfDirectionsArray@@QEAAHAEBV1@II@Z
?catenate@TsharedPixelMapArray@@QEAAXAEBV1@@Z
?catenate@Tstring@@QEAAHAEBV1@@Z
?catenate@Tstring@@QEAAHAEBVTstringId@@@Z
?catenate@Tstring@@QEAAHPEBDI@Z
?catenate@Tstring@@QEAAXPEBD@Z
?catenate@TstringArray@@QEAAXAEBV1@@Z
?catenate@TstringPtrArray@@QEAAHAEBV1@@Z
?catenate@TstringPtrArray@@QEAAHAEBV1@I@Z
?catenate@TstringPtrArray@@QEAAHAEBV1@II@Z
?catenate@TsurfSelectedBoundaryTypeArray@@QEAAHAEBV1@@Z
?catenate@TsurfSelectedBoundaryTypeArray@@QEAAHAEBV1@I@Z
?catenate@TsurfSelectedBoundaryTypeArray@@QEAAHAEBV1@II@Z
?catenate@TsurfaceDirectionArray@@QEAAHAEBV1@@Z
?catenate@TsurfaceDirectionArray@@QEAAHAEBV1@I@Z
?catenate@TsurfaceDirectionArray@@QEAAHAEBV1@II@Z
?catenate@TsurfaceIndexArray@@QEAAXAEBV1@@Z
?catenate@TtimeRangeArray@@QEAAXAEBV1@@Z
?catenate@TtimeValueArray@@QEAAHAEBV1@@Z
?catenate@TtimeValueArray@@QEAAHAEBV1@I@Z
?catenate@TtimeValueArray@@QEAAHAEBV1@II@Z
?catenate@TtimeValueArrayPtrArray@@QEAAHAEBV1@@Z
?catenate@TtimeValueArrayPtrArray@@QEAAHAEBV1@I@Z
?catenate@TtimeValueArrayPtrArray@@QEAAHAEBV1@II@Z
?catenate@TtimeValuePtrArray@@QEAAHAEBV1@@Z
?catenate@TtimeValuePtrArray@@QEAAHAEBV1@I@Z
?catenate@TtimeValuePtrArray@@QEAAHAEBV1@II@Z
?catenate@TtriggerPtrArray@@QEAAHAEBV1@@Z
?catenate@TtriggerPtrArray@@QEAAHAEBV1@I@Z
?catenate@TtriggerPtrArray@@QEAAHAEBV1@II@Z
?catenate@TtypeidArray@@QEAAXAEBV1@@Z
?catenate@TuInt16Array@@QEAAHAEBV1@@Z
?catenate@TuInt16Array@@QEAAHAEBV1@I@Z
?catenate@TuInt16Array@@QEAAHAEBV1@II@Z
?catenate@TuInt32Array@@QEAAHAEBV1@@Z
?catenate@TuInt32Array@@QEAAHAEBV1@I@Z
?catenate@TuInt32Array@@QEAAHAEBV1@II@Z
?catenate@TuInt32ArrayPtrArray@@QEAAHAEBV1@@Z
?catenate@TuInt32ArrayPtrArray@@QEAAHAEBV1@I@Z
?catenate@TuInt32ArrayPtrArray@@QEAAHAEBV1@II@Z
?catenate@TuInt64Array@@QEAAHAEBV1@@Z
?catenate@TuInt64Array@@QEAAHAEBV1@I@Z
?catenate@TuInt64Array@@QEAAHAEBV1@II@Z
?catenate@TuInt8Array@@QEAAHAEBV1@@Z
?catenate@TuInt8Array@@QEAAHAEBV1@I@Z
?catenate@TuInt8Array@@QEAAHAEBV1@II@Z
?catenate@TuInt8ArrayPtrArray@@QEAAHAEBV1@@Z
?catenate@TuInt8ArrayPtrArray@@QEAAHAEBV1@I@Z
?catenate@TuInt8ArrayPtrArray@@QEAAHAEBV1@II@Z
?catenate@TuvPointArray@@QEAAHAEBV1@@Z
?catenate@TuvPointArray@@QEAAHAEBV1@I@Z
?catenate@TuvPointArray@@QEAAHAEBV1@II@Z
?catenate@TvaluesArrayPtrArray@@QEAAHAEBV1@@Z
?catenate@TvaluesArrayPtrArray@@QEAAHAEBV1@I@Z
?catenate@TvaluesArrayPtrArray@@QEAAHAEBV1@II@Z
?catenate@TviewRegionArray@@QEAAHAEBV1@@Z
?catenate@TviewRegionArray@@QEAAHAEBV1@I@Z
?catenate@TviewRegionArray@@QEAAHAEBV1@II@Z
?catenate@TvoidPtrArray@@QEAAHAEBV1@@Z
?catenate@TvoidPtrArray@@QEAAHAEBV1@I@Z
?catenate@TvoidPtrArray@@QEAAHAEBV1@II@Z
?catenate@TxformMatrixArray@@QEAAXAEBV1@@Z
?catenate@TxformMatrixPtrArray@@QEAAHAEBV1@@Z
?catenate@TxformMatrixPtrArray@@QEAAHAEBV1@I@Z
?catenate@TxformMatrixPtrArray@@QEAAHAEBV1@II@Z
?catenateChar@Tstring@@QEAAHPEBD@Z
?catenateChar@Tstring@@QEAAHPEBDI@Z
?catenateDouble@Tstring@@QEAAHN@Z
?catenateEscapeSequences@Tstring@@QEAAXPEBD_N@Z
?catenateInt32@Tstring@@QEAAHH@Z
?catmullRom@TpixelMap@@CANNNNNN@Z
?catmullRomPixel32@TpixelMap@@AEBAXNNPEATTpixel32@@PEAN@Z
?cbegin@?$_Tree@V?$_Tmap_traits@V?$basic_string@DU?$char_traits@D@std@@V?$allocator@D@2@@std@@PEAVTresourceElement@@U?$less@V?$basic_string@DU?$char_traits@D@std@@V?$allocator@D@2@@std@@@2@V?$allocator@U?$pair@$$CBV?$basic_string@DU?$char_traits@D@std@@V?$allocator@D@2@@std@@PEAVTresourceElement@@@std@@@2@$0A@@std@@@std@@QEBA?AV?$_Tree_const_iterator@V?$_Tree_val@U?$_Tree_simple_types@U?$pair@$$CBV?$basic_string@DU?$char_traits@D@std@@V?$allocator@D@2@@std@@PEAVTresourceElement@@@std@@@std@@@std@@@2@XZ
?cbegin@?$_Tree@V?$_Tmap_traits@V?$basic_string@DU?$char_traits@D@std@@V?$allocator@D@2@@std@@PEAVTresourceGroup@@U?$less@V?$basic_string@DU?$char_traits@D@std@@V?$allocator@D@2@@std@@@2@V?$allocator@U?$pair@$$CBV?$basic_string@DU?$char_traits@D@std@@V?$allocator@D@2@@std@@PEAVTresourceGroup@@@std@@@2@$0A@@std@@@std@@QEBA?AV?$_Tree_const_iterator@V?$_Tree_val@U?$_Tree_simple_types@U?$pair@$$CBV?$basic_string@DU?$char_traits@D@std@@V?$allocator@D@2@@std@@PEAVTresourceGroup@@@std@@@std@@@std@@@2@XZ
?cbegin@T2FloatArray@@QEBA?AV?$iterator_impl@$$CBVT2Float@@@1@XZ
?cbegin@T3DoubleArray@@QEBA?AV?$iterator_impl@$$CBVT3Double@@@1@XZ
?cbegin@T3FloatArray@@QEBA?AV?$iterator_impl@$$CBVT3Float@@@1@XZ
?cbegin@T3dDblPointArray@@QEBA?AV?$iterator_impl@$$CBVT3dDblPoint@@@1@XZ
?cbegin@T3dDblPointArrayPtrArray@@QEBA?AV?$iterator_impl@QEAVT3dDblPointArray@@@1@XZ
?cbegin@T3dFltPointArray@@QEBA?AV?$iterator_impl@$$CBVT3dFltPoint@@@1@XZ
?cbegin@T3dFltVectorArray@@QEBA?AV?$iterator_impl@$$CBVT3dFltVector@@@1@XZ
?cbegin@T4dDblMatrixArray@@QEBA?AV?$iterator_impl@$$CBVT4dDblMatrix@@@1@XZ
?cbegin@T4dDblPointArray@@QEBA?AV?$iterator_impl@$$CBVT4dDblPoint@@@1@XZ
?cbegin@T4dDblPointArrayPtrArray@@QEBA?AV?$iterator_impl@QEAVT4dDblPointArray@@@1@XZ
?cbegin@T4dDblVectorArray@@QEBA?AV?$iterator_impl@$$CBVT4dDblVector@@@1@XZ
?cbegin@T4dDblVectorArrayPtrArray@@QEBA?AV?$iterator_impl@QEAVT4dDblVectorArray@@@1@XZ
?cbegin@T4dFltMatrixArray@@QEBA?AV?$iterator_impl@$$CBVT4dFltMatrix@@@1@XZ
?cbegin@T4dFltPointArray@@QEBA?AV?$iterator_impl@$$CBVT4dFltPoint@@@1@XZ
?cbegin@TTuInt32Array@@QEBA?AV?$iterator_impl@$$CBI@1@XZ
?cbegin@TbdDataPtrArrayContainer@@QEBA?AV?$iterator_impl@QEAVTbdData@@@1@XZ
?cbegin@TbooleanArray@@QEBA?AV?$iterator_impl@$$CB_N@1@XZ
?cbegin@TbooleanArrayPtrArray@@QEBA?AV?$iterator_impl@QEAVTbooleanArray@@@1@XZ
?cbegin@TcharArray@@QEBA?AV?$iterator_impl@$$CBD@1@XZ
?cbegin@TcharPtrArray@@QEBA?AV?$iterator_impl@QEAD@1@XZ
?cbegin@TdblPointArray@@QEBA?AV?$iterator_impl@$$CBVTdblPoint@@@1@XZ
?cbegin@TdoubleArray@@QEBA?AV?$iterator_impl@$$CBN@1@XZ
?cbegin@TdoubleArrayPtrArray@@QEBA?AV?$iterator_impl@QEAVTdoubleArray@@@1@XZ
?cbegin@TdoublePtrArray@@QEBA?AV?$iterator_impl@QEAN@1@XZ
?cbegin@TdualQuaternionArray@@QEBA?AV?$iterator_impl@$$CBVTdualQuaternion@@@1@XZ
?cbegin@TfloatArray@@QEBA?AV?$iterator_impl@$$CBM@1@XZ
?cbegin@TfloatArrayPtrArray@@QEBA?AV?$iterator_impl@QEAVTfloatArray@@@1@XZ
?cbegin@TfloatArrayPtrArrayPtrArray@@QEBA?AV?$iterator_impl@QEAVTfloatArrayPtrArray@@@1@XZ
?cbegin@TfloatConstPtrArray@@QEBA?AV?$iterator_impl@QEBM@1@XZ
?cbegin@TfloatPtrArray@@QEBA?AV?$iterator_impl@QEAM@1@XZ
?cbegin@TfltLineArray@@QEBA?AV?$iterator_impl@$$CBVTfltLine@@@1@XZ
?cbegin@TfltPointArray@@QEBA?AV?$iterator_impl@$$CBVTfltPoint@@@1@XZ
?cbegin@TiffTagArray@@QEBA?AV?$iterator_impl@$$CBVTiffTag@@@1@XZ
?cbegin@TindexArray@@QEBA?AV?$iterator_impl@$$CBI@1@XZ
?cbegin@Tint16Array@@QEBA?AV?$iterator_impl@$$CBF@1@XZ
?cbegin@Tint32Array@@QEBA?AV?$iterator_impl@$$CBH@1@XZ
?cbegin@Tint32ArrayPtrArray@@QEBA?AV?$iterator_impl@QEAVTint32Array@@@1@XZ
?cbegin@Tint64Array@@QEBA?AV?$iterator_impl@$$CB_J@1@XZ
?cbegin@TlineArray@@QEBA?AV?$iterator_impl@$$CBVTline@@@1@XZ
?cbegin@TmtThreadPtrArray@@QEBA?AV?$iterator_impl@QEAVTmtThread@@@1@XZ
?cbegin@TnameObjectPtrArray@@QEBA?AV?$iterator_impl@QEAVTnameObject@@@1@XZ
?cbegin@TnamespacePtrArray@@QEBA?AV?$iterator_impl@QEAVTnamespace@@@1@XZ
?cbegin@TobjectGroupIdArray@@QEBA?AV?$iterator_impl@$$CBI@1@XZ
?cbegin@TpixelMapPtrArray@@QEBA?AV?$iterator_impl@QEAVTpixelMap@@@1@XZ
?cbegin@TpointArray@@QEBA?AV?$iterator_impl@$$CBVTpoint@@@1@XZ
?cbegin@TpoolAllocatorPtrArray@@QEBA?AV?$iterator_impl@QEAVTpoolAllocator@@@1@XZ
?cbegin@TportColorArray@@QEBA?AV?$iterator_impl@$$CBVTportColor@@@1@XZ
?cbegin@TquaternionArrayPtrArray@@QEBA?AV?$iterator_impl@QEAVTquaternionArray@@@1@XZ
?cbegin@TrectArray@@QEBA?AV?$iterator_impl@$$CBVTrect@@@1@XZ
?cbegin@TrotateXYZArray@@QEBA?AV?$iterator_impl@$$CBVTrotateXYZ@@@1@XZ
?cbegin@TscaleArray@@QEBA?AV?$iterator_impl@$$CBVTscale@@@1@XZ
?cbegin@TselectedSrfDirectionsArray@@QEBA?AV?$iterator_impl@$$CBW4TselectedSrfDirections@@@1@XZ
?cbegin@TstringPtrArray@@QEBA?AV?$iterator_impl@QEAVTstring@@@1@XZ
?cbegin@TsurfSelectedBoundaryTypeArray@@QEBA?AV?$iterator_impl@$$CBW4TsurfSelectedBoundaryType@@@1@XZ
?cbegin@TsurfaceDirectionArray@@QEBA?AV?$iterator_impl@$$CBW4TsurfaceDirection@@@1@XZ
?cbegin@TtimeValueArray@@QEBA?AV?$iterator_impl@$$CBVTtimeValue@@@1@XZ
?cbegin@TtimeValueArrayPtrArray@@QEBA?AV?$iterator_impl@QEAVTtimeValueArray@@@1@XZ
?cbegin@TtimeValuePtrArray@@QEBA?AV?$iterator_impl@QEAPEAVTtimeValue@@@1@XZ
?cbegin@TtriggerPtrArray@@QEBA?AV?$iterator_impl@QEAVTtrigger@@@1@XZ
?cbegin@TuInt16Array@@QEBA?AV?$iterator_impl@$$CBG@1@XZ
?cbegin@TuInt32Array@@QEBA?AV?$iterator_impl@$$CBI@1@XZ
?cbegin@TuInt32ArrayPtrArray@@QEBA?AV?$iterator_impl@QEAVTuInt32Array@@@1@XZ
?cbegin@TuInt64Array@@QEBA?AV?$iterator_impl@$$CB_K@1@XZ
?cbegin@TuInt8Array@@QEBA?AV?$iterator_impl@$$CBE@1@XZ
?cbegin@TuInt8ArrayPtrArray@@QEBA?AV?$iterator_impl@QEAVTuInt8Array@@@1@XZ
?cbegin@TuvPointArray@@QEBA?AV?$iterator_impl@$$CBVTuvPoint@@@1@XZ
?cbegin@TvaluesArrayPtrArray@@QEBA?AV?$iterator_impl@QEAVTdoubleArray@@@1@XZ
?cbegin@TviewRegionArray@@QEBA?AV?$iterator_impl@$$CBVTviewRegion@@@1@XZ
?cbegin@TvoidPtrArray@@QEBA?AV?$iterator_impl@QEAX@1@XZ
?cbegin@TxformMatrixPtrArray@@QEBA?AV?$iterator_impl@QEAVTxformMatrix@@@1@XZ
?cend@?$_Tree@V?$_Tmap_traits@V?$basic_string@DU?$char_traits@D@std@@V?$allocator@D@2@@std@@PEAVTresourceElement@@U?$less@V?$basic_string@DU?$char_traits@D@std@@V?$allocator@D@2@@std@@@2@V?$allocator@U?$pair@$$CBV?$basic_string@DU?$char_traits@D@std@@V?$allocator@D@2@@std@@PEAVTresourceElement@@@std@@@2@$0A@@std@@@std@@QEBA?AV?$_Tree_const_iterator@V?$_Tree_val@U?$_Tree_simple_types@U?$pair@$$CBV?$basic_string@DU?$char_traits@D@std@@V?$allocator@D@2@@std@@PEAVTresourceElement@@@std@@@std@@@std@@@2@XZ
?cend@?$_Tree@V?$_Tmap_traits@V?$basic_string@DU?$char_traits@D@std@@V?$allocator@D@2@@std@@PEAVTresourceGroup@@U?$less@V?$basic_string@DU?$char_traits@D@std@@V?$allocator@D@2@@std@@@2@V?$allocator@U?$pair@$$CBV?$basic_string@DU?$char_traits@D@std@@V?$allocator@D@2@@std@@PEAVTresourceGroup@@@std@@@2@$0A@@std@@@std@@QEBA?AV?$_Tree_const_iterator@V?$_Tree_val@U?$_Tree_simple_types@U?$pair@$$CBV?$basic_string@DU?$char_traits@D@std@@V?$allocator@D@2@@std@@PEAVTresourceGroup@@@std@@@std@@@std@@@2@XZ
?cend@T2FloatArray@@QEBA?AV?$iterator_impl@$$CBVT2Float@@@1@XZ
?cend@T3DoubleArray@@QEBA?AV?$iterator_impl@$$CBVT3Double@@@1@XZ
?cend@T3FloatArray@@QEBA?AV?$iterator_impl@$$CBVT3Float@@@1@XZ
?cend@T3dDblPointArray@@QEBA?AV?$iterator_impl@$$CBVT3dDblPoint@@@1@XZ
?cend@T3dDblPointArrayPtrArray@@QEBA?AV?$iterator_impl@QEAVT3dDblPointArray@@@1@XZ
?cend@T3dFltPointArray@@QEBA?AV?$iterator_impl@$$CBVT3dFltPoint@@@1@XZ
?cend@T3dFltVectorArray@@QEBA?AV?$iterator_impl@$$CBVT3dFltVector@@@1@XZ
?cend@T4dDblMatrixArray@@QEBA?AV?$iterator_impl@$$CBVT4dDblMatrix@@@1@XZ
?cend@T4dDblPointArray@@QEBA?AV?$iterator_impl@$$CBVT4dDblPoint@@@1@XZ
?cend@T4dDblPointArrayPtrArray@@QEBA?AV?$iterator_impl@QEAVT4dDblPointArray@@@1@XZ
?cend@T4dDblVectorArray@@QEBA?AV?$iterator_impl@$$CBVT4dDblVector@@@1@XZ
?cend@T4dDblVectorArrayPtrArray@@QEBA?AV?$iterator_impl@QEAVT4dDblVectorArray@@@1@XZ
?cend@T4dFltMatrixArray@@QEBA?AV?$iterator_impl@$$CBVT4dFltMatrix@@@1@XZ
?cend@T4dFltPointArray@@QEBA?AV?$iterator_impl@$$CBVT4dFltPoint@@@1@XZ
?cend@TTuInt32Array@@QEBA?AV?$iterator_impl@$$CBI@1@XZ
?cend@TbdDataPtrArrayContainer@@QEBA?AV?$iterator_impl@QEAVTbdData@@@1@XZ
?cend@TbooleanArray@@QEBA?AV?$iterator_impl@$$CB_N@1@XZ
?cend@TbooleanArrayPtrArray@@QEBA?AV?$iterator_impl@QEAVTbooleanArray@@@1@XZ
?cend@TcharArray@@QEBA?AV?$iterator_impl@$$CBD@1@XZ
?cend@TcharPtrArray@@QEBA?AV?$iterator_impl@QEAD@1@XZ
?cend@TdblPointArray@@QEBA?AV?$iterator_impl@$$CBVTdblPoint@@@1@XZ
?cend@TdoubleArray@@QEBA?AV?$iterator_impl@$$CBN@1@XZ
?cend@TdoubleArrayPtrArray@@QEBA?AV?$iterator_impl@QEAVTdoubleArray@@@1@XZ
?cend@TdoublePtrArray@@QEBA?AV?$iterator_impl@QEAN@1@XZ
?cend@TdualQuaternionArray@@QEBA?AV?$iterator_impl@$$CBVTdualQuaternion@@@1@XZ
?cend@TfloatArray@@QEBA?AV?$iterator_impl@$$CBM@1@XZ
?cend@TfloatArrayPtrArray@@QEBA?AV?$iterator_impl@QEAVTfloatArray@@@1@XZ
?cend@TfloatArrayPtrArrayPtrArray@@QEBA?AV?$iterator_impl@QEAVTfloatArrayPtrArray@@@1@XZ
?cend@TfloatConstPtrArray@@QEBA?AV?$iterator_impl@QEBM@1@XZ
?cend@TfloatPtrArray@@QEBA?AV?$iterator_impl@QEAM@1@XZ
?cend@TfltLineArray@@QEBA?AV?$iterator_impl@$$CBVTfltLine@@@1@XZ
?cend@TfltPointArray@@QEBA?AV?$iterator_impl@$$CBVTfltPoint@@@1@XZ
?cend@TiffTagArray@@QEBA?AV?$iterator_impl@$$CBVTiffTag@@@1@XZ
?cend@TindexArray@@QEBA?AV?$iterator_impl@$$CBI@1@XZ
?cend@Tint16Array@@QEBA?AV?$iterator_impl@$$CBF@1@XZ
?cend@Tint32Array@@QEBA?AV?$iterator_impl@$$CBH@1@XZ
?cend@Tint32ArrayPtrArray@@QEBA?AV?$iterator_impl@QEAVTint32Array@@@1@XZ
?cend@Tint64Array@@QEBA?AV?$iterator_impl@$$CB_J@1@XZ
?cend@TlineArray@@QEBA?AV?$iterator_impl@$$CBVTline@@@1@XZ
?cend@TmtThreadPtrArray@@QEBA?AV?$iterator_impl@QEAVTmtThread@@@1@XZ
?cend@TnameObjectPtrArray@@QEBA?AV?$iterator_impl@QEAVTnameObject@@@1@XZ
?cend@TnamespacePtrArray@@QEBA?AV?$iterator_impl@QEAVTnamespace@@@1@XZ
?cend@TobjectGroupIdArray@@QEBA?AV?$iterator_impl@$$CBI@1@XZ
?cend@TpixelMapPtrArray@@QEBA?AV?$iterator_impl@QEAVTpixelMap@@@1@XZ
?cend@TpointArray@@QEBA?AV?$iterator_impl@$$CBVTpoint@@@1@XZ
?cend@TpoolAllocatorPtrArray@@QEBA?AV?$iterator_impl@QEAVTpoolAllocator@@@1@XZ
?cend@TportColorArray@@QEBA?AV?$iterator_impl@$$CBVTportColor@@@1@XZ
?cend@TquaternionArrayPtrArray@@QEBA?AV?$iterator_impl@QEAVTquaternionArray@@@1@XZ
?cend@TrectArray@@QEBA?AV?$iterator_impl@$$CBVTrect@@@1@XZ
?cend@TrotateXYZArray@@QEBA?AV?$iterator_impl@$$CBVTrotateXYZ@@@1@XZ
?cend@TscaleArray@@QEBA?AV?$iterator_impl@$$CBVTscale@@@1@XZ
?cend@TselectedSrfDirectionsArray@@QEBA?AV?$iterator_impl@$$CBW4TselectedSrfDirections@@@1@XZ
?cend@TstringPtrArray@@QEBA?AV?$iterator_impl@QEAVTstring@@@1@XZ
?cend@TsurfSelectedBoundaryTypeArray@@QEBA?AV?$iterator_impl@$$CBW4TsurfSelectedBoundaryType@@@1@XZ
?cend@TsurfaceDirectionArray@@QEBA?AV?$iterator_impl@$$CBW4TsurfaceDirection@@@1@XZ
?cend@TtimeValueArray@@QEBA?AV?$iterator_impl@$$CBVTtimeValue@@@1@XZ
?cend@TtimeValueArrayPtrArray@@QEBA?AV?$iterator_impl@QEAVTtimeValueArray@@@1@XZ
?cend@TtimeValuePtrArray@@QEBA?AV?$iterator_impl@QEAPEAVTtimeValue@@@1@XZ
?cend@TtriggerPtrArray@@QEBA?AV?$iterator_impl@QEAVTtrigger@@@1@XZ
?cend@TuInt16Array@@QEBA?AV?$iterator_impl@$$CBG@1@XZ
?cend@TuInt32Array@@QEBA?AV?$iterator_impl@$$CBI@1@XZ
?cend@TuInt32ArrayPtrArray@@QEBA?AV?$iterator_impl@QEAVTuInt32Array@@@1@XZ
?cend@TuInt64Array@@QEBA?AV?$iterator_impl@$$CB_K@1@XZ
?cend@TuInt8Array@@QEBA?AV?$iterator_impl@$$CBE@1@XZ
?cend@TuInt8ArrayPtrArray@@QEBA?AV?$iterator_impl@QEAVTuInt8Array@@@1@XZ
?cend@TuvPointArray@@QEBA?AV?$iterator_impl@$$CBVTuvPoint@@@1@XZ
?cend@TvaluesArrayPtrArray@@QEBA?AV?$iterator_impl@QEAVTdoubleArray@@@1@XZ
?cend@TviewRegionArray@@QEBA?AV?$iterator_impl@$$CBVTviewRegion@@@1@XZ
?cend@TvoidPtrArray@@QEBA?AV?$iterator_impl@QEAX@1@XZ
?cend@TxformMatrixPtrArray@@QEBA?AV?$iterator_impl@QEAVTxformMatrix@@@1@XZ
?center@TboundingBox@@QEBA?AVT4dDblPoint@@XZ
?center@TfltBox@@QEBA?AVT3dFltPoint@@XZ
?centerDialog@TfileSystemEntity@@SAXFAEAVTpoint@@@Z
?change@TanimTimeSortedArray@@QEAAHIAEBVTanimTime@@@Z
?change@TdoubleSortedArray@@QEAAHIAEBN@Z
?change@Tint32SortedArray@@QEAAHIAEBH@Z
?change@TsortedBdDataPtrArray@@QEAAHIAEBVTbdDataPtrSObj@@@Z
?change@TsortedObjectGroupIdArray@@QEAAHIAEBI@Z
?change@TsortedStringArray@@QEAAHIAEBVTstring@@@Z
?change@TuInt16SortedArray@@QEAAHIAEBG@Z
?change@TuInt32SortedArray@@QEAAHIAEBI@Z
?change@TuInt64SortedArray@@QEAAHIAEB_K@Z
?change@TvoidPtrSortedArray@@QEAAHIAEBQEAX@Z
?changeLengthTo@T4dDblVector@@QEAA_NN@Z
?changeLogicalSizeBy@Tarray@@QEAAHH@Z
?changeLogicalSizeBy@TobjArray@@QEAAXH@Z
?changeLogicalSizeTo@Tarray@@QEAAHI@Z
?changeLogicalSizeTo@TbdDataPtrArray@@QEAAXI@Z
?changeLogicalSizeTo@TobjArray@@QEAAXI@Z
?changePhysicalSizeTo@Tarray@@UEAAHI@Z
?changePhysicalSizeTo@TbdDataPtrArray@@QEAAXI@Z
?changePhysicalSizeTo@TcacheArray@@UEAAHI@Z
?changePhysicalSizeTo@TobjArray@@QEAAXI@Z
?changeSize@TpoolManager@@QEAA_NHJ@Z
?channels@TpixelMap@@QEBAHXZ
?charValue@Tdata@@QEBADXZ
?check@MObjBase@@SA_NAEBVMObject@@W4Type@MFn@@@Z
?check@MObjBase@@SA_NW4Type@MFn@@0@Z
?checkArraySize@TpolyBdVertexFaceBase@@QEBAXXZ
?checkArraySize@TpolyMap@@QEBAXXZ
?checkArraySize@TpolyTangentSet@@QEBAXXZ
?checkConsistency@TmtVariantArena@@QEAAHXZ
?checkConsistency@TvariantArena@@QEAAHXZ
?checkCustomCommand@TpreferencesDirectory@@QEAA_NAEBVTstring@@@Z
?checkFreeMemory@TmallocAllocator@@SA_N_K@Z
?checkPrevCloseStatus@TCIPClient@@QEAAXAEBVTstring@@@Z
?checkStatus@TserverCheckMsg@@QEAA_NXZ
?checkValidity@TfileRequestor@@MEAA_NPEAD@Z
?checkoutMainProductLicense@TadlmLicenseManager@@UEAA_NXZ
?checkoutMainProductLicense@TbaseLicenseManager@@UEAA_NXZ
?checkoutMainProductLicense@TmintLicenseManager@@UEAA_NXZ
?children@TdataCompound@@QEAAAEAVTDarray@@XZ
?clamp@TanimTime@@QEAAXAEBV1@0@Z
?clamp@Tscale@@CANN@Z
?clamp@Tscale@@QEAAAEAV1@XZ
?className@MPxEditData@@SAPEBDXZ
?classify@TfltBounds@@UEBA?AW4TisectType@1@AEBV1@@Z
?classify@TfltBounds@@UEBA?AW4TisectType@1@AEBVT4dFltPoint@@@Z
?classify@TfltFrustum@@QEBA?AW4TisectType@TfltBounds@@AEBVTfltBox@@@Z
?classify@TfltFrustum@@UEBA?AW4TisectType@TfltBounds@@AEBV3@@Z
?classify@TfltFrustum@@UEBA?AW4TisectType@TfltBounds@@AEBVT4dFltPoint@@@Z
?classify@Tfrustum@@QEBA?AW4TisectType@Tbounds@@AEBVT4dDblPoint@@@Z
?classify@Tfrustum@@QEBA?AW4TisectType@Tbounds@@AEBVTboundingBox@@@Z
?clean@Tstring@@QEAAXW4Tsystem@@@Z
?cleanUp@TglobalPrefMgr@@SAXXZ
?cleanUpFreeList@TpoolAllocator@@AEAAXXZ
?cleanup@TdepthBuffer@@AEAAXXZ
?cleanup@TlinearString@@QEAAXXZ
?cleanup@TnamespaceManager@@QEAAXXZ
?clear@?$_Tree@V?$_Tmap_traits@V?$basic_string@DU?$char_traits@D@std@@V?$allocator@D@2@@std@@PEAVTresourceElement@@U?$less@V?$basic_string@DU?$char_traits@D@std@@V?$allocator@D@2@@std@@@2@V?$allocator@U?$pair@$$CBV?$basic_string@DU?$char_traits@D@std@@V?$allocator@D@2@@std@@PEAVTresourceElement@@@std@@@2@$0A@@std@@@std@@QEAAXXZ
?clear@?$_Tree@V?$_Tmap_traits@V?$basic_string@DU?$char_traits@D@std@@V?$allocator@D@2@@std@@PEAVTresourceGroup@@U?$less@V?$basic_string@DU?$char_traits@D@std@@V?$allocator@D@2@@std@@@2@V?$allocator@U?$pair@$$CBV?$basic_string@DU?$char_traits@D@std@@V?$allocator@D@2@@std@@PEAVTresourceGroup@@@std@@@2@$0A@@std@@@std@@QEAAXXZ
?clear@T3floatVoxelGrid@@UEAAXXZ
?clear@TboundingBox@@QEAAXXZ
?clear@Tbox@@QEAAXXZ
?clear@TdataArrayAttrs@@QEAAXXZ
?clear@TdbOperation@@QEAAXXZ
?clear@TdbRequireCount@@UEAAXXZ
?clear@TdbRequireOutput@@UEAAXXZ
?clear@TdbRequirement@@UEAAXXZ
?clear@TdebugOutputString@@QEAAXXZ
?clear@TdoubleRange@@QEAAXXZ
?clear@TfileURI@@QEAAXXZ
?clear@Tfile_iostream@@UEAAXH@Z
?clear@TfloatVoxelGrid@@UEAAXXZ
?clear@TfltBox@@QEAAXXZ
?clear@TfltTuple@@QEAAAEAV1@XZ
?clear@TincorrectNameSet@@SAXXZ
?clear@TpixelMap@@AEAAXXZ
?clear@TsearchPath@@QEAAXXZ
?clear@Tstack@@QEAAXXZ
?clear@Tstring@@QEAAXXZ
?clear@TthreadSubtree@@UEAAXXZ
?clear@TthreadTree@@UEAAXXZ
?clear@TtimeValue@@QEAAXXZ
?clear@Ttuple@@QEAAAEAV1@XZ
?clear@TuniqueString@@QEAAXXZ
?clearAlphaChannel@TpixelMap@@QEAAXE@Z
?clearArray@TargType@@QEAAXXZ
?clearArrayVar@TprefOptionVars@@QEAA_NAEBVTstring@@@Z
?clearData@TpolyMap@@EEAAXXZ
?clearIndex@TpolyBdVertexFaceBase@@QEAAXXZ
?clearInstance@MPtrBase@@UEAAXXZ
?clearInterrupt@Tcomputation@@UEAAXXZ
?clearMap@TpolyMap@@AEAAXXZ
?clearName@TnameObject@@QEAAXXZ
?clearNamespace@TnameObject@@QEAAXXZ
?clearPlaceHolderNamespaceMappingsToSkip@TplaceHolderNamespaceUtil@@QEAAXXZ
?clearPlaceHolderNamespacesMappedToNone@TplaceHolderNamespaceUtil@@QEAAXXZ
?clearPlaceHolderPaths@TnameObject@@UEAAXXZ
?clearPlaceHolderPaths@Tnamespace@@UEAAXXZ
?clearPlaceHolderPaths@TnamespaceManager@@QEAAXPEAVTnamespace@@@Z
?clearRemovedNamespaces@TnamespaceManager@@QEAAXPEAVTnamespace@@@Z
?clearShellInfo@TpolyMap@@AEAAXXZ
?clearall@?$TdataHashTable@IPEAVTmetaclass@@@@AEAAXXZ
?clearall@?$TdataHashTable@PEAVTbdData@@PEAV1@@@AEAAXXZ
?clearall@?$TdataHashTable@PEAXVTstring@@@@AEAAXXZ
?clearall@?$TdataHashTable@VTstring@@H@@AEAAXXZ
?clearall@?$TdataHashTable@VTstring@@PEAVTmetaclass@@@@AEAAXXZ
?clearall@?$TdataHashTable@VTstring@@V1@@@AEAAXXZ
?clearall@TkeyWordHashTable@@AEAAXXZ
?clearall@TptrHashTable@@AEAAXXZ
?clearall@TstringKeyHashTable@@AEAAXXZ
?clipMax@TboundingBox@@QEAAXAEBVT4dDblPoint@@@Z
?clipMax@TfltBox@@QEAAXAEBVT4dFltPoint@@@Z
?clipMax@TfltInterval@@QEAAXM@Z
?clipMin@TboundingBox@@QEAAXAEBVT4dDblPoint@@@Z
?clipMin@TfltBox@@QEAAXAEBVT4dFltPoint@@@Z
?clipMin@TfltInterval@@QEAAXM@Z
?clipSampleValues@TblendFactor@@QEAAXXZ
?clipSampleValues@Treflectance@@AEAAXXZ
?clipSampleValues@TrenderSpectrum@@QEAAXXZ
?clipSampleValues@Tspectrum@@QEAAXXZ
?clipToMaxSampleValue@TblendFactor@@QEAAXXZ
?clipToMaxSampleValue@Treflectance@@AEAAXXZ
?clipToMaxSampleValue@TrenderSpectrum@@QEAAXXZ
?clipToMaxSampleValue@Tspectrum@@QEAAXXZ
?clipToMinSampleValue@TblendFactor@@QEAAXXZ
?clipToMinSampleValue@Treflectance@@AEAAXXZ
?clipToMinSampleValue@TrenderSpectrum@@QEAAXXZ
?clipToMinSampleValue@Tspectrum@@QEAAXXZ
?clone@TbitFieldFixedN@@QEAAXAEBV1@@Z
?clone@Tcomponent@@QEBAPEAV1@XZ
?clone@Tdictionary@@MEAAPEAVTdictionaryNode@@H@Z
?clone@TindexDictionaryNode@@MEAAPEAVTdictionaryNode@@H@Z
?clone@TobjectGroup@@QEBAPEAV1@XZ
?clone@TtypeDictionaryNode@@MEAAPEAVTdictionaryNode@@H@Z
?close@?$basic_fstream@DU?$char_traits@D@std@@@std@@QEAAXXZ
?close@TdebugOutputFile@@QEAAXXZ
?close@TdynamicLoad@@QEAA_NXZ
?close@Tfile@@QEAAAEAV1@XZ
?close@TfileStream@@QEAAHXZ
?close@TiffFile4@@UEAAHXZ
?close@TiffFile8@@UEAAHXZ
?closeNoReopen@TdebugOutputFile@@QEAAXXZ
?closeSession@TCERMetricsRecorder@@QEAAXXZ
?closeUndoChunk@TfileManager@@QEAAXXZ
?closestCut@TrotateXYZ@@QEAAAEAV1@AEBV1@0@Z
?closestCut@TrotateXYZ@@QEAAAEAV1@AEBV1@@Z
?closestPoint@TfltLine@@QEBA?AVT3dFltPoint@@AEBV1@@Z
?closestPoint@TfltLine@@QEBA?AVT3dFltPoint@@AEBV2@@Z
?closestPoint@TfltLineSegment@@QEBA?AVT3dFltPoint@@AEBV2@@Z
?closestPoint@TfltLineSegment@@QEBA?AVT3dFltPoint@@AEBV2@AEAM1@Z
?closestPoint@TfltLineSegment@@QEBA?AVT3dFltPoint@@AEBVTfltLine@@@Z
?closestPoint@TfltLineSegment@@QEBA?AVT3dFltPoint@@AEBVTfltLine@@AEAM@Z
?closestPoint@TfltPlane@@QEBA?AVT3dFltPoint@@AEBV2@@Z
?closestPoint@Tline@@QEBA?AVT4dDblPoint@@AEBV1@@Z
?closestPoint@Tline@@QEBA?AVT4dDblPoint@@AEBV2@@Z
?closestPoint@TlineSegment@@QEBA?AVT4dDblPoint@@AEBV2@@Z
?closestPoint@TlineSegment@@QEBA?AVT4dDblPoint@@AEBV2@AEAN1@Z
?closestPoint@TlineSegment@@QEBA?AVT4dDblPoint@@AEBVTline@@@Z
?closestPoint@TlineSegment@@QEBA?AVT4dDblPoint@@AEBVTline@@AEAN@Z
?closestPoint@Tplane@@QEBA?AVT4dDblPoint@@AEBV2@@Z
?closestPointToOrigin@Tplane@@QEBA?AVT4dDblPoint@@XZ
?closestSolution@TrotateXYZ@@QEAAAEAV1@AEBV1@0PEAVT3Double@@@Z
?closestSolution@TrotateXYZ@@QEAAAEAV1@AEBV1@PEAVT3Double@@@Z
?cm@Tlinear@@QEBANXZ
?cmSet@Tlinear@@QEAAXN@Z
?collapseAncestors@TnamespaceManager@@QEAAPEAVTnamespace@@PEAV2@PEAVTstringArray@@@Z
?collapseEscapeSequences@Tstring@@QEAAAEAV1@XZ
?collapseWhiteSpace@Tstring@@QEAAXXZ
?collectAllNestedTimers@TnestedTimers@@CAHPEAUTnestingInfo@@QEAPEAU2@HPEA_N@Z
?color@ThighlightColor@@QEAA?AVTportColor@@XZ
?cols@TbitMatrix@@QEBAIXZ
?commandString@TprefOptionVars@@UEAAXAEAVTstring@@@Z
?commandString@TpreferenceItem@@UEAAXAEAVTstring@@@Z
?commitChanges@TsafeFileSave@@QEAA_NXZ
?commonCommandReached@TCIPClient@@QEAAXAEBVTstring@@AEBVTCIPWaypoint@@@Z
?commonFileCreateReached@TCIPClient@@QEAAXAEBVTstring@@@Z
?commonFileInputReached@TCIPClient@@QEAAXAEBVTstring@@0@Z
?compare@Tdictionary@@MEBAHAEAVTdictionaryNode@@@Z
?compare@TindexDictionaryNode@@MEBAHAEAVTdictionaryNode@@@Z
?compare@TnameString@@QEBAHAEBV1@@Z
?compare@TpolyMap@@AEAAIAEAV1@AEAI@Z
?compare@Tstring@@QEBAHAEBV1@@Z
?compare@Tstring@@QEBAHPEBD@Z
?compare@TtypeDictionaryNode@@MEBAHAEAVTdictionaryNode@@@Z
?compare@TuniqueString@@QEBAHAEBVTstring@@@Z
?compareBaseString@TnamespaceManager@@QEBA_NAEBVTstring@@0@Z
?compare_@TnestedTimers@@CAHPEBX0@Z
?compatibilityMode@TincorrectNameSet@@SA_NXZ
?compensateForParentScale@TxformMatrix@@UEBA_NXZ
?completeToIndices@TdoubleIndexedComponent@@IEAAXXZ
?completeToIndices@TlongDoubleIndexedComponent@@IEAAXXZ
?completeToIndices@TsingleIndexedComponent@@IEAAXXZ
?completeToIndices@TuInt64IndexedComponent@@UEAAXXZ
?component@TobjectGroup@@QEBAPEBVTcomponent@@XZ
?componentAlong@T2dFltVector@@QEBA?AV1@AEBV1@@Z
?componentAlong@T3dFltVector@@QEBA?AV1@AEBV1@@Z
?componentAlong@T4dDblVector@@QEBA?AV1@AEBV1@@Z
?compositeWith@TxformMatrix@@UEAAAEAV1@AEBV1@@Z
?compress@TcomponentWeights@@QEAAXAEBVTbitFieldFixedN@@@Z
?compressorClose@TmovieCompressor@@QEAAXXZ
?compressorData@TmovieCompressor@@QEAA_NAEAIAEAF0AEAH@Z
?compressorFlag@TmovieCompressor@@QEAAFXZ
?computeCacheLineSize@TcpuFeatures@@SAXXZ
?computeConversionCentiMeter@Tunit@@AEAAXXZ
?computeConversionDegrees@TangleUnit@@AEAAXXZ
?computeConversionFactors@TangleUnit@@AEAAXXZ
?computeConversionFactors@Tunit@@AEAAXXZ
?computeConversionFoot@Tunit@@AEAAXXZ
?computeConversionInch@Tunit@@AEAAXXZ
?computeConversionKiloMeter@Tunit@@AEAAXXZ
?computeConversionMeter@Tunit@@AEAAXXZ
?computeConversionMile@Tunit@@AEAAXXZ
?computeConversionMilliMeter@Tunit@@AEAAXXZ
?computeConversionMinutes@TangleUnit@@AEAAXXZ
?computeConversionRadians@TangleUnit@@AEAAXXZ
?computeConversionSeconds@TangleUnit@@AEAAXXZ
?computeConversionYard@Tunit@@AEAAXXZ
?conjugate@TdualQuaternion@@QEBA?AV1@XZ
?conjugate@Tquaternion@@QEBA?AV1@XZ
?conjugateIt@TdualQuaternion@@QEAAAEAV1@XZ
?conjugateIt@Tquaternion@@QEAAAEAV1@XZ
?connectClientToQObject@TclientQObjectInterface@@QEAAXPEBDPEAVTclient@@PEAVTmetaclass@@P6AX1PEAVTclientServer@@AEBVTserverMsg@@@Z@Z
?construct@TCIPClient@@SAPEAV1@PEAVTmetaclass@@@Z
?construct@TDarray@@UEAAXII@Z
?construct@TanimTimeArray@@UEAAXII@Z
?construct@TanimTimeSortedArray@@MEAAXII@Z
?construct@TappDirectory@@SAPEAV1@PEAVTmetaclass@@@Z
?construct@TargList@@SAPEAV1@PEAVTmetaclass@@@Z
?construct@TboundaryValueException@@SAPEAV1@PEAVTmetaclass@@@Z
?construct@Tclient@@SAPEAV1@PEAVTmetaclass@@@Z
?construct@TclientCondition@@SAPEAV1@PEAVTmetaclass@@@Z
?construct@TclientServer@@SAPEAV1@PEAVTmetaclass@@@Z
?construct@Tcomponent@@SAPEAV1@PEAVTmetaclass@@@Z
?construct@TcomponentPtrArray@@UEAAXII@Z
?construct@Tcondition@@SAPEAV1@PEAVTmetaclass@@@Z
?construct@TconditionChangedMsg@@SAPEAV1@PEAVTmetaclass@@@Z
?construct@TconditionOffMsg@@SAPEAV1@PEAVTmetaclass@@@Z
?construct@TconditionOnMsg@@SAPEAV1@PEAVTmetaclass@@@Z
?construct@Tdata2Double@@SAPEAV1@PEAVTmetaclass@@@Z
?construct@Tdata2Float@@SAPEAV1@PEAVTmetaclass@@@Z
?construct@Tdata2Int16@@SAPEAV1@PEAVTmetaclass@@@Z
?construct@Tdata2Int32@@SAPEAV1@PEAVTmetaclass@@@Z
?construct@Tdata3Double@@SAPEAV1@PEAVTmetaclass@@@Z
?construct@Tdata3Float@@SAPEAV1@PEAVTmetaclass@@@Z
?construct@Tdata3Int16@@SAPEAV1@PEAVTmetaclass@@@Z
?construct@Tdata3Int32@@SAPEAV1@PEAVTmetaclass@@@Z
?construct@Tdata4Double@@SAPEAV1@PEAVTmetaclass@@@Z
?construct@Tdata@@SAPEAV1@PEAVTmetaclass@@@Z
?construct@TdataArrayAttrs@@SAPEAV1@PEAVTmetaclass@@@Z
?construct@TdataBinary@@SAPEAV1@PEAVTmetaclass@@@Z
?construct@TdataCompound@@SAPEAV1@PEAVTmetaclass@@@Z
?construct@TdataDoubleArray@@SAPEAV1@PEAVTmetaclass@@@Z
?construct@TdataFloatArray@@SAPEAV1@PEAVTmetaclass@@@Z
?construct@TdataFunction@@SAPEAV1@PEAVTmetaclass@@@Z
?construct@TdataInt32Array@@SAPEAV1@PEAVTmetaclass@@@Z
?construct@TdataLetter@@SAPEAV1@PEAVTmetaclass@@@Z
?construct@TdataMatrix@@SAPEAV1@PEAVTmetaclass@@@Z
?construct@TdataReflectance@@SAPEAV1@PEAVTmetaclass@@@Z
?construct@TdataSpectrum@@SAPEAV1@PEAVTmetaclass@@@Z
?construct@TdataUInt64Array@@SAPEAV1@PEAVTmetaclass@@@Z
?construct@TdataUnknown@@SAPEAV1@PEAVTmetaclass@@@Z
?construct@TdataVoidPtr@@SAPEAV1@PEAVTmetaclass@@@Z
?construct@TdbRequireCount@@SAPEAV1@PEAVTmetaclass@@@Z
?construct@TdbRequireOutput@@SAPEAV1@PEAVTmetaclass@@@Z
?construct@TdbRequirement@@SAPEAV1@PEAVTmetaclass@@@Z
?construct@TdbTrace@@SAPEAV1@PEAVTmetaclass@@@Z
?construct@TdebugOutput@@SAPEAV1@PEAVTmetaclass@@@Z
?construct@TdebugOutputFile@@SAPEAV1@PEAVTmetaclass@@@Z
?construct@TdebugOutputString@@SAPEAV1@PEAVTmetaclass@@@Z
?construct@TdebugOutputTrace@@SAPEAV1@PEAVTmetaclass@@@Z
?construct@TdelayedClientServer@@SAPEAV1@PEAVTmetaclass@@@Z
?construct@TdelayedMsgTypeArray@@UEAAXII@Z
?construct@Tdictionary@@SAPEAV1@PEAVTmetaclass@@@Z
?construct@TdictionaryNode@@SAPEAV1@PEAVTmetaclass@@@Z
?construct@Tdirectory@@SAPEAV1@PEAVTmetaclass@@@Z
?construct@TdoubleIndexLongArray@@UEAAXII@Z
?construct@TdoubleIndexedComponent@@SAPEAV1@PEAVTmetaclass@@@Z
?construct@TdoubleRangeArray@@UEAAXII@Z
?construct@TdoubleSortedArray@@MEAAXII@Z
?construct@Texception@@SAPEAV1@PEAVTmetaclass@@@Z
?construct@TfailedException@@SAPEAV1@PEAVTmetaclass@@@Z
?construct@Tfile@@SAPEAV1@PEAVTmetaclass@@@Z
?construct@TfileException@@SAPEAV1@PEAVTmetaclass@@@Z
?construct@TfilePathArray@@UEAAXII@Z
?construct@TfileStream@@SAPEAV1@PEAVTmetaclass@@@Z
?construct@TfileSystemEntity@@SAPEAV1@PEAVTmetaclass@@@Z
?construct@TfloatRangeArray@@UEAAXII@Z
?construct@Tfunction@@SAPEAV1@PEAVTmetaclass@@@Z
?construct@ThandledException@@SAPEAV1@PEAVTmetaclass@@@Z
?construct@TincompatibleData@@SAPEAV1@PEAVTmetaclass@@@Z
?construct@TindexDictionary@@SAPEAV1@PEAVTmetaclass@@@Z
?construct@TindexDictionaryNode@@SAPEAV1@PEAVTmetaclass@@@Z
?construct@TindexRangeArray@@UEAAXII@Z
?construct@Tint32SortedArray@@MEAAXII@Z
?construct@TlicenseModifiedMsg@@SAPEAV1@PEAVTmetaclass@@@Z
?construct@TlongDoubleIndexedComponent@@SAPEAV1@PEAVTmetaclass@@@Z
?construct@TmaxViewRegionModifiedMsg@@SAPEAV1@PEAVTmetaclass@@@Z
?construct@TmemoryException@@SAPEAV1@PEAVTmetaclass@@@Z
?construct@TmessageCenter@@SAPEAV1@PEAVTmetaclass@@@Z
?construct@TmetaLetter@@SAPEAVTdataLetter@@AEBVTiffTag@@@Z
?construct@TmetaLetter@@SAPEAVTdataLetter@@PEBD@Z
?construct@Tmetaclass@@QEAAPEAXPEAV1@@Z
?construct@TnameObject@@SAPEAV1@PEAVTmetaclass@@@Z
?construct@Tnamespace@@SAPEAV1@PEAVTmetaclass@@@Z
?construct@TnamespaceRenamedMsg@@SAPEAV1@PEAVTmetaclass@@@Z
?construct@TobjArray@@MEAAXII@Z
?construct@TobjArrayTbasketPtr@@UEAAXII@Z
?construct@TobjectGroupPtrArray@@UEAAXII@Z
?construct@ToptionVar@@SAPEAV1@PEAVTmetaclass@@@Z
?construct@ToptionVarChangedMsg@@SAPEAV1@PEAVTmetaclass@@@Z
?construct@TpolyMapArray@@UEAAXII@Z
?construct@TpolyTangentSetArray@@UEAAXII@Z
?construct@TprefOptionVars@@SAPEAV1@PEAVTmetaclass@@@Z
?construct@TpreferenceItem@@SAPEAV1@PEAVTmetaclass@@@Z
?construct@TpreferenceItemPtrArray@@UEAAXII@Z
?construct@TpreferencesDirectory@@SAPEAV1@PEAVTmetaclass@@@Z
?construct@TpresetsDirectory@@SAPEAV1@PEAVTmetaclass@@@Z
?construct@TprofilerBufferSizeChangedMsg@@SAPEAV1@PEAVTmetaclass@@@Z
?construct@TprofilerCategoryAddedMsg@@SAPEAV1@PEAVTmetaclass@@@Z
?construct@TprofilerCategoryRemovedMsg@@SAPEAV1@PEAVTmetaclass@@@Z
?construct@TprofilerCategoryUpdatedMsg@@SAPEAV1@PEAVTmetaclass@@@Z
?construct@TprofilerRecordingStartedMsg@@SAPEAV1@PEAVTmetaclass@@@Z
?construct@TprofilerRecordingStoppedMsg@@SAPEAV1@PEAVTmetaclass@@@Z
?construct@TprofilerResetDataMsg@@SAPEAV1@PEAVTmetaclass@@@Z
?construct@TprojectsDirectory@@SAPEAV1@PEAVTmetaclass@@@Z
?construct@TquaternionArray@@UEAAXII@Z
?construct@TresourceException@@SAPEAV1@PEAVTmetaclass@@@Z
?construct@TserverCheckMsg@@SAPEAV1@PEAVTmetaclass@@@Z
?construct@TserverDeletedMsg@@SAPEAV1@PEAVTmetaclass@@@Z
?construct@TserverModifiedMsg@@SAPEAV1@PEAVTmetaclass@@@Z
?construct@TserverMsg@@SAPEAV1@PEAVTmetaclass@@@Z
?construct@TsharedPixelMapArray@@UEAAXII@Z
?construct@TsingleIndexedComponent@@SAPEAV1@PEAVTmetaclass@@@Z
?construct@TsortedBdDataPtrArray@@MEAAXII@Z
?construct@TsortedObjectGroupIdArray@@MEAAXII@Z
?construct@TsortedStringArray@@MEAAXII@Z
?construct@TstringArray@@UEAAXII@Z
?construct@TsurfaceIndexArray@@UEAAXII@Z
?construct@TtemporaryDirectory@@SAPEAV1@PEAVTmetaclass@@@Z
?construct@TtimeRangeArray@@UEAAXII@Z
?construct@TtoolClipsControlDirectory@@SAPEAV1@PEAVTmetaclass@@@Z
?construct@TtoolClipsDirectory@@SAPEAV1@PEAVTmetaclass@@@Z
?construct@TtoolClipsResourcesDirectory@@SAPEAV1@PEAVTmetaclass@@@Z
?construct@Ttrigger@@SAPEAV1@PEAVTmetaclass@@@Z
?construct@TtriggerMsg@@SAPEAV1@PEAVTmetaclass@@@Z
?construct@TtypeDictionary@@SAPEAV1@PEAVTmetaclass@@@Z
?construct@TtypeDictionaryNode@@SAPEAV1@PEAVTmetaclass@@@Z
?construct@TtypeidArray@@UEAAXII@Z
?construct@TuInt16SortedArray@@MEAAXII@Z
?construct@TuInt32SortedArray@@MEAAXII@Z
?construct@TuInt64IndexedComponent@@SAPEAV1@PEAVTmetaclass@@@Z
?construct@TuInt64SortedArray@@MEAAXII@Z
?construct@TunimplementedException@@SAPEAV1@PEAVTmetaclass@@@Z
?construct@TuniqueString@@AEAAXAEBVTstring@@@Z
?construct@TuserBitmapsDirectory@@SAPEAV1@PEAVTmetaclass@@@Z
?construct@TuserHotkeyDirectory@@SAPEAV1@PEAVTmetaclass@@@Z
?construct@TuserMarkingMenuDirectory@@SAPEAV1@PEAVTmetaclass@@@Z
?construct@TuserScriptDirectory@@SAPEAV1@PEAVTmetaclass@@@Z
?construct@TuserShelfDirectory@@SAPEAV1@PEAVTmetaclass@@@Z
?construct@TviewRegionModifiedMsg@@SAPEAV1@PEAVTmetaclass@@@Z
?construct@TvoidPtrSortedArray@@MEAAXII@Z
?construct@TxformMatrixArray@@UEAAXII@Z
?constructInPlace@TCIPClient@@SAPEAV1@PEAVTmetaclass@@PEAX@Z
?constructInPlace@TappDirectory@@SAPEAV1@PEAVTmetaclass@@PEAX@Z
?constructInPlace@TargList@@SAPEAV1@PEAVTmetaclass@@PEAX@Z
?constructInPlace@TboundaryValueException@@SAPEAV1@PEAVTmetaclass@@PEAX@Z
?constructInPlace@Tclient@@SAPEAV1@PEAVTmetaclass@@PEAX@Z
?constructInPlace@TclientCondition@@SAPEAV1@PEAVTmetaclass@@PEAX@Z
?constructInPlace@TclientServer@@SAPEAV1@PEAVTmetaclass@@PEAX@Z
?constructInPlace@Tcomponent@@SAPEAV1@PEAVTmetaclass@@PEAX@Z
?constructInPlace@Tcondition@@SAPEAV1@PEAVTmetaclass@@PEAX@Z
?constructInPlace@TconditionChangedMsg@@SAPEAV1@PEAVTmetaclass@@PEAX@Z
?constructInPlace@TconditionOffMsg@@SAPEAV1@PEAVTmetaclass@@PEAX@Z
?constructInPlace@TconditionOnMsg@@SAPEAV1@PEAVTmetaclass@@PEAX@Z
?constructInPlace@Tdata2Double@@SAPEAV1@PEAVTmetaclass@@PEAX@Z
?constructInPlace@Tdata2Float@@SAPEAV1@PEAVTmetaclass@@PEAX@Z
?constructInPlace@Tdata2Int16@@SAPEAV1@PEAVTmetaclass@@PEAX@Z
?constructInPlace@Tdata2Int32@@SAPEAV1@PEAVTmetaclass@@PEAX@Z
?constructInPlace@Tdata3Double@@SAPEAV1@PEAVTmetaclass@@PEAX@Z
?constructInPlace@Tdata3Float@@SAPEAV1@PEAVTmetaclass@@PEAX@Z
?constructInPlace@Tdata3Int16@@SAPEAV1@PEAVTmetaclass@@PEAX@Z
?constructInPlace@Tdata3Int32@@SAPEAV1@PEAVTmetaclass@@PEAX@Z
?constructInPlace@Tdata4Double@@SAPEAV1@PEAVTmetaclass@@PEAX@Z
?constructInPlace@TdataArrayAttrs@@SAPEAV1@PEAVTmetaclass@@PEAX@Z
?constructInPlace@TdataBinary@@SAPEAV1@PEAVTmetaclass@@PEAX@Z
?constructInPlace@TdataCompound@@SAPEAV1@PEAVTmetaclass@@PEAX@Z
?constructInPlace@TdataDoubleArray@@SAPEAV1@PEAVTmetaclass@@PEAX@Z
?constructInPlace@TdataFloatArray@@SAPEAV1@PEAVTmetaclass@@PEAX@Z
?constructInPlace@TdataFunction@@SAPEAV1@PEAVTmetaclass@@PEAX@Z
?constructInPlace@TdataInt32Array@@SAPEAV1@PEAVTmetaclass@@PEAX@Z
?constructInPlace@TdataLetter@@SAPEAV1@PEAVTmetaclass@@PEAX@Z
?constructInPlace@TdataMatrix@@SAPEAV1@PEAVTmetaclass@@PEAX@Z
?constructInPlace@TdataReflectance@@SAPEAV1@PEAVTmetaclass@@PEAX@Z
?constructInPlace@TdataSpectrum@@SAPEAV1@PEAVTmetaclass@@PEAX@Z
?constructInPlace@TdataUInt64Array@@SAPEAV1@PEAVTmetaclass@@PEAX@Z
?constructInPlace@TdataUnknown@@SAPEAV1@PEAVTmetaclass@@PEAX@Z
?constructInPlace@TdataVoidPtr@@SAPEAV1@PEAVTmetaclass@@PEAX@Z
?constructInPlace@TdbRequireCount@@SAPEAV1@PEAVTmetaclass@@PEAX@Z
?constructInPlace@TdbRequireOutput@@SAPEAV1@PEAVTmetaclass@@PEAX@Z
?constructInPlace@TdbRequirement@@SAPEAV1@PEAVTmetaclass@@PEAX@Z
?constructInPlace@TdbTrace@@SAPEAV1@PEAVTmetaclass@@PEAX@Z
?constructInPlace@TdebugOutput@@SAPEAV1@PEAVTmetaclass@@PEAX@Z
?constructInPlace@TdebugOutputFile@@SAPEAV1@PEAVTmetaclass@@PEAX@Z
?constructInPlace@TdebugOutputString@@SAPEAV1@PEAVTmetaclass@@PEAX@Z
?constructInPlace@TdebugOutputTrace@@SAPEAV1@PEAVTmetaclass@@PEAX@Z
?constructInPlace@TdelayedClientServer@@SAPEAV1@PEAVTmetaclass@@PEAX@Z
?constructInPlace@Tdictionary@@SAPEAV1@PEAVTmetaclass@@PEAX@Z
?constructInPlace@TdictionaryNode@@SAPEAV1@PEAVTmetaclass@@PEAX@Z
?constructInPlace@Tdirectory@@SAPEAV1@PEAVTmetaclass@@PEAX@Z
?constructInPlace@TdoubleIndexedComponent@@SAPEAV1@PEAVTmetaclass@@PEAX@Z
?constructInPlace@Texception@@SAPEAV1@PEAVTmetaclass@@PEAX@Z
?constructInPlace@TfailedException@@SAPEAV1@PEAVTmetaclass@@PEAX@Z
?constructInPlace@Tfile@@SAPEAV1@PEAVTmetaclass@@PEAX@Z
?constructInPlace@TfileException@@SAPEAV1@PEAVTmetaclass@@PEAX@Z
?constructInPlace@TfileStream@@SAPEAV1@PEAVTmetaclass@@PEAX@Z
?constructInPlace@TfileSystemEntity@@SAPEAV1@PEAVTmetaclass@@PEAX@Z
?constructInPlace@Tfunction@@SAPEAV1@PEAVTmetaclass@@PEAX@Z
?constructInPlace@ThandledException@@SAPEAV1@PEAVTmetaclass@@PEAX@Z
?constructInPlace@TincompatibleData@@SAPEAV1@PEAVTmetaclass@@PEAX@Z
?constructInPlace@TindexDictionary@@SAPEAV1@PEAVTmetaclass@@PEAX@Z
?constructInPlace@TindexDictionaryNode@@SAPEAV1@PEAVTmetaclass@@PEAX@Z
?constructInPlace@TlicenseModifiedMsg@@SAPEAV1@PEAVTmetaclass@@PEAX@Z
?constructInPlace@TlongDoubleIndexedComponent@@SAPEAV1@PEAVTmetaclass@@PEAX@Z
?constructInPlace@TmaxViewRegionModifiedMsg@@SAPEAV1@PEAVTmetaclass@@PEAX@Z
?constructInPlace@TmemoryException@@SAPEAV1@PEAVTmetaclass@@PEAX@Z
?constructInPlace@TmessageCenter@@SAPEAV1@PEAVTmetaclass@@PEAX@Z
?constructInPlace@Tmetaclass@@QEAAPEAXPEAV1@PEAX@Z
?constructInPlace@TnameObject@@SAPEAV1@PEAVTmetaclass@@PEAX@Z
?constructInPlace@Tnamespace@@SAPEAV1@PEAVTmetaclass@@PEAX@Z
?constructInPlace@TnamespaceRenamedMsg@@SAPEAV1@PEAVTmetaclass@@PEAX@Z
?constructInPlace@ToptionVar@@SAPEAV1@PEAVTmetaclass@@PEAX@Z
?constructInPlace@ToptionVarChangedMsg@@SAPEAV1@PEAVTmetaclass@@PEAX@Z
?constructInPlace@TprefOptionVars@@SAPEAV1@PEAVTmetaclass@@PEAX@Z
?constructInPlace@TpreferenceItem@@SAPEAV1@PEAVTmetaclass@@PEAX@Z
?constructInPlace@TpreferencesDirectory@@SAPEAV1@PEAVTmetaclass@@PEAX@Z
?constructInPlace@TpresetsDirectory@@SAPEAV1@PEAVTmetaclass@@PEAX@Z
?constructInPlace@TprofilerBufferSizeChangedMsg@@SAPEAV1@PEAVTmetaclass@@PEAX@Z
?constructInPlace@TprofilerCategoryAddedMsg@@SAPEAV1@PEAVTmetaclass@@PEAX@Z
?constructInPlace@TprofilerCategoryRemovedMsg@@SAPEAV1@PEAVTmetaclass@@PEAX@Z
?constructInPlace@TprofilerCategoryUpdatedMsg@@SAPEAV1@PEAVTmetaclass@@PEAX@Z
?constructInPlace@TprofilerRecordingStartedMsg@@SAPEAV1@PEAVTmetaclass@@PEAX@Z
?constructInPlace@TprofilerRecordingStoppedMsg@@SAPEAV1@PEAVTmetaclass@@PEAX@Z
?constructInPlace@TprofilerResetDataMsg@@SAPEAV1@PEAVTmetaclass@@PEAX@Z
?constructInPlace@TprojectsDirectory@@SAPEAV1@PEAVTmetaclass@@PEAX@Z
?constructInPlace@TresourceException@@SAPEAV1@PEAVTmetaclass@@PEAX@Z
?constructInPlace@TserverCheckMsg@@SAPEAV1@PEAVTmetaclass@@PEAX@Z
?constructInPlace@TserverDeletedMsg@@SAPEAV1@PEAVTmetaclass@@PEAX@Z
?constructInPlace@TserverModifiedMsg@@SAPEAV1@PEAVTmetaclass@@PEAX@Z
?constructInPlace@TserverMsg@@SAPEAV1@PEAVTmetaclass@@PEAX@Z
?constructInPlace@TsingleIndexedComponent@@SAPEAV1@PEAVTmetaclass@@PEAX@Z
?constructInPlace@TtemporaryDirectory@@SAPEAV1@PEAVTmetaclass@@PEAX@Z
?constructInPlace@TtoolClipsControlDirectory@@SAPEAV1@PEAVTmetaclass@@PEAX@Z
?constructInPlace@TtoolClipsDirectory@@SAPEAV1@PEAVTmetaclass@@PEAX@Z
?constructInPlace@TtoolClipsResourcesDirectory@@SAPEAV1@PEAVTmetaclass@@PEAX@Z
?constructInPlace@Ttrigger@@SAPEAV1@PEAVTmetaclass@@PEAX@Z
?constructInPlace@TtriggerMsg@@SAPEAV1@PEAVTmetaclass@@PEAX@Z
?constructInPlace@TtypeDictionary@@SAPEAV1@PEAVTmetaclass@@PEAX@Z
?constructInPlace@TtypeDictionaryNode@@SAPEAV1@PEAVTmetaclass@@PEAX@Z
?constructInPlace@TuInt64IndexedComponent@@SAPEAV1@PEAVTmetaclass@@PEAX@Z
?constructInPlace@TunimplementedException@@SAPEAV1@PEAVTmetaclass@@PEAX@Z
?constructInPlace@TuserBitmapsDirectory@@SAPEAV1@PEAVTmetaclass@@PEAX@Z
?constructInPlace@TuserHotkeyDirectory@@SAPEAV1@PEAVTmetaclass@@PEAX@Z
?constructInPlace@TuserMarkingMenuDirectory@@SAPEAV1@PEAVTmetaclass@@PEAX@Z
?constructInPlace@TuserScriptDirectory@@SAPEAV1@PEAVTmetaclass@@PEAX@Z
?constructInPlace@TuserShelfDirectory@@SAPEAV1@PEAVTmetaclass@@PEAX@Z
?constructInPlace@TviewRegionModifiedMsg@@SAPEAV1@PEAVTmetaclass@@PEAX@Z
?contains@TboundingBox@@QEBA_NAEBV1@@Z
?contains@TboundingBox@@QEBA_NAEBVT4dDblPoint@@@Z
?contains@TboundingBox@@QEBA_NAEBVTboundingSphere@@@Z
?contains@TboundingBox@@QEBA_NAEBVTfrustum@@@Z
?contains@TboundingSphere@@QEBA_NAEBV1@@Z
?contains@TboundingSphere@@QEBA_NAEBVT4dDblPoint@@@Z
?contains@TboundingSphere@@QEBA_NAEBVTboundingBox@@@Z
?contains@TboundingSphere@@QEBA_NAEBVTfrustum@@@Z
?contains@Tbox@@QEBA_NAEBVT3dDblPoint@@N@Z
?contains@TdblRect@@QEBA_NAEBV1@@Z
?contains@TfltBoundingBox@@UEBA_NAEBVT4dFltPoint@@@Z
?contains@TfltBoundingBox@@UEBA_NAEBVTfltBounds@@@Z
?contains@TfltBoundingBox@@UEBA_NAEBVTfltFrustum@@@Z
?contains@TfltBoundingSphere@@QEBA_NAEBV1@@Z
?contains@TfltBoundingSphere@@QEBA_NAEBVTfltBoundingBox@@@Z
?contains@TfltBoundingSphere@@QEBA_NAEBVTfltBox@@@Z
?contains@TfltBoundingSphere@@QEBA_NAEBVTfltFrustum@@@Z
?contains@TfltBoundingSphere@@UEBA_NAEBVT4dFltPoint@@@Z
?contains@TfltBoundingSphere@@UEBA_NAEBVTfltBounds@@@Z
?contains@TfltBox@@QEBA_NAEBV1@@Z
?contains@TfltBox@@QEBA_NAEBVT4dFltPoint@@@Z
?contains@TfltBox@@QEBA_NAEBVTfltBounds@@@Z
?contains@TfltBox@@QEBA_NAEBVTfltFrustum@@@Z
?contains@TfltFrustum@@QEBA_NAEBV1@@Z
?contains@TfltFrustum@@QEBA_NAEBVTfltBoundingBox@@@Z
?contains@TfltFrustum@@QEBA_NAEBVTfltBoundingSphere@@@Z
?contains@TfltFrustum@@QEBA_NAEBVTfltBox@@@Z
?contains@TfltFrustum@@UEBA_NAEBVT4dFltPoint@@@Z
?contains@TfltFrustum@@UEBA_NAEBVTfltBounds@@@Z
?contains@TfltInterval@@QEBA_NAEBVTinterval@@@Z
?contains@TfltInterval@@QEBA_NAEBVTinterval@@N@Z
?contains@TfltInterval@@QEBA_NM@Z
?contains@TfltInterval@@QEBA_NMM@Z
?contains@TfltInterval@@QEBA_NV1@@Z
?contains@TfltInterval@@QEBA_NV1@M@Z
?contains@TfltNullBounds@@UEBA_NAEBVT4dFltPoint@@@Z
?contains@TfltNullBounds@@UEBA_NAEBVTfltBounds@@@Z
?contains@TfltUnBounded@@UEBA_NAEBVT4dFltPoint@@@Z
?contains@TfltUnBounded@@UEBA_NAEBVTfltBounds@@@Z
?contains@Tfrustum@@QEBA_NAEBV1@@Z
?contains@Tfrustum@@QEBA_NAEBVT4dDblPoint@@@Z
?contains@Tfrustum@@QEBA_NAEBVTboundingBox@@@Z
?contains@Tfrustum@@QEBA_NAEBVTboundingSphere@@@Z
?contains@TnamespaceManager@@QEBA_NAEBVTnameString@@PEBVTnamespace@@@Z
?contains@TportRect@@QEBA_NAEBV1@@Z
?contains@Trect@@QEBA_NAEBV1@@Z
?contains@Tstring@@QEBA_NAEBV1@@Z
?containsBox@TboundingBox@@QEBA_NAEBV1@N@Z
?containsBox@TfltBoundingBox@@UEBA_NAEBVTfltBox@@@Z
?containsBox@TfltBoundingSphere@@UEBA_NAEBVTfltBox@@@Z
?containsBox@TfltBox@@QEBA_NAEBV1@M@Z
?containsBox@TfltFrustum@@UEBA_NAEBVTfltBox@@@Z
?containsBox@TfltNullBounds@@UEBA_NAEBVTfltBox@@@Z
?containsBox@TfltUnBounded@@UEBA_NAEBVTfltBox@@@Z
?containsEnvVars@TfilePath@@SA_NAEBVTstring@@@Z
?containsMultibyte@Tstring@@QEBA_NAEAV1@@Z
?containsMultibyte@Tstring@@QEBA_NXZ
?containsPoint@TboundingBox@@QEBA_NAEBVT4dDblPoint@@N@Z
?containsPoint@TboundingBox@@QEBA_NNNNN@Z
?containsPoint@TfltBox@@QEBA_NAEBVT4dFltPoint@@M@Z
?containsPoint@TfltBox@@QEBA_NMMMM@Z
?conversion@TangleUnit@@SAAEBV1@W4TangleUnitSystem@@@Z
?conversion@TtimeUnit@@SAAEBV1@W4TtimeUnitSystem@@@Z
?conversion@Tunit@@SAAEBV1@W4TunitSystem@1@@Z
?convert2Flags@TsingleIndexedComponent@@QEBAXAEAVTbitFieldFixedN@@@Z
?convertAbsoluteNameToRootRelativeName@TnamespaceManager@@QEAA?AVTstring@@AEBV2@@Z
?convertForNormals@T4dDblMatrix@@QEBA?AV1@XZ
?convertForNormals@T4dFltMatrix@@QEBA?AV1@XZ
?convertFromFlags@TsingleIndexedComponent@@QEAAIAEBVTbitFieldFixedN@@@Z
?convertFromInverseFlags@TsingleIndexedComponent@@QEAAIAEBVTbitFieldFixedN@@@Z
?convertFromUnitToUnit@TanimTime@@SANNW4TtimeUnitSystem@@0@Z
?convertInto@Tangle@@QEAAXW4TangleUnitSystem@@@Z
?convertInto@Tlinear@@QEAAXW4TunitSystem@Tunit@@@Z
?convertIntoMatchUI@Tangle@@QEAAXXZ
?convertIntoMatchUI@Tlinear@@QEAAXXZ
?convertItForNormals@T4dDblMatrix@@QEAAAEAV1@XZ
?convertItForNormals@T4dFltMatrix@@QEAAAEAV1@XZ
?convertItForTangents@T4dFltMatrix@@QEAAAEAV1@XZ
?convertToBooleanValue@Tdata@@AEBA_NXZ
?convertToByteValue@Tdata@@AEBAEXZ
?convertToCharValue@Tdata@@AEBADXZ
?convertToCurrent@TangleUnit@@QEBANN@Z
?convertToCurrent@Tunit@@QEBANN@Z
?convertToDflt@TangleUnit@@QEBANN@Z
?convertToDflt@Tunit@@QEBANN@Z
?convertToDoubleValue@Tdata@@AEBANXZ
?convertToEulerAngles@Tquaternion@@QEBA?AVTrotateXYZ@@XZ
?convertToFloatValue@Tdata@@AEBAMXZ
?convertToInt16Value@Tdata@@AEBAFXZ
?convertToInt32Value@Tdata@@AEBAHXZ
?convertToInt64Value@Tdata@@AEBA_JXZ
?convertToIntPtrSzValue@Tdata@@AEBA_JXZ
?convertToMatrix@Tquaternion@@QEBAXAEAVT4dDblMatrix@@@Z
?convertToUInt32Value@Tdata@@AEBAIXZ
?convertToUIntPtrSzValue@Tdata@@AEBA_KXZ
?copy@T2FloatArray@@QEAAHAEBV1@@Z
?copy@T2FloatArray@@QEAAHAEBV1@I@Z
?copy@T2FloatArray@@QEAAHAEBV1@II@Z
?copy@T3DoubleArray@@QEAAHAEBV1@@Z
?copy@T3DoubleArray@@QEAAHAEBV1@I@Z
?copy@T3DoubleArray@@QEAAHAEBV1@II@Z
?copy@T3FloatArray@@QEAAHAEBV1@@Z
?copy@T3FloatArray@@QEAAHAEBV1@I@Z
?copy@T3FloatArray@@QEAAHAEBV1@II@Z
?copy@T3dDblPointArray@@QEAAHAEBV1@@Z
?copy@T3dDblPointArray@@QEAAHAEBV1@I@Z
?copy@T3dDblPointArray@@QEAAHAEBV1@II@Z
?copy@T3dDblPointArrayPtrArray@@QEAAHAEBV1@@Z
?copy@T3dDblPointArrayPtrArray@@QEAAHAEBV1@I@Z
?copy@T3dDblPointArrayPtrArray@@QEAAHAEBV1@II@Z
?copy@T3dFltPointArray@@QEAAHAEBV1@@Z
?copy@T3dFltPointArray@@QEAAHAEBV1@I@Z
?copy@T3dFltPointArray@@QEAAHAEBV1@II@Z
?copy@T3dFltVectorArray@@QEAAHAEBV1@@Z
?copy@T3dFltVectorArray@@QEAAHAEBV1@I@Z
?copy@T3dFltVectorArray@@QEAAHAEBV1@II@Z
?copy@T4dDblMatrixArray@@QEAAHAEBV1@@Z
?copy@T4dDblMatrixArray@@QEAAHAEBV1@I@Z
?copy@T4dDblMatrixArray@@QEAAHAEBV1@II@Z
?copy@T4dDblPointArray@@QEAAHAEBV1@@Z
?copy@T4dDblPointArray@@QEAAHAEBV1@I@Z
?copy@T4dDblPointArray@@QEAAHAEBV1@II@Z
?copy@T4dDblPointArrayPtrArray@@QEAAHAEBV1@@Z
?copy@T4dDblPointArrayPtrArray@@QEAAHAEBV1@I@Z
?copy@T4dDblPointArrayPtrArray@@QEAAHAEBV1@II@Z
?copy@T4dDblVectorArray@@QEAAHAEBV1@@Z
?copy@T4dDblVectorArray@@QEAAHAEBV1@I@Z
?copy@T4dDblVectorArray@@QEAAHAEBV1@II@Z
?copy@T4dDblVectorArrayPtrArray@@QEAAHAEBV1@@Z
?copy@T4dDblVectorArrayPtrArray@@QEAAHAEBV1@I@Z
?copy@T4dDblVectorArrayPtrArray@@QEAAHAEBV1@II@Z
?copy@T4dFltMatrixArray@@QEAAHAEBV1@@Z
?copy@T4dFltMatrixArray@@QEAAHAEBV1@I@Z
?copy@T4dFltMatrixArray@@QEAAHAEBV1@II@Z
?copy@T4dFltPointArray@@QEAAHAEBV1@@Z
?copy@T4dFltPointArray@@QEAAHAEBV1@I@Z
?copy@T4dFltPointArray@@QEAAHAEBV1@II@Z
?copy@TDarray@@QEAAXAEBV1@@Z
?copy@TTuInt32Array@@QEAAHAEBV1@@Z
?copy@TTuInt32Array@@QEAAHAEBV1@I@Z
?copy@TTuInt32Array@@QEAAHAEBV1@II@Z
?copy@TanimTimeArray@@QEAAXAEBV1@@Z
?copy@TanimTimeSortedArray@@QEAAXAEBV1@@Z
?copy@TargListPtrArray@@QEAAHAEBV1@@Z
?copy@TargListPtrArray@@QEAAHAEBV1@I@Z
?copy@TargListPtrArray@@QEAAHAEBV1@II@Z
?copy@TargTypeArray@@QEAAHAEBV1@@Z
?copy@TargTypeArray@@QEAAHAEBV1@I@Z
?copy@TargTypeArray@@QEAAHAEBV1@II@Z
?copy@TbdDataPtrArrayContainer@@QEAAHAEBV1@@Z
?copy@TbdDataPtrArrayContainer@@QEAAHAEBV1@I@Z
?copy@TbdDataPtrArrayContainer@@QEAAHAEBV1@II@Z
?copy@TbooleanArray@@QEAAHAEBV1@@Z
?copy@TbooleanArray@@QEAAHAEBV1@I@Z
?copy@TbooleanArray@@QEAAHAEBV1@II@Z
?copy@TbooleanArrayPtrArray@@QEAAHAEBV1@@Z
?copy@TbooleanArrayPtrArray@@QEAAHAEBV1@I@Z
?copy@TbooleanArrayPtrArray@@QEAAHAEBV1@II@Z
?copy@TcharArray@@QEAAHAEBV1@@Z
?copy@TcharArray@@QEAAHAEBV1@I@Z
?copy@TcharArray@@QEAAHAEBV1@II@Z
?copy@TcharPtrArray@@QEAAHAEBV1@@Z
?copy@TcharPtrArray@@QEAAHAEBV1@I@Z
?copy@TcharPtrArray@@QEAAHAEBV1@II@Z
?copy@Tcomponent@@QEAAXAEBV1@@Z
?copy@TcomponentPtrArray@@QEAAXAEBV1@@Z
?copy@Tdata2Double@@UEBAPEAVTdataLetter@@XZ
?copy@Tdata2Float@@UEBAPEAVTdataLetter@@XZ
?copy@Tdata2Int16@@UEBAPEAVTdataLetter@@XZ
?copy@Tdata2Int32@@UEBAPEAVTdataLetter@@XZ
?copy@Tdata3Double@@UEBAPEAVTdataLetter@@XZ
?copy@Tdata3Float@@UEBAPEAVTdataLetter@@XZ
?copy@Tdata3Int16@@UEBAPEAVTdataLetter@@XZ
?copy@Tdata3Int32@@UEBAPEAVTdataLetter@@XZ
?copy@Tdata4Double@@UEBAPEAVTdataLetter@@XZ
?copy@TdataArrayAttrs@@UEBAPEAVTdataLetter@@XZ
?copy@TdataBinary@@UEBAPEAVTdataLetter@@XZ
?copy@TdataCompound@@UEBAPEAVTdataLetter@@XZ
?copy@TdataDoubleArray@@UEBAPEAVTdataLetter@@XZ
?copy@TdataFloatArray@@UEBAPEAVTdataLetter@@XZ
?copy@TdataFunction@@UEBAPEAVTdataLetter@@XZ
?copy@TdataInt32Array@@UEBAPEAVTdataLetter@@XZ
?copy@TdataLetter@@UEBAPEAV1@XZ
?copy@TdataLetterCopyManager@@QEAAPEAVTdataLetter@@PEBV2@@Z
?copy@TdataMatrix@@UEBAPEAVTdataLetter@@XZ
?copy@TdataReflectance@@UEBAPEAVTdataLetter@@XZ
?copy@TdataSpectrum@@UEBAPEAVTdataLetter@@XZ
?copy@TdataUInt64Array@@UEBAPEAVTdataLetter@@XZ
?copy@TdataUnknown@@UEBAPEAVTdataLetter@@XZ
?copy@TdataVoidPtr@@UEBAPEAVTdataLetter@@XZ
?copy@TdblPointArray@@QEAAHAEBV1@@Z
?copy@TdblPointArray@@QEAAHAEBV1@I@Z
?copy@TdblPointArray@@QEAAHAEBV1@II@Z
?copy@TdelayedMsgTypeArray@@QEAAXAEBV1@@Z
?copy@TdepthBuffer@@QEAAXAEBV1@@Z
?copy@Tdirectory@@QEAA_NAEBV1@_NPEBD@Z
?copy@Tdirectory@@QEAA_NAEBVTstring@@0@Z
?copy@TdoubleArray@@QEAAHAEBV1@@Z
?copy@TdoubleArray@@QEAAHAEBV1@I@Z
?copy@TdoubleArray@@QEAAHAEBV1@II@Z
?copy@TdoubleArrayPtrArray@@QEAAHAEBV1@@Z
?copy@TdoubleArrayPtrArray@@QEAAHAEBV1@I@Z
?copy@TdoubleArrayPtrArray@@QEAAHAEBV1@II@Z
?copy@TdoubleIndexLongArray@@QEAAXAEBV1@@Z
?copy@TdoublePtrArray@@QEAAHAEBV1@@Z
?copy@TdoublePtrArray@@QEAAHAEBV1@I@Z
?copy@TdoublePtrArray@@QEAAHAEBV1@II@Z
?copy@TdoubleRangeArray@@QEAAXAEBV1@@Z
?copy@TdoubleSortedArray@@QEAAXAEBV1@@Z
?copy@TdualQuaternionArray@@QEAAHAEBV1@@Z
?copy@TdualQuaternionArray@@QEAAHAEBV1@I@Z
?copy@TdualQuaternionArray@@QEAAHAEBV1@II@Z
?copy@TfileManager@@SA_NAEBVTstring@@0@Z
?copy@TfileManager@@SA_NPEBD0@Z
?copy@TfilePathArray@@QEAAXAEBV1@@Z
?copy@TfloatArray@@QEAAHAEBV1@@Z
?copy@TfloatArray@@QEAAHAEBV1@I@Z
?copy@TfloatArray@@QEAAHAEBV1@II@Z
?copy@TfloatArrayPtrArray@@QEAAHAEBV1@@Z
?copy@TfloatArrayPtrArray@@QEAAHAEBV1@I@Z
?copy@TfloatArrayPtrArray@@QEAAHAEBV1@II@Z
?copy@TfloatArrayPtrArrayPtrArray@@QEAAHAEBV1@@Z
?copy@TfloatArrayPtrArrayPtrArray@@QEAAHAEBV1@I@Z
?copy@TfloatArrayPtrArrayPtrArray@@QEAAHAEBV1@II@Z
?copy@TfloatConstPtrArray@@QEAAHAEBV1@@Z
?copy@TfloatConstPtrArray@@QEAAHAEBV1@I@Z
?copy@TfloatConstPtrArray@@QEAAHAEBV1@II@Z
?copy@TfloatPtrArray@@QEAAHAEBV1@@Z
?copy@TfloatPtrArray@@QEAAHAEBV1@I@Z
?copy@TfloatPtrArray@@QEAAHAEBV1@II@Z
?copy@TfloatRangeArray@@QEAAXAEBV1@@Z
?copy@TfltLineArray@@QEAAHAEBV1@@Z
?copy@TfltLineArray@@QEAAHAEBV1@I@Z
?copy@TfltLineArray@@QEAAHAEBV1@II@Z
?copy@TfltPointArray@@QEAAHAEBV1@@Z
?copy@TfltPointArray@@QEAAHAEBV1@I@Z
?copy@TfltPointArray@@QEAAHAEBV1@II@Z
?copy@Tfrustum@@QEAAXAEBV1@@Z
?copy@TiffFile4@@SAHAEAV1@0@Z
?copy@TiffTagArray@@QEAAHAEBV1@@Z
?copy@TiffTagArray@@QEAAHAEBV1@I@Z
?copy@TiffTagArray@@QEAAHAEBV1@II@Z
?copy@TindexArray@@QEAAHAEBV1@@Z
?copy@TindexArray@@QEAAHAEBV1@I@Z
?copy@TindexArray@@QEAAHAEBV1@II@Z
?copy@TindexRangeArray@@QEAAXAEBV1@@Z
?copy@Tint16Array@@QEAAHAEBV1@@Z
?copy@Tint16Array@@QEAAHAEBV1@I@Z
?copy@Tint16Array@@QEAAHAEBV1@II@Z
?copy@Tint32Array@@QEAAHAEBV1@@Z
?copy@Tint32Array@@QEAAHAEBV1@I@Z
?copy@Tint32Array@@QEAAHAEBV1@II@Z
?copy@Tint32ArrayPtrArray@@QEAAHAEBV1@@Z
?copy@Tint32ArrayPtrArray@@QEAAHAEBV1@I@Z
?copy@Tint32ArrayPtrArray@@QEAAHAEBV1@II@Z
?copy@Tint32SortedArray@@QEAAXAEBV1@@Z
?copy@Tint64Array@@QEAAHAEBV1@@Z
?copy@Tint64Array@@QEAAHAEBV1@I@Z
?copy@Tint64Array@@QEAAHAEBV1@II@Z
?copy@TlineArray@@QEAAHAEBV1@@Z
?copy@TlineArray@@QEAAHAEBV1@I@Z
?copy@TlineArray@@QEAAHAEBV1@II@Z
?copy@TmtThreadPtrArray@@QEAAHAEBV1@@Z
?copy@TmtThreadPtrArray@@QEAAHAEBV1@I@Z
?copy@TmtThreadPtrArray@@QEAAHAEBV1@II@Z
?copy@TnameObjectPtrArray@@QEAAHAEBV1@@Z
?copy@TnameObjectPtrArray@@QEAAHAEBV1@I@Z
?copy@TnameObjectPtrArray@@QEAAHAEBV1@II@Z
?copy@TnamespacePtrArray@@QEAAHAEBV1@@Z
?copy@TnamespacePtrArray@@QEAAHAEBV1@I@Z
?copy@TnamespacePtrArray@@QEAAHAEBV1@II@Z
?copy@TobjArrayTbasketPtr@@QEAAXAEBV1@@Z
?copy@TobjectGroupIdArray@@QEAAHAEBV1@@Z
?copy@TobjectGroupIdArray@@QEAAHAEBV1@I@Z
?copy@TobjectGroupIdArray@@QEAAHAEBV1@II@Z
?copy@TobjectGroupPtrArray@@QEAAXAEBV1@@Z
?copy@TpixelMapPtrArray@@QEAAHAEBV1@@Z
?copy@TpixelMapPtrArray@@QEAAHAEBV1@I@Z
?copy@TpixelMapPtrArray@@QEAAHAEBV1@II@Z
?copy@TpointArray@@QEAAHAEBV1@@Z
?copy@TpointArray@@QEAAHAEBV1@I@Z
?copy@TpointArray@@QEAAHAEBV1@II@Z
?copy@TpolyBdVertexFaceBase@@QEAAXAEBV1@@Z
?copy@TpolyMap@@AEAAXAEBV1@@Z
?copy@TpolyMapArray@@QEAAXAEBV1@@Z
?copy@TpolyMapArrayShared@@QEAAXAEBV1@@Z
?copy@TpolyTangentSet@@AEAAXAEBV1@@Z
?copy@TpolyTangentSetArray@@QEAAXAEBV1@@Z
?copy@TpolyTangentSetArrayShared@@QEAAXAEBV1@@Z
?copy@TpoolAllocatorPtrArray@@QEAAHAEBV1@@Z
?copy@TpoolAllocatorPtrArray@@QEAAHAEBV1@I@Z
?copy@TpoolAllocatorPtrArray@@QEAAHAEBV1@II@Z
?copy@TportColorArray@@QEAAHAEBV1@@Z
?copy@TportColorArray@@QEAAHAEBV1@I@Z
?copy@TportColorArray@@QEAAHAEBV1@II@Z
?copy@TpreferenceItemPtrArray@@QEAAXAEBV1@@Z
?copy@TprofilerCategoryAddedMsg@@UEAAXAEBVTserverMsg@@@Z
?copy@TprofilerCategoryRemovedMsg@@UEAAXAEBVTserverMsg@@@Z
?copy@TprofilerCategoryUpdatedMsg@@UEAAXAEBVTserverMsg@@@Z
?copy@TquaternionArray@@QEAAXAEBV1@@Z
?copy@TquaternionArrayPtrArray@@QEAAHAEBV1@@Z
?copy@TquaternionArrayPtrArray@@QEAAHAEBV1@I@Z
?copy@TquaternionArrayPtrArray@@QEAAHAEBV1@II@Z
?copy@TrectArray@@QEAAHAEBV1@@Z
?copy@TrectArray@@QEAAHAEBV1@I@Z
?copy@TrectArray@@QEAAHAEBV1@II@Z
?copy@TrotateXYZArray@@QEAAHAEBV1@@Z
?copy@TrotateXYZArray@@QEAAHAEBV1@I@Z
?copy@TrotateXYZArray@@QEAAHAEBV1@II@Z
?copy@TscaleArray@@QEAAHAEBV1@@Z
?copy@TscaleArray@@QEAAHAEBV1@I@Z
?copy@TscaleArray@@QEAAHAEBV1@II@Z
?copy@TselectedSrfDirectionsArray@@QEAAHAEBV1@@Z
?copy@TselectedSrfDirectionsArray@@QEAAHAEBV1@I@Z
?copy@TselectedSrfDirectionsArray@@QEAAHAEBV1@II@Z
?copy@TserverMsg@@UEAAXAEBV1@@Z
?copy@TsharedPixelMapArray@@QEAAXAEBV1@@Z
?copy@TsortedBdDataPtrArray@@QEAAXAEBV1@@Z
?copy@TsortedObjectGroupIdArray@@QEAAXAEBV1@@Z
?copy@TsortedStringArray@@QEAAXAEBV1@@Z
?copy@Tstring@@QEAAHAEBV1@@Z
?copy@Tstring@@QEAAHAEBVTstringId@@@Z
?copy@Tstring@@QEAAHPEBDI@Z
?copy@Tstring@@QEAAXPEBD@Z
?copy@TstringArray@@QEAAXAEBV1@@Z
?copy@TstringPtrArray@@QEAAHAEBV1@@Z
?copy@TstringPtrArray@@QEAAHAEBV1@I@Z
?copy@TstringPtrArray@@QEAAHAEBV1@II@Z
?copy@TsurfSelectedBoundaryTypeArray@@QEAAHAEBV1@@Z
?copy@TsurfSelectedBoundaryTypeArray@@QEAAHAEBV1@I@Z
?copy@TsurfSelectedBoundaryTypeArray@@QEAAHAEBV1@II@Z
?copy@TsurfaceDirectionArray@@QEAAHAEBV1@@Z
?copy@TsurfaceDirectionArray@@QEAAHAEBV1@I@Z
?copy@TsurfaceDirectionArray@@QEAAHAEBV1@II@Z
?copy@TsurfaceIndexArray@@QEAAXAEBV1@@Z
?copy@TthreadData@@QEAAXAEBV1@@Z
?copy@TtimeRangeArray@@QEAAXAEBV1@@Z
?copy@TtimeValueArray@@QEAAHAEBV1@@Z
?copy@TtimeValueArray@@QEAAHAEBV1@I@Z
?copy@TtimeValueArray@@QEAAHAEBV1@II@Z
?copy@TtimeValueArrayPtrArray@@QEAAHAEBV1@@Z
?copy@TtimeValueArrayPtrArray@@QEAAHAEBV1@I@Z
?copy@TtimeValueArrayPtrArray@@QEAAHAEBV1@II@Z
?copy@TtimeValuePtrArray@@QEAAHAEBV1@@Z
?copy@TtimeValuePtrArray@@QEAAHAEBV1@I@Z
?copy@TtimeValuePtrArray@@QEAAHAEBV1@II@Z
?copy@TtriggerPtrArray@@QEAAHAEBV1@@Z
?copy@TtriggerPtrArray@@QEAAHAEBV1@I@Z
?copy@TtriggerPtrArray@@QEAAHAEBV1@II@Z
?copy@TtypeidArray@@QEAAXAEBV1@@Z
?copy@TuInt16Array@@QEAAHAEBV1@@Z
?copy@TuInt16Array@@QEAAHAEBV1@I@Z
?copy@TuInt16Array@@QEAAHAEBV1@II@Z
?copy@TuInt16SortedArray@@QEAAXAEBV1@@Z
?copy@TuInt32Array@@QEAAHAEBV1@@Z
?copy@TuInt32Array@@QEAAHAEBV1@I@Z
?copy@TuInt32Array@@QEAAHAEBV1@II@Z
?copy@TuInt32ArrayPtrArray@@QEAAHAEBV1@@Z
?copy@TuInt32ArrayPtrArray@@QEAAHAEBV1@I@Z
?copy@TuInt32ArrayPtrArray@@QEAAHAEBV1@II@Z
?copy@TuInt32SortedArray@@QEAAXAEBV1@@Z
?copy@TuInt64Array@@QEAAHAEBV1@@Z
?copy@TuInt64Array@@QEAAHAEBV1@I@Z
?copy@TuInt64Array@@QEAAHAEBV1@II@Z
?copy@TuInt64SortedArray@@QEAAXAEBV1@@Z
?copy@TuInt8Array@@QEAAHAEBV1@@Z
?copy@TuInt8Array@@QEAAHAEBV1@I@Z
?copy@TuInt8Array@@QEAAHAEBV1@II@Z
?copy@TuInt8ArrayPtrArray@@QEAAHAEBV1@@Z
?copy@TuInt8ArrayPtrArray@@QEAAHAEBV1@I@Z
?copy@TuInt8ArrayPtrArray@@QEAAHAEBV1@II@Z
?copy@Tuuid@@QEAAXAEBV1@@Z
?copy@TuvPointArray@@QEAAHAEBV1@@Z
?copy@TuvPointArray@@QEAAHAEBV1@I@Z
?copy@TuvPointArray@@QEAAHAEBV1@II@Z
?copy@TvaluesArrayPtrArray@@QEAAHAEBV1@@Z
?copy@TvaluesArrayPtrArray@@QEAAHAEBV1@I@Z
?copy@TvaluesArrayPtrArray@@QEAAHAEBV1@II@Z
?copy@TviewRegionArray@@QEAAHAEBV1@@Z
?copy@TviewRegionArray@@QEAAHAEBV1@I@Z
?copy@TviewRegionArray@@QEAAHAEBV1@II@Z
?copy@TvoidPtrArray@@QEAAHAEBV1@@Z
?copy@TvoidPtrArray@@QEAAHAEBV1@I@Z
?copy@TvoidPtrArray@@QEAAHAEBV1@II@Z
?copy@TvoidPtrSortedArray@@QEAAXAEBV1@@Z
?copy@TxformMatrixArray@@QEAAXAEBV1@@Z
?copy@TxformMatrixPtrArray@@QEAAHAEBV1@@Z
?copy@TxformMatrixPtrArray@@QEAAHAEBV1@I@Z
?copy@TxformMatrixPtrArray@@QEAAHAEBV1@II@Z
?copyChar@Tstring@@QEAAHPEBD@Z
?copyChar@Tstring@@QEAAHPEBDI@Z
?copyData@Tcomponent@@MEAAXAEBV1@@Z
?copyData@TdataCompound@@QEAAXIPEAVTdata@@@Z
?copyData@TdoubleIndexedComponent@@MEAAXAEBVTcomponent@@@Z
?copyData@TgroupedObject@@IEAAXAEBV1@@Z
?copyData@TlongDoubleIndexedComponent@@MEAAXAEBVTcomponent@@@Z
?copyData@TpolyMap@@EEAAXPEBVTpolyBdVertexFaceBase@@@Z
?copyData@TpolyMap@@EEAAXPEBVTpolyBdVertexFaceBase@@I@Z
?copyData@TsingleIndexedComponent@@MEAAXAEBVTcomponent@@@Z
?copyData@TuInt64IndexedComponent@@MEAAXAEBVTcomponent@@@Z
?copyElements@Tarray@@IEAAHIPEAXI@Z
?copyIndex@TpolyBdVertexFaceBase@@QEAAXPEBV1@@Z
?copyIndex@TpolyBdVertexFaceBase@@QEAAXPEBV1@I@Z
?copyPrefs@TpreferencesDirectory@@QEAAXXZ
?copyPresets@TpresetsDirectory@@IEAAXXZ
?copyProjects@TprojectsDirectory@@IEAAXXZ
?copyScripts@TuserScriptDirectory@@IEAAXXZ
?copySetContents@TpolyMapArrayShared@@QEAA_NII@Z
?copySetContents@TpolyTangentSetArrayShared@@QEAA_NII@Z
?copySubtree@TthreadSubtree@@QEAAHAEAV1@@Z
?copyTo@TfileStream@@QEAAHAEAV1@@Z
?copyToBuffer@TiffFile4@@EEAAHPEBXI@Z
?copyToBuffer@TiffFile8@@EEAAHPEBXI@Z
?copyToolClips@TtoolClipsDirectory@@IEAAXXZ
?copyUV@TpolyMap@@AEAAXPEBV1@@Z
?copyUVId@TpolyMap@@AEAAXPEBV1@H@Z
?copyZoom@TdepthBuffer@@QEAAHPEAV1@AEBVTportRect@@@Z
?corner@TfltFrustum@@QEBAAEBVT4dFltPoint@@I@Z
?corner@Tfrustum@@QEBAAEBVT4dDblPoint@@I@Z
?count@?$_Tree@V?$_Tmap_traits@V?$basic_string@DU?$char_traits@D@std@@V?$allocator@D@2@@std@@PEAVTresourceElement@@U?$less@V?$basic_string@DU?$char_traits@D@std@@V?$allocator@D@2@@std@@@2@V?$allocator@U?$pair@$$CBV?$basic_string@DU?$char_traits@D@std@@V?$allocator@D@2@@std@@PEAVTresourceElement@@@std@@@2@$0A@@std@@@std@@QEBA_KAEBV?$basic_string@DU?$char_traits@D@std@@V?$allocator@D@2@@2@@Z
?count@?$_Tree@V?$_Tmap_traits@V?$basic_string@DU?$char_traits@D@std@@V?$allocator@D@2@@std@@PEAVTresourceGroup@@U?$less@V?$basic_string@DU?$char_traits@D@std@@V?$allocator@D@2@@std@@@2@V?$allocator@U?$pair@$$CBV?$basic_string@DU?$char_traits@D@std@@V?$allocator@D@2@@std@@PEAVTresourceGroup@@@std@@@2@$0A@@std@@@std@@QEBA_KAEBV?$basic_string@DU?$char_traits@D@std@@V?$allocator@D@2@@2@@Z
?count@Tcounter@@QEBAHXZ
?count@TdataArrayAttrs@@QEBAIXZ
?count@TdbRequireCount@@QEAAAEAIXZ
?count@TpoolManager@@QEAAHXZ
?countTriangles@TsimpleTess@@UEAAIXZ
?cpuId@TprofilerThreadInfo@@QEAAHXZ
?cpuTime@TprofilerThreadInfo@@QEAA?AVTprofilerMicroTime@@XZ
?crashCount@TCERMetricsRecorder@@QEBAIXZ
?crbegin@?$_Tree@V?$_Tmap_traits@V?$basic_string@DU?$char_traits@D@std@@V?$allocator@D@2@@std@@PEAVTresourceElement@@U?$less@V?$basic_string@DU?$char_traits@D@std@@V?$allocator@D@2@@std@@@2@V?$allocator@U?$pair@$$CBV?$basic_string@DU?$char_traits@D@std@@V?$allocator@D@2@@std@@PEAVTresourceElement@@@std@@@2@$0A@@std@@@std@@QEBA?AV?$reverse_iterator@V?$_Tree_const_iterator@V?$_Tree_val@U?$_Tree_simple_types@U?$pair@$$CBV?$basic_string@DU?$char_traits@D@std@@V?$allocator@D@2@@std@@PEAVTresourceElement@@@std@@@std@@@std@@@std@@@2@XZ
?crbegin@?$_Tree@V?$_Tmap_traits@V?$basic_string@DU?$char_traits@D@std@@V?$allocator@D@2@@std@@PEAVTresourceGroup@@U?$less@V?$basic_string@DU?$char_traits@D@std@@V?$allocator@D@2@@std@@@2@V?$allocator@U?$pair@$$CBV?$basic_string@DU?$char_traits@D@std@@V?$allocator@D@2@@std@@PEAVTresourceGroup@@@std@@@2@$0A@@std@@@std@@QEBA?AV?$reverse_iterator@V?$_Tree_const_iterator@V?$_Tree_val@U?$_Tree_simple_types@U?$pair@$$CBV?$basic_string@DU?$char_traits@D@std@@V?$allocator@D@2@@std@@PEAVTresourceGroup@@@std@@@std@@@std@@@std@@@2@XZ
?create@Tarray@@UEAAHII@Z
?create@TfileRequestor@@UEAAHXZ
?create@TobjArray@@UEAAXII@Z
?create@TobjectStats@@QEAAXPEAXI@Z
?create@TpoolManager@@QEAA_NHHJ@Z
?create@TshapeAlgebra@@QEAAXAEBV1@@Z
?create@TshapeAlgebra@@QEAAXAEBVTrect@@@Z
?create@TshapeAlgebra@@QEAAXFFFF@Z
?create@TvoxelGrid@@UEAAXIIINNN@Z
?createAndInitialise@Tarray@@MEAAHPEAXII@Z
?createAndSet@T2FloatArray@@QEAAHAEBVT2Float@@II@Z
?createAndSet@T3DoubleArray@@QEAAHAEBVT3Double@@II@Z
?createAndSet@T3FloatArray@@QEAAHAEBVT3Float@@II@Z
?createAndSet@T3dDblPointArray@@QEAAHAEBVT3dDblPoint@@II@Z
?createAndSet@T3dDblPointArrayPtrArray@@QEAAHAEBQEAVT3dDblPointArray@@II@Z
?createAndSet@T3dFltPointArray@@QEAAHAEBVT3dFltPoint@@II@Z
?createAndSet@T3dFltVectorArray@@QEAAHAEBVT3dFltVector@@II@Z
?createAndSet@T4dDblMatrixArray@@QEAAHAEBVT4dDblMatrix@@II@Z
?createAndSet@T4dDblPointArray@@QEAAHAEBVT4dDblPoint@@II@Z
?createAndSet@T4dDblPointArrayPtrArray@@QEAAHAEBQEAVT4dDblPointArray@@II@Z
?createAndSet@T4dDblVectorArray@@QEAAHAEBVT4dDblVector@@II@Z
?createAndSet@T4dDblVectorArrayPtrArray@@QEAAHAEBQEAVT4dDblVectorArray@@II@Z
?createAndSet@T4dFltMatrixArray@@QEAAHAEBVT4dFltMatrix@@II@Z
?createAndSet@T4dFltPointArray@@QEAAHAEBVT4dFltPoint@@II@Z
?createAndSet@TTuInt32Array@@QEAAHAEBIII@Z
?createAndSet@TargListPtrArray@@QEAAHAEBQEAVTargList@@II@Z
?createAndSet@TargTypeArray@@QEAAHAEBVTargType@@II@Z
?createAndSet@TbdDataPtrArrayContainer@@QEAAHAEBQEAVTbdData@@II@Z
?createAndSet@TbooleanArray@@QEAAHAEB_NII@Z
?createAndSet@TbooleanArrayPtrArray@@QEAAHAEBQEAVTbooleanArray@@II@Z
?createAndSet@TcharArray@@QEAAHAEBDII@Z
?createAndSet@TcharPtrArray@@QEAAHAEBQEADII@Z
?createAndSet@TdblPointArray@@QEAAHAEBVTdblPoint@@II@Z
?createAndSet@TdoubleArray@@QEAAHAEBNII@Z
?createAndSet@TdoubleArrayPtrArray@@QEAAHAEBQEAVTdoubleArray@@II@Z
?createAndSet@TdoublePtrArray@@QEAAHAEBQEANII@Z
?createAndSet@TdualQuaternionArray@@QEAAHAEBVTdualQuaternion@@II@Z
?createAndSet@TfloatArray@@QEAAHAEBMII@Z
?createAndSet@TfloatArrayPtrArray@@QEAAHAEBQEAVTfloatArray@@II@Z
?createAndSet@TfloatArrayPtrArrayPtrArray@@QEAAHAEBQEAVTfloatArrayPtrArray@@II@Z
?createAndSet@TfloatConstPtrArray@@QEAAHAEBQEBMII@Z
?createAndSet@TfloatPtrArray@@QEAAHAEBQEAMII@Z
?createAndSet@TfltLineArray@@QEAAHAEBVTfltLine@@II@Z
?createAndSet@TfltPointArray@@QEAAHAEBVTfltPoint@@II@Z
?createAndSet@TiffTagArray@@QEAAHAEBVTiffTag@@II@Z
?createAndSet@TindexArray@@QEAAHAEBIII@Z
?createAndSet@Tint16Array@@QEAAHAEBFII@Z
?createAndSet@Tint32Array@@QEAAHAEBHII@Z
?createAndSet@Tint32ArrayPtrArray@@QEAAHAEBQEAVTint32Array@@II@Z
?createAndSet@Tint64Array@@QEAAHAEB_JII@Z
?createAndSet@TlineArray@@QEAAHAEBVTline@@II@Z
?createAndSet@TmtThreadPtrArray@@QEAAHAEBQEAVTmtThread@@II@Z
?createAndSet@TnameObjectPtrArray@@QEAAHAEBQEAVTnameObject@@II@Z
?createAndSet@TnamespacePtrArray@@QEAAHAEBQEAVTnamespace@@II@Z
?createAndSet@TobjectGroupIdArray@@QEAAHAEBIII@Z
?createAndSet@TpixelMapPtrArray@@QEAAHAEBQEAVTpixelMap@@II@Z
?createAndSet@TpointArray@@QEAAHAEBVTpoint@@II@Z
?createAndSet@TpoolAllocatorPtrArray@@QEAAHAEBQEAVTpoolAllocator@@II@Z
?createAndSet@TportColorArray@@QEAAHAEBVTportColor@@II@Z
?createAndSet@TquaternionArrayPtrArray@@QEAAHAEBQEAVTquaternionArray@@II@Z
?createAndSet@TrectArray@@QEAAHAEBVTrect@@II@Z
?createAndSet@TrotateXYZArray@@QEAAHAEBVTrotateXYZ@@II@Z
?createAndSet@TscaleArray@@QEAAHAEBVTscale@@II@Z
?createAndSet@TselectedSrfDirectionsArray@@QEAAHAEBW4TselectedSrfDirections@@II@Z
?createAndSet@TstringPtrArray@@QEAAHAEBQEAVTstring@@II@Z
?createAndSet@TsurfSelectedBoundaryTypeArray@@QEAAHAEBW4TsurfSelectedBoundaryType@@II@Z
?createAndSet@TsurfaceDirectionArray@@QEAAHAEBW4TsurfaceDirection@@II@Z
?createAndSet@TtimeValueArray@@QEAAHAEBVTtimeValue@@II@Z
?createAndSet@TtimeValueArrayPtrArray@@QEAAHAEBQEAVTtimeValueArray@@II@Z
?createAndSet@TtimeValuePtrArray@@QEAAHAEBQEAPEAVTtimeValue@@II@Z
?createAndSet@TtriggerPtrArray@@QEAAHAEBQEAVTtrigger@@II@Z
?createAndSet@TuInt16Array@@QEAAHAEBGII@Z
?createAndSet@TuInt32Array@@QEAAHAEBIII@Z
?createAndSet@TuInt32ArrayPtrArray@@QEAAHAEBQEAVTuInt32Array@@II@Z
?createAndSet@TuInt64Array@@QEAAHAEB_KII@Z
?createAndSet@TuInt8Array@@QEAAHAEBEII@Z
?createAndSet@TuInt8ArrayPtrArray@@QEAAHAEBQEAVTuInt8Array@@II@Z
?createAndSet@TuvPointArray@@QEAAHAEBVTuvPoint@@II@Z
?createAndSet@TvaluesArrayPtrArray@@QEAAHAEBQEAVTdoubleArray@@II@Z
?createAndSet@TviewRegionArray@@QEAAHAEBVTviewRegion@@II@Z
?createAndSet@TvoidPtrArray@@QEAAHAEBQEAXII@Z
?createAndSet@TxformMatrixPtrArray@@QEAAHAEBQEAVTxformMatrix@@II@Z
?createCount@TobjectStats@@QEBAII@Z
?createDataLetter@TmetaLetter@@QEAAPEAVTdataLetter@@XZ
?createIndexArray@TpolyBdVertexFaceBase@@QEAAXI@Z
?createNamespace@TnamespaceManager@@AEAAPEAVTnamespace@@AEBVTnameString@@@Z
?createNewEmpty@TfileManager@@SA_NAEBVTstring@@@Z
?createNewEmpty@TfileManager@@SA_NPEBD@Z
?createTempSubDirectory@TtempDirectoryMgr@@QEAAHAEBVTstring@@AEAV2@@Z
?createVersionNumberStrings@TbatchGlobals@@SAXXZ
?created@TvoxelGrid@@QEBA_NXZ
?creationTime@TfileSystemEntity@@QEBA?AVTtime@@XZ
?creator@TfileStream@@QEBAIXZ
?crend@?$_Tree@V?$_Tmap_traits@V?$basic_string@DU?$char_traits@D@std@@V?$allocator@D@2@@std@@PEAVTresourceElement@@U?$less@V?$basic_string@DU?$char_traits@D@std@@V?$allocator@D@2@@std@@@2@V?$allocator@U?$pair@$$CBV?$basic_string@DU?$char_traits@D@std@@V?$allocator@D@2@@std@@PEAVTresourceElement@@@std@@@2@$0A@@std@@@std@@QEBA?AV?$reverse_iterator@V?$_Tree_const_iterator@V?$_Tree_val@U?$_Tree_simple_types@U?$pair@$$CBV?$basic_string@DU?$char_traits@D@std@@V?$allocator@D@2@@std@@PEAVTresourceElement@@@std@@@std@@@std@@@std@@@2@XZ
?crend@?$_Tree@V?$_Tmap_traits@V?$basic_string@DU?$char_traits@D@std@@V?$allocator@D@2@@std@@PEAVTresourceGroup@@U?$less@V?$basic_string@DU?$char_traits@D@std@@V?$allocator@D@2@@std@@@2@V?$allocator@U?$pair@$$CBV?$basic_string@DU?$char_traits@D@std@@V?$allocator@D@2@@std@@PEAVTresourceGroup@@@std@@@2@$0A@@std@@@std@@QEBA?AV?$reverse_iterator@V?$_Tree_const_iterator@V?$_Tree_val@U?$_Tree_simple_types@U?$pair@$$CBV?$basic_string@DU?$char_traits@D@std@@V?$allocator@D@2@@std@@PEAVTresourceGroup@@@std@@@std@@@std@@@std@@@2@XZ
?cross@T2dFltVector@@QEBAMAEBV1@@Z
?cross@T3dDblPoint@@QEAA?AV1@AEBV1@@Z
?cross@T3dFltVector@@QEBA?AV1@AEBV1@@Z
?cross@T4dDblVector@@QEBA?AV1@AEBV1@@Z
?crossProduct@T2dFltVector@@QEBAMAEBV1@@Z
?crossProduct@T3dFltVector@@QEBA?AV1@AEBV1@@Z
?crossProduct@T4dDblVector@@QEBA?AV1@AEBV1@@Z
?cumcount@TnestedTimers@@0PAIA
?cumtime@TnestedTimers@@0PANA
?curRefIOMode@TglobalTranslatorBase@@SA?AW4TrefIOMode@1@XZ
?curVoxelEndRayParam@TspatialGridWalker@@QEAAMXZ
?curVoxelStartRayParam@TspatialGridWalker@@QEAAMXZ
?current@Tcounter@@AEAAAEAVTcounterContext@@XZ
?current@TcounterContext@@AEAAAEAV1@XZ
?current@Ttime@@SA?AV1@XZ
?currentArray@TbitFieldFixedN@@QEBAPEBXXZ
?currentMap@TpolyMapArrayShared@@QEBAPEAVTpolyMap@@XZ
?currentMapName@TpolyMapArrayShared@@QEBA_NAEAVTstring@@@Z
?currentMapSetId@TpolyMapArrayShared@@QEBAIH@Z
?currentNamespace@TnamespaceManager@@QEBAPEAVTnamespace@@XZ
?currentNestingLevel@TnestedTimers@@0HA
?currentPrefVersion@TglobalPrefMgr@@SAMXZ
?currentSceneFileName@TglobalTranslatorBase@@SA?AVTstring@@XZ
?currentSceneLocation@TglobalTranslatorBase@@SA?AVTstring@@XZ
?currentSessionLength@TCERMetricsRecorder@@QEBAIXZ
?currentThreadID@TmtThread@@SAKXZ
?currentTime@TresourceQuery@@CA?AUtimeval@@XZ
?currentUnit@TangleUnit@@QEBA?AW4TangleUnitSystem@@XZ
?currentUnit@TtimeUnit@@QEBA?AW4TtimeUnitSystem@@XZ
?currentUnit@Tunit@@QEBA?AW4TunitSystem@1@XZ
?currentValue@Tangle@@QEBANXZ
?currentValue@Tlinear@@QEBANXZ
?currentlyReadingFileVersion@TglobalTranslatorBase@@SAHXZ
?data@T2FloatArray@@QEAAPEAVT2Float@@XZ
?data@T2FloatArray@@QEBAPEBVT2Float@@XZ
?data@T3DoubleArray@@QEAAPEAVT3Double@@XZ
?data@T3DoubleArray@@QEBAPEBVT3Double@@XZ
?data@T3FloatArray@@QEAAPEAVT3Float@@XZ
?data@T3FloatArray@@QEBAPEBVT3Float@@XZ
?data@T3dDblPointArray@@QEAAPEAVT3dDblPoint@@XZ
?data@T3dDblPointArray@@QEBAPEBVT3dDblPoint@@XZ
?data@T3dDblPointArrayPtrArray@@QEAAPEAPEAVT3dDblPointArray@@XZ
?data@T3dDblPointArrayPtrArray@@QEBAPEBQEAVT3dDblPointArray@@XZ
?data@T3dFltPointArray@@QEAAPEAVT3dFltPoint@@XZ
?data@T3dFltPointArray@@QEBAPEBVT3dFltPoint@@XZ
?data@T3dFltVectorArray@@QEAAPEAVT3dFltVector@@XZ
?data@T3dFltVectorArray@@QEBAPEBVT3dFltVector@@XZ
?data@T4dDblMatrixArray@@QEAAPEAVT4dDblMatrix@@XZ
?data@T4dDblMatrixArray@@QEBAPEBVT4dDblMatrix@@XZ
?data@T4dDblPointArray@@QEAAPEAVT4dDblPoint@@XZ
?data@T4dDblPointArray@@QEBAPEBVT4dDblPoint@@XZ
?data@T4dDblPointArrayPtrArray@@QEAAPEAPEAVT4dDblPointArray@@XZ
?data@T4dDblPointArrayPtrArray@@QEBAPEBQEAVT4dDblPointArray@@XZ
?data@T4dDblVectorArray@@QEAAPEAVT4dDblVector@@XZ
?data@T4dDblVectorArray@@QEBAPEBVT4dDblVector@@XZ
?data@T4dDblVectorArrayPtrArray@@QEAAPEAPEAVT4dDblVectorArray@@XZ
?data@T4dDblVectorArrayPtrArray@@QEBAPEBQEAVT4dDblVectorArray@@XZ
?data@T4dFltMatrixArray@@QEAAPEAVT4dFltMatrix@@XZ
?data@T4dFltMatrixArray@@QEBAPEBVT4dFltMatrix@@XZ
?data@T4dFltPointArray@@QEAAPEAVT4dFltPoint@@XZ
?data@T4dFltPointArray@@QEBAPEBVT4dFltPoint@@XZ
?data@TDarray@@QEAAPEAVTdata@@XZ
?data@TDarray@@QEBAPEBVTdata@@XZ
?data@TTuInt32Array@@QEAAPEAIXZ
?data@TTuInt32Array@@QEBAPEBIXZ
?data@TanimTimeArray@@QEAAPEAVTanimTime@@XZ
?data@TanimTimeArray@@QEBAPEBVTanimTime@@XZ
?data@TbdDataPtrArrayContainer@@QEAAPEAPEAVTbdData@@XZ
?data@TbdDataPtrArrayContainer@@QEBAPEBQEAVTbdData@@XZ
?data@TbooleanArray@@QEAAPEA_NXZ
?data@TbooleanArray@@QEBAPEB_NXZ
?data@TbooleanArrayPtrArray@@QEAAPEAPEAVTbooleanArray@@XZ
?data@TbooleanArrayPtrArray@@QEBAPEBQEAVTbooleanArray@@XZ
?data@TcharArray@@QEAAPEADXZ
?data@TcharArray@@QEBAPEBDXZ
?data@TcharPtrArray@@QEAAPEAPEADXZ
?data@TcharPtrArray@@QEBAPEBQEADXZ
?data@TcomponentPtrArray@@QEAAPEAPEAVTcomponent@@XZ
?data@TcomponentPtrArray@@QEBAPEBQEAVTcomponent@@XZ
?data@TdataArrayAttrs@@QEBAPEAVTarray@@AEBVTstring@@@Z
?data@TdataArrayAttrs@@QEBAPEAVTarray@@I@Z
?data@TdblPointArray@@QEAAPEAVTdblPoint@@XZ
?data@TdblPointArray@@QEBAPEBVTdblPoint@@XZ
?data@TdelayedMsgTypeArray@@QEAAPEAVTdelayedMsgType@@XZ
?data@TdelayedMsgTypeArray@@QEBAPEBVTdelayedMsgType@@XZ
?data@TdepthBuffer@@QEAAPEAMXZ
?data@TdoubleArray@@QEAAPEANXZ
?data@TdoubleArray@@QEBAPEBNXZ
?data@TdoubleArrayPtrArray@@QEAAPEAPEAVTdoubleArray@@XZ
?data@TdoubleArrayPtrArray@@QEBAPEBQEAVTdoubleArray@@XZ
?data@TdoubleIndexLongArray@@QEAAPEAVTdoubleIndexLong@@XZ
?data@TdoubleIndexLongArray@@QEBAPEBVTdoubleIndexLong@@XZ
?data@TdoublePtrArray@@QEAAPEAPEANXZ
?data@TdoublePtrArray@@QEBAPEBQEANXZ
?data@TdoubleRangeArray@@QEAAPEAVTdoubleRange@@XZ
?data@TdoubleRangeArray@@QEBAPEBVTdoubleRange@@XZ
?data@TdualQuaternionArray@@QEAAPEAVTdualQuaternion@@XZ
?data@TdualQuaternionArray@@QEBAPEBVTdualQuaternion@@XZ
?data@TfilePathArray@@QEAAPEAVTfilePath@@XZ
?data@TfilePathArray@@QEBAPEBVTfilePath@@XZ
?data@TfloatArray@@QEAAPEAMXZ
?data@TfloatArray@@QEBAPEBMXZ
?data@TfloatArrayPtrArray@@QEAAPEAPEAVTfloatArray@@XZ
?data@TfloatArrayPtrArray@@QEBAPEBQEAVTfloatArray@@XZ
?data@TfloatArrayPtrArrayPtrArray@@QEAAPEAPEAVTfloatArrayPtrArray@@XZ
?data@TfloatArrayPtrArrayPtrArray@@QEBAPEBQEAVTfloatArrayPtrArray@@XZ
?data@TfloatConstPtrArray@@QEAAPEAPEBMXZ
?data@TfloatConstPtrArray@@QEBAPEBQEBMXZ
?data@TfloatPtrArray@@QEAAPEAPEAMXZ
?data@TfloatPtrArray@@QEBAPEBQEAMXZ
?data@TfloatRangeArray@@QEAAPEAVTfloatRange@@XZ
?data@TfloatRangeArray@@QEBAPEBVTfloatRange@@XZ
?data@TfltLineArray@@QEAAPEAVTfltLine@@XZ
?data@TfltLineArray@@QEBAPEBVTfltLine@@XZ
?data@TfltPointArray@@QEAAPEAVTfltPoint@@XZ
?data@TfltPointArray@@QEBAPEBVTfltPoint@@XZ
?data@TiffTagArray@@QEAAPEAVTiffTag@@XZ
?data@TiffTagArray@@QEBAPEBVTiffTag@@XZ
?data@TindexArray@@QEAAPEAIXZ
?data@TindexArray@@QEBAPEBIXZ
?data@TindexDictionaryNode@@QEAAAEAIXZ
?data@TindexRangeArray@@QEAAPEAVTindexRange@@XZ
?data@TindexRangeArray@@QEBAPEBVTindexRange@@XZ
?data@Tint16Array@@QEAAPEAFXZ
?data@Tint16Array@@QEBAPEBFXZ
?data@Tint32Array@@QEAAPEAHXZ
?data@Tint32Array@@QEBAPEBHXZ
?data@Tint32ArrayPtrArray@@QEAAPEAPEAVTint32Array@@XZ
?data@Tint32ArrayPtrArray@@QEBAPEBQEAVTint32Array@@XZ
?data@Tint64Array@@QEAAPEA_JXZ
?data@Tint64Array@@QEBAPEB_JXZ
?data@TlineArray@@QEAAPEAVTline@@XZ
?data@TlineArray@@QEBAPEBVTline@@XZ
?data@TmtThreadPtrArray@@QEAAPEAPEAVTmtThread@@XZ
?data@TmtThreadPtrArray@@QEBAPEBQEAVTmtThread@@XZ
?data@TnameObjectPtrArray@@QEAAPEAPEAVTnameObject@@XZ
?data@TnameObjectPtrArray@@QEBAPEBQEAVTnameObject@@XZ
?data@TnamespacePtrArray@@QEAAPEAPEAVTnamespace@@XZ
?data@TnamespacePtrArray@@QEBAPEBQEAVTnamespace@@XZ
?data@TobjArrayTbasketPtr@@QEAAPEAPEAVTbasket@@XZ
?data@TobjArrayTbasketPtr@@QEBAPEBQEAVTbasket@@XZ
?data@TobjectGroupIdArray@@QEAAPEAIXZ
?data@TobjectGroupIdArray@@QEBAPEBIXZ
?data@TobjectGroupPtrArray@@QEAAPEAPEAVTobjectGroup@@XZ
?data@TobjectGroupPtrArray@@QEBAPEBQEAVTobjectGroup@@XZ
?data@TpixelMapPtrArray@@QEAAPEAPEAVTpixelMap@@XZ
?data@TpixelMapPtrArray@@QEBAPEBQEAVTpixelMap@@XZ
?data@TpointArray@@QEAAPEAVTpoint@@XZ
?data@TpointArray@@QEBAPEBVTpoint@@XZ
?data@TpolyMap@@EEAAPEAXI@Z
?data@TpolyMapArray@@QEAAPEAVTpolyMap@@XZ
?data@TpolyMapArray@@QEBAPEBVTpolyMap@@XZ
?data@TpolyTangentSetArray@@QEAAPEAVTpolyTangentSet@@XZ
?data@TpolyTangentSetArray@@QEBAPEBVTpolyTangentSet@@XZ
?data@TpoolAllocatorPtrArray@@QEAAPEAPEAVTpoolAllocator@@XZ
?data@TpoolAllocatorPtrArray@@QEBAPEBQEAVTpoolAllocator@@XZ
?data@TportColorArray@@QEAAPEAVTportColor@@XZ
?data@TportColorArray@@QEBAPEBVTportColor@@XZ
?data@TpreferenceItemPtrArray@@QEAAPEAPEAVTpreferenceItem@@XZ
?data@TpreferenceItemPtrArray@@QEBAPEBQEAVTpreferenceItem@@XZ
?data@TquaternionArray@@QEAAPEAVTquaternion@@XZ
?data@TquaternionArray@@QEBAPEBVTquaternion@@XZ
?data@TquaternionArrayPtrArray@@QEAAPEAPEAVTquaternionArray@@XZ
?data@TquaternionArrayPtrArray@@QEBAPEBQEAVTquaternionArray@@XZ
?data@TrectArray@@QEAAPEAVTrect@@XZ
?data@TrectArray@@QEBAPEBVTrect@@XZ
?data@TrotateXYZArray@@QEAAPEAVTrotateXYZ@@XZ
?data@TrotateXYZArray@@QEBAPEBVTrotateXYZ@@XZ
?data@TscaleArray@@QEAAPEAVTscale@@XZ
?data@TscaleArray@@QEBAPEBVTscale@@XZ
?data@TselectedSrfDirectionsArray@@QEAAPEAW4TselectedSrfDirections@@XZ
?data@TselectedSrfDirectionsArray@@QEBAPEBW4TselectedSrfDirections@@XZ
?data@TsharedPixelMapArray@@QEAAPEAVTsharedPixelMap@@XZ
?data@TsharedPixelMapArray@@QEBAPEBVTsharedPixelMap@@XZ
?data@Tstring@@AEBAPEBDXZ
?data@TstringArray@@QEAAPEAVTstring@@XZ
?data@TstringArray@@QEBAPEBVTstring@@XZ
?data@TstringPtrArray@@QEAAPEAPEAVTstring@@XZ
?data@TstringPtrArray@@QEBAPEBQEAVTstring@@XZ
?data@TsurfSelectedBoundaryTypeArray@@QEAAPEAW4TsurfSelectedBoundaryType@@XZ
?data@TsurfSelectedBoundaryTypeArray@@QEBAPEBW4TsurfSelectedBoundaryType@@XZ
?data@TsurfaceDirectionArray@@QEAAPEAW4TsurfaceDirection@@XZ
?data@TsurfaceDirectionArray@@QEBAPEBW4TsurfaceDirection@@XZ
?data@TsurfaceIndexArray@@QEAAPEAVTsurfaceIndex@@XZ
?data@TsurfaceIndexArray@@QEBAPEBVTsurfaceIndex@@XZ
?data@TtimeRangeArray@@QEAAPEAVTtimeRange@@XZ
?data@TtimeRangeArray@@QEBAPEBVTtimeRange@@XZ
?data@TtimeValueArray@@QEAAPEAVTtimeValue@@XZ
?data@TtimeValueArray@@QEBAPEBVTtimeValue@@XZ
?data@TtimeValueArrayPtrArray@@QEAAPEAPEAVTtimeValueArray@@XZ
?data@TtimeValueArrayPtrArray@@QEBAPEBQEAVTtimeValueArray@@XZ
?data@TtimeValuePtrArray@@QEAAPEAPEAPEAVTtimeValue@@XZ
?data@TtimeValuePtrArray@@QEBAPEBQEAPEAVTtimeValue@@XZ
?data@TtriggerPtrArray@@QEAAPEAPEAVTtrigger@@XZ
?data@TtriggerPtrArray@@QEBAPEBQEAVTtrigger@@XZ
?data@TtypeDictionaryNode@@QEAAAEAPEAVTmetaclass@@XZ
?data@TtypeidArray@@QEAAPEAPEAVTmetaclass@@XZ
?data@TtypeidArray@@QEBAPEBQEAVTmetaclass@@XZ
?data@TuInt16Array@@QEAAPEAGXZ
?data@TuInt16Array@@QEBAPEBGXZ
?data@TuInt32Array@@QEAAPEAIXZ
?data@TuInt32Array@@QEBAPEBIXZ
?data@TuInt32ArrayPtrArray@@QEAAPEAPEAVTuInt32Array@@XZ
?data@TuInt32ArrayPtrArray@@QEBAPEBQEAVTuInt32Array@@XZ
?data@TuInt64Array@@QEAAPEA_KXZ
?data@TuInt64Array@@QEBAPEB_KXZ
?data@TuInt8Array@@QEAAPEAEXZ
?data@TuInt8Array@@QEBAPEBEXZ
?data@TuInt8ArrayPtrArray@@QEAAPEAPEAVTuInt8Array@@XZ
?data@TuInt8ArrayPtrArray@@QEBAPEBQEAVTuInt8Array@@XZ
?data@TuvPointArray@@QEAAPEAVTuvPoint@@XZ
?data@TuvPointArray@@QEBAPEBVTuvPoint@@XZ
?data@TvaluesArrayPtrArray@@QEAAPEAPEAVTdoubleArray@@XZ
?data@TvaluesArrayPtrArray@@QEBAPEBQEAVTdoubleArray@@XZ
?data@TviewRegionArray@@QEAAPEAVTviewRegion@@XZ
?data@TviewRegionArray@@QEBAPEBVTviewRegion@@XZ
?data@TvoidPtrArray@@QEAAPEAPEAXXZ
?data@TvoidPtrArray@@QEBAPEBQEAXXZ
?data@TxformMatrixArray@@QEAAPEAVTxformMatrix@@XZ
?data@TxformMatrixArray@@QEBAPEBVTxformMatrix@@XZ
?data@TxformMatrixPtrArray@@QEAAPEAPEAVTxformMatrix@@XZ
?data@TxformMatrixPtrArray@@QEBAPEBQEAVTxformMatrix@@XZ
?dataBuffer@TpolyMap@@EEAAXI@Z
?dataConst@TpolyMap@@EEBAPEAXI@Z
?dataType@TdataArrayAttrs@@QEBA?AW4dataTypes@1@I@Z
?dataType@TthreadData@@QEAA?AW4DataType@1@XZ
?dateString@Ttime@@QEBA?AVTstring@@W4Format@1@@Z
?day@Ttime@@QEBAFXZ
?dayOfWeek@Ttime@@QEBAFXZ
?dayOfYear@Ttime@@QEBAFXZ
?days@Tduration@@QEBAFXZ
?deallocate@TcompactArena@@QEAA_NPEAX@Z
?deallocate@TcompactPage@TcompactArena@@IEAA_NPEADE@Z
?deallocate@TfixedArena@@SAXPEAX@Z
?deallocate@TmtCompactArena@@QEAA_NPEAX@Z
?deallocate@TmtVariantArena@@SAXPEAX@Z
?deallocate@TmtVariantArena@@SAXPEAXAEA_K@Z
?deallocate@TstackArena@@SAXPEAX@Z
?deallocate@TvariantArena@@SAXPEAX@Z
?deallocate@TvariantArena@@SAXPEAXAEA_K@Z
?deallocateHeader@TfixedArena@@IEAAXPEAVTheader@TheapArena@@@Z
?deallocateHeader@TvariantArena@@IEAAXPEAVTheader@TheapArena@@@Z
?deallocateHeader@TvariantArena@@IEAAXPEAVTheader@TheapArena@@AEA_K@Z
?deallocatePurified@TpureArena@@KAXPEAVTpurified@1@@Z
?debug@T4dDblMatrix@@QEBAXAEAVTdebugOutput@@I@Z
?debug@T4dFltMatrix@@QEBAXAEAVTdebugOutput@@I@Z
?debug@TanimTime@@QEBAXAEAVTdebugOutput@@I@Z
?debug@TbaseArena@@QEAAXAEAV?$basic_ostream@DU?$char_traits@D@std@@@std@@@Z
?debug@TcompactArena@@SAXAEAV?$basic_ostream@DU?$char_traits@D@std@@@std@@@Z
?debug@TcompactPage@TcompactArena@@QEAAXAEAV?$basic_ostream@DU?$char_traits@D@std@@@std@@@Z
?debug@Tcomponent@@QEBAXAEAVTdebugOutput@@@Z
?debug@Tcounter@@QEBAXAEAVTdebugOutput@@I@Z
?debug@Tdata2Double@@UEBAXAEAVTdebugOutput@@I@Z
?debug@Tdata2Float@@UEBAXAEAVTdebugOutput@@I@Z
?debug@Tdata2Int16@@UEBAXAEAVTdebugOutput@@I@Z
?debug@Tdata2Int32@@UEBAXAEAVTdebugOutput@@I@Z
?debug@Tdata3Double@@UEBAXAEAVTdebugOutput@@I@Z
?debug@Tdata3Float@@UEBAXAEAVTdebugOutput@@I@Z
?debug@Tdata3Int16@@UEBAXAEAVTdebugOutput@@I@Z
?debug@Tdata3Int32@@UEBAXAEAVTdebugOutput@@I@Z
?debug@Tdata4Double@@UEBAXAEAVTdebugOutput@@I@Z
?debug@Tdata@@QEBAXAEAVTdebugOutput@@I@Z
?debug@TdataArrayAttrs@@UEBAXAEAVTdebugOutput@@I@Z
?debug@TdataBinary@@UEBAXAEAVTdebugOutput@@I@Z
?debug@TdataCompound@@UEBAXAEAVTdebugOutput@@I@Z
?debug@TdataDoubleArray@@UEBAXAEAVTdebugOutput@@I@Z
?debug@TdataFloatArray@@UEBAXAEAVTdebugOutput@@I@Z
?debug@TdataFunction@@UEBAXAEAVTdebugOutput@@I@Z
?debug@TdataInt32Array@@UEBAXAEAVTdebugOutput@@I@Z
?debug@TdataLetter@@UEBAXAEAVTdebugOutput@@I@Z
?debug@TdataMatrix@@UEBAXAEAVTdebugOutput@@I@Z
?debug@TdataReflectance@@UEBAXAEAVTdebugOutput@@I@Z
?debug@TdataSpectrum@@UEBAXAEAVTdebugOutput@@I@Z
?debug@TdataUInt64Array@@UEBAXAEAVTdebugOutput@@I@Z
?debug@TdataUnknown@@UEBAXAEAVTdebugOutput@@I@Z
?debug@TdataVoidPtr@@UEBAXAEAVTdebugOutput@@I@Z
?debug@TdbTrace@@UEBAXAEAVTdebugOutput@@I@Z
?debug@TfixedArena@@QEAAXAEAV?$basic_ostream@DU?$char_traits@D@std@@@std@@@Z
?debug@Tfootprint@@QEBAXAEAVTdebugOutput@@I@Z
?debug@TfootprintInfo@@QEBAXAEAVTdebugOutput@@I@Z
?debug@Tfunction@@UEBAXAEAVTdebugOutput@@I@Z
?debug@TfunctionMapping@@UEBAXAEAVTdebugOutput@@I@Z
?debug@Tmetaclass@@QEBAXAEAVTdebugOutput@@I@Z
?debug@TmultiSharedObject@@UEBAXAEAVTdebugOutput@@I@Z
?debug@TpolyBdVertexFaceBase@@QEBAXAEAVTdebugOutput@@I@Z
?debug@TpolyMap@@QEBAXAEAVTdebugOutput@@I@Z
?debug@TvariantArena@@QEAAXAEAV?$basic_ostream@DU?$char_traits@D@std@@@std@@@Z
?debugIterate@TclientServer@@QEBAXP6AXPEBVTclient@@PEAVTmetaclass@@@Z@Z
?debugMe@T4dDblMatrix@@SAXAEBV1@I@Z
?debugMe@T4dFltMatrix@@SAXAEBV1@I@Z
?debugMe@TanimTime@@SAXAEBV1@I@Z
?debugMe@Tcounter@@SAXAEBV1@I@Z
?debugMe@Tdata2Double@@SAXAEBV1@I@Z
?debugMe@Tdata2Float@@SAXAEBV1@I@Z
?debugMe@Tdata2Int16@@SAXAEBV1@I@Z
?debugMe@Tdata2Int32@@SAXAEBV1@I@Z
?debugMe@Tdata3Double@@SAXAEBV1@I@Z
?debugMe@Tdata3Float@@SAXAEBV1@I@Z
?debugMe@Tdata3Int16@@SAXAEBV1@I@Z
?debugMe@Tdata3Int32@@SAXAEBV1@I@Z
?debugMe@Tdata4Double@@SAXAEBV1@I@Z
?debugMe@Tdata@@SAXAEBV1@I@Z
?debugMe@TdataArrayAttrs@@SAXAEBV1@I@Z
?debugMe@TdataBinary@@SAXAEBV1@I@Z
?debugMe@TdataCompound@@SAXAEBV1@I@Z
?debugMe@TdataDoubleArray@@SAXAEBV1@I@Z
?debugMe@TdataFloatArray@@SAXAEBV1@I@Z
?debugMe@TdataFunction@@SAXAEBV1@I@Z
?debugMe@TdataInt32Array@@SAXAEBV1@I@Z
?debugMe@TdataLetter@@SAXAEBV1@I@Z
?debugMe@TdataMatrix@@SAXAEBV1@I@Z
?debugMe@TdataReflectance@@SAXAEBV1@I@Z
?debugMe@TdataSpectrum@@SAXAEBV1@I@Z
?debugMe@TdataUInt64Array@@SAXAEBV1@I@Z
?debugMe@TdataUnknown@@SAXAEBV1@I@Z
?debugMe@TdataVoidPtr@@SAXAEBV1@I@Z
?debugMe@TdbTrace@@SAXAEBV1@I@Z
?debugMe@Tfootprint@@SAXAEBV1@I@Z
?debugMe@TfootprintInfo@@SAXAEBV1@I@Z
?debugMe@Tfunction@@SAXAEBV1@I@Z
?debugMe@TfunctionMapping@@SAXAEBV1@I@Z
?debugMe@Tmetaclass@@SAXAEBV1@I@Z
?debugMe@TmultiSharedObject@@SAXAEBV1@I@Z
?debugMe@TpolyBdVertexFaceBase@@SAXAEBV1@I@Z
?debugMe@TpolyMap@@SAXAEBV1@I@Z
?debugOn@TrefreshTimer@@2HA
?debugPrint@Tcomponent@@MEBAXAEAVTdebugOutput@@@Z
?debugPrint@TuniqueString@@QEBAXXZ
?debugPrintData@TdataArrayAttrs@@QEBAXI@Z
?debugPrintData@TdataArrayAttrs@@QEBAXXZ
?debugPrintNamesTypesAndSizes@TdataArrayAttrs@@QEBAXXZ
?debugPrintWithName@TdoubleIndexedComponent@@IEBAXAEAVTdebugOutput@@PEBD@Z
?debugPrintWithName@TlongDoubleIndexedComponent@@IEBAXAEAVTdebugOutput@@PEBD@Z
?debugPrintWithName@TsingleIndexedComponent@@IEBAXAEAVTdebugOutput@@PEBD@Z
?debugPrintWithName@TuInt64IndexedComponent@@IEBAXAEAVTdebugOutput@@PEBD@Z
?debugStream@Tfile@@QEAAAEAV?$basic_iostream@DU?$char_traits@D@std@@@std@@XZ
?debugThis@Tcomponent@@SAXPEBV1@@Z
?decodeEscapeSequences@Tstring@@QEAAXXZ
?decompose1@TrotateXYZ@@SA?AV1@AEBVT4dDblMatrix@@W4TrotOrder@@@Z
?decompose2@TrotateXYZ@@SA?AV1@AEBV1@00@Z
?decompose2@TrotateXYZ@@SA?AV1@AEBV1@0@Z
?decompose@TrotateXYZ@@SA_NAEBVT4dDblMatrix@@W4TrotOrder@@PEAVT4dDblVector@@@Z
?decrement@Tcounter@@QEAAXAEBVTstring@@@Z
?decrement@Tcounter@@QEAAXXZ
?decrement@TcounterContext@@AEAAXAEBVTstring@@@Z
?decrement@TcounterContext@@AEAAXXZ
?decrementAllocationCount@Tpage@TbaseArena@@QEAAXXZ
?decrementNonUniqueNames@TnamespaceManager@@AEAAXXZ
?deepCopy@TdataDoubleArray@@UEAAXXZ
?deepCopy@TdataFloatArray@@UEAAXXZ
?deepCopy@TdataInt32Array@@UEAAXXZ
?deepCopy@TdataLetter@@UEAAXXZ
?deepCopy@TdataUInt64Array@@UEAAXXZ
?defaultDefaultName@TpolyMapArrayShared@@SAAEBVTstring@@XZ
?defaultDirectory@TtemporaryDirectory@@AEAA?AVTstring@@XZ
?defaultFileResolverBase@TfileResolverMgrBase@@QEBAPEBVTfileResolverBase@@XZ
?defaultMaxPrecision@TlinearString@@SAGXZ
?defaultValue@TfunctionArgs@@QEBAPEAXI@Z
?deform@T2dFfd@@QEAA_NAEAN0@Z
?degrees@Tangle@@QEBANXZ
?delayNotification@TdelayedClientServer@@UEAAXPEAVTmetaclass@@_N@Z
?delayed@TdelayedClientServer@@QEAA_NPEAVTmetaclass@@@Z
?deleteBdList@TbdTable@@QEAAXXZ
?deleteDupBdTemplates@TbdTable@@QEAA_NXZ
?deleteElem@TdataArrayAttrs@@AEAAXI@Z
?deleteEntry@TdirectoryPath@@QEAAXAEBVTstring@@@Z
?deletePage@TcompactArena@@IEAA_NPEAVTcompactPage@1@@Z
?deleteWhenDestroy@TdataDoubleArray@@QEAAX_N@Z
?deleteWhenDestroy@TdataFloatArray@@QEAAX_N@Z
?deleteWhenDestroy@TdataInt32Array@@QEAAX_N@Z
?deleteWhenDestroy@TdataUInt64Array@@QEAAX_N@Z
?deleteWhenDestroy@TsharedDoubleArray@@QEAAX_N@Z
?deleteWhenDestroy@TsharedFloatArray@@QEAAX_N@Z
?deleteWhenDestroy@TsharedInt32Array@@QEAAX_N@Z
?deleteWhenDestroy@TsharedUInt64Array@@QEAAX_N@Z
?depth@?$TotRayWalker@IVToctreeTriangleIntersection@@@@QEBANXZ
?depth@TboundingBox@@QEBANXZ
?depth@TboxTree@@QEBAHXZ
?depth@TfltBox@@QEBAMXZ
?depth@TpixelMap@@QEBAGXZ
?depth@TtriangleOctreeRayWalker@@QEBANXZ
?depthMap@TpixelMap@@QEAAPEAVTdepthBuffer@@XZ
?description@TdbFlag@@QEBA?AVTstring@@XZ
?description@ToDo@@QEBAPEBDXZ
?description@TresourceException@@QEBAPEBDXZ
?destroy@TDarray@@UEAAXPEADI@Z
?destroy@TanimTimeArray@@UEAAXPEADI@Z
?destroy@TanimTimeSortedArray@@MEAAXPEADI@Z
?destroy@TcomponentPtrArray@@UEAAXPEADI@Z
?destroy@TdelayedMsgTypeArray@@UEAAXPEADI@Z
?destroy@Tdictionary@@MEAAXXZ
?destroy@TdoubleIndexLongArray@@UEAAXPEADI@Z
?destroy@TdoubleRangeArray@@UEAAXPEADI@Z
?destroy@TdoubleSortedArray@@MEAAXPEADI@Z
?destroy@TfilePathArray@@UEAAXPEADI@Z
?destroy@TfloatRangeArray@@UEAAXPEADI@Z
?destroy@TindexDictionaryNode@@MEAAXXZ
?destroy@TindexRangeArray@@UEAAXPEADI@Z
?destroy@Tint32SortedArray@@MEAAXPEADI@Z
?destroy@TobjArray@@MEAAXPEADI@Z
?destroy@TobjArrayTbasketPtr@@UEAAXPEADI@Z
?destroy@TobjectGroupPtrArray@@UEAAXPEADI@Z
?destroy@TobjectStats@@QEAAXPEAX@Z
?destroy@TpolyMapArray@@UEAAXPEADI@Z
?destroy@TpolyTangentSetArray@@UEAAXPEADI@Z
?destroy@TpoolManager@@QEAAXXZ
?destroy@TpreferenceItemPtrArray@@UEAAXPEADI@Z
?destroy@TquaternionArray@@UEAAXPEADI@Z
?destroy@TsharedPixelMapArray@@UEAAXPEADI@Z
?destroy@TsortedBdDataPtrArray@@MEAAXPEADI@Z
?destroy@TsortedObjectGroupIdArray@@MEAAXPEADI@Z
?destroy@TsortedStringArray@@MEAAXPEADI@Z
?destroy@TstringArray@@UEAAXPEADI@Z
?destroy@TsurfaceIndexArray@@UEAAXPEADI@Z
?destroy@TtimeRangeArray@@UEAAXPEADI@Z
?destroy@TtypeDictionaryNode@@MEAAXXZ
?destroy@TtypeidArray@@UEAAXPEADI@Z
?destroy@TuInt16SortedArray@@MEAAXPEADI@Z
?destroy@TuInt32SortedArray@@MEAAXPEADI@Z
?destroy@TuInt64SortedArray@@MEAAXPEADI@Z
?destroy@TvoidPtrSortedArray@@MEAAXPEADI@Z
?destroy@TxformMatrixArray@@UEAAXPEADI@Z
?destroyCount@TobjectStats@@QEBAIXZ
?destroyPages@TbaseArena@@IEAAX_K@Z
?destruct@?$TotNode@I@@IEAAXXZ
?destruct@?$TotNode@VToctreePoint@@@@IEAAXXZ
?destruct@TDarray@@UEAAXII@Z
?destruct@TanimTimeArray@@UEAAXII@Z
?destruct@TanimTimeSortedArray@@MEAAXII@Z
?destruct@TcomponentPtrArray@@UEAAXII@Z
?destruct@TdelayedMsgTypeArray@@UEAAXII@Z
?destruct@TdoubleIndexLongArray@@UEAAXII@Z
?destruct@TdoubleRangeArray@@UEAAXII@Z
?destruct@TdoubleSortedArray@@MEAAXII@Z
?destruct@TfilePathArray@@UEAAXII@Z
?destruct@TfloatRangeArray@@UEAAXII@Z
?destruct@TindexRangeArray@@UEAAXII@Z
?destruct@Tint32SortedArray@@MEAAXII@Z
?destruct@TobjArray@@MEAAXII@Z
?destruct@TobjArrayTbasketPtr@@UEAAXII@Z
?destruct@TobjectGroupPtrArray@@UEAAXII@Z
?destruct@TpolyMapArray@@UEAAXII@Z
?destruct@TpolyTangentSetArray@@UEAAXII@Z
?destruct@TpreferenceItemPtrArray@@UEAAXII@Z
?destruct@TquaternionArray@@UEAAXII@Z
?destruct@TsharedPixelMapArray@@UEAAXII@Z
?destruct@TsortedBdDataPtrArray@@MEAAXII@Z
?destruct@TsortedObjectGroupIdArray@@MEAAXII@Z
?destruct@TsortedStringArray@@MEAAXII@Z
?destruct@TstringArray@@UEAAXII@Z
?destruct@TsurfaceIndexArray@@UEAAXII@Z
?destruct@TtimeRangeArray@@UEAAXII@Z
?destruct@TtypeidArray@@UEAAXII@Z
?destruct@TuInt16SortedArray@@MEAAXII@Z
?destruct@TuInt32SortedArray@@MEAAXII@Z
?destruct@TuInt64SortedArray@@MEAAXII@Z
?destruct@TvoidPtrSortedArray@@MEAAXII@Z
?destruct@TxformMatrixArray@@UEAAXII@Z
?det3x3@T4dDblMatrix@@QEBANXZ
?det3x3@T4dFltMatrix@@QEBAMXZ
?det4x4@T4dDblMatrix@@QEBANXZ
?det4x4@T4dFltMatrix@@QEBAMXZ
?detach@TmtThread@@QEAAXXZ
?deviceDeleted@ThwrCallback@@MEAAXXZ
?deviceLost@ThwrCallback@@MEAAXXZ
?deviceNew@ThwrCallback@@MEAAXXZ
?deviceReset@ThwrCallback@@MEAAXXZ
?diffFromWhite@Tspectrum@@QEBA?AV1@XZ
?difference@TdoubleIndexedComponent@@UEBAPEAVTcomponent@@AEBV2@@Z
?difference@TlongDoubleIndexedComponent@@UEBAPEAVTcomponent@@AEBV2@@Z
?difference@TsingleIndexedComponent@@UEBAPEAVTcomponent@@AEBV2@@Z
?difference@TuInt64IndexedComponent@@UEBAPEAVTcomponent@@AEBV2@@Z
?dirName@TdirIterator@@QEBAAEBVTstring@@XZ
?dirName@TfileName@@QEBA?AVTstring@@XZ
?dirName@TfilePath@@QEBA?AVTstring@@XZ
?directedDistance@TfltPlane@@QEBAMAEBVT3dFltPoint@@@Z
?directedDistance@Tplane@@QEBANAEBVT4dDblPoint@@@Z
?directoryPath@Tstring@@QEBA?AV1@XZ
?dirtyDetails@TdataLetter@@UEAAPEAVTdirtyDetail@@XZ
?disable@Tcounter@@QEAA_NXZ
?disable@TdbTrace@@QEAAXXZ
?disableRelativeNames@TnamespaceManager@@AEAAX_N@Z
?disableSet@TfileSystemEntity@@QEAAXXZ
?disableWarningDiag@TincorrectNameSet@@SAXXZ
?disallow@TsrtComponents@@SAAEAV1@XZ
?dismiss@?$TstateGuard@_N$1?setMatchingEditAttrs@TglobalTranslatorBase@@CAX_N@Z@@QEAAXXZ
?display@TassertAlert@@CAXVTstring@@PEBDHP6AXXZ@Z
?display@TassertAlert@@CAXW4TalertType@1@HPEBDHP6AXXZ@Z
?display@TassertAlert@@CAXW4TalertType@1@PEBD1HP6AXXZ@Z
?displayDADialog@TCIPClient@@QEAAX_N@Z
?displayOptInDialog@TCIPClient@@QEAAX_N@Z
?displayUnit@TlinearString@@QEBA?AW4TdisplayUnit@1@XZ
?distance2To@T2dFltPoint@@QEBAMAEBV1@@Z
?distance2To@T3dDblPoint@@QEBANAEBV1@@Z
?distance2To@T3dDblPoint@@QEBANAEBVT4dDblPoint@@@Z
?distance2To@T3dFltPoint@@QEBAMAEBV1@@Z
?distance2To@T3dFltPoint@@QEBAMAEBVT4dFltPoint@@@Z
?distance2To@T4dDblPoint@@QEBANAEBV1@@Z
?distance2To@T4dFltPoint@@QEBAMAEBV1@@Z
?distance2To@TfltLine@@QEBAMAEBVT3dFltPoint@@@Z
?distance@TfltLine@@QEBAMAEBV1@@Z
?distance@TfltLine@@QEBAMAEBVT3dFltPoint@@@Z
?distance@TfltPlane@@QEBAMAEBVT3dFltPoint@@@Z
?distance@TfltPlane@@QEBAMXZ
?distance@Tline@@QEBANAEBV1@@Z
?distance@Tline@@QEBANAEBVT4dDblPoint@@@Z
?distance@Tplane@@QEBANAEBVT4dDblPoint@@@Z
?distance@Tplane@@QEBANXZ
?distanceTo@T2dFltPoint@@QEBAMAEBV1@@Z
?distanceTo@T3dDblPoint@@QEBANAEBV1@@Z
?distanceTo@T3dDblPoint@@QEBANAEBVT4dDblPoint@@@Z
?distanceTo@T3dFltPoint@@QEBAMAEBV1@@Z
?distanceTo@T3dFltPoint@@QEBAMAEBVT4dFltPoint@@@Z
?distanceTo@T4dDblPoint@@QEBANAEBV1@@Z
?distanceTo@T4dFltPoint@@QEBAMAEBV1@@Z
?distanceToEdge@@YA?AW4ePointOnEdgeData@@AEBVT4dDblPoint@@00AEAN1AEAV2@_N@Z
?distanceToEdge@@YA?AW4ePointOnEdgeData@TfltLineSegment@@AEBVT3dFltPoint@@00AEAM1AEAV3@_N@Z
?doAddNamespace@TnamespaceManager@@AEAA_NPEAVTnamespace@@0PEAVTnamespacePtrArray@@@Z
?doCopySubtree@TthreadSubtree@@UEAAHPEAX0@Z
?doFormat@Tstring@@AEAA_NPEBDPEAD@Z
?doFormatToReportString@TdebugOutput@@UEAA_NPEBDPEAD@Z
?doIt@TpseudoTranslate@@SA?AVTstring@@AEBV2@0@Z
?doIt@TpseudoTranslate@@SAAEAVIString@awString@@AEBV23@AEAV23@AEBVCString@3@@Z
?doMovieCompressor@TmovieCompressor@@QEAAXXZ
?doSubstitute@Tstring@@AEAAHAEBV1@0_N@Z
?dominantAxis@T3dFltVector@@QEBA?AW4Taxis@@XZ
?dominantAxis@T4dDblVector@@QEBA?AW4Taxis@@XZ
?dopostorderTraverse@Ttree@@MEAA_NP6A_NAEAV1@AEAPEAXPEAX@Z22@Z
?dopreorderTraverse@Ttree@@MEAA_NP6A_NAEAV1@AEAPEAXPEAX@Z22@Z
?dot@@YANAEBVTquaternion@@0@Z
?dot@T2dFltVector@@QEBAMAEBV1@@Z
?dot@T3dDblPoint@@QEAANAEBV1@@Z
?dot@T3dFltVector@@QEBAMAEBV1@@Z
?dot@T4dDblVector@@QEBANAEBV1@@Z
?dotProduct@T2dFltVector@@QEBAMAEBV1@@Z
?dotProduct@T3dFltVector@@QEBAMAEBV1@@Z
?dotProduct@T4dDblVector@@QEBANAEBV1@@Z
?doubleArray@TdataDoubleArray@@QEBAPEAVTdoubleArray@@XZ
?doubleTimeval@@YA?AUtimeval@@U1@@Z
?doubleValue@Tdata@@QEBANXZ
?doubleValue@TdataLetter@@UEBANXZ
?doubleValue@TthreadData@@QEAANXZ
?dslerp@@YA?AVTquaternion@@AEBV1@0NF@Z
?dtoa@TformatUtils@@SAHNPEAD@Z
?dtoa_NUTI@TformatUtils@@SAHNPEAD@Z
?dual@TdualQuaternion@@QEBA?AV1@XZ
?dualConjugate@TdualQuaternion@@QEBA?AV1@XZ
?dualIt@TdualQuaternion@@QEAAAEAV1@XZ
?dump@TnestedTimers@@SAXW4TdumpOrder@1@@Z
?dumpAllClasses@Tmetaclass@@SAXXZ
?dumpAllClassesDerivedFrom@Tmetaclass@@SAXPEAV1@H@Z
?dumpNested@TnestedTimers@@CAXW4TdumpOrder@1@PEADPEAUTnestingInfo@@HNN@Z
?dumpPool@TuniqueString@@SAXXZ
?duplicateDone@Tdata@@QEAAXAEBV1@@Z
?edgeIndex@TpolyMapShell@@QEBAII@Z
?elapsedSeconds@Tclock@@QEBANXZ
?element@TDarray@@IEAAAEAVObj@1@I@Z
?element@TDarray@@IEBAAEBVObj@1@I@Z
?element@TanimTimeArray@@IEAAAEAVObj@1@I@Z
?element@TanimTimeArray@@IEBAAEBVObj@1@I@Z
?element@TanimTimeSortedArray@@IEAAAEAVObj@1@I@Z
?element@TanimTimeSortedArray@@IEBAAEBVObj@1@I@Z
?element@TcomponentPtrArray@@IEAAAEAVObj@1@I@Z
?element@TcomponentPtrArray@@IEBAAEBVObj@1@I@Z
?element@TdelayedMsgTypeArray@@IEAAAEAVObj@1@I@Z
?element@TdelayedMsgTypeArray@@IEBAAEBVObj@1@I@Z
?element@TdoubleIndexLongArray@@IEAAAEAVObj@1@I@Z
?element@TdoubleIndexLongArray@@IEBAAEBVObj@1@I@Z
?element@TdoubleIndexedComponent@@QEBA?AVTsurfaceIndex@@I@Z
?element@TdoubleRangeArray@@IEAAAEAVObj@1@I@Z
?element@TdoubleRangeArray@@IEBAAEBVObj@1@I@Z
?element@TdoubleSortedArray@@IEAAAEAVObj@1@I@Z
?element@TdoubleSortedArray@@IEBAAEBVObj@1@I@Z
?element@TfilePathArray@@IEAAAEAVObj@1@I@Z
?element@TfilePathArray@@IEBAAEBVObj@1@I@Z
?element@TfloatRangeArray@@IEAAAEAVObj@1@I@Z
?element@TfloatRangeArray@@IEBAAEBVObj@1@I@Z
?element@TindexRangeArray@@IEAAAEAVObj@1@I@Z
?element@TindexRangeArray@@IEBAAEBVObj@1@I@Z
?element@Tint32SortedArray@@IEAAAEAVObj@1@I@Z
?element@Tint32SortedArray@@IEBAAEBVObj@1@I@Z
?element@TlongDoubleIndexedComponent@@QEBA?AVTdoubleIndexLong@@I@Z
?element@TobjArrayTbasketPtr@@IEAAAEAVObj@1@I@Z
?element@TobjArrayTbasketPtr@@IEBAAEBVObj@1@I@Z
?element@TobjectGroupPtrArray@@IEAAAEAVObj@1@I@Z
?element@TobjectGroupPtrArray@@IEBAAEBVObj@1@I@Z
?element@TpolyMapArray@@IEAAAEAVObj@1@I@Z
?element@TpolyMapArray@@IEBAAEBVObj@1@I@Z
?element@TpolyTangentSetArray@@IEAAAEAVObj@1@I@Z
?element@TpolyTangentSetArray@@IEBAAEBVObj@1@I@Z
?element@TpreferenceItemPtrArray@@IEAAAEAVObj@1@I@Z
?element@TpreferenceItemPtrArray@@IEBAAEBVObj@1@I@Z
?element@TquaternionArray@@IEAAAEAVObj@1@I@Z
?element@TquaternionArray@@IEBAAEBVObj@1@I@Z
?element@TsharedPixelMapArray@@IEAAAEAVObj@1@I@Z
?element@TsharedPixelMapArray@@IEBAAEBVObj@1@I@Z
?element@TsingleIndexedComponent@@QEBAHI@Z
?element@TsortedBdDataPtrArray@@IEAAAEAVObj@1@I@Z
?element@TsortedBdDataPtrArray@@IEBAAEBVObj@1@I@Z
?element@TsortedObjectGroupIdArray@@IEAAAEAVObj@1@I@Z
?element@TsortedObjectGroupIdArray@@IEBAAEBVObj@1@I@Z
?element@TsortedStringArray@@IEAAAEAVObj@1@I@Z
?element@TsortedStringArray@@IEBAAEBVObj@1@I@Z
?element@TstringArray@@IEAAAEAVObj@1@I@Z
?element@TstringArray@@IEBAAEBVObj@1@I@Z
?element@TsurfaceIndexArray@@IEAAAEAVObj@1@I@Z
?element@TsurfaceIndexArray@@IEBAAEBVObj@1@I@Z
?element@TtimeRangeArray@@IEAAAEAVObj@1@I@Z
?element@TtimeRangeArray@@IEBAAEBVObj@1@I@Z
?element@TtypeidArray@@IEAAAEAVObj@1@I@Z
?element@TtypeidArray@@IEBAAEBVObj@1@I@Z
?element@TuInt16SortedArray@@IEAAAEAVObj@1@I@Z
?element@TuInt16SortedArray@@IEBAAEBVObj@1@I@Z
?element@TuInt32SortedArray@@IEAAAEAVObj@1@I@Z
?element@TuInt32SortedArray@@IEBAAEBVObj@1@I@Z
?element@TuInt64IndexedComponent@@UEBA_KI@Z
?element@TuInt64SortedArray@@IEAAAEAVObj@1@I@Z
?element@TuInt64SortedArray@@IEBAAEBVObj@1@I@Z
?element@TvoidPtrSortedArray@@IEAAAEAVObj@1@I@Z
?element@TvoidPtrSortedArray@@IEBAAEBVObj@1@I@Z
?element@TxformMatrixArray@@IEAAAEAVObj@1@I@Z
?element@TxformMatrixArray@@IEBAAEBVObj@1@I@Z
?elementCount@TbitFieldFixedN@@AEBAIXZ
?elementCount@TdoubleIndexedComponent@@UEBAIXZ
?elementCount@TlongDoubleIndexedComponent@@UEBAIXZ
?elementCount@TsingleIndexedComponent@@UEBAIXZ
?elementCount@TuInt64IndexedComponent@@UEBAIXZ
?elementMax@TsingleIndexedComponent@@QEBAIXZ
?elementMax@TuInt64IndexedComponent@@QEBA_KXZ
?elementSize@TbitFieldFixedN@@SAIXZ
?elements@TsingleIndexedComponent@@QEBA_NPEAII@Z
?emplace@?$_Tree@V?$_Tmap_traits@V?$basic_string@DU?$char_traits@D@std@@V?$allocator@D@2@@std@@PEAVTresourceElement@@U?$less@V?$basic_string@DU?$char_traits@D@std@@V?$allocator@D@2@@std@@@2@V?$allocator@U?$pair@$$CBV?$basic_string@DU?$char_traits@D@std@@V?$allocator@D@2@@std@@PEAVTresourceElement@@@std@@@2@$0A@@std@@@std@@QEAA?AU?$pair@V?$_Tree_iterator@V?$_Tree_val@U?$_Tree_simple_types@U?$pair@$$CBV?$basic_string@DU?$char_traits@D@std@@V?$allocator@D@2@@std@@PEAVTresourceElement@@@std@@@std@@@std@@@std@@_N@2@XZ
?emplace@?$_Tree@V?$_Tmap_traits@V?$basic_string@DU?$char_traits@D@std@@V?$allocator@D@2@@std@@PEAVTresourceGroup@@U?$less@V?$basic_string@DU?$char_traits@D@std@@V?$allocator@D@2@@std@@@2@V?$allocator@U?$pair@$$CBV?$basic_string@DU?$char_traits@D@std@@V?$allocator@D@2@@std@@PEAVTresourceGroup@@@std@@@2@$0A@@std@@@std@@QEAA?AU?$pair@V?$_Tree_iterator@V?$_Tree_val@U?$_Tree_simple_types@U?$pair@$$CBV?$basic_string@DU?$char_traits@D@std@@V?$allocator@D@2@@std@@PEAVTresourceGroup@@@std@@@std@@@std@@@std@@_N@2@XZ
?emplace_hint@?$_Tree@V?$_Tmap_traits@V?$basic_string@DU?$char_traits@D@std@@V?$allocator@D@2@@std@@PEAVTresourceElement@@U?$less@V?$basic_string@DU?$char_traits@D@std@@V?$allocator@D@2@@std@@@2@V?$allocator@U?$pair@$$CBV?$basic_string@DU?$char_traits@D@std@@V?$allocator@D@2@@std@@PEAVTresourceElement@@@std@@@2@$0A@@std@@@std@@QEAA?AV?$_Tree_iterator@V?$_Tree_val@U?$_Tree_simple_types@U?$pair@$$CBV?$basic_string@DU?$char_traits@D@std@@V?$allocator@D@2@@std@@PEAVTresourceElement@@@std@@@std@@@std@@@2@V?$_Tree_const_iterator@V?$_Tree_val@U?$_Tree_simple_types@U?$pair@$$CBV?$basic_string@DU?$char_traits@D@std@@V?$allocator@D@2@@std@@PEAVTresourceElement@@@std@@@std@@@std@@@2@@Z
?emplace_hint@?$_Tree@V?$_Tmap_traits@V?$basic_string@DU?$char_traits@D@std@@V?$allocator@D@2@@std@@PEAVTresourceGroup@@U?$less@V?$basic_string@DU?$char_traits@D@std@@V?$allocator@D@2@@std@@@2@V?$allocator@U?$pair@$$CBV?$basic_string@DU?$char_traits@D@std@@V?$allocator@D@2@@std@@PEAVTresourceGroup@@@std@@@2@$0A@@std@@@std@@QEAA?AV?$_Tree_iterator@V?$_Tree_val@U?$_Tree_simple_types@U?$pair@$$CBV?$basic_string@DU?$char_traits@D@std@@V?$allocator@D@2@@std@@PEAVTresourceGroup@@@std@@@std@@@std@@@2@V?$_Tree_const_iterator@V?$_Tree_val@U?$_Tree_simple_types@U?$pair@$$CBV?$basic_string@DU?$char_traits@D@std@@V?$allocator@D@2@@std@@PEAVTresourceGroup@@@std@@@std@@@std@@@2@@Z
?empty@?$_Tree@V?$_Tmap_traits@V?$basic_string@DU?$char_traits@D@std@@V?$allocator@D@2@@std@@PEAVTresourceElement@@U?$less@V?$basic_string@DU?$char_traits@D@std@@V?$allocator@D@2@@std@@@2@V?$allocator@U?$pair@$$CBV?$basic_string@DU?$char_traits@D@std@@V?$allocator@D@2@@std@@PEAVTresourceElement@@@std@@@2@$0A@@std@@@std@@QEBA_NXZ
?empty@?$_Tree@V?$_Tmap_traits@V?$basic_string@DU?$char_traits@D@std@@V?$allocator@D@2@@std@@PEAVTresourceGroup@@U?$less@V?$basic_string@DU?$char_traits@D@std@@V?$allocator@D@2@@std@@@2@V?$allocator@U?$pair@$$CBV?$basic_string@DU?$char_traits@D@std@@V?$allocator@D@2@@std@@PEAVTresourceGroup@@@std@@@2@$0A@@std@@@std@@QEBA_NXZ
?empty@T2FloatArray@@QEBA_NXZ
?empty@T3DoubleArray@@QEBA_NXZ
?empty@T3FloatArray@@QEBA_NXZ
?empty@T3dDblPointArray@@QEBA_NXZ
?empty@T3dDblPointArrayPtrArray@@QEBA_NXZ
?empty@T3dFltPointArray@@QEBA_NXZ
?empty@T3dFltVectorArray@@QEBA_NXZ
?empty@T4dDblMatrixArray@@QEBA_NXZ
?empty@T4dDblPointArray@@QEBA_NXZ
?empty@T4dDblPointArrayPtrArray@@QEBA_NXZ
?empty@T4dDblVectorArray@@QEBA_NXZ
?empty@T4dDblVectorArrayPtrArray@@QEBA_NXZ
?empty@T4dFltMatrixArray@@QEBA_NXZ
?empty@T4dFltPointArray@@QEBA_NXZ
?empty@TTuInt32Array@@QEBA_NXZ
?empty@TbdDataPtrArrayContainer@@QEBA_NXZ
?empty@TbooleanArray@@QEBA_NXZ
?empty@TbooleanArrayPtrArray@@QEBA_NXZ
?empty@TcharArray@@QEBA_NXZ
?empty@TcharPtrArray@@QEBA_NXZ
?empty@TdblPointArray@@QEBA_NXZ
?empty@TdoubleArray@@QEBA_NXZ
?empty@TdoubleArrayPtrArray@@QEBA_NXZ
?empty@TdoublePtrArray@@QEBA_NXZ
?empty@TdualQuaternionArray@@QEBA_NXZ
?empty@TfloatArray@@QEBA_NXZ
?empty@TfloatArrayPtrArray@@QEBA_NXZ
?empty@TfloatArrayPtrArrayPtrArray@@QEBA_NXZ
?empty@TfloatConstPtrArray@@QEBA_NXZ
?empty@TfloatPtrArray@@QEBA_NXZ
?empty@TfltLineArray@@QEBA_NXZ
?empty@TfltPointArray@@QEBA_NXZ
?empty@TiffTagArray@@QEBA_NXZ
?empty@TindexArray@@QEBA_NXZ
?empty@Tint16Array@@QEBA_NXZ
?empty@Tint32Array@@QEBA_NXZ
?empty@Tint32ArrayPtrArray@@QEBA_NXZ
?empty@Tint64Array@@QEBA_NXZ
?empty@TlineArray@@QEBA_NXZ
?empty@TmtThreadPtrArray@@QEBA_NXZ
?empty@TnameObjectPtrArray@@QEBA_NXZ
?empty@TnamespacePtrArray@@QEBA_NXZ
?empty@TobjectGroupIdArray@@QEBA_NXZ
?empty@TpixelMapPtrArray@@QEBA_NXZ
?empty@TpointArray@@QEBA_NXZ
?empty@TpoolAllocatorPtrArray@@QEBA_NXZ
?empty@TportColorArray@@QEBA_NXZ
?empty@TquaternionArrayPtrArray@@QEBA_NXZ
?empty@TrectArray@@QEBA_NXZ
?empty@TrotateXYZArray@@QEBA_NXZ
?empty@TscaleArray@@QEBA_NXZ
?empty@TselectedSrfDirectionsArray@@QEBA_NXZ
?empty@TshapeAlgebra@@QEAAXXZ
?empty@TstringPtrArray@@QEBA_NXZ
?empty@TsurfSelectedBoundaryTypeArray@@QEBA_NXZ
?empty@TsurfaceDirectionArray@@QEBA_NXZ
?empty@TtimeValueArray@@QEBA_NXZ
?empty@TtimeValueArrayPtrArray@@QEBA_NXZ
?empty@TtimeValuePtrArray@@QEBA_NXZ
?empty@TtriggerPtrArray@@QEBA_NXZ
?empty@TuInt16Array@@QEBA_NXZ
?empty@TuInt32Array@@QEBA_NXZ
?empty@TuInt32ArrayPtrArray@@QEBA_NXZ
?empty@TuInt64Array@@QEBA_NXZ
?empty@TuInt8Array@@QEBA_NXZ
?empty@TuInt8ArrayPtrArray@@QEBA_NXZ
?empty@TuvPointArray@@QEBA_NXZ
?empty@TvaluesArrayPtrArray@@QEBA_NXZ
?empty@TviewRegionArray@@QEBA_NXZ
?empty@TvoidPtrArray@@QEBA_NXZ
?empty@TxformMatrixPtrArray@@QEBA_NXZ
?emptyDirectory@TtempDirectoryMgr@@QEAAXXZ
?enable@Tcounter@@QEAA_NXZ
?enable@TdbTrace@@QEAAXXZ
?enableLegacyIncorrectNodeNames@TincorrectNameSet@@CA_NXZ
?enableSSE2onAMD@TcpuFeatures@@SAXXZ
?enabled@TCIPClient@@SA_NXZ
?enabled@TpseudoTranslate@@SA_NPEAVTstring@@@Z
?encodeEscapeSequences@Tstring@@QEAAX_N@Z
?end@?$_Tree@V?$_Tmap_traits@V?$basic_string@DU?$char_traits@D@std@@V?$allocator@D@2@@std@@PEAVTresourceElement@@U?$less@V?$basic_string@DU?$char_traits@D@std@@V?$allocator@D@2@@std@@@2@V?$allocator@U?$pair@$$CBV?$basic_string@DU?$char_traits@D@std@@V?$allocator@D@2@@std@@PEAVTresourceElement@@@std@@@2@$0A@@std@@@std@@QEAA?AV?$_Tree_iterator@V?$_Tree_val@U?$_Tree_simple_types@U?$pair@$$CBV?$basic_string@DU?$char_traits@D@std@@V?$allocator@D@2@@std@@PEAVTresourceElement@@@std@@@std@@@std@@@2@XZ
?end@?$_Tree@V?$_Tmap_traits@V?$basic_string@DU?$char_traits@D@std@@V?$allocator@D@2@@std@@PEAVTresourceElement@@U?$less@V?$basic_string@DU?$char_traits@D@std@@V?$allocator@D@2@@std@@@2@V?$allocator@U?$pair@$$CBV?$basic_string@DU?$char_traits@D@std@@V?$allocator@D@2@@std@@PEAVTresourceElement@@@std@@@2@$0A@@std@@@std@@QEBA?AV?$_Tree_const_iterator@V?$_Tree_val@U?$_Tree_simple_types@U?$pair@$$CBV?$basic_string@DU?$char_traits@D@std@@V?$allocator@D@2@@std@@PEAVTresourceElement@@@std@@@std@@@std@@@2@XZ
?end@?$_Tree@V?$_Tmap_traits@V?$basic_string@DU?$char_traits@D@std@@V?$allocator@D@2@@std@@PEAVTresourceGroup@@U?$less@V?$basic_string@DU?$char_traits@D@std@@V?$allocator@D@2@@std@@@2@V?$allocator@U?$pair@$$CBV?$basic_string@DU?$char_traits@D@std@@V?$allocator@D@2@@std@@PEAVTresourceGroup@@@std@@@2@$0A@@std@@@std@@QEAA?AV?$_Tree_iterator@V?$_Tree_val@U?$_Tree_simple_types@U?$pair@$$CBV?$basic_string@DU?$char_traits@D@std@@V?$allocator@D@2@@std@@PEAVTresourceGroup@@@std@@@std@@@std@@@2@XZ
?end@?$_Tree@V?$_Tmap_traits@V?$basic_string@DU?$char_traits@D@std@@V?$allocator@D@2@@std@@PEAVTresourceGroup@@U?$less@V?$basic_string@DU?$char_traits@D@std@@V?$allocator@D@2@@std@@@2@V?$allocator@U?$pair@$$CBV?$basic_string@DU?$char_traits@D@std@@V?$allocator@D@2@@std@@PEAVTresourceGroup@@@std@@@2@$0A@@std@@@std@@QEBA?AV?$_Tree_const_iterator@V?$_Tree_val@U?$_Tree_simple_types@U?$pair@$$CBV?$basic_string@DU?$char_traits@D@std@@V?$allocator@D@2@@std@@PEAVTresourceGroup@@@std@@@std@@@std@@@2@XZ
?end@T2FloatArray@@QEAA?AV?$iterator_impl@VT2Float@@@1@XZ
?end@T2FloatArray@@QEBA?AV?$iterator_impl@$$CBVT2Float@@@1@XZ
?end@T3DoubleArray@@QEAA?AV?$iterator_impl@VT3Double@@@1@XZ
?end@T3DoubleArray@@QEBA?AV?$iterator_impl@$$CBVT3Double@@@1@XZ
?end@T3FloatArray@@QEAA?AV?$iterator_impl@VT3Float@@@1@XZ
?end@T3FloatArray@@QEBA?AV?$iterator_impl@$$CBVT3Float@@@1@XZ
?end@T3dDblPointArray@@QEAA?AV?$iterator_impl@VT3dDblPoint@@@1@XZ
?end@T3dDblPointArray@@QEBA?AV?$iterator_impl@$$CBVT3dDblPoint@@@1@XZ
?end@T3dDblPointArrayPtrArray@@QEAA?AV?$iterator_impl@PEAVT3dDblPointArray@@@1@XZ
?end@T3dDblPointArrayPtrArray@@QEBA?AV?$iterator_impl@QEAVT3dDblPointArray@@@1@XZ
?end@T3dFltPointArray@@QEAA?AV?$iterator_impl@VT3dFltPoint@@@1@XZ
?end@T3dFltPointArray@@QEBA?AV?$iterator_impl@$$CBVT3dFltPoint@@@1@XZ
?end@T3dFltVectorArray@@QEAA?AV?$iterator_impl@VT3dFltVector@@@1@XZ
?end@T3dFltVectorArray@@QEBA?AV?$iterator_impl@$$CBVT3dFltVector@@@1@XZ
?end@T4dDblMatrixArray@@QEAA?AV?$iterator_impl@VT4dDblMatrix@@@1@XZ
?end@T4dDblMatrixArray@@QEBA?AV?$iterator_impl@$$CBVT4dDblMatrix@@@1@XZ
?end@T4dDblPointArray@@QEAA?AV?$iterator_impl@VT4dDblPoint@@@1@XZ
?end@T4dDblPointArray@@QEBA?AV?$iterator_impl@$$CBVT4dDblPoint@@@1@XZ
?end@T4dDblPointArrayPtrArray@@QEAA?AV?$iterator_impl@PEAVT4dDblPointArray@@@1@XZ
?end@T4dDblPointArrayPtrArray@@QEBA?AV?$iterator_impl@QEAVT4dDblPointArray@@@1@XZ
?end@T4dDblVectorArray@@QEAA?AV?$iterator_impl@VT4dDblVector@@@1@XZ
?end@T4dDblVectorArray@@QEBA?AV?$iterator_impl@$$CBVT4dDblVector@@@1@XZ
?end@T4dDblVectorArrayPtrArray@@QEAA?AV?$iterator_impl@PEAVT4dDblVectorArray@@@1@XZ
?end@T4dDblVectorArrayPtrArray@@QEBA?AV?$iterator_impl@QEAVT4dDblVectorArray@@@1@XZ
?end@T4dFltMatrixArray@@QEAA?AV?$iterator_impl@VT4dFltMatrix@@@1@XZ
?end@T4dFltMatrixArray@@QEBA?AV?$iterator_impl@$$CBVT4dFltMatrix@@@1@XZ
?end@T4dFltPointArray@@QEAA?AV?$iterator_impl@VT4dFltPoint@@@1@XZ
?end@T4dFltPointArray@@QEBA?AV?$iterator_impl@$$CBVT4dFltPoint@@@1@XZ
?end@TTuInt32Array@@QEAA?AV?$iterator_impl@I@1@XZ
?end@TTuInt32Array@@QEBA?AV?$iterator_impl@$$CBI@1@XZ
?end@TbdDataPtrArrayContainer@@QEAA?AV?$iterator_impl@PEAVTbdData@@@1@XZ
?end@TbdDataPtrArrayContainer@@QEBA?AV?$iterator_impl@QEAVTbdData@@@1@XZ
?end@TbooleanArray@@QEAA?AV?$iterator_impl@_N@1@XZ
?end@TbooleanArray@@QEBA?AV?$iterator_impl@$$CB_N@1@XZ
?end@TbooleanArrayPtrArray@@QEAA?AV?$iterator_impl@PEAVTbooleanArray@@@1@XZ
?end@TbooleanArrayPtrArray@@QEBA?AV?$iterator_impl@QEAVTbooleanArray@@@1@XZ
?end@TcharArray@@QEAA?AV?$iterator_impl@D@1@XZ
?end@TcharArray@@QEBA?AV?$iterator_impl@$$CBD@1@XZ
?end@TcharPtrArray@@QEAA?AV?$iterator_impl@PEAD@1@XZ
?end@TcharPtrArray@@QEBA?AV?$iterator_impl@QEAD@1@XZ
?end@TcompactPage@TcompactArena@@QEBAPEADXZ
?end@TdblPointArray@@QEAA?AV?$iterator_impl@VTdblPoint@@@1@XZ
?end@TdblPointArray@@QEBA?AV?$iterator_impl@$$CBVTdblPoint@@@1@XZ
?end@TdoubleArray@@QEAA?AV?$iterator_impl@N@1@XZ
?end@TdoubleArray@@QEBA?AV?$iterator_impl@$$CBN@1@XZ
?end@TdoubleArrayPtrArray@@QEAA?AV?$iterator_impl@PEAVTdoubleArray@@@1@XZ
?end@TdoubleArrayPtrArray@@QEBA?AV?$iterator_impl@QEAVTdoubleArray@@@1@XZ
?end@TdoublePtrArray@@QEAA?AV?$iterator_impl@PEAN@1@XZ
?end@TdoublePtrArray@@QEBA?AV?$iterator_impl@QEAN@1@XZ
?end@TdoubleRange@@QEBANXZ
?end@TdualQuaternionArray@@QEAA?AV?$iterator_impl@VTdualQuaternion@@@1@XZ
?end@TdualQuaternionArray@@QEBA?AV?$iterator_impl@$$CBVTdualQuaternion@@@1@XZ
?end@TfloatArray@@QEAA?AV?$iterator_impl@M@1@XZ
?end@TfloatArray@@QEBA?AV?$iterator_impl@$$CBM@1@XZ
?end@TfloatArrayPtrArray@@QEAA?AV?$iterator_impl@PEAVTfloatArray@@@1@XZ
?end@TfloatArrayPtrArray@@QEBA?AV?$iterator_impl@QEAVTfloatArray@@@1@XZ
?end@TfloatArrayPtrArrayPtrArray@@QEAA?AV?$iterator_impl@PEAVTfloatArrayPtrArray@@@1@XZ
?end@TfloatArrayPtrArrayPtrArray@@QEBA?AV?$iterator_impl@QEAVTfloatArrayPtrArray@@@1@XZ
?end@TfloatConstPtrArray@@QEAA?AV?$iterator_impl@PEBM@1@XZ
?end@TfloatConstPtrArray@@QEBA?AV?$iterator_impl@QEBM@1@XZ
?end@TfloatPtrArray@@QEAA?AV?$iterator_impl@PEAM@1@XZ
?end@TfloatPtrArray@@QEBA?AV?$iterator_impl@QEAM@1@XZ
?end@TfltLineArray@@QEAA?AV?$iterator_impl@VTfltLine@@@1@XZ
?end@TfltLineArray@@QEBA?AV?$iterator_impl@$$CBVTfltLine@@@1@XZ
?end@TfltLineSegment@@QEBA?AVT3dFltPoint@@XZ
?end@TfltPointArray@@QEAA?AV?$iterator_impl@VTfltPoint@@@1@XZ
?end@TfltPointArray@@QEBA?AV?$iterator_impl@$$CBVTfltPoint@@@1@XZ
?end@TiffTagArray@@QEAA?AV?$iterator_impl@VTiffTag@@@1@XZ
?end@TiffTagArray@@QEBA?AV?$iterator_impl@$$CBVTiffTag@@@1@XZ
?end@TindexArray@@QEAA?AV?$iterator_impl@I@1@XZ
?end@TindexArray@@QEBA?AV?$iterator_impl@$$CBI@1@XZ
?end@Tint16Array@@QEAA?AV?$iterator_impl@F@1@XZ
?end@Tint16Array@@QEBA?AV?$iterator_impl@$$CBF@1@XZ
?end@Tint32Array@@QEAA?AV?$iterator_impl@H@1@XZ
?end@Tint32Array@@QEBA?AV?$iterator_impl@$$CBH@1@XZ
?end@Tint32ArrayPtrArray@@QEAA?AV?$iterator_impl@PEAVTint32Array@@@1@XZ
?end@Tint32ArrayPtrArray@@QEBA?AV?$iterator_impl@QEAVTint32Array@@@1@XZ
?end@Tint64Array@@QEAA?AV?$iterator_impl@_J@1@XZ
?end@Tint64Array@@QEBA?AV?$iterator_impl@$$CB_J@1@XZ
?end@TlineArray@@QEAA?AV?$iterator_impl@VTline@@@1@XZ
?end@TlineArray@@QEBA?AV?$iterator_impl@$$CBVTline@@@1@XZ
?end@TlineSegment@@QEBA?AVT4dDblPoint@@XZ
?end@TmtThreadPtrArray@@QEAA?AV?$iterator_impl@PEAVTmtThread@@@1@XZ
?end@TmtThreadPtrArray@@QEBA?AV?$iterator_impl@QEAVTmtThread@@@1@XZ
?end@TnameObjectPtrArray@@QEAA?AV?$iterator_impl@PEAVTnameObject@@@1@XZ
?end@TnameObjectPtrArray@@QEBA?AV?$iterator_impl@QEAVTnameObject@@@1@XZ
?end@TnamespacePtrArray@@QEAA?AV?$iterator_impl@PEAVTnamespace@@@1@XZ
?end@TnamespacePtrArray@@QEBA?AV?$iterator_impl@QEAVTnamespace@@@1@XZ
?end@TobjectGroupIdArray@@QEAA?AV?$iterator_impl@I@1@XZ
?end@TobjectGroupIdArray@@QEBA?AV?$iterator_impl@$$CBI@1@XZ
?end@TpixelMapPtrArray@@QEAA?AV?$iterator_impl@PEAVTpixelMap@@@1@XZ
?end@TpixelMapPtrArray@@QEBA?AV?$iterator_impl@QEAVTpixelMap@@@1@XZ
?end@TpointArray@@QEAA?AV?$iterator_impl@VTpoint@@@1@XZ
?end@TpointArray@@QEBA?AV?$iterator_impl@$$CBVTpoint@@@1@XZ
?end@TpoolAllocatorPtrArray@@QEAA?AV?$iterator_impl@PEAVTpoolAllocator@@@1@XZ
?end@TpoolAllocatorPtrArray@@QEBA?AV?$iterator_impl@QEAVTpoolAllocator@@@1@XZ
?end@TportColorArray@@QEAA?AV?$iterator_impl@VTportColor@@@1@XZ
?end@TportColorArray@@QEBA?AV?$iterator_impl@$$CBVTportColor@@@1@XZ
?end@TquaternionArrayPtrArray@@QEAA?AV?$iterator_impl@PEAVTquaternionArray@@@1@XZ
?end@TquaternionArrayPtrArray@@QEBA?AV?$iterator_impl@QEAVTquaternionArray@@@1@XZ
?end@TrectArray@@QEAA?AV?$iterator_impl@VTrect@@@1@XZ
?end@TrectArray@@QEBA?AV?$iterator_impl@$$CBVTrect@@@1@XZ
?end@TrotateXYZArray@@QEAA?AV?$iterator_impl@VTrotateXYZ@@@1@XZ
?end@TrotateXYZArray@@QEBA?AV?$iterator_impl@$$CBVTrotateXYZ@@@1@XZ
?end@TscaleArray@@QEAA?AV?$iterator_impl@VTscale@@@1@XZ
?end@TscaleArray@@QEBA?AV?$iterator_impl@$$CBVTscale@@@1@XZ
?end@TselectedSrfDirectionsArray@@QEAA?AV?$iterator_impl@W4TselectedSrfDirections@@@1@XZ
?end@TselectedSrfDirectionsArray@@QEBA?AV?$iterator_impl@$$CBW4TselectedSrfDirections@@@1@XZ
?end@TstringPtrArray@@QEAA?AV?$iterator_impl@PEAVTstring@@@1@XZ
?end@TstringPtrArray@@QEBA?AV?$iterator_impl@QEAVTstring@@@1@XZ
?end@TsurfSelectedBoundaryTypeArray@@QEAA?AV?$iterator_impl@W4TsurfSelectedBoundaryType@@@1@XZ
?end@TsurfSelectedBoundaryTypeArray@@QEBA?AV?$iterator_impl@$$CBW4TsurfSelectedBoundaryType@@@1@XZ
?end@TsurfaceDirectionArray@@QEAA?AV?$iterator_impl@W4TsurfaceDirection@@@1@XZ
?end@TsurfaceDirectionArray@@QEBA?AV?$iterator_impl@$$CBW4TsurfaceDirection@@@1@XZ
?end@TtimeValueArray@@QEAA?AV?$iterator_impl@VTtimeValue@@@1@XZ
?end@TtimeValueArray@@QEBA?AV?$iterator_impl@$$CBVTtimeValue@@@1@XZ
?end@TtimeValueArrayPtrArray@@QEAA?AV?$iterator_impl@PEAVTtimeValueArray@@@1@XZ
?end@TtimeValueArrayPtrArray@@QEBA?AV?$iterator_impl@QEAVTtimeValueArray@@@1@XZ
?end@TtimeValuePtrArray@@QEAA?AV?$iterator_impl@PEAPEAVTtimeValue@@@1@XZ
?end@TtimeValuePtrArray@@QEBA?AV?$iterator_impl@QEAPEAVTtimeValue@@@1@XZ
?end@TtriggerPtrArray@@QEAA?AV?$iterator_impl@PEAVTtrigger@@@1@XZ
?end@TtriggerPtrArray@@QEBA?AV?$iterator_impl@QEAVTtrigger@@@1@XZ
?end@TuInt16Array@@QEAA?AV?$iterator_impl@G@1@XZ
?end@TuInt16Array@@QEBA?AV?$iterator_impl@$$CBG@1@XZ
?end@TuInt32Array@@QEAA?AV?$iterator_impl@I@1@XZ
?end@TuInt32Array@@QEBA?AV?$iterator_impl@$$CBI@1@XZ
?end@TuInt32ArrayPtrArray@@QEAA?AV?$iterator_impl@PEAVTuInt32Array@@@1@XZ
?end@TuInt32ArrayPtrArray@@QEBA?AV?$iterator_impl@QEAVTuInt32Array@@@1@XZ
?end@TuInt64Array@@QEAA?AV?$iterator_impl@_K@1@XZ
?end@TuInt64Array@@QEBA?AV?$iterator_impl@$$CB_K@1@XZ
?end@TuInt8Array@@QEAA?AV?$iterator_impl@E@1@XZ
?end@TuInt8Array@@QEBA?AV?$iterator_impl@$$CBE@1@XZ
?end@TuInt8ArrayPtrArray@@QEAA?AV?$iterator_impl@PEAVTuInt8Array@@@1@XZ
?end@TuInt8ArrayPtrArray@@QEBA?AV?$iterator_impl@QEAVTuInt8Array@@@1@XZ
?end@TuvPointArray@@QEAA?AV?$iterator_impl@VTuvPoint@@@1@XZ
?end@TuvPointArray@@QEBA?AV?$iterator_impl@$$CBVTuvPoint@@@1@XZ
?end@TvaluesArrayPtrArray@@QEAA?AV?$iterator_impl@PEAVTdoubleArray@@@1@XZ
?end@TvaluesArrayPtrArray@@QEBA?AV?$iterator_impl@QEAVTdoubleArray@@@1@XZ
?end@TviewRegionArray@@QEAA?AV?$iterator_impl@VTviewRegion@@@1@XZ
?end@TviewRegionArray@@QEBA?AV?$iterator_impl@$$CBVTviewRegion@@@1@XZ
?end@TvoidPtrArray@@QEAA?AV?$iterator_impl@PEAX@1@XZ
?end@TvoidPtrArray@@QEBA?AV?$iterator_impl@QEAX@1@XZ
?end@TxformMatrixPtrArray@@QEAA?AV?$iterator_impl@PEAVTxformMatrix@@@1@XZ
?end@TxformMatrixPtrArray@@QEBA?AV?$iterator_impl@QEAVTxformMatrix@@@1@XZ
?endComputation@Tcomputation@@UEAAXXZ
?endGet@TiffFile4@@UEAAHXZ
?endGet@TiffFile8@@UEAAHXZ
?endGroup@TsingleIndexedComponent@@QEAAXXZ
?endIndex@TindexRange@@QEBAIXZ
?endJob@TmtThreadPool@@QEAAXAEAVTmtThreadPtrArray@@@Z
?endOfFile@Tfile@@MEAAXXZ
?endOfGroup@TsingleIndexedComponent@@QEBAHI@Z
?endParse@TiffFile@@QEAAHXZ
?endPut@TiffFile4@@UEAAHXZ
?endPut@TiffFile8@@UEAAHXZ
?endReadGroup@TiffFile4@@UEAAHXZ
?endReadGroup@TiffFile8@@UEAAHXZ
?endSection@TdbTrace@@QEAAXXZ
?endSection@TdebugOutput@@UEAAXPEBDZZ
?endSection@TdebugOutput@@UEAAXXZ
?endTime@TtimeRange@@QEAAAEAVTanimTime@@XZ
?endValue@TfloatRange@@QEAAMXZ
?endWrite@TiffFile4@@UEAAHI@Z
?endWrite@TiffFile8@@UEAAHI@Z
?endWriteBufferedChunk@TiffFile4@@UEAAHI@Z
?endWriteBufferedChunk@TiffFile8@@UEAAHI@Z
?endWriteGroup@TiffFile4@@UEAAHXZ
?endWriteGroup@TiffFile8@@UEAAHXZ
?endsWith@Tstring@@QEBA_NAEBV1@@Z
?enlargeTo@TdoubleIndexedComponent@@QEAAXI@Z
?enlargeTo@TlongDoubleIndexedComponent@@QEAAXI@Z
?enlargeTo@TsingleIndexedComponent@@QEAAXI@Z
?enlargeTo@TuInt64IndexedComponent@@QEAAXI@Z
?ensureHasTrailingSeparator@TfilePath@@SAXAEAVTstring@@@Z
?enter@TdbTraceSection@@QEAAXPEBDZZ
?enter@TmtBarrier@@QEAA_NXZ
?enterIndent@TdbTraceSection@@QEAAXPEBDZZ
?entry@?$TotRayWalker@IVToctreeTriangleIntersection@@@@QEBAAEBIXZ
?entry@?$TotSphereWalker@VToctreePoint@@@@QEBAAEBVToctreePoint@@XZ
?entry@TtriangleOctree@@QEBAAEBVToctreeTriangle@@I@Z
?entryArena@?$Toctree@I@@QEBAAEAVTstackArena@@XZ
?entryArena@?$Toctree@VToctreePoint@@@@QEBAAEAVTstackArena@@XZ
?entryCount@TdirectoryPath@@QEBAIW4TdirEntryType@1@@Z
?entryCount@ThashTable@@QEBAIXZ
?eof@Tfile_iostream@@UEBAHXZ
?equal_range@?$_Tree@V?$_Tmap_traits@V?$basic_string@DU?$char_traits@D@std@@V?$allocator@D@2@@std@@PEAVTresourceElement@@U?$less@V?$basic_string@DU?$char_traits@D@std@@V?$allocator@D@2@@std@@@2@V?$allocator@U?$pair@$$CBV?$basic_string@DU?$char_traits@D@std@@V?$allocator@D@2@@std@@PEAVTresourceElement@@@std@@@2@$0A@@std@@@std@@QEAA?AU?$pair@V?$_Tree_iterator@V?$_Tree_val@U?$_Tree_simple_types@U?$pair@$$CBV?$basic_string@DU?$char_traits@D@std@@V?$allocator@D@2@@std@@PEAVTresourceElement@@@std@@@std@@@std@@@std@@V12@@2@AEBV?$basic_string@DU?$char_traits@D@std@@V?$allocator@D@2@@2@@Z
?equal_range@?$_Tree@V?$_Tmap_traits@V?$basic_string@DU?$char_traits@D@std@@V?$allocator@D@2@@std@@PEAVTresourceElement@@U?$less@V?$basic_string@DU?$char_traits@D@std@@V?$allocator@D@2@@std@@@2@V?$allocator@U?$pair@$$CBV?$basic_string@DU?$char_traits@D@std@@V?$allocator@D@2@@std@@PEAVTresourceElement@@@std@@@2@$0A@@std@@@std@@QEBA?AU?$pair@V?$_Tree_const_iterator@V?$_Tree_val@U?$_Tree_simple_types@U?$pair@$$CBV?$basic_string@DU?$char_traits@D@std@@V?$allocator@D@2@@std@@PEAVTresourceElement@@@std@@@std@@@std@@@std@@V12@@2@AEBV?$basic_string@DU?$char_traits@D@std@@V?$allocator@D@2@@2@@Z
?equal_range@?$_Tree@V?$_Tmap_traits@V?$basic_string@DU?$char_traits@D@std@@V?$allocator@D@2@@std@@PEAVTresourceGroup@@U?$less@V?$basic_string@DU?$char_traits@D@std@@V?$allocator@D@2@@std@@@2@V?$allocator@U?$pair@$$CBV?$basic_string@DU?$char_traits@D@std@@V?$allocator@D@2@@std@@PEAVTresourceGroup@@@std@@@2@$0A@@std@@@std@@QEAA?AU?$pair@V?$_Tree_iterator@V?$_Tree_val@U?$_Tree_simple_types@U?$pair@$$CBV?$basic_string@DU?$char_traits@D@std@@V?$allocator@D@2@@std@@PEAVTresourceGroup@@@std@@@std@@@std@@@std@@V12@@2@AEBV?$basic_string@DU?$char_traits@D@std@@V?$allocator@D@2@@2@@Z
?equal_range@?$_Tree@V?$_Tmap_traits@V?$basic_string@DU?$char_traits@D@std@@V?$allocator@D@2@@std@@PEAVTresourceGroup@@U?$less@V?$basic_string@DU?$char_traits@D@std@@V?$allocator@D@2@@std@@@2@V?$allocator@U?$pair@$$CBV?$basic_string@DU?$char_traits@D@std@@V?$allocator@D@2@@std@@PEAVTresourceGroup@@@std@@@2@$0A@@std@@@std@@QEBA?AU?$pair@V?$_Tree_const_iterator@V?$_Tree_val@U?$_Tree_simple_types@U?$pair@$$CBV?$basic_string@DU?$char_traits@D@std@@V?$allocator@D@2@@std@@PEAVTresourceGroup@@@std@@@std@@@std@@@std@@V12@@2@AEBV?$basic_string@DU?$char_traits@D@std@@V?$allocator@D@2@@2@@Z
?equivalent@T2dFltPoint@@QEBA_NAEBV1@M@Z
?equivalent@T2dFltVector@@QEBA_NAEBV1@M@Z
?equivalent@T3dDblPoint@@QEBA_NAEBV1@N@Z
?equivalent@T3dFltPoint@@QEBA_NAEBV1@M@Z
?equivalent@T3dFltVector@@QEBA_NAEBV1@M@Z
?equivalent@T4dDblMatrix@@QEBA_NAEBV1@N@Z
?equivalent@T4dDblPoint@@QEBA_NAEBV1@N@Z
?equivalent@T4dDblVector@@QEBA_NAEBV1@N@Z
?equivalent@T4dFltMatrix@@QEBA_NAEBV1@M@Z
?equivalent@T4dFltPoint@@QEBA_NAEBV1@M@Z
?equivalent@TblendFactor@@QEBA_NAEBV1@@Z
?equivalent@TblendFactor@@QEBA_NAEBV1@N@Z
?equivalent@TdblPoint@@QEBA_NAEBV1@AEBN@Z
?equivalent@TdualQuaternion@@QEBA_NAEBV1@N@Z
?equivalent@TfltLine@@QEBA_NAEBV1@M@Z
?equivalent@TfltPlane@@QEBA_NAEBV1@M@Z
?equivalent@TfltPoint@@QEBA_NAEBV1@AEBM@Z
?equivalent@TfltTuple@@QEBA_NAEBV1@M@Z
?equivalent@Tline@@QEBA_NAEBV1@N@Z
?equivalent@Tplane@@QEBA_NAEBV1@N@Z
?equivalent@TportColor@@QEBA_NAEBV1@M@Z
?equivalent@Tquaternion@@QEBA_NAEBV1@N@Z
?equivalent@TrenderSpectrum@@QEBA_NAEBV1@@Z
?equivalent@TrenderSpectrum@@QEBA_NAEBV1@N@Z
?equivalent@TrotateXYZ@@QEBA_NAEBV1@N@Z
?equivalent@Tscale@@QEBA_NAEBV1@N@Z
?equivalent@Tshear2@@QEBA_NAEBV1@N@Z
?equivalent@Tshear@@QEBA_NAEBV1@N@Z
?equivalent@Tspectrum@@QEBA_NAEBV1@@Z
?equivalent@Tspectrum@@QEBA_NAEBV1@N@Z
?equivalent@Ttuple@@QEBA_NAEBV1@N@Z
?equivalent@TxformMatrix@@UEBA_NAEBV1@N@Z
?erase@?$_Tree@V?$_Tmap_traits@V?$basic_string@DU?$char_traits@D@std@@V?$allocator@D@2@@std@@PEAVTresourceElement@@U?$less@V?$basic_string@DU?$char_traits@D@std@@V?$allocator@D@2@@std@@@2@V?$allocator@U?$pair@$$CBV?$basic_string@DU?$char_traits@D@std@@V?$allocator@D@2@@std@@PEAVTresourceElement@@@std@@@2@$0A@@std@@@std@@QEAA?AV?$_Tree_iterator@V?$_Tree_val@U?$_Tree_simple_types@U?$pair@$$CBV?$basic_string@DU?$char_traits@D@std@@V?$allocator@D@2@@std@@PEAVTresourceElement@@@std@@@std@@@std@@@2@V?$_Tree_const_iterator@V?$_Tree_val@U?$_Tree_simple_types@U?$pair@$$CBV?$basic_string@DU?$char_traits@D@std@@V?$allocator@D@2@@std@@PEAVTresourceElement@@@std@@@std@@@std@@@2@0@Z
?erase@?$_Tree@V?$_Tmap_traits@V?$basic_string@DU?$char_traits@D@std@@V?$allocator@D@2@@std@@PEAVTresourceElement@@U?$less@V?$basic_string@DU?$char_traits@D@std@@V?$allocator@D@2@@std@@@2@V?$allocator@U?$pair@$$CBV?$basic_string@DU?$char_traits@D@std@@V?$allocator@D@2@@std@@PEAVTresourceElement@@@std@@@2@$0A@@std@@@std@@QEAA?AV?$_Tree_iterator@V?$_Tree_val@U?$_Tree_simple_types@U?$pair@$$CBV?$basic_string@DU?$char_traits@D@std@@V?$allocator@D@2@@std@@PEAVTresourceElement@@@std@@@std@@@std@@@2@V?$_Tree_const_iterator@V?$_Tree_val@U?$_Tree_simple_types@U?$pair@$$CBV?$basic_string@DU?$char_traits@D@std@@V?$allocator@D@2@@std@@PEAVTresourceElement@@@std@@@std@@@std@@@2@@Z
?erase@?$_Tree@V?$_Tmap_traits@V?$basic_string@DU?$char_traits@D@std@@V?$allocator@D@2@@std@@PEAVTresourceElement@@U?$less@V?$basic_string@DU?$char_traits@D@std@@V?$allocator@D@2@@std@@@2@V?$allocator@U?$pair@$$CBV?$basic_string@DU?$char_traits@D@std@@V?$allocator@D@2@@std@@PEAVTresourceElement@@@std@@@2@$0A@@std@@@std@@QEAA_KAEBV?$basic_string@DU?$char_traits@D@std@@V?$allocator@D@2@@2@@Z
?erase@?$_Tree@V?$_Tmap_traits@V?$basic_string@DU?$char_traits@D@std@@V?$allocator@D@2@@std@@PEAVTresourceGroup@@U?$less@V?$basic_string@DU?$char_traits@D@std@@V?$allocator@D@2@@std@@@2@V?$allocator@U?$pair@$$CBV?$basic_string@DU?$char_traits@D@std@@V?$allocator@D@2@@std@@PEAVTresourceGroup@@@std@@@2@$0A@@std@@@std@@QEAA?AV?$_Tree_iterator@V?$_Tree_val@U?$_Tree_simple_types@U?$pair@$$CBV?$basic_string@DU?$char_traits@D@std@@V?$allocator@D@2@@std@@PEAVTresourceGroup@@@std@@@std@@@std@@@2@V?$_Tree_const_iterator@V?$_Tree_val@U?$_Tree_simple_types@U?$pair@$$CBV?$basic_string@DU?$char_traits@D@std@@V?$allocator@D@2@@std@@PEAVTresourceGroup@@@std@@@std@@@std@@@2@0@Z
?erase@?$_Tree@V?$_Tmap_traits@V?$basic_string@DU?$char_traits@D@std@@V?$allocator@D@2@@std@@PEAVTresourceGroup@@U?$less@V?$basic_string@DU?$char_traits@D@std@@V?$allocator@D@2@@std@@@2@V?$allocator@U?$pair@$$CBV?$basic_string@DU?$char_traits@D@std@@V?$allocator@D@2@@std@@PEAVTresourceGroup@@@std@@@2@$0A@@std@@@std@@QEAA?AV?$_Tree_iterator@V?$_Tree_val@U?$_Tree_simple_types@U?$pair@$$CBV?$basic_string@DU?$char_traits@D@std@@V?$allocator@D@2@@std@@PEAVTresourceGroup@@@std@@@std@@@std@@@2@V?$_Tree_const_iterator@V?$_Tree_val@U?$_Tree_simple_types@U?$pair@$$CBV?$basic_string@DU?$char_traits@D@std@@V?$allocator@D@2@@std@@PEAVTresourceGroup@@@std@@@std@@@std@@@2@@Z
?erase@?$_Tree@V?$_Tmap_traits@V?$basic_string@DU?$char_traits@D@std@@V?$allocator@D@2@@std@@PEAVTresourceGroup@@U?$less@V?$basic_string@DU?$char_traits@D@std@@V?$allocator@D@2@@std@@@2@V?$allocator@U?$pair@$$CBV?$basic_string@DU?$char_traits@D@std@@V?$allocator@D@2@@std@@PEAVTresourceGroup@@@std@@@2@$0A@@std@@@std@@QEAA_KAEBV?$basic_string@DU?$char_traits@D@std@@V?$allocator@D@2@@2@@Z
?error@TdynamicLoad@@QEBAAEBVTstring@@XZ
?error@TiffFile@@QEAAIXZ
?error@TlowLevelReporter@@UEBAXAEBVTstring@@@Z
?error@TregExp@@QEBAPEBDXZ
?errorChar@TlowLevelReporter@@QEBAXPEBD@Z
?errorCode@TfileException@@QEBA?AW4TerrorCode@1@XZ
?errorMessage@TfileException@@QEBA?AVTstring@@XZ
?estimateTimerOverhead@TnestedTimers@@CAXXZ
?ev@?1??enableLegacyIncorrectNodeNames@TincorrectNameSet@@CA_NXZ@4VTenvironmentVariable@@A
?event@Tprofiler@@QEAAPEAVTprofileTimeEvent@@H@Z
?eventBegin@Tprofiler@@QEAAHHW4kProfilingColors@1@PEBD1PEAX@Z
?eventClear@Tprofiler@@QEAAXXZ
?eventColor@Tprofiler@@SAPEAMW4kProfilingColors@1@@Z
?eventCount@Tprofiler@@QEAAHXZ
?eventEnd@Tprofiler@@QEAA_NH@Z
?eventLoad@Tprofiler@@QEAA_NPEBD@Z
?eventSave@Tprofiler@@QEAA_NPEBD@Z
?executablePath@TbatchGlobals@@SA?AVTstring@@XZ
?exists@TdataHanger@@QEBA_NAEBVTstring@@@Z
?exists@TfileSystemEntity@@QEBA_NXZ
?exitApp@TbaseLicenseManager@@UEAAXH@Z
?exitCode@TbaseLicenseManager@@SAHXZ
?exitCode@TmtThread@@QEBAHXZ
?exitHandler@TbaseLicenseManager@@KAP6AHXZXZ
?exp@@YA?AVTdualQuaternion@@AEBV1@@Z
?exp@Tquaternion@@QEBA?AV1@XZ
?expand@TboundingBox@@QEAAXAEBV1@@Z
?expand@TboundingBox@@QEAAXAEBVT4dDblPoint@@@Z
?expand@TboundingBox@@QEAAXAEBVTboundingSphere@@@Z
?expand@TboundingBox@@QEAAXNNN@Z
?expand@TboundingSphere@@QEAAXAEBV1@@Z
?expand@TboundingSphere@@QEAAXAEBVT4dDblPoint@@@Z
?expand@TboundingSphere@@QEAAXAEBVTboundingBox@@@Z
?expand@Tbox@@QEAAXAEBV1@@Z
?expand@Tbox@@QEAAXAEBVT3dDblPoint@@@Z
?expand@TcomponentWeights@@QEAAPEAV1@AEBVTbitFieldFixedN@@I@Z
?expand@TfltBoundingSphere@@QEAAXAEBV1@@Z
?expand@TfltBoundingSphere@@QEAAXAEBVT4dFltPoint@@@Z
?expand@TfltBoundingSphere@@QEAAXAEBVTfltBox@@@Z
?expand@TfltBox@@QEAAXAEBV1@@Z
?expand@TfltBox@@QEAAXAEBVT3dFltPoint@@@Z
?expand@TfltBox@@QEAAXMMM@Z
?expand@TfltInterval@@QEAAXAEBVTinterval@@@Z
?expand@TfltInterval@@QEAAXM@Z
?expand@TfltInterval@@QEAAXV1@@Z
?expand@TfltInterval@@QECAXV1@@Z
?expandArray@Tarray@@EEAAXI@Z
?expandArray@TcacheArray@@EEAAXI@Z
?expandArray@TobjArray@@EEAAXI@Z
?expandByPercentage@TfltBox@@QEAAXMQEAM@Z
?expandEnvVars@TfilePath@@IEAA?AVTstring@@AEBV2@@Z
?expandEnvVarsAndTilde@TfilePath@@SAXAEBVTstring@@AEAVTstringArray@@@Z
?expandFromCenter@TboundingBox@@QEAAXNNN@Z
?expandTilde@TfilePath@@KA?AVTstring@@AEBV2@@Z
?expandValue@TMayaEnvironment@@CAXPEAPEAD@Z
?ext@TfileName@@QEBA?AVTstring@@XZ
?extend@T3floatVoxelGrid@@UEAAXHHHHHH@Z
?extend@TfloatVoxelGrid@@UEAAXHHHHHH@Z
?extend@TvoxelGrid@@UEAAXHHHHHH@Z
?extendArray@TdataArrayAttrs@@AEAAXAEBV1@II@Z
?extension@TfilePath@@QEBA?AVTstring@@XZ
?extension@Tstring@@QEBA?AV1@XZ
?extensionVariable@TmayaAppInfo@@SA?AVTstring@@H@Z
?extensionVariableSlot@TmayaAppInfo@@SAHAEBVTstring@@@Z
?extraSize@Tmetaclass@@QEAAIXZ
?extractSingle@TcomponentWeights@@QEBAPEAV1@I@Z
?extractSingle@TdoubleIndexedComponent@@UEBAPEAVTcomponent@@I@Z
?extractSingle@TlongDoubleIndexedComponent@@UEBAPEAVTcomponent@@I@Z
?extractSingle@TsingleIndexedComponent@@UEBAPEAVTcomponent@@I@Z
?extractSingle@TuInt64IndexedComponent@@UEBAPEAVTcomponent@@I@Z
?extractSingleWithWeight@Tcomponent@@QEBAPEAV1@I@Z
?extractVariableAndValue@TMayaEnvironment@@CAHPEADPEAPEAD1@Z
?extractVectorsFromMatrix@TxformMatrix@@MEAAAEAV1@AEBVT4dDblMatrix@@@Z
?fAlwaysWriteReferencedCondition@TglobalTranslatorBase@@0PEAVTcondition@@EA
?fAppClass@TbatchGlobals@@0PEBDEB
?fAppName@TbatchGlobals@@0PEBDEB
?fApplicationVersionString@TbatchGlobals@@0VTstring@@A
?fArgc@TbatchGlobals@@0HA
?fArgvArray@TbatchGlobals@@0VTstringArray@@A
?fArgv_char@TbatchGlobals@@0PEAPEADEA
?fArgv_wchar@TbatchGlobals@@0PEAPEB_WEA
?fBasketList@TglobalPrefMgr@@0VTobjArrayTbasketPtr@@A
?fClusterWtCompReversed@TbatchGlobals@@0_NA
?fCount@TMayaRegNT@@0GA
?fCurrentPrefVersion@TglobalPrefMgr@@0MA
?fCurrentSceneFileName@TglobalTranslatorBase@@1VTstring@@A
?fCurrentSceneLocation@TglobalTranslatorBase@@1VTstring@@A
?fDestructorCallback@MPtrBase@@0P6AXPEAX@ZEA
?fDialogNum@beginIdleRollupT4@@1GA
?fEnable@TincorrectNameSet@@0_NA
?fEnvironmentFileIsRead@TMayaEnvironment@@0HA
?fFileVersionFunc@TglobalTranslatorBase@@1P6AHXZEA
?fFirstSupportedPrefVersion@TglobalPrefMgr@@0MA
?fFlushingSceneCondition@TglobalTranslatorBase@@0PEAVTcondition@@EA
?fFormatBufferIncrementSize@TdebugOutput@@1HB
?fFormatBufferMaxSize@TdebugOutput@@1HB
?fFullCommandLine@TbatchGlobals@@0VTstring@@A
?fHasBeenCalled@beginIdleRollupT4@@1_NA
?fHeader@TglobalPrefMgr@@0VTstring@@A
?fHeaderTemplate@TglobalPrefMgr@@0VTstring@@A
?fIgnoreReferenceEdits@TglobalTranslatorBase@@1_NA
?fInitCount@TpidlConverter@@1HA
?fIsPre2009@TbatchGlobals@@0_NA
?fIsPre45@TbatchGlobals@@0_NA
?fIsSuppressTriggerSet@TmemoryAlert@@0_NA
?fIsSuppressed@TmemoryAlert@@0_NA
?fMayaFileFormatVersionStringArray@TbatchGlobals@@0PAVTstring@@A
?fNamespaceDebug1@Tnamespace@@0VTdbTrace@@A
?fNamespaceIterDebug1@TnamespaceIterator@@0VTdbTrace@@A
?fNewingFileCondition@TglobalTranslatorBase@@0PEAVTcondition@@EA
?fNoDialog@TincorrectNameSet@@0_NA
?fNotUsingNamespaces@TbatchGlobals@@0_NA
?fNotWritingPolyColors@TbatchGlobals@@0_NA
?fNullPixelMap@TsharedPixelMap@@0VTpixelMap@@A
?fOldBindPoseMode@TbatchGlobals@@0_NA
?fOldNurbsSurfaceTrimData@TbatchGlobals@@0_NA
?fOldPolyRep@TbatchGlobals@@0_NA
?fOldRebuildRational@TbatchGlobals@@0_NA
?fOldRebuildSurfaces@TbatchGlobals@@0_NA
?fOldSwapNamespaceBinary@TbatchGlobals@@0_NA
?fOpeningFileCondition@TglobalTranslatorBase@@0PEAVTcondition@@EA
?fPID@TbatchGlobals@@0HA
?fPolyRepCreased@TbatchGlobals@@0_NA
?fPolyRepCreasedVertex@TbatchGlobals@@0_NA
?fPolyRepHoleFace@TbatchGlobals@@0_NA
?fPolyRepPinnedUV@TbatchGlobals@@0_NA
?fPostSceneCallbacksCondition@TglobalTranslatorBase@@0PEAVTcondition@@EA
?fPrefDirectory@TglobalPrefMgr@@0PEAVTdirectory@@EA
?fPrefItemList@TglobalPrefMgr@@0VTpreferenceItemPtrArray@@A
?fReadingFileCondition@TglobalTranslatorBase@@0PEAVTcondition@@EA
?fReadingReferenceFileCondition@TglobalTranslatorBase@@0PEAVTcondition@@EA
?fReporter@TmemoryAlert@@0PEAVTreporter@@EA
?fSet@TincorrectNameSet@@0V?$unordered_set@VTstring@@UHasher@1@U?$equal_to@VTstring@@@std@@V?$allocator@VTstring@@@4@@unordered@awBoost@@A
?fUiConnection@Tcomputation@@0PEAVTwrapperConnection@@EA
?fUseNonAffineXformCalculations@TbatchGlobals@@0_NA
?fUsedForCWrapperFunction@Tcomputation@@0PEAV1@EA
?fVersionNumberStrings@TbatchGlobals@@0VTstringArray@@A
?fWritingFileCondition@TglobalTranslatorBase@@0PEAVTcondition@@EA
?faceId@TtriangleOctreeRayWalker@@QEBAIXZ
?faceToShellMap@TpolyMapShell@@QEAAAEAVTuInt32Array@@XZ
?fail@Tfile@@QEBA_NXZ
?fail@Tfile_iostream@@UEBAHXZ
?fastInverse@T4dDblMatrix@@QEBA?AV1@XZ
?fastInverse@T4dFltMatrix@@QEBA?AV1@XZ
?fastInvertIt@T4dDblMatrix@@QEAAAEAV1@XZ
?fastInvertIt@T4dFltMatrix@@QEAAAEAV1@XZ
?fatal@TadlmLicenseManager@@UEAAXXZ
?fatal@TbaseLicenseManager@@UEAAXXZ
?fatal@TmintLicenseManager@@UEAAXXZ
?feedbackNumericalInput@Tcomponent@@UEBA_NAEAVTstring@@AEAVTdoubleArray@@@Z
?ffdBinomial@T2dFfd@@SAHII@Z
?file@ToDo@@QEBAPEBDXZ
?fileClosed@TprofilerManager@@UEAAXPEAVTclientServer@@AEBVTserverMsg@@@Z
?fileClosedCB@TprofilerManager@@SAXPEAVTclient@@PEAVTclientServer@@AEBVTserverMsg@@@Z
?fileDescriptor@TsafeFileSave@@QEAAHXZ
?fileError@TiffFile4@@UEBA_NXZ
?fileError@TiffFile8@@UEBA_NXZ
?fileIsOkay@TfileSystemEntity@@QEAA_NAEAVTattributeStream@@@Z
?filePointer@TsafeFileSave@@QEAAPEAU_iobuf@@XZ
?fileSize@TfileManager@@SAIAEBVTstring@@@Z
?fileSize@TfileManager@@SAIPEBD@Z
?fileStream@TsafeFileSave@@QEAAAEAV?$basic_ofstream@DU?$char_traits@D@std@@@std@@XZ
?fileTimeStamp@TfileManager@@SA_KAEBVTstring@@@Z
?fileTimeStamp@TfileManager@@SA_KPEBD@Z
?fillBackground@TfillBackground@@SAXAEAVTpixelMap@@@Z
?fillFileIOClass@TxformMatrix@@QEAAXAEAVTxformMatrixV1@@@Z
?fillTable@Tmetaclass@@AEAAXPEAIG@Z
?find@?$TdataHashTable@IPEAVTmetaclass@@@@QEAAPEAPEAVTmetaclass@@AEBI@Z
?find@?$TdataHashTable@IPEAVTmetaclass@@@@QEBAPEBQEAVTmetaclass@@AEBI@Z
?find@?$TdataHashTable@IPEAVTmetaclass@@@@QEBA_NAEBIAEAPEAVTmetaclass@@@Z
?find@?$TdataHashTable@PEAVTbdData@@PEAV1@@@QEAAPEAPEAVTbdData@@AEBQEAV2@@Z
?find@?$TdataHashTable@PEAVTbdData@@PEAV1@@@QEBAPEBQEAVTbdData@@AEBQEAV2@@Z
?find@?$TdataHashTable@PEAVTbdData@@PEAV1@@@QEBA_NAEBQEAVTbdData@@AEAPEAV2@@Z
?find@?$TdataHashTable@PEAXVTstring@@@@QEAAPEAVTstring@@AEBQEAX@Z
?find@?$TdataHashTable@PEAXVTstring@@@@QEBAPEBVTstring@@AEBQEAX@Z
?find@?$TdataHashTable@PEAXVTstring@@@@QEBA_NAEBQEAXAEAVTstring@@@Z
?find@?$TdataHashTable@VTstring@@H@@QEAAPEAHAEBVTstring@@@Z
?find@?$TdataHashTable@VTstring@@H@@QEBAPEBHAEBVTstring@@@Z
?find@?$TdataHashTable@VTstring@@H@@QEBA_NAEBVTstring@@AEAH@Z
?find@?$TdataHashTable@VTstring@@PEAVTmetaclass@@@@QEAAPEAPEAVTmetaclass@@AEBVTstring@@@Z
?find@?$TdataHashTable@VTstring@@PEAVTmetaclass@@@@QEBAPEBQEAVTmetaclass@@AEBVTstring@@@Z
?find@?$TdataHashTable@VTstring@@PEAVTmetaclass@@@@QEBA_NAEBVTstring@@AEAPEAVTmetaclass@@@Z
?find@?$TdataHashTable@VTstring@@V1@@@QEAAPEAVTstring@@AEBV2@@Z
?find@?$TdataHashTable@VTstring@@V1@@@QEBAPEBVTstring@@AEBV2@@Z
?find@?$TdataHashTable@VTstring@@V1@@@QEBA_NAEBVTstring@@AEAV2@@Z
?find@?$_Tree@V?$_Tmap_traits@V?$basic_string@DU?$char_traits@D@std@@V?$allocator@D@2@@std@@PEAVTresourceElement@@U?$less@V?$basic_string@DU?$char_traits@D@std@@V?$allocator@D@2@@std@@@2@V?$allocator@U?$pair@$$CBV?$basic_string@DU?$char_traits@D@std@@V?$allocator@D@2@@std@@PEAVTresourceElement@@@std@@@2@$0A@@std@@@std@@QEAA?AV?$_Tree_iterator@V?$_Tree_val@U?$_Tree_simple_types@U?$pair@$$CBV?$basic_string@DU?$char_traits@D@std@@V?$allocator@D@2@@std@@PEAVTresourceElement@@@std@@@std@@@std@@@2@AEBV?$basic_string@DU?$char_traits@D@std@@V?$allocator@D@2@@2@@Z
?find@?$_Tree@V?$_Tmap_traits@V?$basic_string@DU?$char_traits@D@std@@V?$allocator@D@2@@std@@PEAVTresourceElement@@U?$less@V?$basic_string@DU?$char_traits@D@std@@V?$allocator@D@2@@std@@@2@V?$allocator@U?$pair@$$CBV?$basic_string@DU?$char_traits@D@std@@V?$allocator@D@2@@std@@PEAVTresourceElement@@@std@@@2@$0A@@std@@@std@@QEBA?AV?$_Tree_const_iterator@V?$_Tree_val@U?$_Tree_simple_types@U?$pair@$$CBV?$basic_string@DU?$char_traits@D@std@@V?$allocator@D@2@@std@@PEAVTresourceElement@@@std@@@std@@@std@@@2@AEBV?$basic_string@DU?$char_traits@D@std@@V?$allocator@D@2@@2@@Z
?find@?$_Tree@V?$_Tmap_traits@V?$basic_string@DU?$char_traits@D@std@@V?$allocator@D@2@@std@@PEAVTresourceGroup@@U?$less@V?$basic_string@DU?$char_traits@D@std@@V?$allocator@D@2@@std@@@2@V?$allocator@U?$pair@$$CBV?$basic_string@DU?$char_traits@D@std@@V?$allocator@D@2@@std@@PEAVTresourceGroup@@@std@@@2@$0A@@std@@@std@@QEAA?AV?$_Tree_iterator@V?$_Tree_val@U?$_Tree_simple_types@U?$pair@$$CBV?$basic_string@DU?$char_traits@D@std@@V?$allocator@D@2@@std@@PEAVTresourceGroup@@@std@@@std@@@std@@@2@AEBV?$basic_string@DU?$char_traits@D@std@@V?$allocator@D@2@@2@@Z
?find@?$_Tree@V?$_Tmap_traits@V?$basic_string@DU?$char_traits@D@std@@V?$allocator@D@2@@std@@PEAVTresourceGroup@@U?$less@V?$basic_string@DU?$char_traits@D@std@@V?$allocator@D@2@@std@@@2@V?$allocator@U?$pair@$$CBV?$basic_string@DU?$char_traits@D@std@@V?$allocator@D@2@@std@@PEAVTresourceGroup@@@std@@@2@$0A@@std@@@std@@QEBA?AV?$_Tree_const_iterator@V?$_Tree_val@U?$_Tree_simple_types@U?$pair@$$CBV?$basic_string@DU?$char_traits@D@std@@V?$allocator@D@2@@std@@PEAVTresourceGroup@@@std@@@std@@@std@@@2@AEBV?$basic_string@DU?$char_traits@D@std@@V?$allocator@D@2@@2@@Z
?find@T2FloatArray@@QEBAHAEBVT2Float@@@Z
?find@T2FloatArray@@QEBAHAEBVT2Float@@AEAI@Z
?find@T3DoubleArray@@QEBAHAEBVT3Double@@@Z
?find@T3DoubleArray@@QEBAHAEBVT3Double@@AEAI@Z
?find@T3FloatArray@@QEBAHAEBVT3Float@@@Z
?find@T3FloatArray@@QEBAHAEBVT3Float@@AEAI@Z
?find@T3dDblPointArray@@QEBAHAEBVT3dDblPoint@@@Z
?find@T3dDblPointArray@@QEBAHAEBVT3dDblPoint@@AEAI@Z
?find@T3dDblPointArrayPtrArray@@QEBAHAEBQEAVT3dDblPointArray@@@Z
?find@T3dDblPointArrayPtrArray@@QEBAHAEBQEAVT3dDblPointArray@@AEAI@Z
?find@T3dFltPointArray@@QEBAHAEBVT3dFltPoint@@@Z
?find@T3dFltPointArray@@QEBAHAEBVT3dFltPoint@@AEAI@Z
?find@T3dFltVectorArray@@QEBAHAEBVT3dFltVector@@@Z
?find@T3dFltVectorArray@@QEBAHAEBVT3dFltVector@@AEAI@Z
?find@T4dDblMatrixArray@@QEBAHAEBVT4dDblMatrix@@@Z
?find@T4dDblMatrixArray@@QEBAHAEBVT4dDblMatrix@@AEAI@Z
?find@T4dDblPointArray@@QEBAHAEBVT4dDblPoint@@@Z
?find@T4dDblPointArray@@QEBAHAEBVT4dDblPoint@@AEAI@Z
?find@T4dDblPointArrayPtrArray@@QEBAHAEBQEAVT4dDblPointArray@@@Z
?find@T4dDblPointArrayPtrArray@@QEBAHAEBQEAVT4dDblPointArray@@AEAI@Z
?find@T4dDblVectorArray@@QEBAHAEBVT4dDblVector@@@Z
?find@T4dDblVectorArray@@QEBAHAEBVT4dDblVector@@AEAI@Z
?find@T4dDblVectorArrayPtrArray@@QEBAHAEBQEAVT4dDblVectorArray@@@Z
?find@T4dDblVectorArrayPtrArray@@QEBAHAEBQEAVT4dDblVectorArray@@AEAI@Z
?find@T4dFltMatrixArray@@QEBAHAEBVT4dFltMatrix@@@Z
?find@T4dFltMatrixArray@@QEBAHAEBVT4dFltMatrix@@AEAI@Z
?find@T4dFltPointArray@@QEBAHAEBVT4dFltPoint@@@Z
?find@T4dFltPointArray@@QEBAHAEBVT4dFltPoint@@AEAI@Z
?find@TDarray@@QEBAHAEBVTdata@@@Z
?find@TDarray@@QEBAHAEBVTdata@@AEAI@Z
?find@TTuInt32Array@@QEBAHAEBI@Z
?find@TTuInt32Array@@QEBAHAEBIAEAI@Z
?find@TanimTimeArray@@QEBAHAEBVTanimTime@@@Z
?find@TanimTimeArray@@QEBAHAEBVTanimTime@@AEAI@Z
?find@TanimTimeSortedArray@@QEBAHAEBVTanimTime@@@Z
?find@TanimTimeSortedArray@@QEBAHAEBVTanimTime@@AEAI1@Z
?find@TanimTimeSortedArray@@QEBAHAEBVTanimTime@@AEAI@Z
?find@TargListPtrArray@@QEAAHAEBQEAVTargList@@AEAI@Z
?find@TargListPtrArray@@QEBAHAEBQEAVTargList@@@Z
?find@TargTypeArray@@QEAAHAEBVTargType@@AEAI@Z
?find@TargTypeArray@@QEBAHAEBVTargType@@@Z
?find@TbdDataPtrArray@@QEAAPEAVTbdData@@PEAV2@@Z
?find@TbdDataPtrArrayContainer@@QEBAHAEBQEAVTbdData@@@Z
?find@TbdDataPtrArrayContainer@@QEBAHAEBQEAVTbdData@@AEAI@Z
?find@TbooleanArray@@QEBAHAEB_N@Z
?find@TbooleanArray@@QEBAHAEB_NAEAI@Z
?find@TbooleanArrayPtrArray@@QEBAHAEBQEAVTbooleanArray@@@Z
?find@TbooleanArrayPtrArray@@QEBAHAEBQEAVTbooleanArray@@AEAI@Z
?find@TcharArray@@QEBAHAEBD@Z
?find@TcharArray@@QEBAHAEBDAEAI@Z
?find@TcharPtrArray@@QEBAHAEBQEAD@Z
?find@TcharPtrArray@@QEBAHAEBQEADAEAI@Z
?find@TcomponentPtrArray@@QEBAHAEBQEAVTcomponent@@@Z
?find@TcomponentPtrArray@@QEBAHAEBQEAVTcomponent@@AEAI@Z
?find@Tcondition@@KAPEAV1@AEBVTstring@@_NAEAI@Z
?find@Tcondition@@SAPEAV1@AEBVTstring@@_N@Z
?find@TdataHanger@@IEBAPEAVThangerData@@AEBVTstring@@@Z
?find@TdataHanger@@IEBAPEAVThangerData@@AEBVTstring@@AEAPEAV2@@Z
?find@TdblPointArray@@QEBAHAEBVTdblPoint@@@Z
?find@TdblPointArray@@QEBAHAEBVTdblPoint@@AEAI@Z
?find@TdelayedMsgTypeArray@@QEBAHAEBVTdelayedMsgType@@@Z
?find@TdelayedMsgTypeArray@@QEBAHAEBVTdelayedMsgType@@AEAI@Z
?find@TdoubleArray@@QEBAHAEBN@Z
?find@TdoubleArray@@QEBAHAEBNAEAI@Z
?find@TdoubleArrayPtrArray@@QEBAHAEBQEAVTdoubleArray@@@Z
?find@TdoubleArrayPtrArray@@QEBAHAEBQEAVTdoubleArray@@AEAI@Z
?find@TdoubleIndexLongArray@@QEBAHAEBVTdoubleIndexLong@@@Z
?find@TdoubleIndexLongArray@@QEBAHAEBVTdoubleIndexLong@@AEAI@Z
?find@TdoublePtrArray@@QEBAHAEBQEAN@Z
?find@TdoublePtrArray@@QEBAHAEBQEANAEAI@Z
?find@TdoubleRangeArray@@QEBAHAEBVTdoubleRange@@@Z
?find@TdoubleRangeArray@@QEBAHAEBVTdoubleRange@@AEAI@Z
?find@TdoubleSortedArray@@QEBAHAEBN@Z
?find@TdoubleSortedArray@@QEBAHAEBNAEAI1@Z
?find@TdoubleSortedArray@@QEBAHAEBNAEAI@Z
?find@TdualQuaternionArray@@QEBAHAEBVTdualQuaternion@@@Z
?find@TdualQuaternionArray@@QEBAHAEBVTdualQuaternion@@AEAI@Z
?find@TfilePathArray@@QEBAHAEBVTfilePath@@@Z
?find@TfilePathArray@@QEBAHAEBVTfilePath@@AEAI@Z
?find@TfilePathList@@QEBAHAEBVTfilePath@@@Z
?find@TfilePathList@@QEBAHAEBVTfilePath@@AEAI@Z
?find@TfilePathList@@QEBAHAEBVTstring@@@Z
?find@TfilePathList@@QEBAHAEBVTstring@@AEAI@Z
?find@TfloatArray@@QEBAHAEBM@Z
?find@TfloatArray@@QEBAHAEBMAEAI@Z
?find@TfloatArrayPtrArray@@QEBAHAEBQEAVTfloatArray@@@Z
?find@TfloatArrayPtrArray@@QEBAHAEBQEAVTfloatArray@@AEAI@Z
?find@TfloatArrayPtrArrayPtrArray@@QEBAHAEBQEAVTfloatArrayPtrArray@@@Z
?find@TfloatArrayPtrArrayPtrArray@@QEBAHAEBQEAVTfloatArrayPtrArray@@AEAI@Z
?find@TfloatConstPtrArray@@QEBAHAEBQEBM@Z
?find@TfloatConstPtrArray@@QEBAHAEBQEBMAEAI@Z
?find@TfloatPtrArray@@QEBAHAEBQEAM@Z
?find@TfloatPtrArray@@QEBAHAEBQEAMAEAI@Z
?find@TfloatRangeArray@@QEBAHAEBVTfloatRange@@@Z
?find@TfloatRangeArray@@QEBAHAEBVTfloatRange@@AEAI@Z
?find@TfltLineArray@@QEBAHAEBVTfltLine@@@Z
?find@TfltLineArray@@QEBAHAEBVTfltLine@@AEAI@Z
?find@TfltPointArray@@QEBAHAEBVTfltPoint@@@Z
?find@TfltPointArray@@QEBAHAEBVTfltPoint@@AEAI@Z
?find@TiffTagArray@@QEBAHAEBVTiffTag@@@Z
?find@TiffTagArray@@QEBAHAEBVTiffTag@@AEAI@Z
?find@TindexArray@@QEBAHAEBI@Z
?find@TindexArray@@QEBAHAEBIAEAI@Z
?find@TindexRangeArray@@QEBAHAEBVTindexRange@@@Z
?find@TindexRangeArray@@QEBAHAEBVTindexRange@@AEAI@Z
?find@Tint16Array@@QEBAHAEBF@Z
?find@Tint16Array@@QEBAHAEBFAEAI@Z
?find@Tint32Array@@QEBAHAEBH@Z
?find@Tint32Array@@QEBAHAEBHAEAI@Z
?find@Tint32ArrayPtrArray@@QEBAHAEBQEAVTint32Array@@@Z
?find@Tint32ArrayPtrArray@@QEBAHAEBQEAVTint32Array@@AEAI@Z
?find@Tint32SortedArray@@QEBAHAEBH@Z
?find@Tint32SortedArray@@QEBAHAEBHAEAI1@Z
?find@Tint32SortedArray@@QEBAHAEBHAEAI@Z
?find@Tint64Array@@QEBAHAEB_J@Z
?find@Tint64Array@@QEBAHAEB_JAEAI@Z
?find@TkeyWordHashTable@@QEBA_NAEBVTcharString@@@Z
?find@TlineArray@@QEBAHAEBVTline@@@Z
?find@TlineArray@@QEBAHAEBVTline@@AEAI@Z
?find@TmtThreadPtrArray@@QEBAHAEBQEAVTmtThread@@@Z
?find@TmtThreadPtrArray@@QEBAHAEBQEAVTmtThread@@AEAI@Z
?find@TnameObjectPtrArray@@QEBAHAEBQEAVTnameObject@@@Z
?find@TnameObjectPtrArray@@QEBAHAEBQEAVTnameObject@@AEAI@Z
?find@TnamespacePtrArray@@QEBAHAEBQEAVTnamespace@@@Z
?find@TnamespacePtrArray@@QEBAHAEBQEAVTnamespace@@AEAI@Z
?find@TobjArrayTbasketPtr@@QEBAHAEBQEAVTbasket@@@Z
?find@TobjArrayTbasketPtr@@QEBAHAEBQEAVTbasket@@AEAI@Z
?find@TobjectGroupIdArray@@QEBAHAEBI@Z
?find@TobjectGroupIdArray@@QEBAHAEBIAEAI@Z
?find@TobjectGroupPtrArray@@QEBAHAEBQEAVTobjectGroup@@@Z
?find@TobjectGroupPtrArray@@QEBAHAEBQEAVTobjectGroup@@AEAI@Z
?find@TpixelMapPtrArray@@QEBAHAEBQEAVTpixelMap@@@Z
?find@TpixelMapPtrArray@@QEBAHAEBQEAVTpixelMap@@AEAI@Z
?find@TpointArray@@QEBAHAEBVTpoint@@@Z
?find@TpointArray@@QEBAHAEBVTpoint@@AEAI@Z
?find@TpolyMapArray@@QEBAHAEBVTpolyMap@@@Z
?find@TpolyMapArray@@QEBAHAEBVTpolyMap@@AEAI@Z
?find@TpolyMapArrayShared@@QEAA_NAEBVTstring@@AEAI@Z
?find@TpolyTangentSetArray@@QEBAHAEBVTpolyTangentSet@@@Z
?find@TpolyTangentSetArray@@QEBAHAEBVTpolyTangentSet@@AEAI@Z
?find@TpoolAllocatorPtrArray@@QEBAHAEBQEAVTpoolAllocator@@@Z
?find@TpoolAllocatorPtrArray@@QEBAHAEBQEAVTpoolAllocator@@AEAI@Z
?find@TportColorArray@@QEBAHAEBVTportColor@@@Z
?find@TportColorArray@@QEBAHAEBVTportColor@@AEAI@Z
?find@TpreferenceItemPtrArray@@QEBAHAEBQEAVTpreferenceItem@@@Z
?find@TpreferenceItemPtrArray@@QEBAHAEBQEAVTpreferenceItem@@AEAI@Z
?find@TptrHashTable@@QEBA_NAEBQEAX@Z
?find@TquaternionArray@@QEBAHAEBVTquaternion@@@Z
?find@TquaternionArray@@QEBAHAEBVTquaternion@@AEAI@Z
?find@TquaternionArrayPtrArray@@QEBAHAEBQEAVTquaternionArray@@@Z
?find@TquaternionArrayPtrArray@@QEBAHAEBQEAVTquaternionArray@@AEAI@Z
?find@TrectArray@@QEBAHAEBVTrect@@@Z
?find@TrectArray@@QEBAHAEBVTrect@@AEAI@Z
?find@TrotateXYZArray@@QEBAHAEBVTrotateXYZ@@@Z
?find@TrotateXYZArray@@QEBAHAEBVTrotateXYZ@@AEAI@Z
?find@TscaleArray@@QEBAHAEBVTscale@@@Z
?find@TscaleArray@@QEBAHAEBVTscale@@AEAI@Z
?find@TselectedSrfDirectionsArray@@QEBAHAEBW4TselectedSrfDirections@@@Z
?find@TselectedSrfDirectionsArray@@QEBAHAEBW4TselectedSrfDirections@@AEAI@Z
?find@TserverMsgPtrList@@QEBAPEAVTlink@1@AEBQEAVTserverMsg@@@Z
?find@TsharedPixelMapArray@@QEBAHAEBVTsharedPixelMap@@@Z
?find@TsharedPixelMapArray@@QEBAHAEBVTsharedPixelMap@@AEAI@Z
?find@TsortedBdDataPtrArray@@QEBAHAEBVTbdDataPtrSObj@@@Z
?find@TsortedBdDataPtrArray@@QEBAHAEBVTbdDataPtrSObj@@AEAI1@Z
?find@TsortedBdDataPtrArray@@QEBAHAEBVTbdDataPtrSObj@@AEAI@Z
?find@TsortedObjectGroupIdArray@@QEBAHAEBI@Z
?find@TsortedObjectGroupIdArray@@QEBAHAEBIAEAI1@Z
?find@TsortedObjectGroupIdArray@@QEBAHAEBIAEAI@Z
?find@TsortedStringArray@@QEBAHAEBVTstring@@@Z
?find@TsortedStringArray@@QEBAHAEBVTstring@@AEAI1@Z
?find@TsortedStringArray@@QEBAHAEBVTstring@@AEAI@Z
?find@TstringArray@@QEBAHAEBVTstring@@@Z
?find@TstringArray@@QEBAHAEBVTstring@@AEAI@Z
?find@TstringKeyHashTable@@QEBA_NAEBVTstring@@@Z
?find@TstringPtrArray@@QEBAHAEBQEAVTstring@@@Z
?find@TstringPtrArray@@QEBAHAEBQEAVTstring@@AEAI@Z
?find@TsurfSelectedBoundaryTypeArray@@QEBAHAEBW4TsurfSelectedBoundaryType@@@Z
?find@TsurfSelectedBoundaryTypeArray@@QEBAHAEBW4TsurfSelectedBoundaryType@@AEAI@Z
?find@TsurfaceDirectionArray@@QEBAHAEBW4TsurfaceDirection@@@Z
?find@TsurfaceDirectionArray@@QEBAHAEBW4TsurfaceDirection@@AEAI@Z
?find@TsurfaceIndexArray@@QEBAHAEBVTsurfaceIndex@@@Z
?find@TsurfaceIndexArray@@QEBAHAEBVTsurfaceIndex@@AEAI@Z
?find@TtimeRangeArray@@QEBAHAEBVTtimeRange@@@Z
?find@TtimeRangeArray@@QEBAHAEBVTtimeRange@@AEAI@Z
?find@TtimeValueArray@@QEBAHAEBVTtimeValue@@@Z
?find@TtimeValueArray@@QEBAHAEBVTtimeValue@@AEAI@Z
?find@TtimeValueArrayPtrArray@@QEBAHAEBQEAVTtimeValueArray@@@Z
?find@TtimeValueArrayPtrArray@@QEBAHAEBQEAVTtimeValueArray@@AEAI@Z
?find@TtimeValuePtrArray@@QEBAHAEBQEAPEAVTtimeValue@@@Z
?find@TtimeValuePtrArray@@QEBAHAEBQEAPEAVTtimeValue@@AEAI@Z
?find@Ttrigger@@KAPEAV1@AEBVTstring@@_NAEAI@Z
?find@Ttrigger@@SAPEAV1@AEBVTstring@@_N@Z
?find@TtriggerPtrArray@@QEBAHAEBQEAVTtrigger@@@Z
?find@TtriggerPtrArray@@QEBAHAEBQEAVTtrigger@@AEAI@Z
?find@TtypeidArray@@QEBAHAEBQEAVTmetaclass@@@Z
?find@TtypeidArray@@QEBAHAEBQEAVTmetaclass@@AEAI@Z
?find@TuInt16Array@@QEBAHAEBG@Z
?find@TuInt16Array@@QEBAHAEBGAEAI@Z
?find@TuInt16SortedArray@@QEBAHAEBG@Z
?find@TuInt16SortedArray@@QEBAHAEBGAEAI1@Z
?find@TuInt16SortedArray@@QEBAHAEBGAEAI@Z
?find@TuInt32Array@@QEBAHAEBI@Z
?find@TuInt32Array@@QEBAHAEBIAEAI@Z
?find@TuInt32ArrayPtrArray@@QEBAHAEBQEAVTuInt32Array@@@Z
?find@TuInt32ArrayPtrArray@@QEBAHAEBQEAVTuInt32Array@@AEAI@Z
?find@TuInt32SortedArray@@QEBAHAEBI@Z
?find@TuInt32SortedArray@@QEBAHAEBIAEAI1@Z
?find@TuInt32SortedArray@@QEBAHAEBIAEAI@Z
?find@TuInt64Array@@QEBAHAEB_K@Z
?find@TuInt64Array@@QEBAHAEB_KAEAI@Z
?find@TuInt64SortedArray@@QEBAHAEB_K@Z
?find@TuInt64SortedArray@@QEBAHAEB_KAEAI1@Z
?find@TuInt64SortedArray@@QEBAHAEB_KAEAI@Z
?find@TuInt8Array@@QEBAHAEBE@Z
?find@TuInt8Array@@QEBAHAEBEAEAI@Z
?find@TuInt8ArrayPtrArray@@QEBAHAEBQEAVTuInt8Array@@@Z
?find@TuInt8ArrayPtrArray@@QEBAHAEBQEAVTuInt8Array@@AEAI@Z
?find@TuvPointArray@@QEBAHAEBVTuvPoint@@@Z
?find@TuvPointArray@@QEBAHAEBVTuvPoint@@AEAI@Z
?find@TvaluesArrayPtrArray@@QEBAHAEBQEAVTdoubleArray@@@Z
?find@TvaluesArrayPtrArray@@QEBAHAEBQEAVTdoubleArray@@AEAI@Z
?find@TviewRegionArray@@QEBAHAEBVTviewRegion@@@Z
?find@TviewRegionArray@@QEBAHAEBVTviewRegion@@AEAI@Z
?find@TvoidPtrArray@@QEBAHAEBQEAX@Z
?find@TvoidPtrArray@@QEBAHAEBQEAXAEAI@Z
?find@TvoidPtrSortedArray@@QEBAHAEBQEAX@Z
?find@TvoidPtrSortedArray@@QEBAHAEBQEAXAEAI1@Z
?find@TvoidPtrSortedArray@@QEBAHAEBQEAXAEAI@Z
?find@TxformMatrixArray@@QEBAHAEBVTxformMatrix@@@Z
?find@TxformMatrixArray@@QEBAHAEBVTxformMatrix@@AEAI@Z
?find@TxformMatrixPtrArray@@QEBAHAEBQEAVTxformMatrix@@@Z
?find@TxformMatrixPtrArray@@QEBAHAEBQEAVTxformMatrix@@AEAI@Z
?findAllMapsForName@TpolyMapArrayShared@@QEBA_NAEBVTstring@@AEAVTuInt32Array@@@Z
?findAndCreateNamespace@TnamespaceManager@@QEAA_NAEAVTstring@@PEAPEAVTnamespace@@PEAV3@PEAVTnamespacePtrArray@@@Z
?findAny@Tstring@@QEBAHAEBV1@I@Z
?findBd@TbdTable@@QEAAIHAEBVTstring@@0@Z
?findBd@TbdTable@@QEAAIHAEBVTstring@@@Z
?findClass@Tmetaclass@@SAPEAV1@PEBD@Z
?findClass@Tmetaclass@@SAPEAV1@PEBDPEAV1@@Z
?findClass@Tmetaclass@@SAPEAV1@VTiffTag@@@Z
?findClosest@?$TotSphereWalker@I@@IEBAXPEBV?$TotNode@I@@AEBVT3dFltPoint@@AEANAEAPEBI_N44@Z
?findClosest@?$TotSphereWalker@I@@QEBAPEBIAEBVT3dFltPoint@@NPEAN_N22@Z
?findClosest@?$TotSphereWalker@VToctreePoint@@@@IEBAXPEBV?$TotNode@VToctreePoint@@@@AEBVT3dFltPoint@@AEANAEAPEBVToctreePoint@@_N44@Z
?findClosest@?$TotSphereWalker@VToctreePoint@@@@QEBAPEBVToctreePoint@@AEBVT3dFltPoint@@NPEAN_N22@Z
?findClosest@TpointOctreeWalker@@QEBAPEBVToctreePoint@@AEBVT3dFltPoint@@NPEAN_N22@Z
?findClosest@TtriangleOctreeSphereWalker@@QEBA_NAEBVT3dFltPoint@@AEAI1AEAM2NPEAN_N44@Z
?findElement@Tarray@@IEBAHPEAXAEAI@Z
?findExisting@Ttrigger@@KAPEAV1@AEBVTstring@@AEAI@Z
?findFile@TsearchPath@@QEBA_NAEBVTstring@@AEAVTfilePath@@@Z
?findFirstChild@?$TotSphereWalker@VToctreePoint@@@@IEAA_NXZ
?findFlag@TdbOperation@@IEBAPEBVTdbFlag@@AEBVTstring@@@Z
?findForIndex@TpolyMapArrayShared@@QEAA_NAEAVTstring@@AEAIH@Z
?findInBlackList@TpseudoTranslate@@CA_NAEBVTstring@@@Z
?findIntersections@?$TotRayWalker@IVToctreeTriangleIntersection@@@@QEAAII@Z
?findIntersections@TtriangleOctreeRayWalker@@QEAAII@Z
?findMB@Tstring@@QEBAHAEBV1@I@Z
?findMB@Tstring@@QEBAH_WI@Z
?findMB@TuniqueString@@QEBAHAEBVTstring@@I@Z
?findName@Tnamespace@@UEAAPEAVTnameObject@@AEAVTnameString@@@Z
?findNamedOutput@TdebugOutputFile@@SAPEAV1@PEBD@Z
?findNamespace@TnamespaceManager@@QEAA_NAEBVTstring@@PEAPEAVTnamespace@@PEAV3@_N@Z
?findNextAncestor@?$TotSphereWalker@VToctreePoint@@@@IEAA_NPEBV?$TotNode@VToctreePoint@@@@@Z
?findNextEntry@?$TotSphereWalker@VToctreePoint@@@@IEAA_NXZ
?findNextSibling@?$TotSphereWalker@VToctreePoint@@@@IEAA_NXZ
?findNode@TindexDictionary@@QEBAPEAVTindexDictionaryNode@@AEBI@Z
?findNode@TindexDictionary@@QEBAPEAVTindexDictionaryNode@@AEBIAEAVTbookmark@@@Z
?findNode@TtypeDictionary@@QEBAPEAVTtypeDictionaryNode@@AEBVTcharString@@@Z
?findNode@TtypeDictionary@@QEBAPEAVTtypeDictionaryNode@@AEBVTcharString@@AEAVTbookmark@@@Z
?findObjectGroup@TgroupedObject@@QEBA_NIAEAI@Z
?findOrCreateCounterPerThread@Tcounter@@AEAAPEAVTcounterContext@@XZ
?findOrCreateMatchingCounter@TcounterContext@@AEAAPEAV1@AEBVTstring@@@Z
?findPlaceHolderNamespace@TnamespaceManager@@QEAA_NAEBVTstring@@PEAPEAVTnamespace@@PEAV3@@Z
?findTypeid@TmetaLetter@@SAPEAVTmetaclass@@AEBVTiffTag@@@Z
?findTypeid@TmetaLetter@@SAPEAVTmetaclass@@PEBD@Z
?findchr@Tstring@@QEBAHD@Z
?findchr@TuniqueString@@QEBAHD@Z
?findrchr@Tstring@@QEBAHD@Z
?findrchr@TuniqueString@@QEBAHD@Z
?findrstr@Tstring@@QEBAHAEBV1@@Z
?findrstr@TuniqueString@@QEBAHAEBVTstring@@@Z
?findstr@Tstring@@QEBAHAEBV1@@Z
?findstr@TuniqueString@@QEBAHAEBVTstring@@@Z
?finish@TprogressIndicator@@UEAAXXZ
?first@Iterator@TkeyWordHashTable@@QEAA_NXZ
?first@Iterator@TptrHashTable@@QEAA_NXZ
?first@Iterator@TstringKeyHashTable@@QEAA_NXZ
?first@NameIterator@Tnamespace@@QEAA_NAEAVTnameString@@@Z
?first@TindexDictionary@@QEBAPEAVTindexDictionaryNode@@XZ
?first@TsearchPathIterator@@QEAAXXZ
?first@TserverMsgPtrList@@QEBAPEAVTlink@1@XZ
?first@Tstring@@QEBAIXZ
?first@TtypeDictionary@@QEBAPEAVTtypeDictionaryNode@@XZ
?firstBlock@TcompactPage@TcompactArena@@QEBAPEADXZ
?firstChild@Ttree@@UEBAPEAXPEAX@Z
?firstMatch@TregExp@@QEBAPEBDPEAPEBD@Z
?firstPage@TbaseArena@@IEAAAEAPEAVTpage@1@XZ
?firstPage@TcompactArena@@IEAAAEAPEAVTcompactPage@1@XZ
?firstPage@TfixedArena@@IEAAAEAPEAVTfixedPage@1@XZ
?firstPage@TstackArena@@IEAAAEAPEAVTstackPage@1@XZ
?firstPage@TvariantArena@@IEAAAEAPEAVTvariantPage@1@XZ
?firstRayIntersection@TfltBox@@QEBA_NAEBVT4dFltPoint@@AEBVT3dFltVector@@PEAMPEAV2@@Z
?firstSupportedPrefVersion@TglobalPrefMgr@@SAMXZ
?flFile@TiffFile4@@QEAAPEAU_FLfile@@XZ
?flFile@TiffFile8@@QEAAPEAU_FLfile8@@XZ
?flagSet@TdbOperation@@QEBA_NAEBVTstring@@@Z
?flagValue@TdbOperation@@QEBAPEBVTstring@@AEBV2@@Z
?flags@TdbOperation@@QEAAAEBV?$set@PEBVTdbFlag@@U?$less@PEBVTdbFlag@@@std@@V?$allocator@PEBVTdbFlag@@@3@@std@@XZ
?flags@TpreferenceItem@@QEAAIXZ
?floatArray@TdataFloatArray@@QEBAPEAVTfloatArray@@XZ
?floatValue@Tdata@@QEBAMXZ
?flush@Tfile@@QEAAAEAV1@XZ
?flush@TfileManager@@QEAAXXZ
?flush@Tfile_iostream@@UEAAAEAV1@XZ
?flush@TiffFile4@@UEAAHXZ
?flush@TiffFile8@@UEAAHXZ
?flushBuffer@TiffFile4@@EEAAHH_N@Z
?flushBuffer@TiffFile8@@EEAAHH_N@Z
?flushBuffers@TiffFile4@@EEAAH_N@Z
?flushBuffers@TiffFile8@@EEAAH_N@Z
?flushingSceneCondition@TglobalTranslatorBase@@SAPEAVTcondition@@XZ
?footPrint@TbaseArena@@QEBA_KXZ
?forceMode@TpseudoTranslate@@SA_NXZ
?forceNotification@TdelayedClientServer@@QEAAXPEAVTmetaclass@@@Z
?fork@TmtThread@@CAIPEAX@Z
?format@TcomponentWeights@@QEBAIXZ
?format@Tweight@@QEBAIXZ
?formatError@TlowLevelReporter@@QEAAXPEBDZZ
?formatToWidth@Tstring@@QEAAXI@Z
?formatWarning@TlowLevelReporter@@QEAAXPEBDZZ
?formatWithValidation@TstringUtil@@SA_NAEBVTstring@@AEBVTstringArray@@AEAV2@PEAHPEAW4FormatStatus@1@@Z
?format_@TnestedTimers@@CAXPEADHH0NHH@Z
?format_@TnestedTimers@@CAXPEADHNNH_NH10NHH@Z
?forward@Tdictionary@@MEBAAEAPEAVTdictionaryNode@@H@Z
?forward@TindexDictionaryNode@@MEBAAEAPEAVTdictionaryNode@@H@Z
?forward@TtypeDictionaryNode@@MEBAAEAPEAVTdictionaryNode@@H@Z
?fpDesktop@TpidlConverter@@1PEAUIShellFolder@@EA
?fpMalloc@TpidlConverter@@1PEAUIMalloc@@EA
?fprintf@Treporter@@QEAAXPEAXPEBDZZ
?fracDigits@TgridIncrement@@QEAAHXZ
?free@TmallocAllocator@@UEAAXPEAX_K@Z
?freeArray@TpoolData@@QEAAXXZ
?freeBuffers@TiffFile@@QEAAXXZ
?freeListIndex@TvariantArena@@IEAA_K_K@Z
?freeMemory@TmallocAllocator@@CA_KXZ
?freePage@TbaseArena@@IEAAXPEAX_K@Z
?freeSpace@TfileManager@@AEAA_NI@Z
?fromCMYK@TportColor@@AEAAXMMMM@Z
?fromCache@Tdata@@QEAAX_N@Z
?fromHSV@TportColor@@AEAAXMMM@Z
?fromRGBA@TportColor@@AEAAXQEBM@Z
?fsAllow@TsrtComponents@@1PEAV1@EA
?fsAvailableIndicators@Tcomputation@@0PAPEAVTprogressIndicator@@A
?fsAvailableOutput@TdebugOutput@@1PEAPEAV1@EA
?fsBuildingEdits@TglobalTranslatorBase@@1_NA
?fsBytesPerMb@TresourceQuery@@0MB
?fsCallbacks@ThwrCallback@@0VThwrCallbackPtrArray@@A
?fsCatalogLoadLock@TstringCatalog@@0VTmtCriticalSection@@A
?fsCatalogLoaded@TstringCatalog@@0_NA
?fsCurRefIOMode@TglobalTranslatorBase@@1W4TrefIOMode@1@A
?fsCurrentMovieCompressor@TmovieCompressor@@2W4TcurrentMovieCompressor@@A
?fsCurrentUiUnit@TangleUnit@@0W4TangleUnitSystem@@A
?fsCurrentUiUnit@Tunit@@0W4TunitSystem@1@A
?fsDGOwnerThreadID@TmtThread@@0KA
?fsDataMismatch@Tdata@@2VTincompatibleData@@A
?fsDefaultDefaultName@TpolyMapArrayShared@@0VTstring@@A
?fsDefaultGenerationName@TpolyMapArrayShared@@0VTstring@@A
?fsDefaultMaxPrecision@TlinearString@@0GA
?fsDepth@TportColor@@0FA
?fsDisallow@TsrtComponents@@1PEAV1@EA
?fsEnabled@TCIPClient@@0_NA
?fsErrorMsg@TdynamicLoad@@0VTstring@@A
?fsFfdBinomialTable@T2dFfd@@0PEAPEAHEA
?fsFfdBinomialTableWidth@T2dFfd@@0IA
?fsFloatClampingOnConversion@Tstring@@2_NA
?fsForceMode@TpseudoTranslate@@0_NA
?fsGate@TstackTrace@@0_NA
?fsIffTable@TmetaLetter@@0PEAVTiffTable@@EA
?fsImpl@TappLocale@@0PEAVTappLocaleImpl@@EA
?fsImportingReference@TglobalTranslatorBase@@1_NA
?fsIndicatorArrayInitialized@Tcomputation@@0_NA
?fsInstanceBase@TfileResolverMgrBase@@0PEAV1@EA
?fsInternalUnit@TangleUnit@@0W4TangleUnitSystem@@A
?fsInternalUnit@Tunit@@0W4TunitSystem@1@A
?fsInvalidBaseChars@TfileName@@0VTstring@@A
?fsInvalidDirChars@TfileName@@0VTstring@@A
?fsIsRedoing@TundoManagerBase@@1_NA
?fsIsUndoing@TundoManagerBase@@1_NA
?fsLastFreeMemQueryTime@TmallocAllocator@@0_JA
?fsLicenseError@TglobalTranslatorBase@@1_NA
?fsLoadingAncestralReference@TglobalTranslatorBase@@1_NA
?fsLoadingEditTargets@TglobalTranslatorBase@@1HA
?fsLoadingReference@TglobalTranslatorBase@@1_NA
?fsMainThreadID@TmtThread@@0KA
?fsMapDiskFile@TmallocAllocator@@0PEAUTmmap@@EA
?fsMapZeroedMemory@TmallocAllocator@@0PEAUTmmap@@EA
?fsMask@TmallocAllocator@@0_KA
?fsMatchingEditAttrs@TglobalTranslatorBase@@1_NA
?fsMayaEnvLocation@TMayaEnvironment@@0PEADEA
?fsMessageBoard@TmessageCenter@@0PEAV1@EA
?fsMessageOperationFnPtr@TglobalTimer@@2P6AX_NPEBVTclient@@PEBVTserverMsg@@@ZEA
?fsModalDialog@TCIPClient@@1PEAVQCIPModalDialog@@EA
?fsNULL@Tdata@@2V1@A
?fsNameTable@TmetaLetter@@0PEAVTnameTable@@EA
?fsNeedToBufferData@TiffFile@@1_NA
?fsNumberOfCPUs@TresourceQuery@@0HA
?fsNumberOfMouseButtons@TresourceQuery@@0FA
?fsOrderMap@TrotateXYZ@@0PAY02IA
?fsOutputSize@TdebugOutput@@1IA
?fsOverhead@TglobalTimer@@0NA
?fsOverheadOn@TglobalTimer@@0_NA
?fsPageSize@TmallocAllocator@@0_KA
?fsPlaceHolderNamespaceUtil@TplaceHolderNamespaceUtil@@1PEAV1@EA
?fsPlayback@TlowLevelReporter@@2PEAVTcondition@@EA
?fsPrecision@Tstring@@2HA
?fsProcOperationFnPtr@TglobalTimer@@2P6AXAEBVTstring@@I_NI@ZEA
?fsProcProfilerFnPtr@TglobalTimer@@2P6AXAEBVTstring@@_N@ZEA
?fsPseudoInit@TpseudoTranslate@@0_NA
?fsPseudoMode@TpseudoTranslate@@0W4TpseudoMode@1@A
?fsPseudoValue@TpseudoTranslate@@0VTstring@@A
?fsQuiet@TlowLevelReporter@@2_NA
?fsReadEncodingError@TglobalTranslatorBase@@1_NA
?fsRegistrar@Tfootprint@@0PEAVTfootprintRegistrar@@EA
?fsRemovingReferenceEdits@TglobalTranslatorBase@@1_NA
?fsStartTime@TresourceQuery@@0Utimeval@@A
?fsStats@TobjectStats@@2PEAVTobjectStatsArray@@EA
?fsStderr@TdebugOutput@@0PEAV1@EA
?fsStdout@TdebugOutput@@0PEAV1@EA
?fsThreadCount@TmtThread@@0HA
?fsTimerOn@TglobalTimer@@0_NA
?fsTotalFree@TmallocAllocator@@0_KA
?fsTotalMemory@TmallocAllocator@@0_KA
?fsTrace@TdataLetter@@2VTdbTrace@@A
?fsTraceFile@TglobalTimer@@0PEAU_iobuf@@EA
?fsTraceOn@TglobalTimer@@0_NA
?fsTracesOn@TdbTrace@@1HA
?fsTransferringReferenceEdits@TglobalTranslatorBase@@1_NA
?fsTransparentIndex@TportColor@@0HA
?fsUnloadingEditTargets@TglobalTranslatorBase@@1HA
?fsUnloadingReference@TglobalTranslatorBase@@1_NA
?fsUseMalloc@TmallocAllocator@@0HA
?fsVersion@TprefOptionVars@@0IA
?fsVersionChanges@TprefOptionVars@@0PAPEBDA
?fsWrapString@Tfile@@2PEBDEB
?ft@Tlinear@@QEBANXZ
?ftSet@Tlinear@@QEAAXN@Z
?ftoa@TformatUtils@@SAHMPEAD@Z
?fullName@TdirIterator@@QEBA?AVTstring@@XZ
?fullName@TfilePath@@QEBA?AVTstring@@XZ
?fullName@TfileStream@@QEBA?AVTstring@@XZ
?fullName@TfileSystemEntity@@QEBA?AVTstring@@XZ
?fullName@TnameObject@@QEBAAEBVTstring@@XZ
?function@TdataFunction@@QEAAPEAVTfunction@@XZ
?function@TdataFunction@@QEBAPEBVTfunction@@XZ
?gApiLibMode@@3_NA
?gBatchMode@@3_NA
?gHideConsoleWin@@3_NA
?gMachineEpoch@Ttime@@0V1@B
?gMayaInBaseUIMode@@3_NA
?gNames@TdebugVariable@@2PAVTstring@@A
?gNil@TcharString@@0QBDB
?gNumOverlayObjects@TinternalPluginHelper@@2HA
?gOverlayObjectDoubleData@TinternalPluginHelper@@2PEANEA
?gPython3kMode@@3_NA
?gTaskArenaETS@@3V?$enumerable_thread_specific@Vtask_arena@interface7@tbb@@V?$cache_aligned_allocator@Vtask_arena@interface7@tbb@@@3@$00@interface6@tbb@@A
?gTimeConvert@TanimTime@@0NA
?gTimeUnit@TanimTime@@0W4TtimeUnitSystem@@A
?gTypes@TdebugVariable@@2PAW4eDvType@@A
?gUnitConversions@TangleUnit@@0VTangleUnitPtrArray@@A
?gUnitConversions@TtimeUnit@@0VTtimeUnitPtrArray@@A
?gUnitConversions@Tunit@@0VTunitPtrArray@@A
?gUnitConversionsUninitialized@TangleUnit@@0_NA
?gUnitConversionsUninitialized@TtimeUnit@@0_NA
?gUnitConversionsUninitialized@Tunit@@0_NA
?gVariableCount@TdebugVariable@@2IA
?gVariables@TdebugVariable@@2PAPEAXA
?gaussianFilter@TpixelMap@@QEAAXM@Z
?gcount@Tfile@@QEAA_JXZ
?gcount@Tfile_iostream@@UEBA_JXZ
?generateBdList@TbdTable@@QEAAXXZ
?generateDictionaryFor@Tmetaclass@@SAPEAVTtypeDictionary@@PEAV1@@Z
?generateStrings@TdoubleIndexedComponent@@IEBAXAEBVTstring@@AEAV2@AEAVTstringArray@@@Z
?generateStrings@TlongDoubleIndexedComponent@@IEBAXAEBVTstring@@AEAV2@AEAVTstringArray@@@Z
?generateStrings@TsingleIndexedComponent@@IEBAXAEBVTstring@@AEAVTstringArray@@AEAV2@@Z
?generateStrings@TuInt64IndexedComponent@@IEBAXAEBVTstring@@AEAVTstringArray@@AEAV2@@Z
?get@TdataHanger@@QEBA_NAEBVTstring@@AEAHI@Z
?get@TdataHanger@@QEBA_NAEBVTstring@@AEANI@Z
?get@TdataHanger@@QEBA_NAEBVTstring@@AEAPEAXI@Z
?get@TdataHanger@@QEBA_NAEBVTstring@@AEAV2@I@Z
?get@TdataHanger@@QEBA_NAEBVTstring@@AEAVT4dDblMatrix@@I@Z
?get@TdataHanger@@QEBA_NAEBVTstring@@AEA_NI@Z
?get@Tfile@@QEAAAEAV1@AEAD@Z
?get@Tfile_iostream@@UEAAAEAV1@AEAD@Z
?get@TfunctionMapping@@UEAA_NIPEAX@Z
?get@TiffFile4@@UEAAHPEAXI@Z
?get@TiffFile8@@UEAAHPEAXI@Z
?get@TportColor@@QEBAXAEAM000@Z
?get@TportColor@@QEBAXAEAM00@Z
?get@TportColor@@QEBAXW4TportColorType@1@AEAE111@Z
?get@TportColor@@QEBAXW4TportColorType@1@AEAE11@Z
?get@TportColor@@QEBAXW4TportColorType@1@AEAG111@Z
?get@TportColor@@QEBAXW4TportColorType@1@AEAG11@Z
?get@TportColor@@QEBAXW4TportColorType@1@AEAM111@Z
?get@TportColor@@QEBAXW4TportColorType@1@AEAM11@Z
?get@TportColor@@QEBAXW4TportColorType@1@AEAN111@Z
?get@TportColor@@QEBAXW4TportColorType@1@AEAN11@Z
?get@TserverMsgPtrList@@QEAAAEAPEAVTserverMsg@@PEAVTlink@1@@Z
?get@TserverMsgPtrList@@QEBAAEBQEAVTserverMsg@@PEAVTlink@1@@Z
?get@TthreadSubtree@@UEBAXPEAX0@Z
?get@TthreadTree@@UEBAXPEAX0@Z
?getAeroEnabled@TresourceQuery@@SA_NXZ
?getAllQueryItemKeys@TfileURI@@QEBAXAEAVTstringArray@@@Z
?getAllQueryItemValues@TfileURI@@QEBAXAEBVTstring@@AEAVTstringArray@@@Z
?getApplicationClass@TbatchGlobals@@SAPEBDXZ
?getApplicationName@TbatchGlobals@@SAPEBDXZ
?getApplicationTitle@TbatchGlobals@@SAPEBDXZ
?getArgc@TbatchGlobals@@SAAEAHXZ
?getArgvArray@TbatchGlobals@@SAAEBVTstringArray@@XZ
?getArgvAsChar@TbatchGlobals@@SAPEAPEADXZ
?getArgvAsWChar@TbatchGlobals@@SAPEAPEB_WXZ
?getArrayArg@TargList@@UEBAHIAEAPEBNAEAI@Z
?getArrayArg@TargList@@UEBAHIAEAPEB_JAEAI@Z
?getArrayMemSize@TmallocAllocator@@SA_KPEBD@Z
?getArrayVar@TprefOptionVars@@QEAA_NAEBVTstring@@IAEAH@Z
?getArrayVar@TprefOptionVars@@QEAA_NAEBVTstring@@IAEAN@Z
?getArrayVar@TprefOptionVars@@QEAA_NAEBVTstring@@IAEAV2@@Z
?getAs3Double@Tdata3Double@@QEBAXPEAN@Z
?getAs4Double@Tdata4Double@@QEBAXPEAN@Z
?getAuthority@TfileURI@@QEBA?AVTstring@@XZ
?getBaseName@TpolyBdVertexFaceBase@@QEBAXAEAVTstring@@@Z
?getBaseName@TpolyBdVertexFaceBase@@SAXAEAVTstring@@AEBV2@@Z
?getBdFmt@TbdTable@@QEAAII@Z
?getBdID@TbdInfo@@QEAAIXZ
?getBdNames@TbdTable@@QEAA_NIAEAVTstring@@0@Z
?getBdNamesAndTypeId@TbdTable@@QEAAHIAEAVTstring@@0@Z
?getBdTypeId@TbdTable@@QEAAHI@Z
?getBehavior@TbaseLicenseManager@@UEAAHXZ
?getBinarySetting@TMayaRegNT@@SAHPEBDPEAEH@Z
?getBlockIO@TresourceQuery@@SAXPEA_K0@Z
?getBoardType@TresourceQuery@@SA_NAEAVTstring@@@Z
?getBooleanData@TdataArrayAttrs@@QEBAPEAVTbooleanArray@@I@Z
?getBooleanData@TdataArrayAttrs@@QEBAPEBVTbooleanArray@@AEBVTstring@@@Z
?getBounds@TshapeAlgebra@@QEBAXAEAVTrect@@@Z
?getBounds@TshapeAlgebra@@QEBAXAEAVTrectArray@@@Z
?getCacheLineSize@TcpuFeatures@@SAHXZ
?getCenter@?$TotNode@I@@QEBAAEBVT3dFltPoint@@XZ
?getCenter@?$TotNode@VToctreePoint@@@@QEBAAEBVT3dFltPoint@@XZ
?getChannel@TpixelMap@@QEBAPEAEE@Z
?getChild@?$TotNode@I@@QEBAPEBV1@H@Z
?getChild@?$TotNode@I@@QEBAPEBV1@III@Z
?getChild@?$TotNode@VToctreePoint@@@@QEBAPEBV1@H@Z
?getChild@?$TotNode@VToctreePoint@@@@QEBAPEBV1@III@Z
?getChunk@TiffFile4@@UEAAPEBXAEAVTiffTag@@PEAI@Z
?getChunk@TiffFile8@@UEAAPEBXAEAVTiffTag@@PEAI@Z
?getClosestPointOnBoundary@TfltBoundingBox@@UEBAXAEBVT3dFltPoint@@AEAV2@@Z
?getClosestPointOnBoundary@TfltBox@@QEBAXAEBVT3dFltPoint@@AEAV2@@Z
?getClosestUVId@TpolyMap@@AEBA_NAEBVT2Float@@AEBVTuInt32Array@@AEAI@Z
?getClosestVoxelCoords@TspatialGrid@@QEBAXAEBVT3dFltPoint@@AEAVT3Int32@@@Z
?getCodeSet@TappLocale@@SA?AVTstring@@XZ
?getCollection@TmtTSSCollection@@SAPEAV1@XZ
?getCommandLine@TbatchGlobals@@SAAEBVTstring@@XZ
?getCommonAncestor@TnamespaceManager@@QEBAPEAVTnamespace@@PEAV2@0@Z
?getCompleteData@TdoubleIndexedComponent@@QEBAXAEAH0@Z
?getCompleteData@TlongDoubleIndexedComponent@@QEBAXAEAH0@Z
?getCompleteData@TsingleIndexedComponent@@QEBAXAEAH@Z
?getCompleteData@TuInt64IndexedComponent@@QEBAXAEA_K@Z
?getContents@Tdirectory@@QEBAXAEAVTstringArray@@@Z
?getContents@Tdirectory@@QEBAXAEAVTstringArray@@AEBVTdirectoryContentsQuery@@@Z
?getContents@Tdirectory@@QEBAXAEAVTstringArray@@AEBVTstring@@@Z
?getContextSwitches@TresourceQuery@@SAXPEA_K0@Z
?getContrast@Treflectance@@AEBAXHPEBVTspectrum@@AEAV2@@Z
?getContrast@Tspectrum@@QEBAXHPEBV1@AEAV1@@Z
?getCoordFromIndex@TvoxelGrid@@QEAAXIAEAI00@Z
?getCount@Tfile_iostream@@QEBAJXZ
?getCount@TnestedTimers@@SAHH_N@Z
?getCounts@Tcounter@@AEBA_NAEAH0@Z
?getCounts@TcounterContext@@AEBA_NAEAH0@Z
?getCpuSpeed@TresourceQuery@@SA_NAEAVTstring@@@Z
?getCpuType@TresourceQuery@@SA_NAEAVTstring@@@Z
?getData@TbdData@@QEBAAEBTBD_dataHolder@@XZ
?getData@TdataBinary@@UEAAAEAVTstring@@XZ
?getData@TdataBinary@@UEAAHPEAPEADPEAI@Z
?getData@TdoubleIndexedComponent@@QEBAXAEAPEAHAEAI@Z
?getData@TsingleIndexedComponent@@QEBAXAEAPEAHAEAI@Z
?getData@TuInt64IndexedComponent@@QEBAXAEAPEA_KAEAI@Z
?getDataBlock@TparseFile@@QEAA_NPEAXI@Z
?getDataFormat@TbdData@@QEBAGXZ
?getDefaultValue@TstringId@@QEBAAEBVIString@awString@@XZ
?getDerivedClasses@Tmetaclass@@SAXPEAV1@AEAVTtypeidArray@@@Z
?getDirectory@TfileStream@@QEBA_NAEAVTdirectory@@@Z
?getDirectory@TfileURI@@QEBA?AVTstring@@XZ
?getDirectoryPath@TfileSystemEntity@@QEBA_NAEAVTstring@@@Z
?getDiskFree@TresourceQuery@@SA_KAEBVTstring@@@Z
?getDoubleData@TdataArrayAttrs@@QEBAPEAVTdoubleArray@@I@Z
?getDoubleData@TdataArrayAttrs@@QEBAPEBVTdoubleArray@@AEBVTstring@@0@Z
?getDoubleData@TdataArrayAttrs@@QEBAPEBVTdoubleArray@@AEBVTstring@@@Z
?getElement@TdoubleIndexedComponent@@QEBAXIAEAI0@Z
?getElement@TlongDoubleIndexedComponent@@QEBAXIAEAI0@Z
?getElementIndex@TdoubleIndexedComponent@@QEBA_NAEBVTsurfaceIndex@@AEAI@Z
?getElementIndex@TdoubleIndexedComponent@@QEBA_NIIAEAI@Z
?getElementIndex@TlongDoubleIndexedComponent@@QEBA_NAEBVTdoubleIndexLong@@AEAI@Z
?getElementIndex@TlongDoubleIndexedComponent@@QEBA_NIIAEAI@Z
?getElementIndex@TsingleIndexedComponent@@QEBA_NHAEAI@Z
?getElementIndex@TuInt64IndexedComponent@@UEBA_N_KAEAI@Z
?getEntry@?$TotNode@I@@QEBAPEBII@Z
?getEntry@?$TotNode@VToctreePoint@@@@QEBAPEBVToctreePoint@@I@Z
?getEntry@TdirIterator@@IEAA_NXZ
?getEntry@TdirectoryPath@@QEBA?AVTfilePath@@AEBVTstring@@@Z
?getEntry@TdirectoryPath@@QEBA?AVTfilePath@@I@Z
?getErrorString@TfileSystemEntity@@SA_NAEAVTstring@@H@Z
?getExpandedPaths@TfilePath@@SA?AVTstring@@AEBV2@@Z
?getExpiryState@TbaseLicenseManager@@UEAAHXZ
?getFeatureName@TbaseLicenseManager@@UEAA?AVTstring@@XZ
?getFeatureVersion@TbaseLicenseManager@@UEAA?AVTstring@@XZ
?getFileHandle@TiffFile@@SAPEAV1@PEBD@Z
?getFileName@TfileURI@@QEBA?AVTstring@@_N@Z
?getFirst@TnameObjectIterator@@AEAAXXZ
?getFirstExpandedPath@TfilePath@@SA?AVTstring@@AEBV2@@Z
?getFixed@TfixedArena@@KAPEAVTfixed@1@PEAVTheader@TheapArena@@@Z
?getFootprint@TfootprintInfo@@QEAA_NPEBDPEBX_N@Z
?getFormat@TbdInfo@@QEAAIXZ
?getFormatText@TfileSystemEntity@@QEBA_NAEAVTstring@@@Z
?getFragment@TfileURI@@QEBA?AVTstring@@XZ
?getFullName@TfileSystemEntity@@QEBA_NAEAVTstring@@@Z
?getHandedness@TpolyTangentSet@@AEAA_NI@Z
?getHeader@TheapArena@@KAPEAVTheader@1@PEAX@Z
?getHost@TfileURI@@QEBA?AVTstring@@XZ
?getImpl@TappLocale@@CAPEAVTappLocaleImpl@@XZ
?getIndex@?$TotNode@VToctreePoint@@@@QEBAHXZ
?getIndex@TbdData@@QEBAIXZ
?getIndex@TdataArrayAttrs@@QEBA_NAEBVTstring@@AEAI@Z
?getIndex@TnestedTimers@@SAHPEADP6AX0@Z@Z
?getIndex@TpolyBdVertexFaceBase@@QEBAHI@Z
?getIndexArray@TpolyBdVertexFaceBase@@QEAAPEAHI@Z
?getInheritedClasses@Tmetaclass@@SAXPEAV1@AEAVTtypeidArray@@@Z
?getInstance@TnamespaceManager@@SAPEAV1@XZ
?getInstanceIndexes@TpolyBdVertexFaceBase@@QEBAXAEAVTuInt32Array@@@Z
?getInstancePtr@TbdData@@QEBAPEAXXZ
?getInt32Data@TdataArrayAttrs@@QEBAPEAVTint32Array@@I@Z
?getInt32Data@TdataArrayAttrs@@QEBAPEBVTint32Array@@AEBVTstring@@@Z
?getInvocationCtr@TglobalTimer@@SAIXZ
?getIsRemoteSession@TresourceQuery@@SA_NXZ
?getItem@TsingleIndexedComponent@@QEBAHI@Z
?getKey@Iterator@TkeyWordHashTable@@QEAA_NAEAVTcharString@@@Z
?getKey@Iterator@TptrHashTable@@QEAA_NAEAPEAX@Z
?getKey@Iterator@TstringKeyHashTable@@QEAA_NAEAVTstring@@@Z
?getKey@TstringId@@QEBAAEBVKey@awStringTable@@XZ
?getLastDotLocationInfo@TfileURI@@AEBAXAEAH00@Z
?getLicenseMethod@TbaseLicenseManager@@UEAA?AW4LicenseMethod@1@XZ
?getLicenseName@TbaseLicenseManager@@UEAA?AVTstring@@XZ
?getLicenseProductName@TbaseLicenseManager@@UEAA?AVTstring@@XZ
?getLine@TparseFile@@QEAA_NPEADI@Z
?getLinearVoxelIndex@TspatialGrid@@IEBAHAEBVT3Int32@@@Z
?getLocaleLanguage@TappLocale@@SA?AVTstring@@XZ
?getLocalizedResourceDLLPath@TappLocale@@SA_NAEBVTstring@@AEAV2@@Z
?getLocalizedResourcesLocation@TappLocale@@SA?AVTstring@@W4ResType@1@@Z
?getLocalizedSubdirectory@TMayaEnvironment@@SA_NAEAVTstring@@@Z
?getLongName@TbdInfo@@QEAAAEAVTstring@@XZ
?getMapInstanceIndexes@TpolyMapArrayShared@@QEBAXIAEAVTuInt32Array@@@Z
?getMatrix@TdataMatrix@@AEAAAEAVT4dDblMatrix@@XZ
?getMatrix@TdataMatrix@@AEBAAEBVT4dDblMatrix@@XZ
?getMax@?$TotNode@I@@QEBAAEBVT3dFltPoint@@XZ
?getMax@?$TotNode@VToctreePoint@@@@QEBAAEBVT3dFltPoint@@XZ
?getMaxDepth@?$Toctree@I@@QEBAIXZ
?getMaxDepth@?$Toctree@VToctreePoint@@@@QEBAIXZ
?getMaxEntries@?$Toctree@I@@QEBAIXZ
?getMaxEntries@?$Toctree@VToctreePoint@@@@QEBAIXZ
?getMaxNumberofArgStrings@TstringUtil@@SAHXZ
?getMaxResidentSize@TresourceQuery@@SA_KH@Z
?getMemoryFootprint@TspatialGrid@@UEAAMXZ
?getMemoryFree@TresourceQuery@@SA_KH@Z
?getMemoryHeap@TresourceQuery@@SA_KH@Z
?getMemoryPhysical@TresourceQuery@@SA_KH@Z
?getMemoryPhysicalMB@TresourceQuery@@SAMXZ
?getMessages@TresourceQuery@@SAXPEA_K0@Z
?getMethod@TbaseLicenseManager@@UEAA?AVTstring@@XZ
?getMin@?$TotNode@I@@QEBAAEBVT3dFltPoint@@XZ
?getMin@?$TotNode@VToctreePoint@@@@QEBAAEBVT3dFltPoint@@XZ
?getMinCellSize@?$Toctree@I@@QEBAMXZ
?getMinCellSize@?$Toctree@VToctreePoint@@@@QEBAMXZ
?getMinMaxSamples@Treflectance@@AEBAXHPEBVTspectrum@@AEAV2@1@Z
?getMinMaxSamples@Tspectrum@@QEBAXHPEBV1@AEAV1@1@Z
?getName@TfileSystemEntity@@QEBA_NAEAVTstring@@@Z
?getName@TpolyBdVertexFaceBase@@QEBAXAEAVTstring@@@Z
?getNamespace@TnameObject@@QEBAPEAVTnamespace@@XZ
?getNamespaceFromName@TnamespaceManager@@QEBA?AVTstring@@AEBV2@@Z
?getNestingInfo@TnestedTimers@@CAPEAUTnestingInfo@@PEAU2@0@Z
?getNewPath@TMayaEnvironment@@CAXAEBVTstring@@00AEAV2@@Z
?getNewSamplingBufferSize@Tprofiler@@QEAA_KXZ
?getNewestInUsePool@TpoolManager@@QEAAPEAX_N@Z
?getNextIncrement@Tnamespace@@UEBA_KAEAVTstring@@@Z
?getNextIndex@TnestedTimers@@SAHPEADP6AX0@Z@Z
?getNode@?$TotSphereWalker@VToctreePoint@@@@QEBAPEBV?$TotNode@VToctreePoint@@@@AEBVTstring@@@Z
?getNode@TpointOctreeWalker@@QEBAPEBV?$TotNode@VToctreePoint@@@@AEBVTstring@@@Z
?getNormalAndLength@T4dDblVector@@QEBAXAEAV1@AEAN@Z
?getNthChild@TthreadTree@@UEBAPEAXPEAXH@Z
?getNumVoxels@TspatialGrid@@QEAAAEBVT3Int32@@XZ
?getNumberOfCPUs@Tprofiler@@QEAAHXZ
?getNumberOfCPUs@TresourceQuery@@SAHXZ
?getNumberOfCPUsFromFile@Tprofiler@@QEAAHXZ
?getNumberOfMouseButtons@TresourceQuery@@SAFXZ
?getNumberOfUnrestrictedCPUs@TresourceQuery@@SAHXZ
?getOSVersion@TresourceQuery@@SAHXZ
?getObjectName@TargList@@UEBAHAEAIAEAVTstring@@@Z
?getObjectNameArray@TargList@@UEBAHAEAIAEAVTstringArray@@@Z
?getObjects@TnamespaceManager@@QEAA_NPEAVTnamespace@@PEAVTnameObjectPtrArray@@AEBQEAVTmetaclass@@_N@Z
?getOldPrefsDir@TpreferencesDirectory@@QEAA_NAEAVTdirectory@@_N@Z
?getOldestInUsePool@TpoolManager@@QEAAPEAXXZ
?getOperatingSystem@TresourceQuery@@SA?AW4Tsystem@@XZ
?getOptionVarValue@TprefOptionVar@@SA_NAEBVTstring@@AEAH@Z
?getOptionVarValue@TprefOptionVar@@SA_NAEBVTstring@@AEAN@Z
?getOptionVarValue@TprefOptionVar@@SA_NAEBVTstring@@AEAV2@@Z
?getOptionVarValue@TprefOptionVar@@SA_NAEBVTstring@@AEAVTdoubleArray@@@Z
?getOptionVarValue@TprefOptionVar@@SA_NAEBVTstring@@AEAVTint32Array@@@Z
?getOptionVarValue@TprefOptionVar@@SA_NAEBVTstring@@AEAVTstringArray@@@Z
?getPageFaults@TresourceQuery@@SAXPEA_K0@Z
?getParameter@TfltLineSegment@@QEBAMAEBVT3dFltPoint@@@Z
?getParameter@TlineSegment@@QEBANAEBVT4dDblPoint@@@Z
?getParametricEquation@TfltPlane@@QEBAXAEAVT3dFltPoint@@AEAVT3dFltVector@@1@Z
?getParametricEquation@Tplane@@QEBAXAEAVT4dDblPoint@@AEAVT4dDblVector@@1@Z
?getParent@?$TotNode@VToctreePoint@@@@QEBAPEBV1@XZ
?getParent@TnamespaceManager@@QEAAPEAVTnamespace@@PEBV2@@Z
?getParent@TthreadTree@@UEAAPEAXPEAX@Z
?getPassword@TfileURI@@QEBA?AVTstring@@XZ
?getPath@Tdirectory@@QEAAXAEAVTfilePath@@@Z
?getPath@TfileStream@@QEBAXAEAVTfilePath@@@Z
?getPath@TfileURI@@QEBA?AVTstring@@XZ
?getPath@TpidlConverter@@SA?AVTstring@@PEFAU_ITEMIDLIST@@0@Z
?getPidl@TpidlConverter@@SAPEFAU_ITEMIDLIST@@AEBVTstring@@@Z
?getPidlFromText@TpidlConverter@@KAPEFAU_ITEMIDLIST@@AEAVTstring@@@Z
?getPinGrpName@TpolyMap@@AEBAHXZ
?getPivotAxis@Tquaternion@@QEBA_NAEANAEAVT4dDblVector@@@Z
?getPixel@TpixelMap@@QEBAPEATTpixel32@@XZ
?getPixel@TpixelMap@@QEBAXFFIPEATTpixel32@@@Z
?getPlaneEquation@TfltPlane@@QEBAXAEAM000@Z
?getPlaneEquation@Tplane@@QEBAXAEAN000@Z
?getPool@TmtThreadPool@@SAPEAV1@XZ
?getPool@TpoolManager@@QEAAPEAXAEAJ@Z
?getPort@TfileURI@@QEBAHXZ
?getPrefItem@TglobalPrefMgr@@SA_NAEAVTstring@@AEAPEAVTpreferenceItem@@@Z
?getPrefItem@TglobalPrefMgr@@SA_NHAEAPEAVTpreferenceItem@@@Z
?getProcessID@TbatchGlobals@@SAHXZ
?getProductKey@TbaseLicenseManager@@UEAA?AVTstring@@XZ
?getProductLicensePath@TbaseLicenseManager@@UEAA?AVTstring@@XZ
?getProductLicenseType@TbaseLicenseManager@@UEAA?AVTstring@@XZ
?getProductVersion@TbaseLicenseManager@@UEAA?AVTstring@@XZ
?getPseudoMode@TpseudoTranslate@@SA?AW4TpseudoMode@1@XZ
?getQueryItemValue@TfileURI@@QEBA?AVTstring@@AEBV2@@Z
?getQueryItems@TfileURI@@QEBAXAEAVTstringHashTable@@@Z
?getQueryPairDelimiter@TfileURI@@QEBADXZ
?getQueryValueDelimiter@TfileURI@@QEBADXZ
?getRay@?$TotRayWalker@IVToctreeTriangleIntersection@@@@QEBAXAEAVT3dDblPoint@@AEAVT4dDblVector@@PEAN@Z
?getRay@TtriangleOctreeRayWalker@@QEBAXAEAVT3dDblPoint@@AEAVT4dDblVector@@PEAN@Z
?getRayIterator@TspatialGrid@@QEAA?AVTspatialGridWalker@@AEBVT3dFltPoint@@AEBVT3dFltVector@@@Z
?getRecursions@TnestedTimers@@SAHH_N@Z
?getRef@TthreadSubtree@@UEBAPEAXPEAX@Z
?getReflectedSpectrum@Treflectance@@AEBAXAEBV1@AEBVTspectrum@@AEAV2@@Z
?getReflectedSpectrum@Treflectance@@AEBAXAEBVTspectrum@@AEBV1@AEAV2@@Z
?getReflectedSpectrum@Tspectrum@@QEBAXAEBV1@AEBVTreflectance@@AEAV1@@Z
?getReflectedSpectrum@Tspectrum@@QEBAXAEBVTreflectance@@AEBV1@AEAV1@@Z
?getReflectionMatrix@Tplane@@QEBAXAEAVT4dDblMatrix@@@Z
?getRegSetting@TpreferencesDirectory@@IEAA_NPEBD0AEAVTstring@@@Z
?getRelativeToRoot@TnamespaceManager@@QEAAPEAVTnamespace@@AEBVTstring@@@Z
?getReply@TfileRequestor@@QEBA?AW4Treply@1@XZ
?getResourcesLocation@TappLocale@@SA?AVTstring@@XZ
?getResult@TfileRequestor@@QEBAAEBVTstring@@XZ
?getResults@TdirectoryContentsQuery@@QEBAXAEBVTstring@@AEAVTstringArray@@@Z
?getSSEfeatures@TcpuFeatures@@SA?AW4TsseFeatures@@XZ
?getSamplingBufferSize@Tprofiler@@QEAA_KXZ
?getScheme@TfileURI@@QEBA?AVTstring@@XZ
?getSerialNumber@TbaseLicenseManager@@UEAA?AVTstring@@XZ
?getShortName@TbdInfo@@QEAAAEAVTstring@@XZ
?getSibling@?$TotNode@VToctreePoint@@@@QEBAPEBV1@H@Z
?getSignals@TresourceQuery@@SA_KXZ
?getSize@TpidlConverter@@KAKPEFAU_ITEMIDLIST@@@Z
?getSize@TpixelMap@@QEBAXAEAVTportRect@@@Z
?getStartupLanguage@TappLocale@@SA?AVTstring@@XZ
?getState@TbdData@@QEBAFXZ
?getStatistics@TmallocAllocator@@SAXAEAVTstringArray@@@Z
?getStatusString@TfileSystemEntity@@QEBA_NAEAVTstring@@H@Z
?getString@TiffFile4@@UEAAPEADPEADH@Z
?getString@TiffFile8@@UEAAPEADPEADH@Z
?getString@TstringCatalog@@SA_NAEBVTstringId@@AEAVTstring@@@Z
?getStringData@TdataArrayAttrs@@QEBAPEAVTstringArray@@I@Z
?getStringData@TdataArrayAttrs@@QEBAPEBVTstringArray@@AEBVTstring@@@Z
?getSupportedUILanguages@TappLocale@@SAAEBVTstringArray@@XZ
?getSwapFree@TresourceQuery@@SA_KH@Z
?getSwapLogical@TresourceQuery@@SA_KH@Z
?getSwapMax@TresourceQuery@@SA_KH@Z
?getSwapPhysical@TresourceQuery@@SA_KH@Z
?getSwapReserved@TresourceQuery@@SA_KH@Z
?getSwapVirtual@TresourceQuery@@SA_KH@Z
?getSwaps@TresourceQuery@@SA_KXZ
?getTableSize@Tmetaclass@@AEAAXAEAG0@Z
?getTag@TiffFile4@@UEAAAEBVTiffTag@@W4MayaIffTag@TiffFile@@@Z
?getTag@TiffFile8@@UEAAAEBVTiffTag@@W4MayaIffTag@TiffFile@@@Z
?getTang@TpolyTangentSet@@AEBAXIAEAVT3dFltVector@@@Z
?getTang@TpolyTangentSet@@AEBAXIPEAM@Z
?getTang@TpolyTangentSet@@AEBAXIPEAMI@Z
?getText@TpidlConverter@@KA?AVTstring@@PEFAU_ITEMIDLIST@@@Z
?getTime@TnestedTimers@@SANH_N@Z
?getTimeStamp@TbaseLicenseManager@@QEAA?AVTstring@@W4TimeStampFormat@1@@Z
?getTmpRefNamespacePrefix@TnamespaceManager@@QEBA?AVTstring@@XZ
?getTop@TptrStringHashStack@@QEBA_NAEAPEAVTptrStringHash@@@Z
?getTopElement@Tstack@@IEBA_NPEAX@Z
?getTrialId@TbaseLicenseManager@@UEAA?AVTstring@@XZ
?getTrialToPurchaseState@TbaseLicenseManager@@UEAA?AW4TrialToPurchaseState@1@XZ
?getTrialToPurchaseStatus@TbaseLicenseManager@@UEAAHXZ
?getTstring@TiffFile@@QEAAPEADAEAVTstring@@H@Z
?getTstring@TpidlConverter@@SA?AVTstring@@PEFAU_ITEMIDLIST@@AEAU_STRRET@@@Z
?getTypeId@TbdInfo@@QEAAHXZ
?getTypeName@TpolyMap@@SAXAEAVTstring@@@Z
?getTypedChunk@TiffFile4@@UEAAPEBXAEAVTiffTag@@PEAIPEAV2@@Z
?getTypedChunk@TiffFile8@@UEAAPEBXAEAVTiffTag@@PEAIPEAV2@@Z
?getUILanguage@TappLocale@@SA?AVTstring@@XZ
?getUV@TpolyMap@@AEBAXHAEAVT2Float@@@Z
?getUV@TpolyMap@@AEBAXHPEAM@Z
?getUVId@TpolyMap@@AEBAHH@Z
?getUVIdArray@TpolyMap@@AEAAPEAHH@Z
?getUVsInRange@TpolyMap@@AEBAIAEBVT2Float@@AEBMAEBW4TweightFunction@1@AEAVTuInt32Array@@PEAVTfloatArray@@@Z
?getUVsInRange@TpolyMap@@AEBAIAEBVTuInt32Array@@AEBMAEBW4TweightFunction@1@AEAV2@PEAVTfloatArray@@@Z
?getUniqueID@TbdData@@QEBAIXZ
?getUsage@TbaseLicenseManager@@UEAAHXZ
?getUserInfo@TfileURI@@QEBA?AVTstring@@XZ
?getUserName@TbaseLicenseManager@@UEAA?AVTstring@@XZ
?getUserName@TfileURI@@QEBA?AVTstring@@XZ
?getUserObject@TapiObj@@QEAAPEAXXZ
?getValidatedNameAndNamespace@TnamespaceManager@@AEBA_NAEBVTstring@@AEAV2@1AEA_N_N33@Z
?getValue@T3floatVoxelGrid@@UEBA_NAEAVT3dFltVector@@I@Z
?getValue@T3floatVoxelGrid@@UEBA_NAEAVT3dFltVector@@III@Z
?getValue@TfloatVoxelGrid@@QEBA_NAEAMIII@Z
?getValue@TmtTSSCollection@@QEAAPEAXK@Z
?getValue@ToptionVar@@QEBA_NAEAH@Z
?getValue@ToptionVar@@QEBA_NAEAN@Z
?getValue@ToptionVar@@QEBA_NAEAVTstring@@@Z
?getValueExceptionType@TboundaryValueException@@QEAA?AW4ValueExceptionType@1@XZ
?getValueInSmpteUnit@TanimTime@@QEBAXAEAVTint32Array@@@Z
?getVar@TprefOptionVars@@QEBA_NAEBVTstring@@AEAH@Z
?getVar@TprefOptionVars@@QEBA_NAEBVTstring@@AEAN@Z
?getVar@TprefOptionVars@@QEBA_NAEBVTstring@@AEAV2@@Z
?getVar@TprefOptionVars@@QEBA_NAEBVTstring@@AEAVTdoubleArray@@@Z
?getVar@TprefOptionVars@@QEBA_NAEBVTstring@@AEAVTint32Array@@@Z
?getVar@TprefOptionVars@@QEBA_NAEBVTstring@@AEAVTstringArray@@@Z
?getVariant@TvariantArena@@KAPEAVTvariant@1@PEAVTheader@TheapArena@@@Z
?getVectorData@TdataArrayAttrs@@QEBAPEAVT4dDblVectorArray@@I@Z
?getVectorData@TdataArrayAttrs@@QEBAPEBVT4dDblVectorArray@@AEBVTstring@@0@Z
?getVectorData@TdataArrayAttrs@@QEBAPEBVT4dDblVectorArray@@AEBVTstring@@@Z
?getVersionNumberStrings@TbatchGlobals@@SAAEBVTstringArray@@XZ
?getVoidPtrData@TdataArrayAttrs@@QEBAPEAVTvoidPtrArray@@I@Z
?getVoidPtrData@TdataArrayAttrs@@QEBAPEBVTvoidPtrArray@@AEBVTstring@@@Z
?getVoxelContents@TspatialGrid@@QEAAPEAVTuInt32Array@@AEBVT3Int32@@@Z
?getVoxelCoords@TspatialGrid@@QEBAXAEBVT3dFltPoint@@AEAVT3Int32@@PEAV2@@Z
?getVoxelRange@TspatialGrid@@QEBAXAEBVTfltBoundingBox@@AEAVT3Int32@@1@Z
?getWeight@TcomponentWeights@@QEBAXIAEAVTweight@@@Z
?getXForm@TdataMatrix@@AEAAAEAVTxformMatrix@@XZ
?getXForm@TdataMatrix@@AEBAAEBVTxformMatrix@@XZ
?get_allocator@?$_Tree@V?$_Tmap_traits@V?$basic_string@DU?$char_traits@D@std@@V?$allocator@D@2@@std@@PEAVTresourceElement@@U?$less@V?$basic_string@DU?$char_traits@D@std@@V?$allocator@D@2@@std@@@2@V?$allocator@U?$pair@$$CBV?$basic_string@DU?$char_traits@D@std@@V?$allocator@D@2@@std@@PEAVTresourceElement@@@std@@@2@$0A@@std@@@std@@QEBA?AV?$allocator@U?$pair@$$CBV?$basic_string@DU?$char_traits@D@std@@V?$allocator@D@2@@std@@PEAVTresourceElement@@@std@@@2@XZ
?get_allocator@?$_Tree@V?$_Tmap_traits@V?$basic_string@DU?$char_traits@D@std@@V?$allocator@D@2@@std@@PEAVTresourceGroup@@U?$less@V?$basic_string@DU?$char_traits@D@std@@V?$allocator@D@2@@std@@@2@V?$allocator@U?$pair@$$CBV?$basic_string@DU?$char_traits@D@std@@V?$allocator@D@2@@std@@PEAVTresourceGroup@@@std@@@2@$0A@@std@@@std@@QEBA?AV?$allocator@U?$pair@$$CBV?$basic_string@DU?$char_traits@D@std@@V?$allocator@D@2@@std@@PEAVTresourceGroup@@@std@@@2@XZ
?getline@Tfile@@QEAAAEAV1@PEAD_JD@Z
?getline@TfileStream@@QEAAAEAV?$basic_istream@DU?$char_traits@D@std@@@std@@PEADHD@Z
?getline@Tfile_iostream@@UEAAAEAV1@PEAD_JD@Z
?gettimeofday@@YAHPEAUtimeval@@@Z
?glNormalize@TdepthBuffer@@QEAAXMMMM@Z
?globalCurrentTimeUnit@TanimTime@@SA?AW4TtimeUnitSystem@@XZ
?globalResourceMap@TresourceMap@@SAAEAV1@XZ
?good@Tfile_iostream@@UEBAHXZ
?goodStream@Tfile@@MEAAXXZ
?gprof@TstackTrace@@SAXHHH@Z
?gprofEnable@TstackTrace@@SAX_N@Z
?gprofPrint@TstackTrace@@SAXPEAU_iobuf@@@Z
?granularity@TvariantArena@@KA_KXZ
?greaterThanEqualWhite@Tspectrum@@QEBA_NXZ
?greaterThanWhite@Tspectrum@@QEBA_NXZ
?gridLocation@TspatialGridWalker@@QEAA?AVT3Int32@@XZ
?group@TfilePath@@QEBA?AVTstring@@XZ
?groupCounts@TsimpleTess@@UEAAAEAV?$vector@HV?$allocator@H@std@@@std@@XZ
?groupIds@TsimpleTess@@UEAAAEAV?$vector@HV?$allocator@H@std@@@std@@XZ
?grow@TbitMatrix@@QEAAXII@Z
?grow@TdblRect@@QEAAAEAV1@N@Z
?grow@TdblRect@@QEAAAEAV1@NN@Z
?grow@TportRect@@QEAAAEAV1@F@Z
?grow@TportRect@@QEAAAEAV1@FF@Z
?grow@Trect@@QEAAAEAV1@F@Z
?grow@Trect@@QEAAAEAV1@FF@Z
?growEntryList@?$TotNode@I@@IEAAXPEBV?$Toctree@I@@@Z
?growEntryList@?$TotNode@VToctreePoint@@@@IEAAXPEBV?$Toctree@VToctreePoint@@@@@Z
?h@TdblPoint@@QEAAAEANXZ
?h@TdblPoint@@QEBAAEBNXZ
?h@TfltPoint@@QEAAAEAMXZ
?h@TfltPoint@@QEBAAEBMXZ
?h@Tpoint@@QEAAAEAFXZ
?h@Tpoint@@QEBAAEBFXZ
?handle@TdynamicLoad@@QEBAPEAXXZ
?handleAlarm@TnestedTimers@@CAXHHPEAUsigcontext@@@Z
?handleError@TfileSystemEntity@@QEBAXH@Z
?handleStatus@TfileSystemEntity@@QEBAXH@Z
?hasA@Tdirectory@@QEBA_NAEBVTstring@@W4TdirEntryType@1@@Z
?hasCallStackMethod@TstackTrace@@SA_NXZ
?hasChildren@?$TotNode@I@@QEBA_NXZ
?hasChildren@?$TotNode@VToctreePoint@@@@QEBA_NXZ
?hasClient@TclientServer@@QEBA_NPEBVTclient@@@Z
?hasClient@TclientServer@@QEBA_NPEBVTclient@@PEAVTmetaclass@@@Z
?hasClients@TclientServer@@QEBA_NXZ
?hasDefaultValue@TstringId@@QEBA_NXZ
?hasElement@TdoubleIndexedComponent@@QEBA_NAEBVTsurfaceIndex@@@Z
?hasElement@TdoubleIndexedComponent@@QEBA_NII@Z
?hasElement@TlongDoubleIndexedComponent@@QEBA_NAEBVTdoubleIndexLong@@@Z
?hasElement@TlongDoubleIndexedComponent@@QEBA_NII@Z
?hasElement@TsingleIndexedComponent@@QEBA_NH@Z
?hasElement@TuInt64IndexedComponent@@QEBA_N_K@Z
?hasEntry@TdirectoryPath@@QEBA_NAEBVTstring@@W4TdirEntryType@1@@Z
?hasEnvOrTilde@TfilePath@@SA_NAEBVTstring@@@Z
?hasFPU@TbatchGlobals@@SA_NXZ
?hasFn@MObject@@QEBA_NW4Type@MFn@@@Z
?hasFn@TapiObj@@QEBA_NW4Type@MFn@@@Z
?hasHandedness@TpolyTangentSet@@AEAA_NXZ
?hasIndex@TpolyBdVertexFaceBase@@QEBA_NI@Z
?hasInfluenceWeights@TcomponentWeights@@QEBA_NXZ
?hasMessage@TclientServer@@QEBA_NPEAVTmetaclass@@@Z
?hasNamespaces@TnamespaceManager@@QEAA_NPEAVTnamespace@@@Z
?hasNonUniqueNames@TnamespaceManager@@QEBA_NXZ
?hasNonUnitAlpha@TpixelMap@@QEBA_NXZ
?hasPlaceHolderNamespace@TnameObject@@QEBA_NXZ
?hasRemainder@T2dIntSequence@@QEBA_NXZ
?hasRotation@TpixelMap@@QEBA_NXZ
?hasSeamWeights@TcomponentWeights@@QEBA_NXZ
?hasUniqueName@TnameObject@@QEBA_NXZ
?hasValidBaseName@TfileName@@AEBA_NXZ
?hasValidDirName@TfileName@@QEBA_NXZ
?hasWeights@Tcomponent@@QEBA_NH@Z
?hasWriter@Tdata@@QEBA_NXZ
?hasWriter@TdataLetter@@UEBA_NXZ
?hasZeroAlpha@TpixelMap@@QEBA_NXZ
?hash32@ThashUtil@@SAIPEBXII@Z
?hash64@ThashUtil@@SA_KPEBXII@Z
?hash@Tstring@@QEBAIXZ
?hash@TuniqueString@@QEBA_KXZ
?header@TglobalPrefMgr@@SAAEBVTstring@@XZ
?headerTemplate@TglobalPrefMgr@@SAAEBVTstring@@XZ
?height@TboundingBox@@QEBANXZ
?height@TdblRect@@QEBANXZ
?height@TfltBox@@QEBAMXZ
?height@TportRect@@QEBAFXZ
?height@Trect@@QEBAFXZ
?height@Ttree@@UEBAHPEAX@Z
?hit@ToDo@@QEAAXXZ
?hitCount@ToDo@@QEBAHXZ
?holder@Tdata@@QEBA_NXZ
?holderCount@TdataLetter@@QEBAIXZ
?homogenize@T4dDblMatrix@@QEBA?AV1@XZ
?homogenize@T4dFltMatrix@@QEBA?AV1@XZ
?homogenizeIt@T4dDblMatrix@@QEAAAEAV1@XZ
?homogenizeIt@T4dDblPoint@@QEAAAEAV1@XZ
?homogenizeIt@T4dFltMatrix@@QEAAAEAV1@XZ
?homogenizeIt@T4dFltPoint@@QEAAAEAV1@XZ
?homogenous@T4dDblPoint@@QEBA?AV1@XZ
?homogenous@T4dFltPoint@@QEBA?AV1@XZ
?horizontalFieldOfView@Tfrustum@@QEBANXZ
?horizontalFlip@TpixelMap@@QEAAHXZ
?hour@Ttime@@QEBAFXZ
?hours@Tduration@@QEBAFXZ
?id@ToDo@@QEBAHXZ
?id@TobjectGroup@@QEBAIXZ
?id@TpointOctreeWalker@@QEBAIXZ
?identity@T2dFltVector@@2V1@B
?identity@T3dFltVector@@2V1@B
?identity@T4dDblMatrix@@2V1@B
?identity@T4dDblVector@@2V1@B
?identity@T4dFltMatrix@@2V1@B
?identity@Tquaternion@@2V1@B
?identity@TrotateXYZ@@2V1@B
?identity@Tscale@@2V1@B
?identity@Tshear2@@2V1@B
?identity@Tshear@@2V1@B
?identity@TxformMatrix@@2V1@B
?iffFormMethod@TiffParserCallback@@QEAAHAEAVTiffFile@@VTiffTag@@1@Z
?iffLeafMethod@TiffParserCallback@@QEAAHAEAVTiffFile@@VTiffTag@@_K@Z
?iffListMethod@TiffParserCallback@@QEAAHAEAVTiffFile@@VTiffTag@@1@Z
?iffTag@TdataLetter@@UEAA?AVTiffTag@@XZ
?iffTag@TdataUnknown@@UEAA?AVTiffTag@@XZ
?iffTag@TmetaLetter@@QEBA?AVTiffTag@@XZ
?iffVFormMethod1@TiffParserCallback@@UEAAHAEAVTiffFile@@VTiffTag@@1@Z
?iffVFormMethod2@TiffParserCallback@@UEAAHAEAVTiffFile@@VTiffTag@@1@Z
?iffVFormMethod3@TiffParserCallback@@UEAAHAEAVTiffFile@@VTiffTag@@1@Z
?iffVFormMethod4@TiffParserCallback@@UEAAHAEAVTiffFile@@VTiffTag@@1@Z
?iffVLeafMethod1@TiffParserCallback@@UEAAHAEAVTiffFile@@VTiffTag@@_K@Z
?iffVLeafMethod2@TiffParserCallback@@UEAAHAEAVTiffFile@@VTiffTag@@_K@Z
?iffVLeafMethod3@TiffParserCallback@@UEAAHAEAVTiffFile@@VTiffTag@@_K@Z
?iffVLeafMethod4@TiffParserCallback@@UEAAHAEAVTiffFile@@VTiffTag@@_K@Z
?iffVListMethod1@TiffParserCallback@@UEAAHAEAVTiffFile@@VTiffTag@@1@Z
?iffVListMethod2@TiffParserCallback@@UEAAHAEAVTiffFile@@VTiffTag@@1@Z
?iffVListMethod3@TiffParserCallback@@UEAAHAEAVTiffFile@@VTiffTag@@1@Z
?iffVListMethod4@TiffParserCallback@@UEAAHAEAVTiffFile@@VTiffTag@@1@Z
?ignoreAllNamespaces@TnameObject@@QEBA_NXZ
?ignoreDialogs@?1??noIncorrectNameWarning@TincorrectNameSet@@SA_NXZ@4VTenvironmentVariable@@A
?ignoreDirty@Tdata@@QEBA_NAEBVTid@@@Z
?ignorePlaceHolderNamespaces@TnameObject@@QEBA_NXZ
?ignoreReferenceEdits@TglobalTranslatorBase@@SA_NXZ
?ignoreRootPlaceHolderNamespace@TnameObject@@QEBA_NXZ
?imp@Tclient@@AEAAAEAVImp@1@XZ
?imp@Tclient@@AEBAAEBVImp@1@XZ
?imp@TclientServer@@AEAAAEAVImp@1@XZ
?imp@TclientServer@@AEBAAEBVImp@1@XZ
?importOldShelves@TpreferencesDirectory@@QEAAXAEBVTstring@@@Z
?importingReference@TglobalTranslatorBase@@SA_NXZ
?in@Tlinear@@QEBANXZ
?inBounds@TvoxelGrid@@QEBA_NHH@Z
?inBounds@TvoxelGrid@@QEBA_NHHH@Z
?inDays@Tduration@@QEBANXZ
?inDoubleSeconds@TanimTime@@QEBANXZ
?inDoubleSeconds@TtimeValue@@QEBANXZ
?inHours@Tduration@@QEBANXZ
?inMinutes@Tduration@@QEBANXZ
?inNamespace@Tnamespace@@UEAA_NAEAVTnameString@@@Z
?inSeconds@TanimTime@@QEBAMXZ
?inSeconds@Tduration@@QEBANXZ
?inSeconds@TtimeValue@@QEBAMXZ
?inSet@Tlinear@@QEAAXN@Z
?inTicks@TanimTime@@QEBAHXZ
?inUse@TpoolData@@QEBA_NXZ
?inUseCount@TpoolManager@@QEAAHXZ
?incInvocationCtr@TglobalTimer@@SAIXZ
?includeBox@TboundingBox@@QEAAXAEBV1@@Z
?includeBox@TfltBox@@QEAAXAEBV1@@Z
?includeLine@TboundingBox@@QEAAXAEBVT4dDblPoint@@0@Z
?includeLine@TfltBox@@QEAAXAEBVT4dFltPoint@@0@Z
?includePoint@TboundingBox@@QEAAXAEBVT4dDblPoint@@@Z
?includePoint@TboundingBox@@QEAAXNNN@Z
?includePoint@TfltBox@@QEAAXAEBVT4dFltPoint@@@Z
?includePoint@TfltBox@@QEAAXMMM@Z
?includePoints@TboundingBox@@QEAAXAEBVT3dDblPointArray@@@Z
?includePoints@TboundingBox@@QEAAXAEBVT4dDblPointArray@@@Z
?includePoints@TfltBox@@QEAAXAEBVT4dFltPointArray@@@Z
?increment@Tcounter@@QEAAXAEBVTstring@@@Z
?increment@Tcounter@@QEAAXXZ
?increment@TcounterContext@@AEAAXAEBVTstring@@@Z
?increment@TcounterContext@@AEAAXXZ
?increment@TgridIncrement@@QEAANXZ
?incrementAllocationCount@Tpage@TbaseArena@@QEAAXXZ
?incrementNonUniqueNames@TnamespaceManager@@AEAAXXZ
?incrementOverhead@TglobalTimer@@SAXN@Z
?incrementalRotateBy@TrotateXYZ@@QEAAAEAV1@NAEBVT4dDblVector@@@Z
?indent@TdbTrace@@QEAAHXZ
?indent@TdebugOutput@@UEAAHXZ
?index@TdepthBuffer@@QEBAPEAMGG@Z
?index@TdirIterator@@QEBAIXZ
?index@TpixelMap@@AEBAIAEBVTpoint@@@Z
?index@TpixelMap@@AEBAIII@Z
?index@TsicComplementIterator@@QEBAHXZ
?index@TsingleIndexedComponentIterator@@QEBAHXZ
?index@Tstring@@QEBAHD@Z
?index@Tstring@@QEBAHDI@Z
?index@TvoxelGrid@@QEBAIII@Z
?index@TvoxelGrid@@QEBAIIII@Z
?index@TvoxelGrid@@SAIIIII@Z
?index@TvoxelGrid@@SAIIIIIII@Z
?indexAllocate@TpolyBdVertexFaceBase@@QEAAXI@Z
?indexBuffer@TpolyBdVertexFaceBase@@QEAAXI@Z
?indexOf@TserverMsgPtrList@@QEBAHPEAVTlink@1@@Z
?indices@TsingleIndexedComponent@@QEBAAEBVTint32Array@@XZ
?indices@TuInt64IndexedComponent@@QEBAAEBVTuInt64Array@@XZ
?influenceWeight@TcomponentWeights@@QEAAXIM@Z
?influenceWeight@TcomponentWeights@@QEBAMI@Z
?influenceWeight@Tweight@@QEAAXM@Z
?influenceWeight@Tweight@@QEBAMXZ
?infoArray@Tfootprint@@QEAAAEAVTfpiArray@@XZ
?infoArray@Tfootprint@@QEBAAEBVTfpiArray@@XZ
?infoArray@TfootprintInfo@@QEAAAEAVTfpiArray@@XZ
?infoArray@TfootprintInfo@@QEBAAEBVTfpiArray@@XZ
?init@TboxTree@@QEAAXAEBV?$vector@U?$pair@VTbox@@PEAX@std@@V?$allocator@U?$pair@VTbox@@PEAX@std@@@2@@std@@_N@Z
?init@TcopyrightUtil@@CAXXZ
?init@TnamespaceManager@@QEAAXXZ
?initCompressor@TmovieCompressor@@QEAA_NXZ
?initData@TMayaEnvironment@@CAXXZ
?initInheritance@TiffFile4@@MEAAXPEAU_FLfile@@@Z
?initRecursively@TboxTree@@AEAAPEAVTboxTreeNode@@PEAU?$pair@VTbox@@PEAX@std@@H_NH@Z
?initRefCount@TmultiSharedObject@@AEAAXXZ
?init_@TnestedTimers@@CAXXZ
?initialState@@YAXXZ
?initialize@TCIPClient@@AEAAXXZ
?initialize@TDarray@@UEAAXPEAD0I@Z
?initialize@TadlmLicenseManager@@UEAA_NXZ
?initialize@TanimTimeArray@@UEAAXPEAD0I@Z
?initialize@TanimTimeSortedArray@@MEAAXPEAD0I@Z
?initialize@TbaseLicenseManager@@UEAA_NXZ
?initialize@Tbasket@@UEAAXXZ
?initialize@TcomponentPtrArray@@UEAAXPEAD0I@Z
?initialize@TdelayedMsgTypeArray@@UEAAXPEAD0I@Z
?initialize@TdoubleIndexLongArray@@UEAAXPEAD0I@Z
?initialize@TdoubleRangeArray@@UEAAXPEAD0I@Z
?initialize@TdoubleSortedArray@@MEAAXPEAD0I@Z
?initialize@TfilePathArray@@UEAAXPEAD0I@Z
?initialize@TfloatRangeArray@@UEAAXPEAD0I@Z
?initialize@TindexRangeArray@@UEAAXPEAD0I@Z
?initialize@Tint32SortedArray@@MEAAXPEAD0I@Z
?initialize@TmintLicenseManager@@UEAA_NXZ
?initialize@TobjArray@@MEAAXPEAD0I@Z
?initialize@TobjArrayTbasketPtr@@UEAAXPEAD0I@Z
?initialize@TobjectGroupPtrArray@@UEAAXPEAD0I@Z
?initialize@TpolyMapArray@@UEAAXPEAD0I@Z
?initialize@TpolyTangentSetArray@@UEAAXPEAD0I@Z
?initialize@TpreferenceItemPtrArray@@UEAAXPEAD0I@Z
?initialize@TquaternionArray@@UEAAXPEAD0I@Z
?initialize@TsharedPixelMapArray@@UEAAXPEAD0I@Z
?initialize@TsortedBdDataPtrArray@@MEAAXPEAD0I@Z
?initialize@TsortedObjectGroupIdArray@@MEAAXPEAD0I@Z
?initialize@TsortedStringArray@@MEAAXPEAD0I@Z
?initialize@TstringArray@@UEAAXPEAD0I@Z
?initialize@TsurfaceIndexArray@@UEAAXPEAD0I@Z
?initialize@TtimeRangeArray@@UEAAXPEAD0I@Z
?initialize@TtypeidArray@@UEAAXPEAD0I@Z
?initialize@TuInt16SortedArray@@MEAAXPEAD0I@Z
?initialize@TuInt32SortedArray@@MEAAXPEAD0I@Z
?initialize@TuInt64SortedArray@@MEAAXPEAD0I@Z
?initialize@TvoidPtrSortedArray@@MEAAXPEAD0I@Z
?initialize@TxformMatrixArray@@UEAAXPEAD0I@Z
?initializeMayaEnvironment@TMayaEnvironment@@SAX_N@Z
?initializeUseMalloc@TmallocAllocator@@CAXXZ
?initialized@TrefreshTimer@@2HA
?innerSize@TcompactPage@TcompactArena@@SA_K_K0@Z
?innerSize@TcompactPage@TcompactArena@@SA_K_K@Z
?inputLength@Tfunction@@QEBAIXZ
?inputLength@TvsArgs@@QEBAIXZ
?inputType@Tfunction@@QEBAII@Z
?inputType@TvsArgs@@QEBAII@Z
?insert@?$TdataHashTable@IPEAVTmetaclass@@@@QEAA_NAEBIAEBQEAVTmetaclass@@@Z
?insert@?$TdataHashTable@PEAVTbdData@@PEAV1@@@QEAA_NAEBQEAVTbdData@@0@Z
?insert@?$TdataHashTable@PEAXVTstring@@@@QEAA_NAEBQEAXAEBVTstring@@@Z
?insert@?$TdataHashTable@VTstring@@H@@QEAA_NAEBVTstring@@AEBH@Z
?insert@?$TdataHashTable@VTstring@@PEAVTmetaclass@@@@QEAA_NAEBVTstring@@AEBQEAVTmetaclass@@@Z
?insert@?$TdataHashTable@VTstring@@V1@@@QEAA_NAEBVTstring@@0@Z
?insert@?$_Tree@V?$_Tmap_traits@V?$basic_string@DU?$char_traits@D@std@@V?$allocator@D@2@@std@@PEAVTresourceElement@@U?$less@V?$basic_string@DU?$char_traits@D@std@@V?$allocator@D@2@@std@@@2@V?$allocator@U?$pair@$$CBV?$basic_string@DU?$char_traits@D@std@@V?$allocator@D@2@@std@@PEAVTresourceElement@@@std@@@2@$0A@@std@@@std@@QEAA?AU?$pair@V?$_Tree_iterator@V?$_Tree_val@U?$_Tree_simple_types@U?$pair@$$CBV?$basic_string@DU?$char_traits@D@std@@V?$allocator@D@2@@std@@PEAVTresourceElement@@@std@@@std@@@std@@@std@@_N@2@$$QEAU?$pair@$$CBV?$basic_string@DU?$char_traits@D@std@@V?$allocator@D@2@@std@@PEAVTresourceElement@@@2@@Z
?insert@?$_Tree@V?$_Tmap_traits@V?$basic_string@DU?$char_traits@D@std@@V?$allocator@D@2@@std@@PEAVTresourceElement@@U?$less@V?$basic_string@DU?$char_traits@D@std@@V?$allocator@D@2@@std@@@2@V?$allocator@U?$pair@$$CBV?$basic_string@DU?$char_traits@D@std@@V?$allocator@D@2@@std@@PEAVTresourceElement@@@std@@@2@$0A@@std@@@std@@QEAA?AU?$pair@V?$_Tree_iterator@V?$_Tree_val@U?$_Tree_simple_types@U?$pair@$$CBV?$basic_string@DU?$char_traits@D@std@@V?$allocator@D@2@@std@@PEAVTresourceElement@@@std@@@std@@@std@@@std@@_N@2@AEBU?$pair@$$CBV?$basic_string@DU?$char_traits@D@std@@V?$allocator@D@2@@std@@PEAVTresourceElement@@@2@@Z
?insert@?$_Tree@V?$_Tmap_traits@V?$basic_string@DU?$char_traits@D@std@@V?$allocator@D@2@@std@@PEAVTresourceElement@@U?$less@V?$basic_string@DU?$char_traits@D@std@@V?$allocator@D@2@@std@@@2@V?$allocator@U?$pair@$$CBV?$basic_string@DU?$char_traits@D@std@@V?$allocator@D@2@@std@@PEAVTresourceElement@@@std@@@2@$0A@@std@@@std@@QEAA?AV?$_Tree_iterator@V?$_Tree_val@U?$_Tree_simple_types@U?$pair@$$CBV?$basic_string@DU?$char_traits@D@std@@V?$allocator@D@2@@std@@PEAVTresourceElement@@@std@@@std@@@std@@@2@V?$_Tree_const_iterator@V?$_Tree_val@U?$_Tree_simple_types@U?$pair@$$CBV?$basic_string@DU?$char_traits@D@std@@V?$allocator@D@2@@std@@PEAVTresourceElement@@@std@@@std@@@std@@@2@$$QEAU?$pair@$$CBV?$basic_string@DU?$char_traits@D@std@@V?$allocator@D@2@@std@@PEAVTresourceElement@@@2@@Z
?insert@?$_Tree@V?$_Tmap_traits@V?$basic_string@DU?$char_traits@D@std@@V?$allocator@D@2@@std@@PEAVTresourceElement@@U?$less@V?$basic_string@DU?$char_traits@D@std@@V?$allocator@D@2@@std@@@2@V?$allocator@U?$pair@$$CBV?$basic_string@DU?$char_traits@D@std@@V?$allocator@D@2@@std@@PEAVTresourceElement@@@std@@@2@$0A@@std@@@std@@QEAA?AV?$_Tree_iterator@V?$_Tree_val@U?$_Tree_simple_types@U?$pair@$$CBV?$basic_string@DU?$char_traits@D@std@@V?$allocator@D@2@@std@@PEAVTresourceElement@@@std@@@std@@@std@@@2@V?$_Tree_const_iterator@V?$_Tree_val@U?$_Tree_simple_types@U?$pair@$$CBV?$basic_string@DU?$char_traits@D@std@@V?$allocator@D@2@@std@@PEAVTresourceElement@@@std@@@std@@@std@@@2@AEBU?$pair@$$CBV?$basic_string@DU?$char_traits@D@std@@V?$allocator@D@2@@std@@PEAVTresourceElement@@@2@@Z
?insert@?$_Tree@V?$_Tmap_traits@V?$basic_string@DU?$char_traits@D@std@@V?$allocator@D@2@@std@@PEAVTresourceGroup@@U?$less@V?$basic_string@DU?$char_traits@D@std@@V?$allocator@D@2@@std@@@2@V?$allocator@U?$pair@$$CBV?$basic_string@DU?$char_traits@D@std@@V?$allocator@D@2@@std@@PEAVTresourceGroup@@@std@@@2@$0A@@std@@@std@@QEAA?AU?$pair@V?$_Tree_iterator@V?$_Tree_val@U?$_Tree_simple_types@U?$pair@$$CBV?$basic_string@DU?$char_traits@D@std@@V?$allocator@D@2@@std@@PEAVTresourceGroup@@@std@@@std@@@std@@@std@@_N@2@$$QEAU?$pair@$$CBV?$basic_string@DU?$char_traits@D@std@@V?$allocator@D@2@@std@@PEAVTresourceGroup@@@2@@Z
?insert@?$_Tree@V?$_Tmap_traits@V?$basic_string@DU?$char_traits@D@std@@V?$allocator@D@2@@std@@PEAVTresourceGroup@@U?$less@V?$basic_string@DU?$char_traits@D@std@@V?$allocator@D@2@@std@@@2@V?$allocator@U?$pair@$$CBV?$basic_string@DU?$char_traits@D@std@@V?$allocator@D@2@@std@@PEAVTresourceGroup@@@std@@@2@$0A@@std@@@std@@QEAA?AU?$pair@V?$_Tree_iterator@V?$_Tree_val@U?$_Tree_simple_types@U?$pair@$$CBV?$basic_string@DU?$char_traits@D@std@@V?$allocator@D@2@@std@@PEAVTresourceGroup@@@std@@@std@@@std@@@std@@_N@2@AEBU?$pair@$$CBV?$basic_string@DU?$char_traits@D@std@@V?$allocator@D@2@@std@@PEAVTresourceGroup@@@2@@Z
?insert@?$_Tree@V?$_Tmap_traits@V?$basic_string@DU?$char_traits@D@std@@V?$allocator@D@2@@std@@PEAVTresourceGroup@@U?$less@V?$basic_string@DU?$char_traits@D@std@@V?$allocator@D@2@@std@@@2@V?$allocator@U?$pair@$$CBV?$basic_string@DU?$char_traits@D@std@@V?$allocator@D@2@@std@@PEAVTresourceGroup@@@std@@@2@$0A@@std@@@std@@QEAA?AV?$_Tree_iterator@V?$_Tree_val@U?$_Tree_simple_types@U?$pair@$$CBV?$basic_string@DU?$char_traits@D@std@@V?$allocator@D@2@@std@@PEAVTresourceGroup@@@std@@@std@@@std@@@2@V?$_Tree_const_iterator@V?$_Tree_val@U?$_Tree_simple_types@U?$pair@$$CBV?$basic_string@DU?$char_traits@D@std@@V?$allocator@D@2@@std@@PEAVTresourceGroup@@@std@@@std@@@std@@@2@$$QEAU?$pair@$$CBV?$basic_string@DU?$char_traits@D@std@@V?$allocator@D@2@@std@@PEAVTresourceGroup@@@2@@Z
?insert@?$_Tree@V?$_Tmap_traits@V?$basic_string@DU?$char_traits@D@std@@V?$allocator@D@2@@std@@PEAVTresourceGroup@@U?$less@V?$basic_string@DU?$char_traits@D@std@@V?$allocator@D@2@@std@@@2@V?$allocator@U?$pair@$$CBV?$basic_string@DU?$char_traits@D@std@@V?$allocator@D@2@@std@@PEAVTresourceGroup@@@std@@@2@$0A@@std@@@std@@QEAA?AV?$_Tree_iterator@V?$_Tree_val@U?$_Tree_simple_types@U?$pair@$$CBV?$basic_string@DU?$char_traits@D@std@@V?$allocator@D@2@@std@@PEAVTresourceGroup@@@std@@@std@@@std@@@2@V?$_Tree_const_iterator@V?$_Tree_val@U?$_Tree_simple_types@U?$pair@$$CBV?$basic_string@DU?$char_traits@D@std@@V?$allocator@D@2@@std@@PEAVTresourceGroup@@@std@@@std@@@std@@@2@AEBU?$pair@$$CBV?$basic_string@DU?$char_traits@D@std@@V?$allocator@D@2@@std@@PEAVTresourceGroup@@@2@@Z
?insert@T2FloatArray@@QEAAHAEBVT2Float@@I@Z
?insert@T2FloatArray@@QEAAXQEBVT2Float@@II@Z
?insert@T3DoubleArray@@QEAAHAEBVT3Double@@I@Z
?insert@T3DoubleArray@@QEAAXQEBVT3Double@@II@Z
?insert@T3FloatArray@@QEAAHAEBVT3Float@@I@Z
?insert@T3FloatArray@@QEAAXQEBVT3Float@@II@Z
?insert@T3dDblPointArray@@QEAAHAEBVT3dDblPoint@@I@Z
?insert@T3dDblPointArray@@QEAAXQEBVT3dDblPoint@@II@Z
?insert@T3dDblPointArrayPtrArray@@QEAAHAEBQEAVT3dDblPointArray@@I@Z
?insert@T3dDblPointArrayPtrArray@@QEAAXQEBQEAVT3dDblPointArray@@II@Z
?insert@T3dFltPointArray@@QEAAHAEBVT3dFltPoint@@I@Z
?insert@T3dFltPointArray@@QEAAXQEBVT3dFltPoint@@II@Z
?insert@T3dFltVectorArray@@QEAAHAEBVT3dFltVector@@I@Z
?insert@T3dFltVectorArray@@QEAAXQEBVT3dFltVector@@II@Z
?insert@T4dDblMatrixArray@@QEAAHAEBVT4dDblMatrix@@I@Z
?insert@T4dDblMatrixArray@@QEAAXQEBVT4dDblMatrix@@II@Z
?insert@T4dDblPointArray@@QEAAHAEBVT4dDblPoint@@I@Z
?insert@T4dDblPointArray@@QEAAXQEBVT4dDblPoint@@II@Z
?insert@T4dDblPointArrayPtrArray@@QEAAHAEBQEAVT4dDblPointArray@@I@Z
?insert@T4dDblPointArrayPtrArray@@QEAAXQEBQEAVT4dDblPointArray@@II@Z
?insert@T4dDblVectorArray@@QEAAHAEBVT4dDblVector@@I@Z
?insert@T4dDblVectorArray@@QEAAXQEBVT4dDblVector@@II@Z
?insert@T4dDblVectorArrayPtrArray@@QEAAHAEBQEAVT4dDblVectorArray@@I@Z
?insert@T4dDblVectorArrayPtrArray@@QEAAXQEBQEAVT4dDblVectorArray@@II@Z
?insert@T4dFltMatrixArray@@QEAAHAEBVT4dFltMatrix@@I@Z
?insert@T4dFltMatrixArray@@QEAAXQEBVT4dFltMatrix@@II@Z
?insert@T4dFltPointArray@@QEAAHAEBVT4dFltPoint@@I@Z
?insert@T4dFltPointArray@@QEAAXQEBVT4dFltPoint@@II@Z
?insert@TDarray@@QEAAXAEBVTdata@@I@Z
?insert@TTuInt32Array@@QEAAHAEBII@Z
?insert@TTuInt32Array@@QEAAXQEBIII@Z
?insert@TanimTimeArray@@QEAAXAEBVTanimTime@@I@Z
?insert@TanimTimeSortedArray@@QEAAHAEBVTanimTime@@@Z
?insert@TanimTimeSortedArray@@QEAAHAEBVTanimTime@@I@Z
?insert@TargListPtrArray@@QEAAHAEBQEAVTargList@@I@Z
?insert@TargTypeArray@@QEAAHAEBVTargType@@I@Z
?insert@TbdDataPtrArray@@QEAAXAEBQEAVTbdData@@I@Z
?insert@TbdDataPtrArrayContainer@@QEAAHAEBQEAVTbdData@@I@Z
?insert@TbdDataPtrArrayContainer@@QEAAXQEBQEAVTbdData@@II@Z
?insert@TbooleanArray@@QEAAHAEB_NI@Z
?insert@TbooleanArray@@QEAAXQEB_NII@Z
?insert@TbooleanArrayPtrArray@@QEAAHAEBQEAVTbooleanArray@@I@Z
?insert@TbooleanArrayPtrArray@@QEAAXQEBQEAVTbooleanArray@@II@Z
?insert@TcharArray@@QEAAHAEBDI@Z
?insert@TcharArray@@QEAAXQEBDII@Z
?insert@TcharPtrArray@@QEAAHAEBQEADI@Z
?insert@TcharPtrArray@@QEAAXQEBQEADII@Z
?insert@TcomponentPtrArray@@QEAAXAEBQEAVTcomponent@@I@Z
?insert@TdblPointArray@@QEAAHAEBVTdblPoint@@I@Z
?insert@TdblPointArray@@QEAAXQEBVTdblPoint@@II@Z
?insert@TdelayedMsgTypeArray@@QEAAXAEBVTdelayedMsgType@@I@Z
?insert@TdoubleArray@@QEAAHAEBNI@Z
?insert@TdoubleArray@@QEAAXQEBNII@Z
?insert@TdoubleArrayPtrArray@@QEAAHAEBQEAVTdoubleArray@@I@Z
?insert@TdoubleArrayPtrArray@@QEAAXQEBQEAVTdoubleArray@@II@Z
?insert@TdoubleIndexLongArray@@QEAAXAEBVTdoubleIndexLong@@I@Z
?insert@TdoublePtrArray@@QEAAHAEBQEANI@Z
?insert@TdoublePtrArray@@QEAAXQEBQEANII@Z
?insert@TdoubleRangeArray@@QEAAXAEBVTdoubleRange@@I@Z
?insert@TdoubleSortedArray@@QEAAHAEBN@Z
?insert@TdoubleSortedArray@@QEAAHAEBNI@Z
?insert@TdualQuaternionArray@@QEAAHAEBVTdualQuaternion@@I@Z
?insert@TdualQuaternionArray@@QEAAXQEBVTdualQuaternion@@II@Z
?insert@TfilePathArray@@QEAAXAEBVTfilePath@@I@Z
?insert@TfloatArray@@QEAAHAEBMI@Z
?insert@TfloatArray@@QEAAXQEBMII@Z
?insert@TfloatArrayPtrArray@@QEAAHAEBQEAVTfloatArray@@I@Z
?insert@TfloatArrayPtrArray@@QEAAXQEBQEAVTfloatArray@@II@Z
?insert@TfloatArrayPtrArrayPtrArray@@QEAAHAEBQEAVTfloatArrayPtrArray@@I@Z
?insert@TfloatArrayPtrArrayPtrArray@@QEAAXQEBQEAVTfloatArrayPtrArray@@II@Z
?insert@TfloatConstPtrArray@@QEAAHAEBQEBMI@Z
?insert@TfloatConstPtrArray@@QEAAXQEBQEBMII@Z
?insert@TfloatPtrArray@@QEAAHAEBQEAMI@Z
?insert@TfloatPtrArray@@QEAAXQEBQEAMII@Z
?insert@TfloatRangeArray@@QEAAXAEBVTfloatRange@@I@Z
?insert@TfltLineArray@@QEAAHAEBVTfltLine@@I@Z
?insert@TfltLineArray@@QEAAXQEBVTfltLine@@II@Z
?insert@TfltPointArray@@QEAAHAEBVTfltPoint@@I@Z
?insert@TfltPointArray@@QEAAXQEBVTfltPoint@@II@Z
?insert@TiffTagArray@@QEAAHAEBVTiffTag@@I@Z
?insert@TiffTagArray@@QEAAXQEBVTiffTag@@II@Z
?insert@TincorrectNameSet@@SAXAEBVTstring@@@Z
?insert@TindexArray@@QEAAHAEBII@Z
?insert@TindexArray@@QEAAXQEBIII@Z
?insert@TindexDictionary@@QEAAPEAVTindexDictionaryNode@@AEBI0@Z
?insert@TindexDictionary@@QEAAPEAVTindexDictionaryNode@@AEBI0AEAVTbookmark@@@Z
?insert@TindexRangeArray@@QEAAXAEBVTindexRange@@I@Z
?insert@Tint16Array@@QEAAHAEBFI@Z
?insert@Tint16Array@@QEAAXQEBFII@Z
?insert@Tint32Array@@QEAAHAEBHI@Z
?insert@Tint32Array@@QEAAXQEBHII@Z
?insert@Tint32ArrayPtrArray@@QEAAHAEBQEAVTint32Array@@I@Z
?insert@Tint32ArrayPtrArray@@QEAAXQEBQEAVTint32Array@@II@Z
?insert@Tint32SortedArray@@QEAAHAEBH@Z
?insert@Tint32SortedArray@@QEAAHAEBHI@Z
?insert@Tint64Array@@QEAAHAEB_JI@Z
?insert@Tint64Array@@QEAAXQEB_JII@Z
?insert@TkeyWordHashTable@@QEAA_NAEBVTcharString@@@Z
?insert@TlineArray@@QEAAHAEBVTline@@I@Z
?insert@TlineArray@@QEAAXQEBVTline@@II@Z
?insert@TmtThreadPtrArray@@QEAAHAEBQEAVTmtThread@@I@Z
?insert@TmtThreadPtrArray@@QEAAXQEBQEAVTmtThread@@II@Z
?insert@TnameObjectPtrArray@@QEAAHAEBQEAVTnameObject@@I@Z
?insert@TnameObjectPtrArray@@QEAAXQEBQEAVTnameObject@@II@Z
?insert@TnamespacePtrArray@@QEAAHAEBQEAVTnamespace@@I@Z
?insert@TnamespacePtrArray@@QEAAXQEBQEAVTnamespace@@II@Z
?insert@TobjArrayTbasketPtr@@QEAAXAEBQEAVTbasket@@I@Z
?insert@TobjectGroupIdArray@@QEAAHAEBII@Z
?insert@TobjectGroupIdArray@@QEAAXQEBIII@Z
?insert@TobjectGroupPtrArray@@QEAAXAEBQEAVTobjectGroup@@I@Z
?insert@TpixelMapPtrArray@@QEAAHAEBQEAVTpixelMap@@I@Z
?insert@TpixelMapPtrArray@@QEAAXQEBQEAVTpixelMap@@II@Z
?insert@TpointArray@@QEAAHAEBVTpoint@@I@Z
?insert@TpointArray@@QEAAXQEBVTpoint@@II@Z
?insert@TpolyMapArray@@QEAAXAEBVTpolyMap@@I@Z
?insert@TpolyTangentSetArray@@QEAAXAEBVTpolyTangentSet@@I@Z
?insert@TpoolAllocatorPtrArray@@QEAAHAEBQEAVTpoolAllocator@@I@Z
?insert@TpoolAllocatorPtrArray@@QEAAXQEBQEAVTpoolAllocator@@II@Z
?insert@TportColorArray@@QEAAHAEBVTportColor@@I@Z
?insert@TportColorArray@@QEAAXQEBVTportColor@@II@Z
?insert@TpreferenceItemPtrArray@@QEAAXAEBQEAVTpreferenceItem@@I@Z
?insert@TptrHashTable@@QEAA_NAEBQEAX@Z
?insert@TquaternionArray@@QEAAXAEBVTquaternion@@I@Z
?insert@TquaternionArrayPtrArray@@QEAAHAEBQEAVTquaternionArray@@I@Z
?insert@TquaternionArrayPtrArray@@QEAAXQEBQEAVTquaternionArray@@II@Z
?insert@TrectArray@@QEAAHAEBVTrect@@I@Z
?insert@TrectArray@@QEAAXQEBVTrect@@II@Z
?insert@TrotateXYZArray@@QEAAHAEBVTrotateXYZ@@I@Z
?insert@TrotateXYZArray@@QEAAXQEBVTrotateXYZ@@II@Z
?insert@TscaleArray@@QEAAHAEBVTscale@@I@Z
?insert@TscaleArray@@QEAAXQEBVTscale@@II@Z
?insert@TselectedSrfDirectionsArray@@QEAAHAEBW4TselectedSrfDirections@@I@Z
?insert@TselectedSrfDirectionsArray@@QEAAXQEBW4TselectedSrfDirections@@II@Z
?insert@TserverMsgPtrList@@QEAAXAEBQEAVTserverMsg@@PEAVTlink@1@@Z
?insert@TsharedPixelMapArray@@QEAAXAEBVTsharedPixelMap@@I@Z
?insert@TsortedBdDataPtrArray@@QEAAHAEBVTbdDataPtrSObj@@@Z
?insert@TsortedBdDataPtrArray@@QEAAHAEBVTbdDataPtrSObj@@I@Z
?insert@TsortedObjectGroupIdArray@@QEAAHAEBI@Z
?insert@TsortedObjectGroupIdArray@@QEAAHAEBII@Z
?insert@TsortedStringArray@@QEAAHAEBVTstring@@@Z
?insert@TsortedStringArray@@QEAAHAEBVTstring@@I@Z
?insert@TstringArray@@QEAAXAEBVTstring@@I@Z
?insert@TstringKeyHashTable@@QEAA_NAEBVTstring@@@Z
?insert@TstringPtrArray@@QEAAHAEBQEAVTstring@@I@Z
?insert@TstringPtrArray@@QEAAXQEBQEAVTstring@@II@Z
?insert@TsurfSelectedBoundaryTypeArray@@QEAAHAEBW4TsurfSelectedBoundaryType@@I@Z
?insert@TsurfSelectedBoundaryTypeArray@@QEAAXQEBW4TsurfSelectedBoundaryType@@II@Z
?insert@TsurfaceDirectionArray@@QEAAHAEBW4TsurfaceDirection@@I@Z
?insert@TsurfaceDirectionArray@@QEAAXQEBW4TsurfaceDirection@@II@Z
?insert@TsurfaceIndexArray@@QEAAXAEBVTsurfaceIndex@@I@Z
?insert@TtimeRangeArray@@QEAAXAEBVTtimeRange@@I@Z
?insert@TtimeValueArray@@QEAAHAEBVTtimeValue@@I@Z
?insert@TtimeValueArray@@QEAAXQEBVTtimeValue@@II@Z
?insert@TtimeValueArrayPtrArray@@QEAAHAEBQEAVTtimeValueArray@@I@Z
?insert@TtimeValueArrayPtrArray@@QEAAXQEBQEAVTtimeValueArray@@II@Z
?insert@TtimeValuePtrArray@@QEAAHAEBQEAPEAVTtimeValue@@I@Z
?insert@TtimeValuePtrArray@@QEAAXQEBQEAPEAVTtimeValue@@II@Z
?insert@TtriggerPtrArray@@QEAAHAEBQEAVTtrigger@@I@Z
?insert@TtriggerPtrArray@@QEAAXQEBQEAVTtrigger@@II@Z
?insert@TtypeDictionary@@QEAAPEAVTtypeDictionaryNode@@AEBVTcharString@@AEBQEAVTmetaclass@@@Z
?insert@TtypeDictionary@@QEAAPEAVTtypeDictionaryNode@@AEBVTcharString@@AEBQEAVTmetaclass@@AEAVTbookmark@@@Z
?insert@TtypeidArray@@QEAAXAEBQEAVTmetaclass@@I@Z
?insert@TuInt16Array@@QEAAHAEBGI@Z
?insert@TuInt16Array@@QEAAXQEBGII@Z
?insert@TuInt16SortedArray@@QEAAHAEBG@Z
?insert@TuInt16SortedArray@@QEAAHAEBGI@Z
?insert@TuInt32Array@@QEAAHAEBII@Z
?insert@TuInt32Array@@QEAAXQEBIII@Z
?insert@TuInt32ArrayPtrArray@@QEAAHAEBQEAVTuInt32Array@@I@Z
?insert@TuInt32ArrayPtrArray@@QEAAXQEBQEAVTuInt32Array@@II@Z
?insert@TuInt32SortedArray@@QEAAHAEBI@Z
?insert@TuInt32SortedArray@@QEAAHAEBII@Z
?insert@TuInt64Array@@QEAAHAEB_KI@Z
?insert@TuInt64Array@@QEAAXQEB_KII@Z
?insert@TuInt64SortedArray@@QEAAHAEB_K@Z
?insert@TuInt64SortedArray@@QEAAHAEB_KI@Z
?insert@TuInt8Array@@QEAAHAEBEI@Z
?insert@TuInt8Array@@QEAAXQEBEII@Z
?insert@TuInt8ArrayPtrArray@@QEAAHAEBQEAVTuInt8Array@@I@Z
?insert@TuInt8ArrayPtrArray@@QEAAXQEBQEAVTuInt8Array@@II@Z
?insert@TuvPointArray@@QEAAHAEBVTuvPoint@@I@Z
?insert@TuvPointArray@@QEAAXQEBVTuvPoint@@II@Z
?insert@TvaluesArrayPtrArray@@QEAAHAEBQEAVTdoubleArray@@I@Z
?insert@TvaluesArrayPtrArray@@QEAAXQEBQEAVTdoubleArray@@II@Z
?insert@TviewRegionArray@@QEAAHAEBVTviewRegion@@I@Z
?insert@TviewRegionArray@@QEAAXQEBVTviewRegion@@II@Z
?insert@TvoidPtrArray@@QEAAHAEBQEAXI@Z
?insert@TvoidPtrArray@@QEAAXQEBQEAXII@Z
?insert@TvoidPtrSortedArray@@QEAAHAEBQEAX@Z
?insert@TvoidPtrSortedArray@@QEAAHAEBQEAXI@Z
?insert@TxformMatrixArray@@QEAAXAEBVTxformMatrix@@I@Z
?insert@TxformMatrixPtrArray@@QEAAHAEBQEAVTxformMatrix@@I@Z
?insert@TxformMatrixPtrArray@@QEAAXQEBQEAVTxformMatrix@@II@Z
?insertArrayVar@TprefOptionVars@@QEAA_NAEBVTstring@@I0@Z
?insertArrayVar@TprefOptionVars@@QEAA_NAEBVTstring@@IH@Z
?insertArrayVar@TprefOptionVars@@QEAA_NAEBVTstring@@IN@Z
?insertBit@TbitFieldFixedN@@QEAA_NI_N@Z
?insertBytes@TiffFile4@@UEAAPEAXH@Z
?insertBytes@TiffFile8@@UEAAPEAXH@Z
?insertChild@TthreadSubtree@@UEAAHPEAXAEAPEAX0@Z
?insertChild@TthreadTree@@UEAAHPEAX00@Z
?insertChild@TthreadTree@@UEAAHPEAX0@Z
?insertChild@TthreadTree@@UEAAHPEAXH0@Z
?insertElement@Tarray@@IEAAHPEAXII@Z
?insertElement@TdoubleIndexedComponent@@QEAAXAEBVTsurfaceIndex@@@Z
?insertElement@TdoubleIndexedComponent@@QEAAXII@Z
?insertElement@TlongDoubleIndexedComponent@@QEAAXAEBVTdoubleIndexLong@@@Z
?insertElement@TlongDoubleIndexedComponent@@QEAAXII@Z
?insertElement@TobjArray@@IEAAXII@Z
?insertIndex@TpolyBdVertexFaceBase@@QEAAXPEBHII@Z
?insertNode@Tdictionary@@IEAAPEAVTdictionaryNode@@AEAV2@@Z
?insertNode@Tdictionary@@IEAAPEAVTdictionaryNode@@AEAV2@AEAVTbookmark@@@Z
?insertNodeInPlugInList@TpluginNodeList@@SAXPEAVTdependNode@@@Z
?insertObjectData@TnamespaceManager@@AEAA_NPEAVTnameObject@@AEBVTnameString@@PEAVTnamespace@@@Z
?insertReplace@?$TdataHashTable@IPEAVTmetaclass@@@@QEAA_NAEBIAEBQEAVTmetaclass@@@Z
?insertReplace@?$TdataHashTable@PEAVTbdData@@PEAV1@@@QEAA_NAEBQEAVTbdData@@0@Z
?insertReplace@?$TdataHashTable@PEAXVTstring@@@@QEAA_NAEBQEAXAEBVTstring@@@Z
?insertReplace@?$TdataHashTable@VTstring@@H@@QEAA_NAEBVTstring@@AEBH@Z
?insertReplace@?$TdataHashTable@VTstring@@PEAVTmetaclass@@@@QEAA_NAEBVTstring@@AEBQEAVTmetaclass@@@Z
?insertReplace@?$TdataHashTable@VTstring@@V1@@@QEAA_NAEBVTstring@@0@Z
?insertRoot@TthreadSubtree@@UEAAHPEAX@Z
?insertRoot@TthreadTree@@UEAAHPEAX@Z
?insertSubtree@TthreadSubtree@@UEAAXPEAX0@Z
?insertUVId@TpolyMap@@AEAAXPEBHII@Z
?insertUnique@?$TdataHashTable@IPEAVTmetaclass@@@@QEAA_NAEBIAEBQEAVTmetaclass@@@Z
?insertUnique@?$TdataHashTable@PEAVTbdData@@PEAV1@@@QEAA_NAEBQEAVTbdData@@0@Z
?insertUnique@?$TdataHashTable@PEAXVTstring@@@@QEAA_NAEBQEAXAEBVTstring@@@Z
?insertUnique@?$TdataHashTable@VTstring@@H@@QEAA_NAEBVTstring@@AEBH@Z
?insertUnique@?$TdataHashTable@VTstring@@PEAVTmetaclass@@@@QEAA_NAEBVTstring@@AEBQEAVTmetaclass@@@Z
?insertUnique@?$TdataHashTable@VTstring@@V1@@@QEAA_NAEBVTstring@@0@Z
?insertUnique@TkeyWordHashTable@@QEAA_NAEBVTcharString@@@Z
?insertUnique@TptrHashTable@@QEAA_NAEBQEAX@Z
?insertUnique@TstringKeyHashTable@@QEAA_NAEBVTstring@@@Z
?insertWithHash@ThashTable@@IEAA_NPEAVThashTableEntry@@I@Z
?instance@TbaseLicenseManager@@SAAEAV1@XZ
?instance@TplaceHolderNamespaceUtil@@SAPEAV1@XZ
?instance@beginIdleRollupT4@@SAPEAV1@XZ
?instanceBase@TfileResolverMgrBase@@SAAEBV1@XZ
?int16Value@Tdata@@QEBAFXZ
?int32Value@Tdata@@QEBAHXZ
?int32abgr@TportColor@@QEBAIXZ
?int32argb@TportColor@@QEBAIXZ
?int32rgba@TportColor@@QEBAIXZ
?int64Value@Tdata@@QEBA_JXZ
?intern@TuniqueString@@SA?AV1@AEBVTstring@@@Z
?internal@TangleUnit@@SA?AW4TangleUnitSystem@@XZ
?internal@Tunit@@SA?AW4TunitSystem@1@XZ
?internalToUI@TangleUnit@@SAMM@Z
?internalToUI@TangleUnit@@SANN@Z
?internalToUI@TtimeUnit@@SANH@Z
?internalToUI@Tunit@@SAMM@Z
?internalToUI@Tunit@@SANN@Z
?interpMatrix@TxformMatrix@@UEBA?AVT4dDblMatrix@@AEBV1@N_NF@Z
?intersect@TshapeAlgebra@@QEAAXAEBV1@@Z
?intersectNodeWithSphere@?$TotSphereWalker@VToctreePoint@@@@IEBA?AW4TintersectionResult@1@PEBV?$TotNode@VToctreePoint@@@@AEBVT3dFltPoint@@N@Z
?intersectPosition@TfltLineSegment@@QEBA?AW4ePointOnEdgeData@1@AEBVTfltLine@@AEAVT3dFltPoint@@@Z
?intersectPosition@TlineSegment@@QEBA?AW4ePointOnEdgeData@@AEBVTline@@AEAVT4dDblPoint@@@Z
?intersectRay@TvoxelGrid@@QEAA_NAEBVT3dFltVector@@AEBVT4dFltPoint@@AEAHAEAV2@3AEAM4@Z
?intersection@?$TotRayWalker@IVToctreeTriangleIntersection@@@@QEBAAEBVToctreeTriangleIntersection@@XZ
?intersection@TboundingBox@@QEBA?AV1@AEBV1@@Z
?intersection@TdoubleIndexedComponent@@UEBAPEAVTcomponent@@AEBV2@@Z
?intersection@TfltBox@@QEBA?AV1@AEBV1@@Z
?intersection@TfltInterval@@QEBA?AV1@AEBVTinterval@@@Z
?intersection@TfltInterval@@QEBA?AV1@V1@@Z
?intersection@TfltLine@@QEBA_NAEBV1@AEAVT3dFltPoint@@@Z
?intersection@TfltPlane@@QEBAHAEBVTfltLine@@AEAM@Z
?intersection@TfltPlane@@QEBAHAEBVTfltLine@@AEAVT3dFltPoint@@@Z
?intersection@Tline@@QEBA_NAEBV1@AEAVT4dDblPoint@@@Z
?intersection@TlongDoubleIndexedComponent@@UEBAPEAVTcomponent@@AEBV2@@Z
?intersection@Tplane@@QEBAHAEBVTline@@AEAN@Z
?intersection@Tplane@@QEBAHAEBVTline@@AEAVT4dDblPoint@@@Z
?intersection@Tplane@@QEBAHAEBVTlineSegment@@AEAN@Z
?intersection@Tplane@@QEBAHAEBVTlineSegment@@AEAVT4dDblPoint@@@Z
?intersection@Tplane@@QEBA_NAEBV1@AEAVTline@@@Z
?intersection@TsingleIndexedComponent@@UEBAPEAVTcomponent@@AEBV2@@Z
?intersection@TuInt64IndexedComponent@@UEBAPEAVTcomponent@@AEBV2@@Z
?intersects@TboundingBox@@QEBA_NAEBV1@@Z
?intersects@TboundingBox@@QEBA_NAEBVTboundingSphere@@@Z
?intersects@TboundingBox@@QEBA_NAEBVTfrustum@@@Z
?intersects@TboundingSphere@@QEBA_NAEBV1@@Z
?intersects@TboundingSphere@@QEBA_NAEBVTboundingBox@@@Z
?intersects@TboundingSphere@@QEBA_NAEBVTfrustum@@@Z
?intersects@TboundingSphere@@QEBA_NAEBVTline@@@Z
?intersects@TdblRect@@QEBA_NAEBV1@@Z
?intersects@TdblRect@@QEBA_NAEBV1@AEAV1@@Z
?intersects@TdblRect@@QEBA_NAEBVT3dDblPoint@@@Z
?intersects@TdoubleIndexedComponent@@UEBA_NAEBVTcomponent@@_N@Z
?intersects@TfltBoundingBox@@UEBA_NAEBVTfltBounds@@@Z
?intersects@TfltBoundingSphere@@QEBA_NAEBV1@@Z
?intersects@TfltBoundingSphere@@QEBA_NAEBVTfltBoundingBox@@@Z
?intersects@TfltBoundingSphere@@QEBA_NAEBVTfltBox@@@Z
?intersects@TfltBoundingSphere@@QEBA_NAEBVTfltFrustum@@@Z
?intersects@TfltBoundingSphere@@QEBA_NAEBVTfltLine@@@Z
?intersects@TfltBoundingSphere@@UEBA_NAEBVTfltBounds@@@Z
?intersects@TfltBox@@QEBA_NAEBV1@@Z
?intersects@TfltBox@@QEBA_NAEBVTfltBounds@@@Z
?intersects@TfltBox@@QEBA_NAEBVTfltFrustum@@@Z
?intersects@TfltFrustum@@QEBA_NAEBV1@@Z
?intersects@TfltFrustum@@QEBA_NAEBVTfltBoundingBox@@@Z
?intersects@TfltFrustum@@QEBA_NAEBVTfltBoundingSphere@@@Z
?intersects@TfltFrustum@@QEBA_NAEBVTfltBox@@@Z
?intersects@TfltFrustum@@UEBA_NAEBVTfltBounds@@@Z
?intersects@TfltInterval@@QEBA_NAEBVTinterval@@@Z
?intersects@TfltInterval@@QEBA_NAEBVTinterval@@N@Z
?intersects@TfltInterval@@QEBA_NV1@@Z
?intersects@TfltInterval@@QEBA_NV1@M@Z
?intersects@TfltNullBounds@@UEBA_NAEBVTfltBounds@@@Z
?intersects@TfltUnBounded@@UEBA_NAEBVTfltBounds@@@Z
?intersects@Tfrustum@@QEBA_NAEBV1@@Z
?intersects@Tfrustum@@QEBA_NAEBVTboundingBox@@@Z
?intersects@Tfrustum@@QEBA_NAEBVTboundingBox@@AEA_N@Z
?intersects@Tfrustum@@QEBA_NAEBVTboundingSphere@@@Z
?intersects@TlongDoubleIndexedComponent@@UEBA_NAEBVTcomponent@@_N@Z
?intersects@Tpoint@@QEBA_NAEBV1@@Z
?intersects@TportRect@@QEBA_NAEBV1@@Z
?intersects@TportRect@@QEBA_NAEBV1@AEAV1@@Z
?intersects@TportRect@@QEBA_NAEBVTpoint@@@Z
?intersects@Trect@@QEBA_NAEBV1@@Z
?intersects@Trect@@QEBA_NAEBV1@AEAV1@@Z
?intersects@Trect@@QEBA_NAEBVTpoint@@@Z
?intersects@TsingleIndexedComponent@@UEBA_NAEBVTcomponent@@_N@Z
?intersects@TuInt64IndexedComponent@@UEBA_NAEBVTcomponent@@_N@Z
?intersectsBox@TboundingBox@@QEBA_NAEBV1@N@Z
?intersectsBox@Tbox@@QEBA_NAEBV1@N@Z
?intersectsBox@TfltBoundingBox@@UEBA_NAEBVTfltBox@@@Z
?intersectsBox@TfltBoundingSphere@@UEBA_NAEBVTfltBox@@@Z
?intersectsBox@TfltBox@@QEBA_NAEBV1@M@Z
?intersectsBox@TfltFrustum@@UEBA_NAEBVTfltBox@@@Z
?intersectsBox@TfltNullBounds@@UEBA_NAEBVTfltBox@@@Z
?intersectsBox@TfltUnBounded@@UEBA_NAEBVTfltBox@@@Z
?intersectsPlane@Tbox@@QEBA_NAEBVT3dDblPoint@@AEBVT4dDblVector@@N@Z
?intersectsRay@Tbox@@QEBA_NAEBVT3dDblPoint@@AEBVT4dDblVector@@NPEAN2@Z
?interval@@YA?AUtimeval@@AEBU1@0@Z
?invalidBaseChars@TfileName@@SAAEAVTstring@@XZ
?invalidDirChars@TfileName@@SAAEAVTstring@@XZ
?inverse@T2dFltVector@@QEBA?AV1@XZ
?inverse@T3dFltVector@@QEBA?AV1@XZ
?inverse@T4dDblMatrix@@QEBA?AV1@XZ
?inverse@T4dDblVector@@QEBA?AV1@XZ
?inverse@T4dFltMatrix@@QEBA?AV1@M@Z
?inverse@TdualQuaternion@@QEBA?AV1@XZ
?inverse@Tquaternion@@QEBA?AV1@XZ
?inverse@TrotateXYZ@@QEBA?AV1@XZ
?inverse@Tscale@@QEBA?AV1@XZ
?inverse@Tshear2@@QEBA?AV1@XZ
?inverse@Tshear@@QEBA?AV1@XZ
?inverse@TxformMatrix@@UEBA?AVT4dDblMatrix@@XZ
?invertAll@TbitFieldFixedN@@QEAAXXZ
?invertIt@T2dFltVector@@QEAAAEAV1@XZ
?invertIt@T3dFltVector@@QEAAAEAV1@XZ
?invertIt@T4dDblMatrix@@QEAAAEAV1@XZ
?invertIt@T4dDblVector@@QEAAAEAV1@XZ
?invertIt@T4dFltMatrix@@QEAAAEAV1@M@Z
?invertIt@TdualQuaternion@@QEAAAEAV1@XZ
?invertIt@Tquaternion@@QEAAAEAV1@XZ
?invertIt@TrotateXYZ@@QEAAAEAV1@XZ
?invertIt@Tscale@@QEAAAEAV1@XZ
?invertIt@Tshear2@@QEAAAEAV1@XZ
?invertIt@Tshear@@QEAAAEAV1@XZ
?invokeDeviceDeleted@ThwrCallback@@SAXXZ
?invokeDeviceLost@ThwrCallback@@SAXXZ
?invokeDeviceNew@ThwrCallback@@SAXXZ
?invokeDeviceReset@ThwrCallback@@SAXXZ
?isAPluginXform@TxformMatrix@@UEBA_NXZ
?isAbsoluteName@TnamespaceManager@@SA_NAEBVTstring@@@Z
?isAbsoluteName@TnamespaceManager@@SA_NPEBD@Z
?isAbstract@Tmetaclass@@QEBA_NXZ
?isActive@Tcomputation@@SA_NXZ
?isActive@TiffFile4@@UEBA_NXZ
?isActive@TiffFile8@@UEBA_NXZ
?isAffine@T4dDblMatrix@@QEBA_NXZ
?isAnimTime@Tdata@@QEBA_NXZ
?isAnimTime@TtimeValue@@QEBA_NXZ
?isArg@TargType@@QEBA_NXZ
?isArray@TargType@@QEBA_NXZ
?isArray@ToptionVar@@QEBA_NXZ
?isAscii@TdataUnknown@@QEBA_NXZ
?isAscii@Tstring@@QEBA_NXZ
?isBinary@TdataUnknown@@QEBA_NXZ
?isBooleanType@TdataArrayAttrs@@QEBA_NI@Z
?isBoxNull@TboundingBox@@QEBA_NXZ
?isBoxNull@TfltBox@@QEBA_NXZ
?isChild@TthreadTree@@UEBA_NPEAX0@Z
?isClusterWtCompReversed@TbatchGlobals@@SA_NXZ
?isCompact@Tpage@TbaseArena@@QEBA_NXZ
?isComplete@Tcomponent@@QEBA_NXZ
?isControlPoint@Tcomponent@@UEBA_NXZ
?isCreated@Tarray@@AEBA_NXZ
?isCurrentNamespace@TnamespaceManager@@QEBA_NPEBVTnamespace@@@Z
?isDGOwnerThread@TmtThread@@SA_NXZ
?isDataAvailable@Tprofiler@@QEAA_NXZ
?isDataFromFile@Tprofiler@@QEAA_NXZ
?isDefaultLanguage@TappLocale@@SA_NXZ
?isDegenerate@TdoubleRange@@QEBA_NXZ
?isDir@TdirIterator@@QEBA_NXZ
?isDirectory@TfilePath@@QEBA_NXZ
?isDirty@TpixelMap@@QEBA_NXZ
?isDone@?$TotSphereWalker@VToctreePoint@@@@QEBA_NXZ
?isDone@Iterator@TkeyWordHashTable@@QEAA_NXZ
?isDone@Iterator@TptrHashTable@@QEAA_NXZ
?isDone@Iterator@TstringKeyHashTable@@QEAA_NXZ
?isDone@NameIterator@Tnamespace@@QEAA_NXZ
?isDone@TdirIterator@@QEBA_NXZ
?isDone@TnameObjectIterator@@QEBA_NXZ
?isDone@TnameObjectTypeIterator@@QEBA_NXZ
?isDone@TnamespaceIterator@@QEBA_NXZ
?isDone@TsearchPathIterator@@QEAA_NXZ
?isDone@TsicComplementIterator@@QEBA_NXZ
?isDone@TsingleIndexedComponentIterator@@QEBA_NXZ
?isDone@TspatialGridWalker@@QEAA_NXZ
?isDouble@Tstring@@QEBA_NXZ
?isDoubleType@TdataArrayAttrs@@QEBA_NI@Z
?isEDU@TbaseLicenseManager@@UEAA_NXZ
?isEMR@TbaseLicenseManager@@UEAA_NXZ
?isEmpty@Tarray@@QEBA_NXZ
?isEmpty@TboundingBox@@QEBA_NXZ
?isEmpty@Tbox@@QEBA_NXZ
?isEmpty@Tcomponent@@QEBA_NXZ
?isEmpty@TdblRect@@QEBA_NXZ
?isEmpty@TfileURI@@QEBA_NXZ
?isEmpty@TfltBox@@QEBA_NXZ
?isEmpty@Tnamespace@@UEAA_N_N@Z
?isEmpty@TnamespaceManager@@QEAA_NPEAVTnamespace@@_N@Z
?isEmpty@TobjArray@@QEBA_NXZ
?isEmpty@TportRect@@QEBA_NXZ
?isEmpty@TshapeAlgebra@@QEBA_NXZ
?isEmpty@TsharedReference@@QEBA_NXZ
?isEmpty@Tstack@@QEBA_NXZ
?isEmpty@Tstring@@QEBA_NXZ
?isEmpty@Ttree@@UEBA_NXZ
?isEmpty@TuniqueString@@QEBA_NXZ
?isEnabled@Tcounter@@QEBA_NXZ
?isEnabled@TcounterContext@@AEBA_NXZ
?isEnabled@TenvironmentVariable@@QEBA_NXZ
?isEqual@MPxEditData@@QEBA_NPEBV1@@Z
?isEqual@Tcomponent@@QEBA_NAEBV1@@Z
?isExtensionEnabled@TmayaAppInfo@@SA_NH@Z
?isFile@TdirIterator@@QEBA_NXZ
?isFileWritable@TsafeFileSave@@QEBA_NXZ
?isFixed@Tpage@TbaseArena@@QEBA_NXZ
?isFlagSet@MObject@@AEBA_NF@Z
?isFlagSet@TapiObj@@QEBA_NG@Z
?isFloat@Tstring@@QEBA_NXZ
?isFloat@TtimeValue@@QEBA_NXZ
?isFromCache@Tdata@@AEBA_NXZ
?isFullPathAnyPlatform@TfilePath@@SA_NAEBVTstring@@@Z
?isGreaterThan@Tcomponent@@UEBA_NAEBV1@@Z
?isGreaterThan@TdoubleIndexedComponent@@UEBA_NAEBVTcomponent@@@Z
?isGreaterThan@TlongDoubleIndexedComponent@@UEBA_NAEBVTcomponent@@@Z
?isGreaterThan@TsingleIndexedComponent@@UEBA_NAEBVTcomponent@@@Z
?isGreaterThan@TuInt64IndexedComponent@@UEBA_NAEBVTcomponent@@@Z
?isHidden@TfilePath@@QEBA_NXZ
?isIdentity@Tweight@@QEBA_NXZ
?isImage@TiffFile4@@UEAAIXZ
?isImage@TiffFile8@@UEAAIXZ
?isInTmpRefNamespace@TnamespaceManager@@QEBA_NPEBVTnamespace@@@Z
?isInUse@TprogressIndicator@@QEBA_NXZ
?isInitialized@TfileStream@@QEBA_NXZ
?isInside@T2dIntSequence@@QEAA_NHH@Z
?isInside@T3dIntSequence@@QEAA_NHHH@Z
?isInside@TintSequence@@QEAA_NH@Z
?isInside@TuIntSequence@@QEAA_NI@Z
?isInt16@Tstring@@QEBA_NXZ
?isInt32@Tstring@@QEBA_NXZ
?isInt32Type@TdataArrayAttrs@@QEBA_NI@Z
?isInterruptRequested@Tcomputation@@UEAA_NXZ
?isInterruptable@TprogressIndicator@@UEBA_NXZ
?isKeyword@TnameObject@@SA_NPEBD@Z
?isLatin1@TappLocale@@SA_NXZ
?isLeaf@Ttree@@UEBA_NPEAX@Z
?isLessThan@MPxEditData@@QEBA_NPEBV1@@Z
?isLessThan@Tcomponent@@UEBA_NAEBV1@@Z
?isLessThan@TdoubleIndexedComponent@@UEBA_NAEBVTcomponent@@@Z
?isLessThan@TlongDoubleIndexedComponent@@UEBA_NAEBVTcomponent@@@Z
?isLessThan@TsingleIndexedComponent@@UEBA_NAEBVTcomponent@@@Z
?isLessThan@TuInt64IndexedComponent@@UEBA_NAEBVTcomponent@@@Z
?isLetterWritable@Tdata@@QEBA_NXZ
?isLocked@TfileStream@@QEBA_NXZ
?isMainThread@TmtThread@@SA_NXZ
?isMapPerInstance@TpolyMapArrayShared@@QEBA_NI@Z
?isMappedAtOffset@TpolyMap@@AEBA_NH@Z
?isMappedAtOffset@TpolyMapArrayShared@@QEBA_NI@Z
?isMatchUI@Tangle@@QEBA_NXZ
?isMatchUI@Tlinear@@QEBA_NXZ
?isMultibyte@TappLocale@@SA_NXZ
?isNFR@TbaseLicenseManager@@UEAA_NXZ
?isNULL@Tdata@@QEBA_NXZ
?isNamespace@TnameObject@@UEBA_NXZ
?isNamespace@Tnamespace@@UEBA_NXZ
?isNone@TplaceHolderNamespaceUtil@@QEBA_NAEBVTstring@@@Z
?isNotUsingNamespaces@TbatchGlobals@@SA_NXZ
?isNotWritingPolyColors@TbatchGlobals@@SA_NXZ
?isNull@MObject@@QEBA_NXZ
?isNull@TapiObj@@QEBA_NXZ
?isNull@TboundingBox@@QEBA_NXZ
?isNull@TfltBox@@QEBA_NXZ
?isNull@TfltInterval@@QEBA_NXZ
?isNull@TfltInterval@@QEDA_NXZ
?isNumeric@Tdata@@QEBA_NXZ
?isOldBindPoseMode@TbatchGlobals@@SA_NXZ
?isOldNurbsTrimData@TbatchGlobals@@SA_NXZ
?isOldPolyRep@TbatchGlobals@@SA_NXZ
?isOldRebuildRational@TbatchGlobals@@SA_NXZ
?isOldRebuildSurfaces@TbatchGlobals@@SA_NXZ
?isOldSwapNamespaceBinary@TbatchGlobals@@SA_NXZ
?isOlderThan@TfileSystemEntity@@QEBA_NAEBV1@@Z
?isOnTheLine@TfltLine@@QEBA_NAEBVT3dFltPoint@@@Z
?isOnTheLine@Tline@@QEBA_NAEBVT4dDblPoint@@@Z
?isOnThePlane@TfltPlane@@QEBA_NAEBVT3dFltPoint@@@Z
?isOnThePlane@Tplane@@QEBA_NAEBVT4dDblPoint@@@Z
?isOpen@TdynamicLoad@@QEBA_NXZ
?isOpen@Tfile@@QEBA_NXZ
?isOpen@TfileStream@@QEBA_NXZ
?isOrdered@Tcomponent@@QEBA_NXZ
?isOrthogonal@T4dDblMatrix@@QEBA_NXZ
?isOrthogonal@T4dFltMatrix@@QEBA_NXZ
?isOverMaxIndent@TdebugOutput@@IEAA_NH@Z
?isParallel@TfltLine@@QEBA_NAEBV1@@Z
?isParallel@TfltLine@@QEBA_NAEBVTfltPlane@@@Z
?isParallel@Tline@@QEBA_NAEBV1@@Z
?isParallel@Tline@@QEBA_NAEBVTplane@@@Z
?isPath@TfileSystemEntity@@QEBA_NAEBVTstring@@@Z
?isPerInstance@TpolyBdVertexFaceBase@@QEBA_NXZ
?isPlaceHolderNamespace@TnamespaceManager@@QEAA_NAEBVTstring@@@Z
?isPolyRepCreased@TbatchGlobals@@SA_NXZ
?isPolyRepCreasedVertex@TbatchGlobals@@SA_NXZ
?isPolyRepHoleFace@TbatchGlobals@@SA_NXZ
?isPolyRepPinnedUV@TbatchGlobals@@SA_NXZ
?isPre2009@TbatchGlobals@@SA_NXZ
?isPre45@TbatchGlobals@@SA_NXZ
?isPseudoTranslated@TpseudoTranslate@@SA_NAEBVTstring@@@Z
?isRGBA@TpixelMap@@QEBA_NXZ
?isRangeValue@TfloatRange@@QEAA_NXZ
?isRangeValue@TindexRange@@QEBA_NXZ
?isRangeValue@TtimeRange@@QEAA_NXZ
?isRedoing@TundoManagerBase@@SA_NXZ
?isRelativePathAnyPlatform@TfilePath@@SA_NAEBVTstring@@@Z
?isReserved@TnameObject@@QEBA_NXZ
?isRootNamespace@TnamespaceManager@@QEBA_NAEBVTstring@@@Z
?isRootNamespace@TnamespaceManager@@QEBA_NPEBVTnamespace@@@Z
?isSet@TenvironmentVariable@@QEBA_NXZ
?isSet@TfileStream@@QEBA_NXZ
?isSet@TfileSystemEntity@@QEBA_NXZ
?isSingular@T4dDblMatrix@@QEBA_NXZ
?isStack@Tpage@TbaseArena@@QEBA_NXZ
?isStringType@TdataArrayAttrs@@QEBA_NI@Z
?isTemp@Ttrigger@@QEBA_NXZ
?isTimed@TdebugOutput@@QEBA_NXZ
?isTransparent@TportColor@@QEBA_NXZ
?isTrialMode@TbaseLicenseManager@@UEAA_NXZ
?isTrialToPurchaseMode@TbaseLicenseManager@@UEAA_NXZ
?isTty@TiffFile@@QEAAHPEBD@Z
?isTtyFile@TiffFile4@@UEAAHXZ
?isTtyFile@TiffFile8@@UEAAHXZ
?isUINamespace@TnameObject@@QEBA_NXZ
?isUInt32@Tstring@@QEBA_NXZ
?isUTF8@TappLocale@@SA_NXZ
?isUndoStillValid@TfileManager@@QEAA_NAEBVTstring@@@Z
?isUndoing@TundoManagerBase@@SA_NXZ
?isUnique@Tnamespace@@UEAA_NAEAVTnameString@@@Z
?isUnique@TnamespaceManager@@QEAA_NAEBVTnameString@@PEBVTnamespace@@@Z
?isUsingNonAffineXformCalculations@TbatchGlobals@@SA_NXZ
?isUsingPlaceHolderNamespaces@TnamespaceManager@@QEAA_NXZ
?isUsingRelativeNames@TnamespaceManager@@QEBA_NXZ
?isValid@MObjBase@@SA_NW4Type@MFn@@@Z
?isValid@T2dIntSequence@@QEBA_NXZ
?isValid@T3dIntSequence@@QEBA_NXZ
?isValid@TbaseLicenseManager@@SA_NXZ
?isValid@TdirectoryPath@@UEBA_NXZ
?isValid@TfileName@@AEBA_NXZ
?isValid@TfilePath@@UEBA_NXZ
?isValid@TfileSystemEntity@@QEBA_NXZ
?isValid@TfileURI@@QEBA_NXZ
?isValid@Tfrustum@@QEBA_NXZ
?isValid@TintSequence@@QEBA_NXZ
?isValid@TlinearString@@QEBA_NXZ
?isValid@TregExp@@QEBA_NXZ
?isValid@TtempDirectoryMgr@@QEAA_NXZ
?isValid@TuIntSequence@@QEBA_NXZ
?isValid@Tuuid@@QEBA_NXZ
?isValidBaseName@TfileName@@QEBA_NXZ
?isValidFormatForString@TstringUtil@@SA_NAEBVTstring@@AEAHPEAH@Z
?isValidName@TnamespaceManager@@QEBA_NAEBVTstring@@@Z
?isValidURI@TfileURI@@SA_NAEBVTstring@@@Z
?isValidURIScheme@TfileURI@@SA_NAEBVTstring@@@Z
?isValidVoxel@TspatialGrid@@QEAA_NAEAVT3Int32@@@Z
?isVariant@Tpage@TbaseArena@@QEBA_NXZ
?isVectorType@TdataArrayAttrs@@QEBA_NI@Z
?isVoidPtrType@TdataArrayAttrs@@QEBA_NI@Z
?isWildCard@Tstring@@QEBA_NXZ
?isWrapping@Tfile@@QEBA_NXZ
?isXform@TdataMatrix@@QEBA_NXZ
?isYoungerThan@TfileSystemEntity@@QEBA_NAEBV1@@Z
?isZero@TrotateXYZ@@QEBA_NN@Z
?is_open@?$basic_fstream@DU?$char_traits@D@std@@@std@@QEBA_NXZ
?isa@Tmetaclass@@QEAA_NPEAV1@@Z
?isa@Tmetaclass@@QEAA_NPEBD@Z
?isexactlya@Tmetaclass@@QEAA_NPEAV1@@Z
?isexactlya@Tmetaclass@@QEAA_NPEBD@Z
?isnota@Tmetaclass@@QEAA_NPEAV1@@Z
?isnota@Tmetaclass@@QEAA_NPEBD@Z
?isnotexactlya@Tmetaclass@@QEAA_NPEAV1@@Z
?isnotexactlya@Tmetaclass@@QEAA_NPEBD@Z
?istype@Tmetaclass@@AEAA_NPEAV1@@Z
?item@NameIterator@Tnamespace@@QEBAPEAVTnameObject@@XZ
?item@TdirIterator@@QEBA?AVTfilePath@@XZ
?item@TnameObjectIterator@@QEBAPEAVTnameObject@@XZ
?item@TnameObjectTypeIterator@@QEBAPEAVTnameObject@@XZ
?item@TnamespaceIterator@@QEBAPEAVTnameObject@@XZ
?item@TsearchPathIterator@@QEAA?AVTfilePath@@XZ
?itemAt@TserverMsgPtrList@@QEBAPEAVTlink@1@H@Z
?itemBlock@TsingleIndexedComponent@@QEBAHI@Z
?itemCount@TdataHanger@@QEBAIAEBVTstring@@@Z
?itemName@TpreferenceItem@@QEAAAEAVTstring@@XZ
?itemType@TpreferenceItem@@QEAAHXZ
?jira@ToDo@@QEBAPEBDXZ
?join@TmtThread@@QEAA_NH@Z
?joinNamespaceName@TnamespaceManager@@SA?AVTstring@@AEBV2@0W4eNamespacePath@1@@Z
?jointOrient@TxformMatrix@@UEBA?AVTquaternion@@W4TxformSpace@@@Z
?justifyAndFillArrays@TdataArrayAttrs@@QEAAX_N@Z
?kABUF@TiffTag@@2V1@B
?kAIFC@TiffTag@@2V1@B
?kAIFF@TiffTag@@2V1@B
?kANNO@TiffTag@@2V1@B
?kAPBM@TiffTag@@2V1@B
?kASDG@TiffTag@@2V1@B
?kAUTH@TiffTag@@2V1@B
?kAudioFileLibraryName@TdynamicLoad@@2PEBDEB
?kAudioLibraryName@TdynamicLoad@@2PEBDEB
?kBODY@TiffTag@@2V1@B
?kBPBM@TiffTag@@2V1@B
?kBlackSpectrum@Tspectrum@@2V1@B
?kBlueSpectrum@Tspectrum@@2V1@B
?kCARC@TiffTag@@2V1@B
?kCAT4@TiffTag@@2V1@B
?kCAT8@TiffTag@@2V1@B
?kCAT@TiffTag@@2V1@B
?kCATx@TiffTag@@2V1@B
?kCIMG@TiffTag@@2V1@B
?kCIRC@TiffTag@@2V1@B
?kCMAP@TiffTag@@2V1@B
?kCOLR@TiffTag@@2V1@B
?kCOMM@TiffTag@@2V1@B
?kCOMT@TiffTag@@2V1@B
?kCPRT@TiffTag@@2V1@B
?kCURV@TiffTag@@2V1@B
?kCblack@@3VTportColor@@B
?kCblue@@3VTportColor@@B
?kCcyan@@3VTportColor@@B
?kCdarkgreen@@3VTportColor@@B
?kCgreen@@3VTportColor@@B
?kCgrey@@3VTportColor@@B
?kCmagenta@@3VTportColor@@B
?kCompressionLibraryName@TdynamicLoad@@2PEBDEB
?kCorange@@3VTportColor@@B
?kCred@@3VTportColor@@B
?kCtransparent@@3VTportColor@@B
?kCwhite@@3VTportColor@@B
?kCyellow@@3VTportColor@@B
?kDATA@TiffTag@@2V1@B
?kDATE@TiffTag@@2V1@B
?kDBErrBadElse@@3PEBDEB
?kEDGE@TiffTag@@2V1@B
?kEOVC@TiffTag@@2V1@B
?kErrNdxInRange@@3PEBDEB
?kErrNdxTooHigh@@3PEBDEB
?kErrZeroLength@@3PEBDEB
?kFCHR@TiffTag@@2V1@B
?kFHDR@TiffTag@@2V1@B
?kFILE@TiffTag@@2V1@B
?kFLDS@TiffTag@@2V1@B
?kFONT@TiffTag@@2V1@B
?kFOR4@TiffTag@@2V1@B
?kFOR8@TiffTag@@2V1@B
?kFORM@TiffTag@@2V1@B
?kFORx@TiffTag@@2V1@B
?kFRAM@TiffTag@@2V1@B
?kFTXT@TiffTag@@2V1@B
?kFVER@TiffTag@@2V1@B
?kGEND@TiffTag@@2V1@B
?kGMSK@TiffTag@@2V1@B
?kGPBM@TiffTag@@2V1@B
?kGRUP@TiffTag@@2V1@B
?kGUIO@TiffTag@@2V1@B
?kGreenSpectrum@Tspectrum@@2V1@B
?kHTXT@TiffTag@@2V1@B
?kICON@TiffTag@@2V1@B
?kINCL@TiffTag@@2V1@B
?kInvalidKey@TmtTSSCollection@@2KB
?kLINK@TiffTag@@2V1@B
?kLIS4@TiffTag@@2V1@B
?kLIS8@TiffTag@@2V1@B
?kLIST@TiffTag@@2V1@B
?kLISx@TiffTag@@2V1@B
?kMANY@TiffTag@@2V1@B
?kMDLF@TiffTag@@2V1@B
?kMHDR@TiffTag@@2V1@B
?kMRPH@TiffTag@@2V1@B
?kMaxBlendFactor@TblendFactor@@2V1@B
?kMaxPortRect@TdblRect@@2V1@B
?kMaxPortRect@TportRect@@2V1@B
?kMaxValue@?$TintervalTemplate@H@@0HB
?kMaxValue@TfltInterval@@2MB
?kMidiLibraryName@TdynamicLoad@@2PEBDEB
?kMinBlendFactor@TblendFactor@@2V1@B
?kMovieLibraryName@TdynamicLoad@@2PEBDEB
?kNAME@TiffTag@@2V1@B
?kNullObj@MObject@@2V1@A
?kNullStr@Tstring@@0PEBDEB
?kOUTP@TiffTag@@2V1@B
?kPAGE@TiffTag@@2V1@B
?kPATH@TiffTag@@2V1@B
?kPATN@TiffTag@@2V1@B
?kPBGD@TiffTag@@2V1@B
?kPDEF@TiffTag@@2V1@B
?kPGSH@TiffTag@@2V1@B
?kPOLY@TiffTag@@2V1@B
?kPREV@TiffTag@@2V1@B
?kPRO4@TiffTag@@2V1@B
?kPRO8@TiffTag@@2V1@B
?kPROJ@TiffTag@@2V1@B
?kPROP@TiffTag@@2V1@B
?kPROx@TiffTag@@2V1@B
?kRAYT@TiffTag@@2V1@B
?kRCRV@TiffTag@@2V1@B
?kRECT@TiffTag@@2V1@B
?kRGB2@TiffTag@@2V1@B
?kRGBA@TiffTag@@2V1@B
?kRPBM@TiffTag@@2V1@B
?kRedSpectrum@Tspectrum@@2V1@B
?kSGRP@TiffTag@@2V1@B
?kSHAP@TiffTag@@2V1@B
?kSHDR@TiffTag@@2V1@B
?kSHEL@TiffTag@@2V1@B
?kSHOW@TiffTag@@2V1@B
?kSIMG@TiffTag@@2V1@B
?kSSND@TiffTag@@2V1@B
?kSTYL@TiffTag@@2V1@B
?kSURF@TiffTag@@2V1@B
?kTBHD@TiffTag@@2V1@B
?kTBMP@TiffTag@@2V1@B
?kTBUF@TiffTag@@2V1@B
?kTransparent@TportColor@@2V1@B
?kUILibraryName@TdynamicLoad@@2PEBDEB
?kUSER@TiffTag@@2V1@B
?kVRTX@TiffTag@@2V1@B
?kWDGT@TiffTag@@2V1@B
?kWhiteSpectrum@Tspectrum@@2V1@B
?kZBUF@TiffTag@@2V1@B
?kZERO@TiffTag@@2V1@B
?key@Iterator@TkeyWordHashTable@@QEAA?AVTcharString@@XZ
?key@Iterator@TptrHashTable@@QEAAPEAXXZ
?key@Iterator@TstringKeyHashTable@@QEAA?AVTstring@@XZ
?key@TdbTrace@@QEBA?AVTstring@@XZ
?key@TindexDictionaryNode@@QEBAAEBIXZ
?key@TtypeDictionaryNode@@QEBAAEBVTcharString@@XZ
?keyCount@TkeyWordHashTable@@QEBAIAEBVTcharString@@@Z
?keyCount@TptrHashTable@@QEBAIAEBQEAX@Z
?keyCount@TstringKeyHashTable@@QEBAIAEBVTstring@@@Z
?keyExists@TstringCatalog@@SA_NAEBVTstringId@@@Z
?key_comp@?$_Tree@V?$_Tmap_traits@V?$basic_string@DU?$char_traits@D@std@@V?$allocator@D@2@@std@@PEAVTresourceElement@@U?$less@V?$basic_string@DU?$char_traits@D@std@@V?$allocator@D@2@@std@@@2@V?$allocator@U?$pair@$$CBV?$basic_string@DU?$char_traits@D@std@@V?$allocator@D@2@@std@@PEAVTresourceElement@@@std@@@2@$0A@@std@@@std@@QEBA?AU?$less@V?$basic_string@DU?$char_traits@D@std@@V?$allocator@D@2@@std@@@2@XZ
?key_comp@?$_Tree@V?$_Tmap_traits@V?$basic_string@DU?$char_traits@D@std@@V?$allocator@D@2@@std@@PEAVTresourceGroup@@U?$less@V?$basic_string@DU?$char_traits@D@std@@V?$allocator@D@2@@std@@@2@V?$allocator@U?$pair@$$CBV?$basic_string@DU?$char_traits@D@std@@V?$allocator@D@2@@std@@PEAVTresourceGroup@@@std@@@2@$0A@@std@@@std@@QEBA?AU?$less@V?$basic_string@DU?$char_traits@D@std@@V?$allocator@D@2@@std@@@2@XZ
?km@Tlinear@@QEBANXZ
?kmSet@Tlinear@@QEAAXN@Z
?last@T2FloatArray@@QEAAAEAVT2Float@@XZ
?last@T3DoubleArray@@QEAAAEAVT3Double@@XZ
?last@T3FloatArray@@QEAAAEAVT3Float@@XZ
?last@T3dDblPointArray@@QEAAAEAVT3dDblPoint@@XZ
?last@T3dDblPointArrayPtrArray@@QEAAAEAPEAVT3dDblPointArray@@XZ
?last@T3dFltPointArray@@QEAAAEAVT3dFltPoint@@XZ
?last@T3dFltVectorArray@@QEAAAEAVT3dFltVector@@XZ
?last@T4dDblMatrixArray@@QEAAAEAVT4dDblMatrix@@XZ
?last@T4dDblPointArray@@QEAAAEAVT4dDblPoint@@XZ
?last@T4dDblPointArrayPtrArray@@QEAAAEAPEAVT4dDblPointArray@@XZ
?last@T4dDblVectorArray@@QEAAAEAVT4dDblVector@@XZ
?last@T4dDblVectorArrayPtrArray@@QEAAAEAPEAVT4dDblVectorArray@@XZ
?last@T4dFltMatrixArray@@QEAAAEAVT4dFltMatrix@@XZ
?last@T4dFltPointArray@@QEAAAEAVT4dFltPoint@@XZ
?last@TDarray@@QEAAAEAVTdata@@XZ
?last@TTuInt32Array@@QEAAAEAIXZ
?last@TanimTimeArray@@QEAAAEAVTanimTime@@XZ
?last@TargListPtrArray@@QEAAAEAPEAVTargList@@XZ
?last@TargTypeArray@@QEAAAEAVTargType@@XZ
?last@TbdDataPtrArrayContainer@@QEAAAEAPEAVTbdData@@XZ
?last@TbooleanArray@@QEAAAEA_NXZ
?last@TbooleanArrayPtrArray@@QEAAAEAPEAVTbooleanArray@@XZ
?last@TcharArray@@QEAAAEADXZ
?last@TcharPtrArray@@QEAAAEAPEADXZ
?last@TcomponentPtrArray@@QEAAAEAPEAVTcomponent@@XZ
?last@TdblPointArray@@QEAAAEAVTdblPoint@@XZ
?last@TdelayedMsgTypeArray@@QEAAAEAVTdelayedMsgType@@XZ
?last@TdoubleArray@@QEAAAEANXZ
?last@TdoubleArrayPtrArray@@QEAAAEAPEAVTdoubleArray@@XZ
?last@TdoubleIndexLongArray@@QEAAAEAVTdoubleIndexLong@@XZ
?last@TdoublePtrArray@@QEAAAEAPEANXZ
?last@TdoubleRangeArray@@QEAAAEAVTdoubleRange@@XZ
?last@TdualQuaternionArray@@QEAAAEAVTdualQuaternion@@XZ
?last@TfilePathArray@@QEAAAEAVTfilePath@@XZ
?last@TfloatArray@@QEAAAEAMXZ
?last@TfloatArrayPtrArray@@QEAAAEAPEAVTfloatArray@@XZ
?last@TfloatArrayPtrArrayPtrArray@@QEAAAEAPEAVTfloatArrayPtrArray@@XZ
?last@TfloatConstPtrArray@@QEAAAEAPEBMXZ
?last@TfloatPtrArray@@QEAAAEAPEAMXZ
?last@TfloatRangeArray@@QEAAAEAVTfloatRange@@XZ
?last@TfltLineArray@@QEAAAEAVTfltLine@@XZ
?last@TfltPointArray@@QEAAAEAVTfltPoint@@XZ
?last@TiffTagArray@@QEAAAEAVTiffTag@@XZ
?last@TindexArray@@QEAAAEAIXZ
?last@TindexRangeArray@@QEAAAEAVTindexRange@@XZ
?last@Tint16Array@@QEAAAEAFXZ
?last@Tint32Array@@QEAAAEAHXZ
?last@Tint32ArrayPtrArray@@QEAAAEAPEAVTint32Array@@XZ
?last@Tint64Array@@QEAAAEA_JXZ
?last@TlineArray@@QEAAAEAVTline@@XZ
?last@TmtThreadPtrArray@@QEAAAEAPEAVTmtThread@@XZ
?last@TnameObjectPtrArray@@QEAAAEAPEAVTnameObject@@XZ
?last@TnamespacePtrArray@@QEAAAEAPEAVTnamespace@@XZ
?last@TobjArrayTbasketPtr@@QEAAAEAPEAVTbasket@@XZ
?last@TobjectGroupIdArray@@QEAAAEAIXZ
?last@TobjectGroupPtrArray@@QEAAAEAPEAVTobjectGroup@@XZ
?last@TpixelMapPtrArray@@QEAAAEAPEAVTpixelMap@@XZ
?last@TpointArray@@QEAAAEAVTpoint@@XZ
?last@TpolyMapArray@@QEAAAEAVTpolyMap@@XZ
?last@TpolyTangentSetArray@@QEAAAEAVTpolyTangentSet@@XZ
?last@TpoolAllocatorPtrArray@@QEAAAEAPEAVTpoolAllocator@@XZ
?last@TportColorArray@@QEAAAEAVTportColor@@XZ
?last@TpreferenceItemPtrArray@@QEAAAEAPEAVTpreferenceItem@@XZ
?last@TquaternionArray@@QEAAAEAVTquaternion@@XZ
?last@TquaternionArrayPtrArray@@QEAAAEAPEAVTquaternionArray@@XZ
?last@TrectArray@@QEAAAEAVTrect@@XZ
?last@TrotateXYZArray@@QEAAAEAVTrotateXYZ@@XZ
?last@TscaleArray@@QEAAAEAVTscale@@XZ
?last@TselectedSrfDirectionsArray@@QEAAAEAW4TselectedSrfDirections@@XZ
?last@TserverMsgPtrList@@QEBAPEAVTlink@1@XZ
?last@TsharedPixelMapArray@@QEAAAEAVTsharedPixelMap@@XZ
?last@Tstring@@QEBAIXZ
?last@TstringArray@@QEAAAEAVTstring@@XZ
?last@TstringPtrArray@@QEAAAEAPEAVTstring@@XZ
?last@TsurfSelectedBoundaryTypeArray@@QEAAAEAW4TsurfSelectedBoundaryType@@XZ
?last@TsurfaceDirectionArray@@QEAAAEAW4TsurfaceDirection@@XZ
?last@TsurfaceIndexArray@@QEAAAEAVTsurfaceIndex@@XZ
?last@TtimeRangeArray@@QEAAAEAVTtimeRange@@XZ
?last@TtimeValueArray@@QEAAAEAVTtimeValue@@XZ
?last@TtimeValueArrayPtrArray@@QEAAAEAPEAVTtimeValueArray@@XZ
?last@TtimeValuePtrArray@@QEAAAEAPEAPEAVTtimeValue@@XZ
?last@TtriggerPtrArray@@QEAAAEAPEAVTtrigger@@XZ
?last@TtypeidArray@@QEAAAEAPEAVTmetaclass@@XZ
?last@TuInt16Array@@QEAAAEAGXZ
?last@TuInt32Array@@QEAAAEAIXZ
?last@TuInt32ArrayPtrArray@@QEAAAEAPEAVTuInt32Array@@XZ
?last@TuInt64Array@@QEAAAEA_KXZ
?last@TuInt8Array@@QEAAAEAEXZ
?last@TuInt8ArrayPtrArray@@QEAAAEAPEAVTuInt8Array@@XZ
?last@TuvPointArray@@QEAAAEAVTuvPoint@@XZ
?last@TvaluesArrayPtrArray@@QEAAAEAPEAVTdoubleArray@@XZ
?last@TviewRegionArray@@QEAAAEAVTviewRegion@@XZ
?last@TvoidPtrArray@@QEAAAEAPEAXXZ
?last@TxformMatrixArray@@QEAAAEAVTxformMatrix@@XZ
?last@TxformMatrixPtrArray@@QEAAAEAPEAVTxformMatrix@@XZ
?lastBlock@TcompactPage@TcompactArena@@QEBAPEADXZ
?lastPathElement@TfilePath@@SA?AVTstring@@AEBV2@_N@Z
?latestTimeBefore@@YAXAEBUtimeval@@0AEAU1@@Z
?launchThread@TmtThreadPool@@QEAAPEAVTmtThread@@P6AXPEAUTmtThreadInfo@2@@ZPEAX@Z
?left@TdblRect@@QEAAAEANXZ
?left@TdblRect@@QEBAAEBNXZ
?left@TportRect@@QEAAAEAFXZ
?left@TportRect@@QEBAAEBFXZ
?left@Trect@@QEAAAEAFXZ
?left@Trect@@QEBAAEBFXZ
?length@T2dFltVector@@QEBAMXZ
?length@T3dFltVector@@QEBAMXZ
?length@T4dDblVector@@QEBANXZ
?length@Tarray@@QEBAIXZ
?length@TbdDataPtrArray@@QEBAIXZ
?length@TcharString@@QEBAIXZ
?length@TcomponentWeights@@QEAAXI@Z
?length@TcomponentWeights@@QEBAIXZ
?length@TdataCompound@@QEBAIXZ
?length@TfltLineSegment@@QEBAMXZ
?length@TfunctionArgs@@QEBAIXZ
?length@TlineSegment@@QEBANXZ
?length@TobjArray@@QEBAIXZ
?length@TsearchPath@@QEBAIXZ
?length@TserverMsgPtrList@@QEBAHXZ
?length@Tstack@@QEBAIXZ
?length@Tstring@@QEBAIXZ
?length@TuniqueString@@QEBAIXZ
?lerp@@YA?AVTquaternion@@AEBV1@0N@Z
?letter@Tdata@@QEBAAEBVTdataLetter@@XZ
?level@TdbTrace@@QEBAHXZ
?level@TpreferenceItem@@QEAA?AW4TprefSetLevel@@XZ
?licenseError@TglobalTranslatorBase@@SA_NXZ
?licenseMethod@TbaseLicenseManager@@QEAA?AW4LicenseMethod@1@XZ
?licensingErrorMessage@TbaseLicenseManager@@UEAA?AVTstring@@_N@Z
?limits@TboundingBox@@QEBA_NAEAN00000@Z
?limits@TboundingBox@@QEBA_NAEAVT4dDblPoint@@0@Z
?limits@TfltBox@@QEBA_NAEAM00000@Z
?line@ToDo@@QEBAHXZ
?linearUnitChanged@Tunit@@2VTtrigger@@A
?load@TCERMetricsRecorder@@CAXXZ
?loadCatalog@TstringCatalog@@CAXXZ
?loadingAncestralReference@TglobalTranslatorBase@@SA_NXZ
?loadingEditTargets@TglobalTranslatorBase@@SA_NXZ
?loadingReference@TglobalTranslatorBase@@SA_NXZ
?lock@TfileStream@@QEBAHXZ
?lockCount@TmtRecursiveCS@@QEAAHXZ
?lockSize@ThashTable@@QEAA_NXZ
?log@@YA?AVTdualQuaternion@@AEBV1@@Z
?log@TbaseLicenseManager@@QEAAXW4LogLevel@1@AEBVTstring@@@Z
?log@TbaseLicenseManager@@QEAAXW4LogLevel@1@PEBD@Z
?log@Tquaternion@@QEBA?AV1@XZ
?logFileName@TbaseLicenseManager@@UEAA?AVTstring@@XZ
?logFilePath@TbaseLicenseManager@@UEAA?AVTstring@@XZ
?logFmt@TbaseLicenseManager@@QEAAXW4LogLevel@1@AEBVTstring@@111@Z
?logFmt@TbaseLicenseManager@@QEAAXW4LogLevel@1@AEBVTstring@@11@Z
?logFmt@TbaseLicenseManager@@QEAAXW4LogLevel@1@AEBVTstring@@1@Z
?logFmt@TbaseLicenseManager@@QEAAXW4LogLevel@1@AEBVTstring@@H@Z
?logLicenseInfo@TbaseLicenseManager@@QEAAXXZ
?longestArraySize@TdataArrayAttrs@@QEBAIXZ
?looseMax@TgridIncrement@@QEAANXZ
?looseMin@TgridIncrement@@QEAANXZ
?lower@Tmetaclass@@AEBAGXZ
?lower_bound@?$_Tree@V?$_Tmap_traits@V?$basic_string@DU?$char_traits@D@std@@V?$allocator@D@2@@std@@PEAVTresourceElement@@U?$less@V?$basic_string@DU?$char_traits@D@std@@V?$allocator@D@2@@std@@@2@V?$allocator@U?$pair@$$CBV?$basic_string@DU?$char_traits@D@std@@V?$allocator@D@2@@std@@PEAVTresourceElement@@@std@@@2@$0A@@std@@@std@@QEAA?AV?$_Tree_iterator@V?$_Tree_val@U?$_Tree_simple_types@U?$pair@$$CBV?$basic_string@DU?$char_traits@D@std@@V?$allocator@D@2@@std@@PEAVTresourceElement@@@std@@@std@@@std@@@2@AEBV?$basic_string@DU?$char_traits@D@std@@V?$allocator@D@2@@2@@Z
?lower_bound@?$_Tree@V?$_Tmap_traits@V?$basic_string@DU?$char_traits@D@std@@V?$allocator@D@2@@std@@PEAVTresourceElement@@U?$less@V?$basic_string@DU?$char_traits@D@std@@V?$allocator@D@2@@std@@@2@V?$allocator@U?$pair@$$CBV?$basic_string@DU?$char_traits@D@std@@V?$allocator@D@2@@std@@PEAVTresourceElement@@@std@@@2@$0A@@std@@@std@@QEBA?AV?$_Tree_const_iterator@V?$_Tree_val@U?$_Tree_simple_types@U?$pair@$$CBV?$basic_string@DU?$char_traits@D@std@@V?$allocator@D@2@@std@@PEAVTresourceElement@@@std@@@std@@@std@@@2@AEBV?$basic_string@DU?$char_traits@D@std@@V?$allocator@D@2@@2@@Z
?lower_bound@?$_Tree@V?$_Tmap_traits@V?$basic_string@DU?$char_traits@D@std@@V?$allocator@D@2@@std@@PEAVTresourceGroup@@U?$less@V?$basic_string@DU?$char_traits@D@std@@V?$allocator@D@2@@std@@@2@V?$allocator@U?$pair@$$CBV?$basic_string@DU?$char_traits@D@std@@V?$allocator@D@2@@std@@PEAVTresourceGroup@@@std@@@2@$0A@@std@@@std@@QEAA?AV?$_Tree_iterator@V?$_Tree_val@U?$_Tree_simple_types@U?$pair@$$CBV?$basic_string@DU?$char_traits@D@std@@V?$allocator@D@2@@std@@PEAVTresourceGroup@@@std@@@std@@@std@@@2@AEBV?$basic_string@DU?$char_traits@D@std@@V?$allocator@D@2@@2@@Z
?lower_bound@?$_Tree@V?$_Tmap_traits@V?$basic_string@DU?$char_traits@D@std@@V?$allocator@D@2@@std@@PEAVTresourceGroup@@U?$less@V?$basic_string@DU?$char_traits@D@std@@V?$allocator@D@2@@std@@@2@V?$allocator@U?$pair@$$CBV?$basic_string@DU?$char_traits@D@std@@V?$allocator@D@2@@std@@PEAVTresourceGroup@@@std@@@2@$0A@@std@@@std@@QEBA?AV?$_Tree_const_iterator@V?$_Tree_val@U?$_Tree_simple_types@U?$pair@$$CBV?$basic_string@DU?$char_traits@D@std@@V?$allocator@D@2@@std@@PEAVTresourceGroup@@@std@@@std@@@std@@@2@AEBV?$basic_string@DU?$char_traits@D@std@@V?$allocator@D@2@@2@@Z
?m@Tlinear@@QEBANXZ
?mSet@Tlinear@@QEAAXN@Z
?machineEpoch@Ttime@@SA?AV1@XZ
?madeIntoNonWriter@TdataLetter@@UEAAXXZ
?madeIntoWriter@TdataLetter@@UEAAXXZ
?makeAbsoluteName@TnamespaceManager@@SA?AVTstring@@AEBV2@@Z
?makeAndSet@Tdirectory@@QEAA_NAEBVTstring@@@Z
?makeAndSet@Tdirectory@@QEAA_NAEBVTstring@@AEBV1@@Z
?makeDefaultName@TpolyMap@@SAXAEAVTstring@@@Z
?makeHolder@Tdata@@QEAA_NXZ
?makeNameUnique@TnameObject@@UEAAXXZ
?makeNameUnique@TnamespaceManager@@QEAAXPEAVTnameObject@@@Z
?makeNegative@Tangle@@QEAAXXZ
?makePositive@Tangle@@QEAAXXZ
?makeRelativePath@TdirectoryContentsQuery@@AEBAXAEAVTstring@@@Z
?makeSubDir@Tdirectory@@AEBA_NAEBVTstring@@@Z
?makeUniqueName@TpolyMapArrayShared@@QEAAXAEAVTstring@@@Z
?makeViewRegion@TviewRegion@@QEAAXAEBVTdoubleRegion@@@Z
?makeWritable@Tdata@@QEAA_NXZ
?makeWritableCopy@Tdata@@QEAA_NAEBV1@@Z
?makeWriter@Tdata@@QEAA_NXZ
?mallocAllocator@TmallocAllocator@@SAAEAV1@XZ
?mapDiskFile@TmallocAllocator@@SAPEAUTmmap@@XZ
?mapFaceAllocate@TpolyMap@@AEAAXH@Z
?mapFaceBuffer@TpolyMap@@AEAAXH@Z
?mapInput@TfunctionMapping@@QEAA_NII@Z
?mapObject@Tnamespace@@UEAA_NAEAVTnameString@@0PEAV1@@Z
?mapObject@TnamespaceManager@@QEAA_NAEAVTnameString@@PEAVTnamespace@@01@Z
?mapOutput@TfunctionMapping@@QEAA_NII@Z
?mapZeroedMemory@TmallocAllocator@@SAPEAUTmmap@@XZ
?marketingVersionString@TbatchGlobals@@SAAEBVTstring@@W4TdisplayLocation@1@@Z
?mask@TmallocAllocator@@SA_KXZ
?match@TregExp@@QEBA_NPEBD@Z
?matches@Tstring@@QEBA_NAEBV1@@Z
?matches@Tstring@@QEBA_NPEBD@Z
?matches@TuniqueString@@QEBA_NAEBVTstring@@@Z
?matches@TuniqueString@@QEBA_NPEBD@Z
?matchesName@TpolyBdVertexFaceBase@@QEBA_NAEBVTstring@@@Z
?matchesRegexp@TregularExpression@@SAIAEBVTstring@@0PEAV2@11111111@Z
?matchesRegexp@Tstring@@QEBAIAEBV1@PEAV1@11111111@Z
?matchesRegexp@Tstring@@QEBAIPEBDPEAV1@11111111@Z
?matchingEditAttrs@TglobalTranslatorBase@@SA_NXZ
?matrix@TdataMatrix@@QEBAAEBVT4dDblMatrix@@XZ
?matrix@TxformMatrix@@UEBA?AVT4dDblMatrix@@XZ
?max@TanimTime@@SA?AV1@AEBV1@0@Z
?max@TboundingBox@@QEBA?AVT4dDblPoint@@XZ
?max@Tbox@@QEBAAEBVT3dDblPoint@@XZ
?max@TfltBox@@QEBA?AVT3dFltPoint@@XZ
?max@TintSequence@@QEBAHXZ
?max@TuIntSequence@@QEBAIXZ
?maxComponent@T2dFltVector@@QEBAMXZ
?maxComponent@T3dFltVector@@QEBAMXZ
?maxComponent@T4dDblVector@@QEBANXZ
?maxCount@TargType@@QEBAIXZ
?maxDigits@Thammersley2@@SAIXZ
?maxDigits@Thammersley@@SAII@Z
?maxEntry@Thammersley@@SAII@Z
?maxIndex@TsingleIndexedComponent@@SAHXZ
?maxNumberOfThreads@TmtThreadPool@@SAHXZ
?maxThreadDataCount@TlockingManager@@QEAAHXZ
?maxTime@TanimTime@@2V1@B
?maxU@T2dIntSequence@@QEBAHXZ
?maxU@T3dIntSequence@@QEBAHXZ
?maxV@T2dIntSequence@@QEBAHXZ
?maxV@T3dIntSequence@@QEBAHXZ
?maxViewRegion@TviewRegion@@QEBAAEBVTdoubleRegion@@XZ
?maxW@T3dIntSequence@@QEBAHXZ
?max_size@?$_Tree@V?$_Tmap_traits@V?$basic_string@DU?$char_traits@D@std@@V?$allocator@D@2@@std@@PEAVTresourceElement@@U?$less@V?$basic_string@DU?$char_traits@D@std@@V?$allocator@D@2@@std@@@2@V?$allocator@U?$pair@$$CBV?$basic_string@DU?$char_traits@D@std@@V?$allocator@D@2@@std@@PEAVTresourceElement@@@std@@@2@$0A@@std@@@std@@QEBA_KXZ
?max_size@?$_Tree@V?$_Tmap_traits@V?$basic_string@DU?$char_traits@D@std@@V?$allocator@D@2@@std@@PEAVTresourceGroup@@U?$less@V?$basic_string@DU?$char_traits@D@std@@V?$allocator@D@2@@std@@@2@V?$allocator@U?$pair@$$CBV?$basic_string@DU?$char_traits@D@std@@V?$allocator@D@2@@std@@PEAVTresourceGroup@@@std@@@2@$0A@@std@@@std@@QEBA_KXZ
?mayaEnvFileLocation@TMayaEnvironment@@SAPEBDXZ
?mayaFileFormatCurrentVersion@TbatchGlobals@@SAHXZ
?mayaFileFormatCurrentVersionString@TbatchGlobals@@SAAEBVTstring@@XZ
?mayaFileFormatVersion@TbatchGlobals@@SAHAEBVTstring@@@Z
?mayaFileFormatVersionString@TbatchGlobals@@SAAEBVTstring@@H@Z
?mayaHasAnimLayersExtensionFeatures@@YA_NXZ
?mayaHasCreativeMarketWebPanelFeature@@YA_NXZ
?mayaHasDynamicsEvaluatorExtensionFeatures@@YA_NXZ
?mayaHasGameExporterExtensionFeatures@@YA_NXZ
?mayaHasHIKExtensionFeature@@YA_NXZ
?mayaHasLODExtensionFeatures@@YA_NXZ
?mayaHasLookdevKitPluginExtensionFeatures@@YA_NXZ
?mayaHasMayaLTSmallExtensionFeatures@@YA_NXZ
?mayaHasTimeEditorFeature@@YA_NXZ
?mayaHasTypePluginExtensionFeatures@@YA_NXZ
?mayaOrAnimLayersExtensionFeatures@@YA_NXZ
?mayaOrHIKExtensionFeature@@YA_NXZ
?mayaOrMayaLTFavoritesFeatures@@YA_NXZ
?mayaOrMayaLTNewScenePreferencesFeatures@@YA_NXZ
?mayaOrMayaLTSmallExtensionFeatures@@YA_NXZ
?mayaOrMayaLTStingrayInteropFeatures@@YA_NXZ
?mayaOrTurtleExtensionFeatures@@YA_NXZ
?mayaVersionString@TbatchGlobals@@SAAEBVTstring@@XZ
?memcpy_mp@@YAPEAXPEAXPEBX_K@Z
?memmove_mp@@YAPEAXPEAXPEBX_K@Z
?memoryInfo@TiffFile4@@UEAAHPEAH@Z
?memoryInfo@TiffFile8@@UEAAHPEAH@Z
?merge@TdoubleIndexedComponent@@UEAA_NAEBVTcomponent@@_N@Z
?merge@TlongDoubleIndexedComponent@@UEAA_NAEBVTcomponent@@_N@Z
?merge@TportRect@@QEAA_NAEBV1@@Z
?merge@TprofilerCategoryAddedMsg@@UEAA_NAEBVTserverMsg@@@Z
?merge@TprofilerCategoryRemovedMsg@@UEAA_NAEBVTserverMsg@@@Z
?merge@TprofilerCategoryUpdatedMsg@@UEAA_NAEBVTserverMsg@@@Z
?merge@TserverMsg@@UEAA_NAEBV1@@Z
?merge@TsingleIndexedComponent@@UEAA_NAEBVTcomponent@@_N@Z
?merge@TuInt64IndexedComponent@@UEAA_NAEBVTcomponent@@_N@Z
?message@TassertAlert@@SAPEBDW4TalertType@1@@Z
?messageBoard@TmessageCenter@@SAAEAV1@XZ
?messageBoardInit@TmessageCenter@@CAPEAV1@XZ
?messageType@TlicenseModifiedMsg@@QEAA?AW4TmessageType@1@XZ
?metaObject@TclientQObjectInterface@@UEBAPEBUQMetaObject@@XZ
?method@TunimplementedException@@QEBAPEADXZ
?mi@Tlinear@@QEBANXZ
?miSet@Tlinear@@QEAAXN@Z
?microSeconds@TprofilerMicroTime@@QEAA_KXZ
?min@TanimTime@@SA?AV1@AEBV1@0@Z
?min@TboundingBox@@QEBA?AVT4dDblPoint@@XZ
?min@Tbox@@QEBAAEBVT3dDblPoint@@XZ
?min@TfltBox@@QEBA?AVT3dFltPoint@@XZ
?min@TintSequence@@QEBAHXZ
?min@TuIntSequence@@QEBAIXZ
?minCount@TargType@@QEBAIXZ
?minHeight@TviewRegion@@QEBANXZ
?minTime@TanimTime@@2V1@B
?minU@T2dIntSequence@@QEBAHXZ
?minU@T3dIntSequence@@QEBAHXZ
?minV@T2dIntSequence@@QEBAHXZ
?minV@T3dIntSequence@@QEBAHXZ
?minW@T3dIntSequence@@QEBAHXZ
?minWidth@TviewRegion@@QEBANXZ
?minute@Ttime@@QEBAFXZ
?minutes@Tangle@@QEBANXZ
?minutes@Tduration@@QEBAFXZ
?mkdir@TfileManager@@SA_NAEBVTstring@@@Z
?mkdir@TfileManager@@SA_NPEBD@Z
?mm@Tlinear@@QEBANXZ
?mmSet@Tlinear@@QEAAXN@Z
?modificationTime@TfileSystemEntity@@QEBA?AVTtime@@XZ
?modifyTime@TfilePath@@QEBA?AVTtime@@XZ
?month@Ttime@@QEBAFXZ
?move@TdblPoint@@QEAAAEAV1@NN@Z
?move@TdblRect@@QEAAAEAV1@NN@Z
?move@TfltPoint@@QEAAAEAV1@MM@Z
?move@Tpoint@@QEAAAEAV1@FF@Z
?move@TportRect@@QEAAAEAV1@FF@Z
?move@Trect@@QEAAAEAV1@FF@Z
?move@TserverMsgPtrList@@QEAAXPEAVTlink@1@00@Z
?moveCurNode@?$TotSphereWalker@VToctreePoint@@@@IEAA_NPEBV?$TotNode@VToctreePoint@@@@@Z
?moveNameObject@TnamespaceManager@@AEAAXPEAVTnameObject@@W4TclashResolution@1@AEBVTstring@@PEAVTstringArray@@PEAVTnamespace@@@Z
?moveNamespace@TnamespaceManager@@AEAAXPEAVTnamespace@@W4TnamespaceResolution@1@W4TclashResolution@1@AEBVTstring@@0@Z
?moveNamespaceContents@TnamespaceManager@@QEAA_NPEAVTnamespace@@0W4TclashResolution@1@AEBVTstring@@W4TnamespaceResolution@1@PEAVTstringArray@@@Z
?moveObjects@TnamespaceManager@@QEAA_NPEAVTnameObjectCollectionIterator@@PEAVTnamespace@@W4TclashResolution@1@AEBVTstring@@W4TnamespaceResolution@1@PEAVTstringArray@@@Z
?moveTo@TdblPoint@@QEAAAEAV1@AEBV1@@Z
?moveTo@TdblPoint@@QEAAAEAV1@NN@Z
?moveTo@TdblRect@@QEAAAEAV1@AEBVT3dDblPoint@@@Z
?moveTo@TdblRect@@QEAAAEAV1@NN@Z
?moveTo@TfileStream@@QEAAHAEBVTdirectory@@@Z
?moveTo@TfltPoint@@QEAAAEAV1@AEBV1@@Z
?moveTo@TfltPoint@@QEAAAEAV1@MM@Z
?moveTo@Tpoint@@QEAAAEAV1@AEBV1@@Z
?moveTo@Tpoint@@QEAAAEAV1@FF@Z
?moveTo@TportRect@@QEAAAEAV1@AEBVTpoint@@@Z
?moveTo@TportRect@@QEAAAEAV1@FF@Z
?moveTo@Trect@@QEAAAEAV1@AEBVTpoint@@@Z
?moveTo@Trect@@QEAAAEAV1@FF@Z
?mpAcquire@TmtRecursiveMutex@@AEAA?AV?$TmtLock@VTmtRecursiveMutex@@@@XZ
?mpAcquireWithTimeout@TmtRecursiveCS@@AEAA?AV?$TmtLock@VTmtRecursiveCS@@@@I@Z
?mpAlloc@TpoolAllocator@@QEAAPEAXXZ
?mpFree@TpoolAllocator@@QEAAXPEAX@Z
?mpRelease@TmtRecursiveMutex@@AEAA_NXZ
?mpTryToAcquire@TmtMutex@@AEAA?AV?$TmtLock@VTmtMutex@@@@H@Z
?mpTryToAcquire@TmtRecursiveCS@@AEAA?AV?$TmtLock@VTmtRecursiveCS@@@@H@Z
?mpTryToAcquire@TmtRecursiveMutex@@AEAA?AV?$TmtLock@VTmtRecursiveMutex@@@@H@Z
?mpTryToAcquire@TmtSemaphore@@AEAA?AV?$TmtLock@VTmtSemaphore@@@@H@Z
?multiplyAdd@Tspectrum@@QEAAXAEBV1@0@Z
?multiplyAdd@Tspectrum@@QEAAXAEBV1@M@Z
?myDebug@TsingleIndexedComponent@@IEBAXPEBD@Z
?myDebug@TuInt64IndexedComponent@@IEBAXPEBD@Z
?myHeaderSize@TcompactPage@TcompactArena@@QEBA_KXZ
?mytimers@TnestedTimers@@0PANA
?nRecursions@TnestedTimers@@0PAIA
?nStacked@TnestedTimers@@0PAIA
?name@TbaseArena@@QEBAPEBDXZ
?name@Tcounter@@QEBA?AVTstring@@XZ
?name@TdataArrayAttrs@@QEBA?AVTstring@@I@Z
?name@TdbFlag@@QEBA?AVTstring@@XZ
?name@TdbTrace@@QEBA?AVTstring@@XZ
?name@TdebugOutput@@UEBA?AVTstring@@XZ
?name@TdebugOutputFile@@UEBA?AVTstring@@XZ
?name@TdebugOutputTrace@@UEBA?AVTstring@@XZ
?name@TdirIterator@@QEBA?AVTstring@@XZ
?name@TfileStream@@QEBA?AVTstring@@XZ
?name@TfileSystemEntity@@QEBAAEBVTstring@@XZ
?name@TfootprintInfo@@QEAAAEAVTstring@@XZ
?name@TfootprintInfo@@QEBAAEBVTstring@@XZ
?name@TmetaLetter@@QEBAPEBDXZ
?name@Tmetaclass@@QEBAPEBDXZ
?name@TnameObject@@QEBA?AVTstring@@_N@Z
?name@TnameObject@@QEBAAEBVTstring@@XZ
?name@ToptionVar@@QEBAAEBVTstring@@XZ
?name@TpolyMapArrayShared@@QEBA_NAEAVTstring@@I@Z
?name@Ttrigger@@QEBAAEBVTstring@@XZ
?nameLength@TdirIterator@@QEBAIXZ
?names@TnestedTimers@@0PAPEADA
?nbData@TpolyMap@@EEBAIXZ
?nbIndex@TpolyBdVertexFaceBase@@QEBAIXZ
?nbMapSet@TpolyMapArrayShared@@QEBAIXZ
?nbSets@TpolyTangentSetArrayShared@@QEBAIXZ
?nbShells@TpolyMapShell@@QEAAXI@Z
?nbShells@TpolyMapShell@@QEBAIXZ
?nbTang@TpolyTangentSet@@AEBAIXZ
?nbUV@TpolyMap@@AEBAHXZ
?nbUVRef@TpolyMap@@AEBAHXZ
?nearestNiceNumber@TgridIncrement@@AEAANN_N@Z
?nearestTimeAfter@@YA?AUtimeval@@AEBU1@0U1@@Z
?needToLoadCompatibilityTables@TbatchGlobals@@SA_NH@Z
?needsDeepCopyOnMakeWrite@Tdata@@AEBA_NXZ
?negateIt@Tquaternion@@QEAAAEAV1@XZ
?nestingInfoBuffer@TnestedTimers@@0PAUTnestingInfo@@A
?nestingLevelStack@TnestedTimers@@0PAPEAUTnestingInfo@@A
?newByteArray@TvoxelGrid@@IEAAPEAEI@Z
?newFloatArray@TvoxelGrid@@IEAAPEAMI@Z
?newID@TbdTable@@IEAAIXZ
?newInt32Array@TvoxelGrid@@IEAAPEAHI@Z
?newLine@Treporter@@QEAAXXZ
?newName@TfileStream@@SAHAEAVTstring@@PEAV2@@Z
?newingFileCondition@TglobalTranslatorBase@@SAPEAVTcondition@@XZ
?next@Iterator@TkeyWordHashTable@@QEAA_NXZ
?next@Iterator@TptrHashTable@@QEAA_NXZ
?next@Iterator@TstringKeyHashTable@@QEAA_NXZ
?next@NameIterator@Tnamespace@@QEAA_NXZ
?next@TcompactPage@TcompactArena@@QEAAAEAPEAV12@XZ
?next@TdirIterator@@QEAAXXZ
?next@Thammersley2@@QEAAMXZ
?next@Thammersley@@QEAAMXZ
?next@TindexDictionary@@SAPEAVTindexDictionaryNode@@PEAVTdictionaryNode@@@Z
?next@TnameObjectIterator@@QEAAXXZ
?next@TnameObjectTypeIterator@@QEAAXXZ
?next@TnamespaceIterator@@QEAAXXZ
?next@Tpage@TbaseArena@@QEAAAEAPEAV12@XZ
?next@TpointOctreeWalker@@QEAAXXZ
?next@TsearchPathIterator@@QEAAXXZ
?next@TserverMsgPtrList@@QEBAPEAVTlink@1@PEAV21@@Z
?next@TsicComplementIterator@@QEAAXXZ
?next@TsingleIndexedComponentIterator@@QEAAXXZ
?next@TspatialGridWalker@@QEAAXXZ
?next@TtypeDictionary@@SAPEAVTtypeDictionaryNode@@PEAVTdictionaryNode@@@Z
?nextChild@TthreadTree@@UEBAPEAXPEAX0@Z
?nextDir@TdirIterator@@QEAAXXZ
?nextFile@TdirIterator@@QEAAXXZ
?nextInterval@TsicComplementIterator@@AEAAXXZ
?nextInterval@TsingleIndexedComponentIterator@@AEAAXXZ
?nextNestingInfo@TnestedTimers@@0HA
?nextObjectGroupId@TobjectGroup@@SAIXZ
?nextTimer@TnestedTimers@@0HA
?noIncorrectNameWarning@TincorrectNameSet@@SA_NXZ
?nodeArena@?$Toctree@I@@QEBAAEAVTstackArena@@XZ
?nodeArena@?$Toctree@VToctreePoint@@@@QEBAAEAVTstackArena@@XZ
?nonZero@T4dDblVector@@QEBA_NN@Z
?norm1@TrotateXYZ@@QEBANXZ
