LIBRARY OPENMAYAFX
EXPORTS
??0MDynSweptLine@@AEAA@PEAX@Z
??0MDynSweptLine@@QEAA@XZ
??0MDynSweptTriangle@@AEAA@PEAX@Z
??0MDynSweptTriangle@@QEAA@XZ
??0MFnAirField@@QEAA@AEAVMObject@@PEAVMStatus@@@Z
??0MFnAirField@@QEAA@AEBVMDagPath@@PEAVMStatus@@@Z
??0MFnAirField@@QEAA@AEBVMObject@@PEAVMStatus@@@Z
??0MFnAirField@@QEAA@XZ
??0MFnDragField@@QEAA@AEAVMObject@@PEAVMStatus@@@Z
??0MFnDragField@@QEAA@AEBVMDagPath@@PEAVMStatus@@@Z
??0MFnDragField@@QEAA@AEBVMObject@@PEAVMStatus@@@Z
??0MFnDragField@@QEAA@XZ
??0MFnDynSweptGeometryData@@QEAA@AEAVMObject@@PEAVMStatus@@@Z
??0MFnDynSweptGeometryData@@QEAA@AEBVMObject@@PEAVMStatus@@@Z
??0MFnDynSweptGeometryData@@QEAA@XZ
??0MFnField@@QEAA@AEAVMObject@@PEAVMStatus@@@Z
??0MFnField@@QEAA@AEBVMDagPath@@PEAVMStatus@@@Z
??0MFnField@@QEAA@AEBVMObject@@PEAVMStatus@@@Z
??0MFnField@@QEAA@XZ
??0MFnFluid@@QEAA@AEAVMObject@@PEAVMStatus@@@Z
??0MFnFluid@@QEAA@AEBVMDagPath@@PEAVMStatus@@@Z
??0MFnFluid@@QEAA@AEBVMObject@@PEAVMStatus@@@Z
??0MFnFluid@@QEAA@XZ
??0MFnGravityField@@QEAA@AEAVMObject@@PEAVMStatus@@@Z
??0MFnGravityField@@QEAA@AEBVMDagPath@@PEAVMStatus@@@Z
??0MFnGravityField@@QEAA@AEBVMObject@@PEAVMStatus@@@Z
??0MFnGravityField@@QEAA@XZ
??0MFnInstancer@@QEAA@AEAVMObject@@PEAVMStatus@@@Z
??0MFnInstancer@@QEAA@AEBVMDagPath@@PEAVMStatus@@@Z
??0MFnInstancer@@QEAA@AEBVMObject@@PEAVMStatus@@@Z
??0MFnInstancer@@QEAA@XZ
??0MFnNIdData@@QEAA@AEAVMObject@@PEAVMStatus@@@Z
??0MFnNIdData@@QEAA@AEBVMObject@@PEAVMStatus@@@Z
??0MFnNIdData@@QEAA@XZ
??0MFnNObjectData@@QEAA@AEAVMObject@@PEAVMStatus@@@Z
??0MFnNObjectData@@QEAA@AEBVMObject@@PEAVMStatus@@@Z
??0MFnNObjectData@@QEAA@XZ
??0MFnNewtonField@@QEAA@AEAVMObject@@PEAVMStatus@@@Z
??0MFnNewtonField@@QEAA@AEBVMDagPath@@PEAVMStatus@@@Z
??0MFnNewtonField@@QEAA@AEBVMObject@@PEAVMStatus@@@Z
??0MFnNewtonField@@QEAA@XZ
??0MFnParticleSystem@@QEAA@AEAVMObject@@PEAVMStatus@@@Z
??0MFnParticleSystem@@QEAA@AEBVMDagPath@@PEAVMStatus@@@Z
??0MFnParticleSystem@@QEAA@AEBVMObject@@PEAVMStatus@@@Z
??0MFnParticleSystem@@QEAA@XZ
??0MFnPfxGeometry@@QEAA@AEAVMObject@@PEAVMStatus@@@Z
??0MFnPfxGeometry@@QEAA@AEBVMDagPath@@PEAVMStatus@@@Z
??0MFnPfxGeometry@@QEAA@AEBVMObject@@PEAVMStatus@@@Z
??0MFnPfxGeometry@@QEAA@XZ
??0MFnRadialField@@QEAA@AEAVMObject@@PEAVMStatus@@@Z
??0MFnRadialField@@QEAA@AEBVMDagPath@@PEAVMStatus@@@Z
??0MFnRadialField@@QEAA@AEBVMObject@@PEAVMStatus@@@Z
??0MFnRadialField@@QEAA@XZ
??0MFnTurbulenceField@@QEAA@AEAVMObject@@PEAVMStatus@@@Z
??0MFnTurbulenceField@@QEAA@AEBVMDagPath@@PEAVMStatus@@@Z
??0MFnTurbulenceField@@QEAA@AEBVMObject@@PEAVMStatus@@@Z
??0MFnTurbulenceField@@QEAA@XZ
??0MFnUniformField@@QEAA@AEAVMObject@@PEAVMStatus@@@Z
??0MFnUniformField@@QEAA@AEBVMDagPath@@PEAVMStatus@@@Z
??0MFnUniformField@@QEAA@AEBVMObject@@PEAVMStatus@@@Z
??0MFnUniformField@@QEAA@XZ
??0MFnVolumeAxisField@@QEAA@AEAVMObject@@PEAVMStatus@@@Z
??0MFnVolumeAxisField@@QEAA@AEBVMDagPath@@PEAVMStatus@@@Z
??0MFnVolumeAxisField@@QEAA@AEBVMObject@@PEAVMStatus@@@Z
??0MFnVolumeAxisField@@QEAA@XZ
??0MFnVortexField@@QEAA@AEAVMObject@@PEAVMStatus@@@Z
??0MFnVortexField@@QEAA@AEBVMDagPath@@PEAVMStatus@@@Z
??0MFnVortexField@@QEAA@AEBVMObject@@PEAVMStatus@@@Z
??0MFnVortexField@@QEAA@XZ
??0MPxEmitterNode@@QEAA@AEBV0@@Z
??0MPxEmitterNode@@QEAA@XZ
??0MPxFieldNode@@QEAA@AEBV0@@Z
??0MPxFieldNode@@QEAA@XZ
??0MPxFluidEmitterNode@@QEAA@AEBV0@@Z
??0MPxFluidEmitterNode@@QEAA@XZ
??0MPxParticleAttributeMapperNode@@QEAA@AEBV0@@Z
??0MPxParticleAttributeMapperNode@@QEAA@XZ
??0MPxSpringNode@@QEAA@AEBV0@@Z
??0MPxSpringNode@@QEAA@XZ
??0MRenderLine@@AEAA@PEAX@Z
??0MRenderLine@@QEAA@XZ
??0MRenderLineArray@@AEAA@PEAX@Z
??0MRenderLineArray@@QEAA@XZ
??0MnCloth@@AEAA@PEAVTnCloth@@@Z
??0MnCloth@@QEAA@AEBV0@@Z
??0MnCloth@@QEAA@XZ
??0MnObject@@AEAA@PEAVTnObject@@@Z
??0MnObject@@QEAA@AEBV0@@Z
??0MnObject@@QEAA@XZ
??0MnParticle@@AEAA@PEAVTnParticle@@@Z
??0MnParticle@@QEAA@AEBV0@@Z
??0MnParticle@@QEAA@XZ
??0MnRigid@@AEAA@PEAVTnRigid@@@Z
??0MnRigid@@QEAA@AEBV0@@Z
??0MnRigid@@QEAA@XZ
??0MnSolver@@AEAA@PEAVTnSolver@@@Z
??0MnSolver@@QEAA@AEBV0@@Z
??0MnSolver@@QEAA@XZ
??0THdynEmitter@@QEAA@PEAVTpluginNode@@@Z
??0THdynEmitter@@QEAA@XZ
??0THdynField@@QEAA@PEAVTpluginNode@@@Z
??0THdynField@@QEAA@XZ
??0THdynSpring@@QEAA@PEAVTpluginNode@@@Z
??0THdynSpring@@QEAA@XZ
??0THfluidEmitter@@QEAA@PEAVTpluginNode@@@Z
??0THfluidEmitter@@QEAA@XZ
??1MDynSweptLine@@QEAA@XZ
??1MDynSweptTriangle@@QEAA@XZ
??1MFnAirField@@UEAA@XZ
??1MFnDragField@@UEAA@XZ
??1MFnDynSweptGeometryData@@UEAA@XZ
??1MFnField@@UEAA@XZ
??1MFnFluid@@UEAA@XZ
??1MFnGravityField@@UEAA@XZ
??1MFnInstancer@@UEAA@XZ
??1MFnNIdData@@UEAA@XZ
??1MFnNObjectData@@UEAA@XZ
??1MFnNewtonField@@UEAA@XZ
??1MFnParticleSystem@@UEAA@XZ
??1MFnPfxGeometry@@UEAA@XZ
??1MFnRadialField@@UEAA@XZ
??1MFnTurbulenceField@@UEAA@XZ
??1MFnUniformField@@UEAA@XZ
??1MFnVolumeAxisField@@UEAA@XZ
??1MFnVortexField@@UEAA@XZ
??1MPxEmitterNode@@UEAA@XZ
??1MPxFieldNode@@UEAA@XZ
??1MPxFluidEmitterNode@@UEAA@XZ
??1MPxParticleAttributeMapperNode@@UEAA@XZ
??1MPxSpringNode@@UEAA@XZ
??1MRenderLine@@QEAA@XZ
??1MRenderLineArray@@QEAA@XZ
??1MnCloth@@UEAA@XZ
??1MnObject@@UEAA@XZ
??1MnParticle@@UEAA@XZ
??1MnRigid@@UEAA@XZ
??1MnSolver@@UEAA@XZ
??1THdynEmitter@@UEAA@XZ
??1THdynField@@UEAA@XZ
??1THdynSpring@@UEAA@XZ
??1THfluidEmitter@@UEAA@XZ
??4?$TiteratorWrapperBase@UConstIteratorDescriptor@TmultiIndexDependNodeSet@@@@QEAAAEAV0@AEBV0@@Z
??4?$TiteratorWrapperBase@UNodesOfBaseNameConstIteratorDescriptor@TmultiIndexDependNodeSet@@@@QEAAAEAV0@AEBV0@@Z
??4?$TiteratorWrapperBase@UNodesOfTypeConstIteratorDescriptor@TmultiIndexDependNodeSet@@@@QEAAAEAV0@AEBV0@@Z
??4?$TiteratorWrapperBidir@UConstIteratorDescriptor@TmultiIndexDependNodeSet@@V?$TiteratorWrapper@UConstIteratorDescriptor@TmultiIndexDependNodeSet@@@@@@QEAAAEAV0@AEBV0@@Z
??4?$TiteratorWrapperBidir@UNodesOfTypeConstIteratorDescriptor@TmultiIndexDependNodeSet@@V?$TiteratorWrapper@UNodesOfTypeConstIteratorDescriptor@TmultiIndexDependNodeSet@@@@@@QEAAAEAV0@AEBV0@@Z
??4?$TiteratorWrapperFwd@UConstIteratorDescriptor@TmultiIndexDependNodeSet@@V?$TiteratorWrapper@UConstIteratorDescriptor@TmultiIndexDependNodeSet@@@@@@QEAAAEAV0@AEBV0@@Z
??4?$TiteratorWrapperFwd@UNodesOfBaseNameConstIteratorDescriptor@TmultiIndexDependNodeSet@@V?$TiteratorWrapper@UNodesOfBaseNameConstIteratorDescriptor@TmultiIndexDependNodeSet@@@@@@QEAAAEAV0@AEBV0@@Z
??4?$TiteratorWrapperFwd@UNodesOfTypeConstIteratorDescriptor@TmultiIndexDependNodeSet@@V?$TiteratorWrapper@UNodesOfTypeConstIteratorDescriptor@TmultiIndexDependNodeSet@@@@@@QEAAAEAV0@AEBV0@@Z
??4MDynSweptLine@@QEAAAEAV0@AEBV0@@Z
??4MDynSweptTriangle@@QEAAAEAV0@AEBV0@@Z
??4MDynamicsUtil@@QEAAAEAV0@AEBV0@@Z
??4MFnAirField@@AEAAAEAV0@AEBV0@@Z
??4MFnDragField@@AEAAAEAV0@AEBV0@@Z
??4MFnDynSweptGeometryData@@AEAAAEAV0@AEBV0@@Z
??4MFnField@@AEAAAEAV0@AEBV0@@Z
??4MFnFluid@@AEAAAEAV0@AEBV0@@Z
??4MFnGravityField@@AEAAAEAV0@AEBV0@@Z
??4MFnInstancer@@AEAAAEAV0@AEBV0@@Z
??4MFnNIdData@@AEAAAEAV0@AEBV0@@Z
??4MFnNObjectData@@AEAAAEAV0@AEBV0@@Z
??4MFnNewtonField@@AEAAAEAV0@AEBV0@@Z
??4MFnParticleSystem@@AEAAAEAV0@AEBV0@@Z
??4MFnPfxGeometry@@AEAAAEAV0@AEBV0@@Z
??4MFnRadialField@@AEAAAEAV0@AEBV0@@Z
??4MFnTurbulenceField@@AEAAAEAV0@AEBV0@@Z
??4MFnUniformField@@AEAAAEAV0@AEBV0@@Z
??4MFnVolumeAxisField@@AEAAAEAV0@AEBV0@@Z
??4MFnVortexField@@AEAAAEAV0@AEBV0@@Z
??4MHairSystem@@QEAAAEAV0@AEBV0@@Z
??4MPxEmitterNode@@QEAAAEAV0@AEBV0@@Z
??4MPxFieldNode@@QEAAAEAV0@AEBV0@@Z
??4MPxFluidEmitterNode@@QEAAAEAV0@AEBV0@@Z
??4MPxParticleAttributeMapperNode@@QEAAAEAV0@AEBV0@@Z
??4MPxSpringNode@@QEAAAEAV0@AEBV0@@Z
??4MRenderLine@@QEAAAEAV0@AEBV0@@Z
??4MRenderLineArray@@QEAAAEAV0@AEBV0@@Z
??4MnCloth@@QEAAAEAV0@AEBV0@@Z
??4MnObject@@QEAAAEAV0@AEBV0@@Z
??4MnParticle@@QEAAAEAV0@AEBV0@@Z
??4MnRigid@@QEAAAEAV0@AEBV0@@Z
??4MnSolver@@QEAAAEAV0@AEBV0@@Z
??4TapiCastFX@@QEAAAEAV0@AEBV0@@Z
??4TapiCastPFX@@QEAAAEAV0@AEBV0@@Z
??IMFnAirField@@AEBAPEAV0@XZ
??IMFnDragField@@AEBAPEAV0@XZ
??IMFnDynSweptGeometryData@@AEBAPEAV0@XZ
??IMFnField@@AEBAPEAV0@XZ
??IMFnFluid@@AEBAPEAV0@XZ
??IMFnGravityField@@AEBAPEAV0@XZ
??IMFnInstancer@@AEBAPEAV0@XZ
??IMFnNIdData@@AEBAPEAV0@XZ
??IMFnNObjectData@@AEBAPEAV0@XZ
??IMFnNewtonField@@AEBAPEAV0@XZ
??IMFnParticleSystem@@AEBAPEAV0@XZ
??IMFnPfxGeometry@@AEBAPEAV0@XZ
??IMFnRadialField@@AEBAPEAV0@XZ
??IMFnTurbulenceField@@AEBAPEAV0@XZ
??IMFnUniformField@@AEBAPEAV0@XZ
??IMFnVolumeAxisField@@AEBAPEAV0@XZ
??IMFnVortexField@@AEBAPEAV0@XZ
??_7MFnAirField@@6B@
??_7MFnDragField@@6B@
??_7MFnDynSweptGeometryData@@6B@
??_7MFnField@@6B@
??_7MFnFluid@@6B@
??_7MFnGravityField@@6B@
??_7MFnInstancer@@6B@
??_7MFnNIdData@@6B@
??_7MFnNObjectData@@6B@
??_7MFnNewtonField@@6B@
??_7MFnParticleSystem@@6B@
??_7MFnPfxGeometry@@6B@
??_7MFnRadialField@@6B@
??_7MFnTurbulenceField@@6B@
??_7MFnUniformField@@6B@
??_7MFnVolumeAxisField@@6B@
??_7MFnVortexField@@6B@
??_7MPxEmitterNode@@6B@
??_7MPxFieldNode@@6B@
??_7MPxFluidEmitterNode@@6B@
??_7MPxParticleAttributeMapperNode@@6B@
??_7MPxSpringNode@@6B@
??_7MnCloth@@6B@
??_7MnObject@@6B@
??_7MnParticle@@6B@
??_7MnRigid@@6B@
??_7MnSolver@@6B@
??_7THdynEmitter@@6BAttach@Data@adsk@@@
??_7THdynEmitter@@6BTclient@@@
??_7THdynEmitter@@6BTdelayedClientServer@@@
??_7THdynEmitter@@6BTnameObject@@@
??_7THdynEmitter@@6BTscenePartitionNode@@@
??_7THdynField@@6BAttach@Data@adsk@@@
??_7THdynField@@6BTclient@@@
??_7THdynField@@6BTdelayedClientServer@@@
??_7THdynField@@6BTnameObject@@@
??_7THdynField@@6BTscenePartitionNode@@@
??_7THdynSpring@@6BAttach@Data@adsk@@@
??_7THdynSpring@@6BTclient@@@
??_7THdynSpring@@6BTdelayedClientServer@@@
??_7THdynSpring@@6BTnameObject@@@
??_7THdynSpring@@6BTscenePartitionNode@@@
??_7THfluidEmitter@@6BAttach@Data@adsk@@@
??_7THfluidEmitter@@6BTclient@@@
??_7THfluidEmitter@@6BTdelayedClientServer@@@
??_7THfluidEmitter@@6BTnameObject@@@
??_7THfluidEmitter@@6BTscenePartitionNode@@@
?THdynEmitterTmeta@@3PEAVTmetaclass@@EA
?THdynFieldTmeta@@3PEAVTmetaclass@@EA
?THdynSpringTmeta@@3PEAVTmetaclass@@EA
?THfluidEmitterTmeta@@3PEAVTmetaclass@@EA
?acceleration@MFnParticleSystem@@QEBAXAEAVMVectorArray@@@Z
?addNObject@MnSolver@@QEAA?AVMStatus@@PEAVMnObject@@@Z
?addNodeTypeToRunup@MDynamicsUtil@@SA_NAEBVMString@@@Z
?age@MFnParticleSystem@@QEBAXAEAVMDoubleArray@@@Z
?allInstances@MFnInstancer@@QEBA?AVMStatus@@AEAVMDagPathArray@@AEAVMMatrixArray@@AEAVMIntArray@@2@Z
?apiType@THdynEmitter@@UEBA?AVMFn@@XZ
?apiType@THdynField@@UEBA?AVMFn@@XZ
?apiType@THdynSpring@@UEBA?AVMFn@@XZ
?apiType@THfluidEmitter@@UEBA?AVMFn@@XZ
?apiTypeString@THdynEmitter@@UEBAPEBDXZ
?apiTypeString@THdynField@@UEBAPEBDXZ
?apiTypeString@THdynSpring@@UEBAPEBDXZ
?apiTypeString@THfluidEmitter@@UEBAPEBDXZ
?apiUserObject@THdynEmitter@@UEBAPEAXXZ
?apiUserObject@THdynField@@UEBAPEAXXZ
?apiUserObject@THdynSpring@@UEBAPEAXXZ
?apiUserObject@THfluidEmitter@@UEBAPEAXXZ
?apply@THdynField@@UEAA_NPEAVTdynPointReceptor@@I_N@Z
?applyHookLaw@THdynSpring@@UEAAXNNNNNAEBVT4dDblVector@@000AEAV2@1@Z
?applySpringLaw@MPxSpringNode@@UEAA?AVMStatus@@NNNNNAEBVMVector@@000AEAV3@1@Z
?area@MDynSweptTriangle@@QEAANXZ
?attenuation@MFnField@@QEBANPEAVMStatus@@@Z
?axis@MFnVortexField@@QEBA?AVMVector@@PEAVMStatus@@@Z
?betterIllum@MFnParticleSystem@@QEBA_NXZ
?cachedChildCount@THdynEmitter@@UEBAIAEBVTplug@@AEBVTdgContext@@@Z
?cachedChildCount@THdynField@@UEBAIAEBVTplug@@AEBVTdgContext@@@Z
?cachedChildCount@THdynSpring@@UEBAIAEBVTplug@@AEBVTdgContext@@@Z
?cachedChildCount@THfluidEmitter@@UEBAIAEBVTplug@@AEBVTdgContext@@@Z
?cast@THdynEmitter@@UEAAPEAXPEAVTmetaclass@@@Z
?cast@THdynField@@UEAAPEAXPEAVTmetaclass@@@Z
?cast@THdynSpring@@UEAAPEAXPEAVTmetaclass@@@Z
?cast@THfluidEmitter@@UEAAPEAXPEAVTmetaclass@@@Z
?castsShadows@MFnParticleSystem@@QEBA_NXZ
?classAttributes@THdynEmitter@@UEAAAEAVTattributeArray@@XZ
?classAttributes@THdynField@@UEAAAEAVTattributeArray@@XZ
?classAttributes@THdynSpring@@UEAAAEAVTattributeArray@@XZ
?classAttributes@THfluidEmitter@@UEAAAEAVTattributeArray@@XZ
?className@MDynSweptLine@@SAPEBDXZ
?className@MDynSweptTriangle@@SAPEBDXZ
?className@MFnAirField@@SAPEBDXZ
?className@MFnDragField@@SAPEBDXZ
?className@MFnDynSweptGeometryData@@SAPEBDXZ
?className@MFnField@@SAPEBDXZ
?className@MFnFluid@@SAPEBDXZ
?className@MFnGravityField@@SAPEBDXZ
?className@MFnInstancer@@SAPEBDXZ
?className@MFnNIdData@@SAPEBDXZ
?className@MFnNObjectData@@SAPEBDXZ
?className@MFnNewtonField@@SAPEBDXZ
?className@MFnParticleSystem@@SAPEBDXZ
?className@MFnPfxGeometry@@SAPEBDXZ
?className@MFnRadialField@@SAPEBDXZ
?className@MFnTurbulenceField@@SAPEBDXZ
?className@MFnUniformField@@SAPEBDXZ
?className@MFnVolumeAxisField@@SAPEBDXZ
?className@MFnVortexField@@SAPEBDXZ
?className@MHairSystem@@SAPEBDXZ
?className@MPxEmitterNode@@SAPEBDXZ
?className@MPxFieldNode@@SAPEBDXZ
?className@MPxFluidEmitterNode@@SAPEBDXZ
?className@MPxParticleAttributeMapperNode@@SAPEBDXZ
?className@MPxSpringNode@@SAPEBDXZ
?className@MRenderLine@@SAPEBDXZ
?className@MRenderLineArray@@SAPEBDXZ
?className@THdynEmitter@@SAPEBDXZ
?className@THdynField@@SAPEBDXZ
?className@THdynSpring@@SAPEBDXZ
?className@THfluidEmitter@@SAPEBDXZ
?clearInstance@THdynEmitter@@UEAAXXZ
?clearInstance@THdynField@@UEAAXXZ
?clearInstance@THdynSpring@@UEAAXXZ
?clearInstance@THfluidEmitter@@UEAAXXZ
?cloneCache@THdynEmitter@@UEAA_NAEBVTdependNode@@@Z
?cloneCache@THdynField@@UEAA_NAEBVTdependNode@@@Z
?cloneCache@THdynSpring@@UEAA_NAEBVTdependNode@@@Z
?cloneCache@THfluidEmitter@@UEAA_NAEBVTdependNode@@@Z
?componentOnly@MFnAirField@@QEBA_NPEAVMStatus@@@Z
?compute@MPxEmitterNode@@UEAA?AVMStatus@@AEBVMPlug@@AEAVMDataBlock@@@Z
?compute@MPxFieldNode@@UEAA?AVMStatus@@AEBVMPlug@@AEAVMDataBlock@@@Z
?compute@MPxFluidEmitterNode@@UEAA?AVMStatus@@AEBVMPlug@@AEAVMDataBlock@@@Z
?compute@MPxParticleAttributeMapperNode@@UEAA?AVMStatus@@AEBVMPlug@@AEAVMDataBlock@@@Z
?computeNode@MPxParticleAttributeMapperNode@@2VMObject@@A
?computeNodeColor@MPxParticleAttributeMapperNode@@2VMObject@@A
?computeNodeColorB@MPxParticleAttributeMapperNode@@2VMObject@@A
?computeNodeColorG@MPxParticleAttributeMapperNode@@2VMObject@@A
?computeNodeColorR@MPxParticleAttributeMapperNode@@2VMObject@@A
?computePlug@THdynEmitter@@UEAAXAEBVTplug@@AEAVTdataBlock@@@Z
?computePlug@THdynField@@UEAAXAEBVTplug@@AEAVTdataBlock@@@Z
?computePlug@THdynSpring@@UEAAXAEBVTplug@@AEAVTdataBlock@@@Z
?computePlug@THfluidEmitter@@UEAAXAEBVTplug@@AEAVTdataBlock@@@Z
?connectionBroken@THdynEmitter@@UEAAXAEBVTplug@@0_N@Z
?connectionBroken@THdynField@@UEAAXAEBVTplug@@0_N@Z
?connectionBroken@THdynSpring@@UEAAXAEBVTplug@@0_N@Z
?connectionBroken@THfluidEmitter@@UEAAXAEBVTplug@@0_N@Z
?connectionMade@THdynEmitter@@UEAAXAEBVTplug@@0_N@Z
?connectionMade@THdynField@@UEAAXAEBVTplug@@0_N@Z
?connectionMade@THdynSpring@@UEAAXAEBVTplug@@0_N@Z
?connectionMade@THfluidEmitter@@UEAAXAEBVTplug@@0_N@Z
?construct@THdynEmitter@@SAPEAV1@PEAVTmetaclass@@@Z
?construct@THdynField@@SAPEAV1@PEAVTmetaclass@@@Z
?construct@THdynSpring@@SAPEAV1@PEAVTmetaclass@@@Z
?construct@THfluidEmitter@@SAPEAV1@PEAVTmetaclass@@@Z
?copyInternalData@THdynEmitter@@UEAAXAEBVTdependNode@@@Z
?copyInternalData@THdynField@@UEAAXAEBVTdependNode@@@Z
?copyInternalData@THdynSpring@@UEAAXAEBVTdependNode@@@Z
?copyInternalData@THfluidEmitter@@UEAAXAEBVTdependNode@@@Z
?count@MFnParticleSystem@@QEBAIXZ
?create2D@MFnFluid@@QEAA?AVMObject@@IINNV2@PEAVMStatus@@@Z
?create3D@MFnFluid@@QEAA?AVMObject@@IIINNNV2@PEAVMStatus@@@Z
?create@MFnDynSweptGeometryData@@QEAA?AVMObject@@PEAVMStatus@@@Z
?create@MFnFluid@@AEAA?AVMObject@@V2@_NPEAVMStatus@@@Z
?create@MFnNIdData@@QEBA?AVMObject@@XZ
?create@MFnNObjectData@@QEBA?AVMObject@@XZ
?create@MFnParticleSystem@@QEAA?AVMObject@@PEAVMStatus@@@Z
?create@MFnParticleSystem@@QEAA?AVMObject@@V2@PEAVMStatus@@@Z
?createNCloth@MnCloth@@QEAA?AVMStatus@@XZ
?createNParticle@MnParticle@@QEAA?AVMStatus@@XZ
?createNRigid@MnRigid@@QEAA?AVMStatus@@XZ
?createNSolver@MnSolver@@QEAA?AVMStatus@@XZ
?creator@THdynEmitter@@SAPEAXPEAVTmetaclass@@@Z
?creator@THdynField@@SAPEAXPEAVTmetaclass@@@Z
?creator@THdynSpring@@SAPEAXPEAVTmetaclass@@@Z
?creator@THfluidEmitter@@SAPEAXPEAVTmetaclass@@@Z
?defaultName@THdynEmitter@@UEBA?AVTstring@@XZ
?defaultName@THdynField@@UEBA?AVTstring@@XZ
?defaultName@THdynSpring@@UEBA?AVTstring@@XZ
?defaultName@THfluidEmitter@@UEBA?AVTstring@@XZ
?deformedParticleShape@MFnParticleSystem@@QEBA?AVMObject@@PEAVMStatus@@@Z
?deleteArray@MRenderLineArray@@QEAAXXZ
?density@MFnFluid@@QEAAPEAMPEAVMStatus@@@Z
?dependencies@THdynEmitter@@UEBAAEBVTdependencyMatrix@@XZ
?dependencies@THdynField@@UEBAAEBVTdependencyMatrix@@XZ
?dependencies@THdynSpring@@UEBAAEBVTdependencyMatrix@@XZ
?dependencies@THfluidEmitter@@UEBAAEBVTdependencyMatrix@@XZ
?detailTurbulence@MFnVolumeAxisField@@QEAA?AVMStatus@@N@Z
?detailTurbulence@MFnVolumeAxisField@@QEBANPEAVMStatus@@@Z
?direction@MFnAirField@@QEBA?AVMVector@@PEAVMStatus@@@Z
?direction@MFnDragField@@QEBA?AVMVector@@PEAVMStatus@@@Z
?direction@MFnGravityField@@QEBA?AVMVector@@PEAVMStatus@@@Z
?direction@MFnUniformField@@QEBA?AVMVector@@PEAVMStatus@@@Z
?direction@MFnVolumeAxisField@@QEBA?AVMVector@@PEAVMStatus@@@Z
?directionalSpeed@MFnVolumeAxisField@@QEBANPEAVMStatus@@@Z
?disableCloudAxis@MFnParticleSystem@@QEBA_NXZ
?doDraw@THdynEmitter@@UEBAXAEAVTdrawArgs@@@Z
?doDraw@THdynField@@UEBAXAEAVTdrawArgs@@@Z
?draw@MPxEmitterNode@@UEAAXAEAVM3dView@@AEBVMDagPath@@W4DisplayStyle@2@W4DisplayStatus@2@@Z
?draw@MPxFieldNode@@UEAAXAEAVM3dView@@AEBVMDagPath@@W4DisplayStyle@2@W4DisplayStatus@2@@Z
?drawIcon@THdynField@@UEBAPEAVTglBitmap@@XZ
?dynSweptLine@TapiCastFX@@SA?AVMDynSweptLine@@AEAVTdynSweptLine@@@Z
?dynSweptTriangle@TapiCastFX@@SA?AVMDynSweptTriangle@@AEAVTdynSweptTriangle@@@Z
?emission@MFnParticleSystem@@QEBAXAEAVMVectorArray@@@Z
?emit@MFnParticleSystem@@QEAA?AVMStatus@@AEBVMPoint@@@Z
?emit@MFnParticleSystem@@QEAA?AVMStatus@@AEBVMPoint@@AEBVMVector@@@Z
?emit@MFnParticleSystem@@QEAA?AVMStatus@@AEBVMPointArray@@@Z
?emit@MFnParticleSystem@@QEAA?AVMStatus@@AEBVMPointArray@@AEBVMVectorArray@@@Z
?emitIntoArrays@MFnFluid@@QEAAXMHHHMMM_NAEBVMColor@@@Z
?enableSpread@MFnAirField@@QEBA_NPEAVMStatus@@@Z
?evalDynamics2dTexture@MDynamicsUtil@@SA?AVMStatus@@AEBVMObject@@0AEAVMDoubleArray@@1PEAVMVectorArray@@PEAV4@@Z
?evalEmission2dTexture@MPxEmitterNode@@QEAA?AVMStatus@@AEBVMObject@@AEAVMDoubleArray@@1PEAVMVectorArray@@PEAV4@@Z
?evaluateDynamics@MFnParticleSystem@@QEAAXAEAVMTime@@_N@Z
?expandToInclude@MFnFluid@@QEAA?AVMStatus@@AEBVMPoint@@0@Z
?extensionAttrs@THdynEmitter@@UEAAAEAVTattributeList@@XZ
?extensionAttrs@THdynEmitter@@UEBAAEBVTattributeList@@XZ
?extensionAttrs@THdynField@@UEAAAEAVTattributeList@@XZ
?extensionAttrs@THdynField@@UEBAAEBVTattributeList@@XZ
?extensionAttrs@THdynSpring@@UEAAAEAVTattributeList@@XZ
?extensionAttrs@THdynSpring@@UEBAAEBVTattributeList@@XZ
?extensionAttrs@THfluidEmitter@@UEAAAEAVTattributeList@@XZ
?extensionAttrs@THfluidEmitter@@UEBAAEBVTattributeList@@XZ
?extensionOffsets@THdynEmitter@@UEBAAEBVTuInt32Array@@XZ
?extensionOffsets@THdynField@@UEBAAEBVTuInt32Array@@XZ
?extensionOffsets@THdynSpring@@UEBAAEBVTuInt32Array@@XZ
?extensionOffsets@THfluidEmitter@@UEBAAEBVTuInt32Array@@XZ
?fRegisteringCallableScript@MHairSystem@@0_NA
?falloff@MFnFluid@@QEAAPEAMPEAVMStatus@@@Z
?falloffCurve@MFnField@@QEAANNPEAVMStatus@@@Z
?falloffCurve@MPxFieldNode@@UEAANNPEAVMStatus@@@Z
?flatShaded@MFnParticleSystem@@QEBA_NXZ
?fluidColor@MPxFluidEmitterNode@@QEAA?AVMColor@@AEAVMDataBlock@@@Z
?fluidDensityEmission@MPxFluidEmitterNode@@QEAANAEAVMDataBlock@@@Z
?fluidDropoff@MPxFluidEmitterNode@@QEAANAEAVMDataBlock@@@Z
?fluidEmitColor@MPxFluidEmitterNode@@QEAA_NAEAVMDataBlock@@@Z
?fluidEmitter@MPxFluidEmitterNode@@UEAA?AVMStatus@@AEBVMObject@@AEBVMMatrix@@H@Z
?fluidEmitter@THfluidEmitter@@UEAAXPEAVTfluid@@I@Z
?fluidFuelEmission@MPxFluidEmitterNode@@QEAANAEAVMDataBlock@@@Z
?fluidHeatEmission@MPxFluidEmitterNode@@QEAANAEAVMDataBlock@@@Z
?fluidJitter@MPxFluidEmitterNode@@QEAA_NAEAVMDataBlock@@@Z
?frequency@MFnTurbulenceField@@QEBANPEAVMStatus@@@Z
?fsVsData@THdynEmitter@@2PEAVTdnVSTHdynEmitter@@EA
?fsVsData@THdynField@@2PEAVTdnVSTHdynField@@EA
?fsVsData@THdynSpring@@2PEAVTdnVSTHdynSpring@@EA
?fsVsData@THfluidEmitter@@2PEAVTdnVSTHfluidEmitter@@EA
?fuel@MFnFluid@@QEAAPEAMPEAVMStatus@@@Z
?getBounce@MnCloth@@QEBA?AVMStatus@@AEAVMFloatArray@@@Z
?getBounce@MnParticle@@QEBA?AVMStatus@@AEAVMFloatArray@@@Z
?getBounce@MnRigid@@QEBA?AVMStatus@@AEAVMFloatArray@@@Z
?getBoundingBox@MFnPfxGeometry@@QEAA?AVMStatus@@PEAN0@Z
?getCached@MFnNObjectData@@QEBA?AVMStatus@@AEA_N@Z
?getCachedValue@THdynEmitter@@UEAA_NAEBVTplug@@AEAVTdataHandle@@AEBVTdgContext@@@Z
?getCachedValue@THdynField@@UEAA_NAEBVTplug@@AEAVTdataHandle@@AEBVTdgContext@@@Z
?getCachedValue@THdynSpring@@UEAA_NAEBVTplug@@AEAVTdataHandle@@AEBVTdgContext@@@Z
?getCachedValue@THfluidEmitter@@UEAA_NAEBVTplug@@AEAVTdataHandle@@AEBVTdgContext@@@Z
?getClothObjectPtr@MFnNObjectData@@QEBAPEAVMnCloth@@PEAVMStatus@@@Z
?getCollide@MFnNObjectData@@QEBA?AVMStatus@@AEA_N@Z
?getCollisionObject@MHairSystem@@SA?AVMObject@@V2@HPEAVMStatus@@@Z
?getCollisionObject@MHairSystem@@SA?AVMStatus@@VMObject@@AEAVMObjectArray@@AEAVMIntArray@@@Z
?getColor@MRenderLine@@QEBA?AVMVectorArray@@XZ
?getColorMode@MFnFluid@@QEAA?AVMStatus@@AEAW4ColorMethod@1@@Z
?getColors@MFnFluid@@QEAA?AVMStatus@@AEAPEAM00@Z
?getCoordinateMode@MFnFluid@@QEAA?AVMStatus@@AEAW4CoordinateMethod@1@@Z
?getCoordinates@MFnFluid@@QEAA?AVMStatus@@AEAPEAM00@Z
?getCurrentTime@MPxEmitterNode@@QEAA?AVMTime@@AEAVMDataBlock@@@Z
?getDeltaTime@MPxEmitterNode@@QEAA?AVMTime@@HAEAVMDataBlock@@@Z
?getDensityMode@MFnFluid@@QEAA?AVMStatus@@AEAW4FluidMethod@1@AEAW4FluidGradient@1@@Z
?getDimensions@MFnFluid@@QEBA?AVMStatus@@AEAN00@Z
?getEmitterType@MPxEmitterNode@@QEAA?AW4MEmitterType@1@AEAVMDataBlock@@@Z
?getExternalContent@THdynEmitter@@UEBAXAEAVTexternalContentInfoTable@@@Z
?getExternalContent@THdynField@@UEBAXAEAVTexternalContentInfoTable@@@Z
?getExternalContent@THdynSpring@@UEBAXAEAVTexternalContentInfoTable@@@Z
?getExternalContent@THfluidEmitter@@UEBAXAEAVTexternalContentInfoTable@@@Z
?getFalloffMode@MFnFluid@@QEAA?AVMStatus@@AEAW4FalloffMethod@1@@Z
?getFlatness@MRenderLine@@QEBA?AVMDoubleArray@@XZ
?getFollicle@MHairSystem@@SA?AVMObject@@V2@HPEAVMStatus@@@Z
?getFollicle@MHairSystem@@SA?AVMStatus@@VMObject@@AEAVMObjectArray@@AEAVMIntArray@@@Z
?getForceAtPoint@MFnField@@QEAA?AVMStatus@@AEBVMPointArray@@AEBVMVectorArray@@AEBVMDoubleArray@@AEAV4@N@Z
?getForceAtPoint@MFnField@@QEAA?AVMStatus@@AEBVMVectorArray@@0AEBVMDoubleArray@@AEAV3@N@Z
?getForceAtPoint@MFnFluid@@QEAA?AVMStatus@@AEBVMPointArray@@AEBVMVectorArray@@AEBVMDoubleArray@@AEAV4@N@Z
?getForceAtPoint@MFnFluid@@QEAA?AVMStatus@@AEBVMVectorArray@@0AEBVMDoubleArray@@AEAV3@N@Z
?getForceAtPoint@MPxFieldNode@@UEAA?AVMStatus@@AEBVMVectorArray@@0AEBVMDoubleArray@@AEAV3@N@Z
?getForceAtPoint@THdynField@@UEAAHAEBVT4dDblVectorArray@@0AEBVTdoubleArray@@AEAV2@N@Z
?getFriction@MnCloth@@QEBA?AVMStatus@@AEAVMFloatArray@@@Z
?getFriction@MnParticle@@QEBA?AVMStatus@@AEAVMFloatArray@@@Z
?getFriction@MnRigid@@QEBA?AVMStatus@@AEAVMFloatArray@@@Z
?getFuelMode@MFnFluid@@QEAA?AVMStatus@@AEAW4FluidMethod@1@AEAW4FluidGradient@1@@Z
?getIncandescence@MRenderLine@@QEBA?AVMVectorArray@@XZ
?getInverseMass@MnCloth@@QEBA?AVMStatus@@AEAVMFloatArray@@@Z
?getInverseMass@MnParticle@@QEBA?AVMStatus@@AEAVMFloatArray@@@Z
?getInverseMass@MnRigid@@QEBA?AVMStatus@@AEAVMFloatArray@@@Z
?getLine@MRenderLine@@QEBA?AVMVectorArray@@XZ
?getLineData@MFnPfxGeometry@@QEAA?AVMStatus@@AEAVMRenderLineArray@@00_N11111111@Z
?getMaxDistance@MPxEmitterNode@@QEAANAEAVMDataBlock@@@Z
?getMinDistance@MPxEmitterNode@@QEAANAEAVMDataBlock@@@Z
?getNCloth@MnCloth@@AEAAPEAVTnCloth@@XZ
?getNObject@MnObject@@AEAAPEAVTnObject@@XZ
?getNParticle@MnParticle@@AEAAPEAVTnParticle@@XZ
?getNRigid@MnRigid@@AEAAPEAVTnRigid@@XZ
?getNSolver@MnSolver@@AEAAPEAVTnSolver@@XZ
?getNumVertices@MnCloth@@QEBA?AVMStatus@@AEAI@Z
?getNumVertices@MnParticle@@QEBA?AVMStatus@@AEAI@Z
?getNumVertices@MnRigid@@QEBA?AVMStatus@@AEAI@Z
?getObjectPtr@MFnNIdData@@QEBA?AVMStatus@@AEAPEAVMnObject@@@Z
?getObjectPtr@MFnNIdData@@QEBAPEAVMnObject@@PEAVMStatus@@@Z
?getObjectPtr@MFnNObjectData@@QEBA?AVMStatus@@AEAPEAVMnCloth@@@Z
?getObjectPtr@MFnNObjectData@@QEBA?AVMStatus@@AEAPEAVMnParticle@@@Z
?getObjectPtr@MFnNObjectData@@QEBA?AVMStatus@@AEAPEAVMnRigid@@@Z
?getOwnerShape@MPxEmitterNode@@QEAA?AVMObject@@XZ
?getParameter@MRenderLine@@QEBA?AVMDoubleArray@@XZ
?getParticleObjectPtr@MFnNObjectData@@QEBAPEAVMnParticle@@PEAVMStatus@@@Z
?getPerParticleAttribute@MFnParticleSystem@@QEBAIAEBVMString@@AEAVMDoubleArray@@PEAVMStatus@@@Z
?getPerParticleAttribute@MFnParticleSystem@@QEBAIAEBVMString@@AEAVMIntArray@@PEAVMStatus@@@Z
?getPerParticleAttribute@MFnParticleSystem@@QEBAIAEBVMString@@AEAVMVectorArray@@PEAVMStatus@@@Z
?getPositions@MnCloth@@QEBA?AVMStatus@@AEAVMFloatPointArray@@@Z
?getPositions@MnParticle@@QEBA?AVMStatus@@AEAVMFloatPointArray@@@Z
?getPositions@MnRigid@@QEBA?AVMStatus@@AEAVMFloatPointArray@@@Z
?getRandomSeed@MPxEmitterNode@@QEAAHHAEAVMDataBlock@@@Z
?getRandomState@MPxEmitterNode@@QEAAXHAEAVMDataBlock@@@Z
?getRate@MPxEmitterNode@@QEAANAEAVMDataBlock@@@Z
?getResolution@MFnFluid@@QEBA?AVMStatus@@AEAI00@Z
?getResolution@MFnFluid@@QEBA?AVMStatus@@AEAI0@Z
?getRigidObjectPtr@MFnNObjectData@@QEBAPEAVMnRigid@@PEAVMStatus@@@Z
?getStartTime@MPxEmitterNode@@QEAA?AVMTime@@HAEAVMDataBlock@@@Z
?getTemperatureMode@MFnFluid@@QEAA?AVMStatus@@AEAW4FluidMethod@1@AEAW4FluidGradient@1@@Z
?getThickness@MnCloth@@QEBA?AVMStatus@@AEAVMFloatArray@@@Z
?getThickness@MnParticle@@QEBA?AVMStatus@@AEAVMFloatArray@@@Z
?getThickness@MnRigid@@QEBA?AVMStatus@@AEAVMFloatArray@@@Z
?getTransparency@MRenderLine@@QEBA?AVMVectorArray@@XZ
?getTwist@MRenderLine@@QEBA?AVMVectorArray@@XZ
?getVelocities@MnCloth@@QEBA?AVMStatus@@AEAVMFloatPointArray@@@Z
?getVelocities@MnParticle@@QEBA?AVMStatus@@AEAVMFloatPointArray@@@Z
?getVelocities@MnRigid@@QEBA?AVMStatus@@AEAVMFloatPointArray@@@Z
?getVelocity@MFnFluid@@QEAA?AVMStatus@@AEAPEAM00@Z
?getVelocityMode@MFnFluid@@QEAA?AVMStatus@@AEAW4FluidMethod@1@AEAW4FluidGradient@1@@Z
?getWidth@MRenderLine@@QEBA?AVMDoubleArray@@XZ
?getWorldMatrix@MPxEmitterNode@@QEAA?AVMMatrix@@XZ
?getWorldPosition@MPxEmitterNode@@QEAA?AVMPoint@@XZ
?gridSize@MFnFluid@@QEAAIPEAVMStatus@@@Z
?hasEmission@MFnParticleSystem@@QEBA_NXZ
?hasLifespan@MFnParticleSystem@@QEBA_NXZ
?hasOpacity@MFnParticleSystem@@QEBA_NXZ
?hasRgb@MFnParticleSystem@@QEBA_NXZ
?hasValidDynamics2dTexture@MDynamicsUtil@@SA_NAEBVMObject@@0PEAVMStatus@@@Z
?hasValidEmission2dTexture@MPxEmitterNode@@QEAA_NAEBVMObject@@PEAVMStatus@@@Z
?iconBitmap@MPxFieldNode@@UEAA?AVMStatus@@PEAE@Z
?iconSizeAndOrigin@MPxFieldNode@@UEAA?AVMStatus@@AEAI000@Z
?iffTag@THdynEmitter@@UEBAAEBVTiffTag@@XZ
?iffTag@THdynField@@UEBAAEBVTiffTag@@XZ
?iffTag@THdynSpring@@UEBAAEBVTiffTag@@XZ
?iffTag@THfluidEmitter@@UEBAAEBVTiffTag@@XZ
?inRunup@MDynamicsUtil@@SA_NXZ
?index@MFnFluid@@QEAAHHH@Z
?index@MFnFluid@@QEAAHHHH@Z
?index@MFnFluid@@QEAAHHHHHHH@Z
?index@MFnFluid@@QEAAXHAEAH00@Z
?index@MFnFluid@@QEAAXHHHHAEAH00@Z
?inheritRotation@MFnAirField@@QEBA_NPEAVMStatus@@@Z
?inheritVelocity@MFnAirField@@QEBANPEAVMStatus@@@Z
?initialSetup@MPxEmitterNode@@CAXXZ
?initialSetup@MPxFieldNode@@CAXXZ
?initialSetup@MPxFluidEmitterNode@@CAXXZ
?initialSetup@MPxParticleAttributeMapperNode@@CAXXZ
?initialSetup@MPxSpringNode@@CAXXZ
?instancesForParticle@MFnInstancer@@QEBAHHAEAVMDagPathArray@@AEAVMMatrix@@PEAVMStatus@@@Z
?invertAttenuation@MFnVolumeAxisField@@QEBA_NPEAVMStatus@@@Z
?isAutoResize@MFnFluid@@QEAA_NXZ
?isCached@MFnNObjectData@@QEBA_NPEAVMStatus@@@Z
?isDeformedParticleShape@MFnParticleSystem@@QEBA_NPEAVMStatus@@@Z
?isFalloffCurveConstantOne@MFnField@@QEAA_NPEAVMStatus@@@Z
?isFalloffCurveConstantOne@MPxFieldNode@@UEAA_NPEAVMStatus@@@Z
?isPassiveOutput@THdynEmitter@@UEBA_NAEBVTplug@@@Z
?isPassiveOutput@THdynField@@UEBA_NAEBVTplug@@@Z
?isPassiveOutput@THdynSpring@@UEBA_NAEBVTplug@@@Z
?isPassiveOutput@THfluidEmitter@@UEBA_NAEBVTplug@@@Z
?isPerParticleDoubleAttribute@MFnParticleSystem@@QEBA_NAEBVMString@@PEAVMStatus@@@Z
?isPerParticleIntAttribute@MFnParticleSystem@@QEBA_NAEBVMString@@PEAVMStatus@@@Z
?isPerParticleVectorAttribute@MFnParticleSystem@@QEBA_NAEBVMString@@PEAVMStatus@@@Z
?isResizeToEmitter@MFnFluid@@QEAA_NXZ
?isValid@MFnParticleSystem@@QEBA_NXZ
?legalConnection@THdynEmitter@@UEBA_NAEBVTplug@@0_N@Z
?legalConnection@THdynField@@UEBA_NAEBVTplug@@0_N@Z
?legalConnection@THdynSpring@@UEBA_NAEBVTplug@@0_N@Z
?legalConnection@THfluidEmitter@@UEBA_NAEBVTplug@@0_N@Z
?legalDisconnection@THdynEmitter@@UEBA_NAEBVTplug@@0_N@Z
?legalDisconnection@THdynField@@UEBA_NAEBVTplug@@0_N@Z
?legalDisconnection@THdynSpring@@UEBA_NAEBVTplug@@0_N@Z
?legalDisconnection@THfluidEmitter@@UEBA_NAEBVTplug@@0_N@Z
?length@MDynSweptLine@@QEAANN@Z
?length@MRenderLineArray@@QEBAHXZ
?lifespan@MFnParticleSystem@@QEBAXAEAVMDoubleArray@@@Z
?lineCount@MFnDynSweptGeometryData@@QEBAHPEAVMStatus@@@Z
?mApplyPerVertex@MPxFieldNode@@2VMObject@@A
?mAttenuation@MPxFieldNode@@2VMObject@@A
?mCurrentTime@MPxEmitterNode@@2VMObject@@A
?mDeltaTime@MPxEmitterNode@@2VMObject@@A
?mDeltaTime@MPxFieldNode@@2VMObject@@A
?mDeltaTime@MPxSpringNode@@2VMObject@@A
?mDirection@MPxEmitterNode@@2VMObject@@A
?mDirectionX@MPxEmitterNode@@2VMObject@@A
?mDirectionY@MPxEmitterNode@@2VMObject@@A
?mDirectionZ@MPxEmitterNode@@2VMObject@@A
?mEmissionFunction@MPxFluidEmitterNode@@2VMObject@@A
?mEmitFluidColor@MPxFluidEmitterNode@@2VMObject@@A
?mEmitterType@MPxEmitterNode@@2VMObject@@A
?mEnd1Weight@MPxSpringNode@@2VMObject@@A
?mEnd2Weight@MPxSpringNode@@2VMObject@@A
?mFluidColor@MPxFluidEmitterNode@@2VMObject@@A
?mFluidColorB@MPxFluidEmitterNode@@2VMObject@@A
?mFluidColorG@MPxFluidEmitterNode@@2VMObject@@A
?mFluidColorR@MPxFluidEmitterNode@@2VMObject@@A
?mFluidDensityEmission@MPxFluidEmitterNode@@2VMObject@@A
?mFluidDropoff@MPxFluidEmitterNode@@2VMObject@@A
?mFluidFuelEmission@MPxFluidEmitterNode@@2VMObject@@A
?mFluidHeatEmission@MPxFluidEmitterNode@@2VMObject@@A
?mFluidJitter@MPxFluidEmitterNode@@2VMObject@@A
?mInheritFactor@MPxEmitterNode@@2VMObject@@A
?mInputData@MPxFieldNode@@2VMObject@@A
?mInputForce@MPxFieldNode@@2VMObject@@A
?mInputMass@MPxFieldNode@@2VMObject@@A
?mInputPPData@MPxFieldNode@@2VMObject@@A
?mInputPositions@MPxFieldNode@@2VMObject@@A
?mInputVelocities@MPxFieldNode@@2VMObject@@A
?mIsFull@MPxEmitterNode@@2VMObject@@A
?mMagnitude@MPxFieldNode@@2VMObject@@A
?mMaxDistance@MPxEmitterNode@@2VMObject@@A
?mMaxDistance@MPxFieldNode@@2VMObject@@A
?mMinDistance@MPxEmitterNode@@2VMObject@@A
?mOutput@MPxEmitterNode@@2VMObject@@A
?mOutputForce@MPxFieldNode@@2VMObject@@A
?mOwnerCentroid@MPxEmitterNode@@2VMObject@@A
?mOwnerCentroid@MPxFieldNode@@2VMObject@@A
?mOwnerCentroidX@MPxEmitterNode@@2VMObject@@A
?mOwnerCentroidX@MPxFieldNode@@2VMObject@@A
?mOwnerCentroidY@MPxEmitterNode@@2VMObject@@A
?mOwnerCentroidY@MPxFieldNode@@2VMObject@@A
?mOwnerCentroidZ@MPxEmitterNode@@2VMObject@@A
?mOwnerCentroidZ@MPxFieldNode@@2VMObject@@A
?mOwnerPPData@MPxFieldNode@@2VMObject@@A
?mOwnerPosData@MPxEmitterNode@@2VMObject@@A
?mOwnerPosData@MPxFieldNode@@2VMObject@@A
?mOwnerVelData@MPxEmitterNode@@2VMObject@@A
?mOwnerVelData@MPxFieldNode@@2VMObject@@A
?mRandState@MPxEmitterNode@@2VMObject@@A
?mRandStateX@MPxEmitterNode@@2VMObject@@A
?mRandStateY@MPxEmitterNode@@2VMObject@@A
?mRandStateZ@MPxEmitterNode@@2VMObject@@A
?mRate@MPxEmitterNode@@2VMObject@@A
?mSeed@MPxEmitterNode@@2VMObject@@A
?mSpeed@MPxEmitterNode@@2VMObject@@A
?mStartTime@MPxEmitterNode@@2VMObject@@A
?mSweptGeometry@MPxEmitterNode@@2VMObject@@A
?mTurbulence@MPxFluidEmitterNode@@2VMObject@@A
?mUseMaxDistance@MPxFieldNode@@2VMObject@@A
?mWorldMatrix@MPxEmitterNode@@2VMObject@@A
?mWorldMatrix@MPxFieldNode@@2VMObject@@A
?magnitude@MFnField@@QEBANPEAVMStatus@@@Z
?makeAllCollide@MnSolver@@QEAA?AVMStatus@@XZ
?mass@MFnParticleSystem@@QEBAXAEAVMDoubleArray@@@Z
?maxDistance@MFnField@@QEBANPEAVMStatus@@@Z
?metaNodeClassInfo@THdynEmitter@@UEBAPEAVTmetaNodeClass@@XZ
?metaNodeClassInfo@THdynField@@UEBAPEAVTmetaNodeClass@@XZ
?metaNodeClassInfo@THdynSpring@@UEBAPEAVTmetaNodeClass@@XZ
?metaNodeClassInfo@THfluidEmitter@@UEBAPEAVTmetaNodeClass@@XZ
?minDistance@MFnNewtonField@@QEBANPEAVMStatus@@@Z
?normal@MDynSweptLine@@QEAA?AVMVector@@NNNN@Z
?normal@MDynSweptTriangle@@QEAA?AVMVector@@N@Z
?normalToPoint@MDynSweptTriangle@@QEAA?AVMVector@@NNNN@Z
?objectChanged@MFnFluid@@MEAA_NW4Type@MFn@@PEAVMStatus@@@Z
?objectChanged@MFnParticleSystem@@MEAA_NW4Type@MFn@@PEAVMStatus@@@Z
?opacity@MFnParticleSystem@@QEBAXAEAVMDoubleArray@@@Z
?originalParticleShape@MFnParticleSystem@@QEBA?AVMObject@@PEAVMStatus@@@Z
?outColorPP@MPxParticleAttributeMapperNode@@2VMObject@@A
?outMaxValue@MPxParticleAttributeMapperNode@@2VMObject@@A
?outMinValue@MPxParticleAttributeMapperNode@@2VMObject@@A
?outValuePP@MPxParticleAttributeMapperNode@@2VMObject@@A
?particleCount@MFnInstancer@@QEBAHXZ
?particleIds@MFnParticleSystem@@QEBAXAEAVMIntArray@@@Z
?particleName@MFnParticleSystem@@QEBA?AVMString@@XZ
?passThrough@THdynEmitter@@UEBAPEAVTplug@@AEBV2@@Z
?passThrough@THdynField@@UEBAPEAVTplug@@AEBV2@@Z
?passThrough@THdynSpring@@UEBAPEAVTplug@@AEBV2@@Z
?passThrough@THfluidEmitter@@UEBAPEAVTplug@@AEBV2@@Z
?passThroughToAll@THdynEmitter@@UEBAXAEBVTplug@@AEAVTplugArray@@@Z
?passThroughToAll@THdynField@@UEBAXAEBVTplug@@AEAVTplugArray@@@Z
?passThroughToAll@THdynSpring@@UEBAXAEBVTplug@@AEAVTplugArray@@@Z
?passThroughToAll@THfluidEmitter@@UEBAXAEBVTplug@@AEAVTplugArray@@@Z
?perVertex@MFnField@@QEBA_NPEAVMStatus@@@Z
?phase@MFnTurbulenceField@@QEBANPEAVMStatus@@@Z
?pluginNodeInfo@THdynEmitter@@UEBAPEAVTpluginNode@@XZ
?pluginNodeInfo@THdynField@@UEBAPEAVTpluginNode@@XZ
?pluginNodeInfo@THdynSpring@@UEBAPEAVTpluginNode@@XZ
?pluginNodeInfo@THfluidEmitter@@UEBAPEAVTpluginNode@@XZ
?position0@MFnParticleSystem@@QEBAXAEAVMVectorArray@@@Z
?position1@MFnParticleSystem@@QEBAXAEAVMVectorArray@@@Z
?position@MFnParticleSystem@@QEBAXAEAVMVectorArray@@@Z
?postEvaluation@THdynEmitter@@UEAAXAEBVTdgContext@@AEBVTevaluationNode@@I@Z
?postEvaluation@THdynField@@UEAAXAEBVTdgContext@@AEBVTevaluationNode@@I@Z
?postEvaluation@THdynSpring@@UEAAXAEBVTdgContext@@AEBVTevaluationNode@@I@Z
?postEvaluation@THfluidEmitter@@UEAAXAEBVTdgContext@@AEBVTevaluationNode@@I@Z
?preEvaluation@THdynEmitter@@UEAAXAEBVTdgContext@@AEBVTevaluationNode@@@Z
?preEvaluation@THdynField@@UEAAXAEBVTdgContext@@AEBVTevaluationNode@@@Z
?preEvaluation@THdynSpring@@UEAAXAEBVTdgContext@@AEBVTevaluationNode@@@Z
?preEvaluation@THfluidEmitter@@UEAAXAEBVTdgContext@@AEBVTevaluationNode@@@Z
?pressure@MFnFluid@@QEAAPEAMPEAVMStatus@@@Z
?primaryVisibility@MFnParticleSystem@@QEBA_NXZ
?radialType@MFnRadialField@@QEBANPEAVMStatus@@@Z
?radius0@MFnParticleSystem@@QEBAXAEAVMDoubleArray@@@Z
?radius1@MFnParticleSystem@@QEBAXAEAVMDoubleArray@@@Z
?radius@MFnParticleSystem@@QEBAXAEAVMDoubleArray@@@Z
?randgen@MPxEmitterNode@@QEAANXZ
?receiveShadows@MFnParticleSystem@@QEBA_NXZ
?registerCollisionSolverCollide@MHairSystem@@SA?AVMStatus@@P6A_NVMObject@@HAEAVMVectorArray@@1AEBVMDoubleArray@@HHNNPEBX@Z@Z
?registerCollisionSolverPreFrame@MHairSystem@@SA?AVMStatus@@P6A_NVMObject@@NPEAPEAX@Z@Z
?registeringCallableScript@MHairSystem@@SA_NXZ
?removeAllCollisions@MnSolver@@QEAA?AVMStatus@@XZ
?removeNObject@MnSolver@@QEAA?AVMStatus@@PEAVMnObject@@@Z
?removeNodeTypeFromRunup@MDynamicsUtil@@SA_NAEBVMString@@@Z
?renderLine@MRenderLineArray@@QEBA?AVMRenderLine@@IPEAVMStatus@@@Z
?renderLine@TapiCastPFX@@SA?AVMRenderLine@@AEAVTrenderLine@@@Z
?renderLineArray@TapiCastPFX@@SA?AVMRenderLineArray@@AEAVTrenderLineArray@@@Z
?renderType@MFnParticleSystem@@QEBA?AW4RenderType@1@XZ
?resetRandomState@MPxEmitterNode@@QEAAXHAEAVMDataBlock@@@Z
?rgb@MFnParticleSystem@@QEBAXAEAVMVectorArray@@@Z
?runupIfRequired@MDynamicsUtil@@SA_NXZ
?sVsBaseData@THdynEmitter@@SAAEAVTdependNodeVS@@XZ
?sVsBaseData@THdynField@@SAAEAVTdependNodeVS@@XZ
?sVsBaseData@THdynSpring@@SAAEAVTdependNodeVS@@XZ
?sVsBaseData@THfluidEmitter@@SAAEAVTdependNodeVS@@XZ
?sVsData@THdynEmitter@@SAAEAVTdnVSTHdynEmitter@@XZ
?sVsData@THdynField@@SAAEAVTdnVSTHdynField@@XZ
?sVsData@THdynSpring@@SAAEAVTdnVSTHdynSpring@@XZ
?sVsData@THfluidEmitter@@SAAEAVTdnVSTHfluidEmitter@@XZ
?saveInitialState@MFnParticleSystem@@QEBA?AVMStatus@@XZ
?schedulingType@THdynEmitter@@UEBA?AW4eSchedulingType@TdependNode@@XZ
?schedulingType@THdynField@@UEBA?AW4eSchedulingType@TdependNode@@XZ
?schedulingType@THdynSpring@@UEBA?AW4eSchedulingType@TdependNode@@XZ
?schedulingType@THfluidEmitter@@UEBA?AW4eSchedulingType@TdependNode@@XZ
?setAddCrossLinks@MnCloth@@QEAA?AVMStatus@@M@Z
?setAirDensity@MnSolver@@QEAA?AVMStatus@@M@Z
?setAirTightness@MnCloth@@QEAA?AVMStatus@@M@Z
?setApiUserObject@THdynEmitter@@UEAAXPEAX@Z
?setApiUserObject@THdynField@@UEAAXPEAX@Z
?setApiUserObject@THdynSpring@@UEAAXPEAX@Z
?setApiUserObject@THfluidEmitter@@UEAAXPEAX@Z
?setAttenuation@MFnField@@QEAA?AVMStatus@@N@Z
?setAxis@MFnVortexField@@QEAA?AVMStatus@@AEBVMVector@@@Z
?setBendAngleDropoff@MnCloth@@QEAA?AVMStatus@@M@Z
?setBendAngleScale@MnCloth@@QEAA?AVMStatus@@M@Z
?setBendResistance@MnCloth@@QEAA?AVMStatus@@M@Z
?setBendRestAngleFromPositions@MnCloth@@QEAA?AVMStatus@@AEBVMFloatPointArray@@@Z
?setBounce@MnCloth@@QEAA?AVMStatus@@M@Z
?setBounce@MnCloth@@QEAA?AVMStatus@@PEAM@Z
?setBounce@MnParticle@@QEAA?AVMStatus@@M@Z
?setBounce@MnParticle@@QEAA?AVMStatus@@PEAM@Z
?setBounce@MnRigid@@QEAA?AVMStatus@@M@Z
?setBounce@MnRigid@@QEAA?AVMStatus@@PEAM@Z
?setCached@MFnNObjectData@@QEAA?AVMStatus@@_N@Z
?setCachedValue@THdynEmitter@@UEAA_NAEBVTplug@@AEBVTdataHandle@@AEBVTdgContext@@@Z
?setCachedValue@THdynField@@UEAA_NAEBVTplug@@AEBVTdataHandle@@AEBVTdgContext@@@Z
?setCachedValue@THdynSpring@@UEAA_NAEBVTplug@@AEBVTdataHandle@@AEBVTdgContext@@@Z
?setCachedValue@THfluidEmitter@@UEAA_NAEBVTplug@@AEBVTdataHandle@@AEBVTdgContext@@@Z
?setCollide@MnParticle@@QEAA?AVMStatus@@_N@Z
?setCollisionFlags@MnCloth@@QEAA?AVMStatus@@_N00@Z
?setCollisionFlags@MnRigid@@QEAA?AVMStatus@@_N00@Z
?setColorMode@MFnFluid@@QEAA?AVMStatus@@W4ColorMethod@1@@Z
?setComponentOnly@MFnAirField@@QEAA?AVMStatus@@_N@Z
?setComputeRestAngles@MnCloth@@QEAA?AVMStatus@@_N@Z
?setComputeRestLength@MnCloth@@QEAA?AVMStatus@@_N@Z
?setCoordinateMode@MFnFluid@@QEAA?AVMStatus@@W4CoordinateMethod@1@@Z
?setCount@MFnParticleSystem@@QEBAXI@Z
?setDamping@MnCloth@@QEAA?AVMStatus@@M@Z
?setDamping@MnCloth@@QEAA?AVMStatus@@PEAM@Z
?setDamping@MnParticle@@QEAA?AVMStatus@@M@Z
?setDamping@MnParticle@@QEAA?AVMStatus@@PEAM@Z
?setDensityMode@MFnFluid@@QEAA?AVMStatus@@W4FluidMethod@1@W4FluidGradient@1@@Z
?setDependentsDirty@THdynEmitter@@UEAAXAEAVTmsgDirty@@@Z
?setDependentsDirty@THdynField@@UEAAXAEAVTmsgDirty@@@Z
?setDependentsDirty@THdynSpring@@UEAAXAEAVTmsgDirty@@@Z
?setDependentsDirty@THfluidEmitter@@UEAAXAEAVTmsgDirty@@@Z
?setDirection@MFnAirField@@QEAA?AVMStatus@@AEBVMVector@@@Z
?setDirection@MFnDragField@@QEAA?AVMStatus@@AEBVMVector@@@Z
?setDirection@MFnGravityField@@QEAA?AVMStatus@@AEBVMVector@@@Z
?setDirection@MFnUniformField@@QEAA?AVMStatus@@AEBVMVector@@@Z
?setDirection@MFnVolumeAxisField@@QEAA?AVMStatus@@AEBVMVector@@@Z
?setDirectionalSpeed@MFnVolumeAxisField@@QEAA?AVMStatus@@N@Z
?setDisableGravity@MnCloth@@QEAA?AVMStatus@@_N@Z
?setDisableGravity@MnParticle@@QEAA?AVMStatus@@_N@Z
?setDisabled@MnSolver@@QEAA?AVMStatus@@_N@Z
?setDragAndLift@MnCloth@@QEAA?AVMStatus@@MM@Z
?setDragAndLift@MnParticle@@QEAA?AVMStatus@@MM@Z
?setEnableSpread@MFnAirField@@QEAA?AVMStatus@@_N@Z
?setExternalContent@THdynEmitter@@UEAAXAEBVTexternalContentLocationTable@@@Z
?setExternalContent@THdynField@@UEAAXAEBVTexternalContentLocationTable@@@Z
?setExternalContent@THdynSpring@@UEAAXAEBVTexternalContentLocationTable@@@Z
?setExternalContent@THfluidEmitter@@UEAAXAEBVTexternalContentLocationTable@@@Z
?setFalloffMode@MFnFluid@@QEAA?AVMStatus@@W4FalloffMethod@1@@Z
?setFrequency@MFnTurbulenceField@@QEAA?AVMStatus@@N@Z
?setFriction@MnCloth@@QEAA?AVMStatus@@M@Z
?setFriction@MnCloth@@QEAA?AVMStatus@@PEAM@Z
?setFriction@MnParticle@@QEAA?AVMStatus@@M@Z
?setFriction@MnParticle@@QEAA?AVMStatus@@PEAM@Z
?setFriction@MnRigid@@QEAA?AVMStatus@@M@Z
?setFriction@MnRigid@@QEAA?AVMStatus@@PEAM@Z
?setFuelMode@MFnFluid@@QEAA?AVMStatus@@W4FluidMethod@1@W4FluidGradient@1@@Z
?setGravity@MnSolver@@QEAA?AVMStatus@@M@Z
?setGravityDir@MnSolver@@QEAA?AVMStatus@@MMM@Z
?setIncompressibility@MnCloth@@QEAA?AVMStatus@@M@Z
?setIncompressibility@MnParticle@@QEAA?AVMStatus@@M@Z
?setInheritRotation@MFnAirField@@QEAA?AVMStatus@@_N@Z
?setInheritVelocity@MFnAirField@@QEAA?AVMStatus@@N@Z
?setInputMeshAttractAndRigidStrength@MnCloth@@QEAA?AVMStatus@@PEAM00@Z
?setInputMeshAttractDamping@MnCloth@@QEAA?AVMStatus@@M@Z
?setInputMeshAttractPositions@MnCloth@@QEAA?AVMStatus@@AEBVMFloatPointArray@@@Z
?setInverseMass@MnCloth@@QEAA?AVMStatus@@M@Z
?setInverseMass@MnCloth@@QEAA?AVMStatus@@PEAM@Z
?setInverseMass@MnParticle@@QEAA?AVMStatus@@M@Z
?setInverseMass@MnParticle@@QEAA?AVMStatus@@PEAM@Z
?setInvertAttenuation@MFnVolumeAxisField@@QEAA?AVMStatus@@_N@Z
?setLinksRestLengthFromPositions@MnCloth@@QEAA?AVMStatus@@AEBVMFloatPointArray@@@Z
?setLiquidRadiusScale@MnParticle@@QEAA?AVMStatus@@M@Z
?setLiquidSimulation@MnParticle@@QEAA?AVMStatus@@_N@Z
?setMagnitude@MFnField@@QEAA?AVMStatus@@N@Z
?setMaxDistance@MFnField@@QEAA?AVMStatus@@N@Z
?setMaxIterations@MnCloth@@QEAA?AVMStatus@@H@Z
?setMaxIterations@MnParticle@@QEAA?AVMStatus@@H@Z
?setMaxIterations@MnSolver@@QEAA?AVMStatus@@H@Z
?setMaxSelfCollisionIterations@MnCloth@@QEAA?AVMStatus@@H@Z
?setMaxSelfCollisionIterations@MnParticle@@QEAA?AVMStatus@@H@Z
?setMinDistance@MFnNewtonField@@QEAA?AVMStatus@@N@Z
?setNCloth@MnCloth@@AEAAXPEAVTnCloth@@_N@Z
?setNObject@MnObject@@AEAAXPEAVTnObject@@_N@Z
?setNParticle@MnParticle@@AEAAXPEAVTnParticle@@_N@Z
?setNRigid@MnRigid@@AEAAXPEAVTnRigid@@_N@Z
?setNSolver@MnSolver@@AEAAXPEAVTnSolver@@_N@Z
?setObjectPtr@MFnNObjectData@@QEAA?AVMStatus@@PEAVMnCloth@@@Z
?setObjectPtr@MFnNObjectData@@QEAA?AVMStatus@@PEAVMnParticle@@@Z
?setObjectPtr@MFnNObjectData@@QEAA?AVMStatus@@PEAVMnRigid@@@Z
?setPerParticleAttribute@MFnParticleSystem@@QEBAXAEBVMString@@AEAVMDoubleArray@@PEAVMStatus@@@Z
?setPerParticleAttribute@MFnParticleSystem@@QEBAXAEBVMString@@AEAVMVectorArray@@PEAVMStatus@@@Z
?setPerVertex@MFnField@@QEAA?AVMStatus@@_N@Z
?setPhase@MFnTurbulenceField@@QEAA?AVMStatus@@N@Z
?setPluginNodeInfo@THdynEmitter@@UEAAXPEAVTpluginNode@@@Z
?setPluginNodeInfo@THdynField@@UEAAXPEAVTpluginNode@@@Z
?setPluginNodeInfo@THdynSpring@@UEAAXPEAVTpluginNode@@@Z
?setPluginNodeInfo@THfluidEmitter@@UEAAXPEAVTpluginNode@@@Z
?setPositions@MnCloth@@QEAA?AVMStatus@@AEBVMFloatPointArray@@_N@Z
?setPositions@MnParticle@@QEAA?AVMStatus@@AEBVMFloatPointArray@@_N@Z
?setPositions@MnRigid@@QEAA?AVMStatus@@AEBVMFloatPointArray@@_N@Z
?setPressure@MnCloth@@QEAA?AVMStatus@@M@Z
?setPressureDamping@MnCloth@@QEAA?AVMStatus@@M@Z
?setPumpRate@MnCloth@@QEAA?AVMStatus@@M@Z
?setRandomState@MPxEmitterNode@@QEAAXHAEAVMDataBlock@@@Z
?setRegisteringCallableScript@MHairSystem@@SAXXZ
?setRestDensity@MnParticle@@QEAA?AVMStatus@@M@Z
?setRestitutionAngle@MnCloth@@QEAA?AVMStatus@@M@Z
?setRestitutionTension@MnCloth@@QEAA?AVMStatus@@M@Z
?setSealHoles@MnCloth@@QEAA?AVMStatus@@_N@Z
?setSelfCollide@MnParticle@@QEAA?AVMStatus@@_N@Z
?setSelfCollideWidth@MnCloth@@QEAA?AVMStatus@@M@Z
?setSelfCollideWidth@MnParticle@@QEAA?AVMStatus@@M@Z
?setSelfCollisionFlags@MnCloth@@QEAA?AVMStatus@@_N0000@Z
?setSelfCollisionSoftness@MnCloth@@QEAA?AVMStatus@@M@Z
?setSelfCollisionSoftness@MnParticle@@QEAA?AVMStatus@@M@Z
?setSelfCrossoverPush@MnCloth@@QEAA?AVMStatus@@M@Z
?setSelfTrappedCheck@MnCloth@@QEAA?AVMStatus@@_N@Z
?setShearResistance@MnCloth@@QEAA?AVMStatus@@M@Z
?setSize@MFnFluid@@QEAA?AVMStatus@@IIINNN_N@Z
?setSize@MFnFluid@@QEAA?AVMStatus@@IINN_N@Z
?setSpeed@MFnAirField@@QEAA?AVMStatus@@N@Z
?setSpeedAlongAxis@MFnVolumeAxisField@@QEAA?AVMStatus@@N@Z
?setSpeedAroundAxis@MFnVolumeAxisField@@QEAA?AVMStatus@@N@Z
?setSpeedAwayFromAxis@MFnVolumeAxisField@@QEAA?AVMStatus@@N@Z
?setSpeedAwayFromCenter@MFnVolumeAxisField@@QEAA?AVMStatus@@N@Z
?setSpread@MFnAirField@@QEAA?AVMStatus@@N@Z
?setStartPressure@MnCloth@@QEAA?AVMStatus@@M@Z
?setStartTime@MnSolver@@QEAA?AVMStatus@@M@Z
?setStretchAndCompressionResistance@MnCloth@@QEAA?AVMStatus@@MM@Z
?setStretchAndCompressionResistance@MnCloth@@QEAA?AVMStatus@@PEAM0@Z
?setSubsteps@MnSolver@@QEAA?AVMStatus@@H@Z
?setSurfaceTension@MnParticle@@QEAA?AVMStatus@@M@Z
?setSurfaceTension@MnParticle@@QEAA?AVMStatus@@PEAM@Z
?setTangentialDrag@MnCloth@@QEAA?AVMStatus@@M@Z
?setTemperatureMode@MFnFluid@@QEAA?AVMStatus@@W4FluidMethod@1@W4FluidGradient@1@@Z
?setThickness@MnCloth@@QEAA?AVMStatus@@M@Z
?setThickness@MnCloth@@QEAA?AVMStatus@@PEAM@Z
?setThickness@MnParticle@@QEAA?AVMStatus@@M@Z
?setThickness@MnParticle@@QEAA?AVMStatus@@PEAM@Z
?setThickness@MnRigid@@QEAA?AVMStatus@@M@Z
?setThickness@MnRigid@@QEAA?AVMStatus@@PEAM@Z
?setTopology@MnCloth@@QEAA?AVMStatus@@HPEAH0H0@Z
?setTopology@MnParticle@@QEAA?AVMStatus@@H@Z
?setTopology@MnRigid@@QEAA?AVMStatus@@HPEAH0H0@Z
?setTrackVolume@MnCloth@@QEAA?AVMStatus@@_N@Z
?setTurbulence@MFnVolumeAxisField@@QEAA?AVMStatus@@N@Z
?setTurbulenceFrequency@MFnVolumeAxisField@@QEAA?AVMStatus@@AEBVMVector@@@Z
?setTurbulenceOffset@MFnVolumeAxisField@@QEAA?AVMStatus@@AEBVMVector@@@Z
?setTurbulenceSpeed@MFnVolumeAxisField@@QEAA?AVMStatus@@N@Z
?setType@MFnRadialField@@QEAA?AVMStatus@@N@Z
?setUseDirection@MFnDragField@@QEAA?AVMStatus@@_N@Z
?setUseMaxDistance@MFnField@@QEAA?AVMStatus@@_N@Z
?setVelocities@MnCloth@@QEAA?AVMStatus@@AEBVMFloatPointArray@@@Z
?setVelocities@MnParticle@@QEAA?AVMStatus@@AEBVMFloatPointArray@@@Z
?setVelocities@MnRigid@@QEAA?AVMStatus@@AEBVMFloatPointArray@@@Z
?setVelocityMode@MFnFluid@@QEAA?AVMStatus@@W4FluidMethod@1@W4FluidGradient@1@@Z
?setViscosity@MnParticle@@QEAA?AVMStatus@@M@Z
?setViscosity@MnParticle@@QEAA?AVMStatus@@PEAM@Z
?setWindDir@MnSolver@@QEAA?AVMStatus@@MMM@Z
?setWindNoiseIntensity@MnSolver@@QEAA?AVMStatus@@M@Z
?setWindSpeed@MnSolver@@QEAA?AVMStatus@@M@Z
?shouldBeWritten@THdynEmitter@@UEAA_NAEAVTplug@@_N1@Z
?shouldBeWritten@THdynField@@UEAA_NAEAVTplug@@_N1@Z
?shouldBeWritten@THdynSpring@@UEAA_NAEAVTplug@@_N1@Z
?shouldBeWritten@THfluidEmitter@@UEAA_NAEAVTplug@@_N1@Z
?solve@MnSolver@@QEAA?AVMStatus@@M@Z
?speed@MFnAirField@@QEBANPEAVMStatus@@@Z
?speedAlongAxis@MFnVolumeAxisField@@QEBANPEAVMStatus@@@Z
?speedAroundAxis@MFnVolumeAxisField@@QEBANPEAVMStatus@@@Z
?speedAwayFromAxis@MFnVolumeAxisField@@QEBANPEAVMStatus@@@Z
?speedAwayFromCenter@MFnVolumeAxisField@@QEBANPEAVMStatus@@@Z
?spread@MFnAirField@@QEBANPEAVMStatus@@@Z
?standardAttrs@THdynEmitter@@UEAAAEAVTattributeList@@XZ
?standardAttrs@THdynEmitter@@UEBAAEBVTattributeList@@XZ
?standardAttrs@THdynField@@UEAAAEAVTattributeList@@XZ
?standardAttrs@THdynField@@UEBAAEBVTattributeList@@XZ
?standardAttrs@THdynSpring@@UEAAAEAVTattributeList@@XZ
?standardAttrs@THdynSpring@@UEBAAEBVTattributeList@@XZ
?standardAttrs@THfluidEmitter@@UEAAAEAVTattributeList@@XZ
?standardAttrs@THfluidEmitter@@UEBAAEBVTattributeList@@XZ
?standardOffsets@THdynEmitter@@UEBAAEBVTuInt32Array@@XZ
?standardOffsets@THdynField@@UEBAAEBVTuInt32Array@@XZ
?standardOffsets@THdynSpring@@UEBAAEBVTuInt32Array@@XZ
?standardOffsets@THfluidEmitter@@UEBAAEBVTuInt32Array@@XZ
?surfaceShading@MFnParticleSystem@@QEBANXZ
?sweptLine@MFnDynSweptGeometryData@@QEBA?AVMDynSweptLine@@HPEAVMStatus@@@Z
?sweptTriangle@MFnDynSweptGeometryData@@QEBA?AVMDynSweptTriangle@@HPEAVMStatus@@@Z
?tailSize@MFnParticleSystem@@QEBANXZ
?tangent@MDynSweptLine@@QEAA?AVMVector@@N@Z
?temperature@MFnFluid@@QEAAPEAMPEAVMStatus@@@Z
?threshold@MFnParticleSystem@@QEBANXZ
?time@MPxParticleAttributeMapperNode@@2VMObject@@A
?toGridIndex@MFnFluid@@QEAA_NAEBVMPoint@@AEAY02HPEAVMStatus@@@Z
?triangleCount@MFnDynSweptGeometryData@@QEBAHPEAVMStatus@@@Z
?turbulence@MFnVolumeAxisField@@QEBANPEAVMStatus@@@Z
?turbulence@MPxFluidEmitterNode@@QEAANAEAVMDataBlock@@@Z
?turbulenceFrequency@MFnVolumeAxisField@@QEBA?AVMVector@@PEAVMStatus@@@Z
?turbulenceOffset@MFnVolumeAxisField@@QEBA?AVMVector@@PEAVMStatus@@@Z
?turbulenceSpeed@MFnVolumeAxisField@@QEBANPEAVMStatus@@@Z
?type@MFnAirField@@UEBA?AW4Type@MFn@@XZ
?type@MFnDragField@@UEBA?AW4Type@MFn@@XZ
?type@MFnDynSweptGeometryData@@UEBA?AW4Type@MFn@@XZ
?type@MFnField@@UEBA?AW4Type@MFn@@XZ
?type@MFnFluid@@UEBA?AW4Type@MFn@@XZ
?type@MFnGravityField@@UEBA?AW4Type@MFn@@XZ
?type@MFnInstancer@@UEBA?AW4Type@MFn@@XZ
?type@MFnNIdData@@UEBA?AW4Type@MFn@@XZ
?type@MFnNObjectData@@UEBA?AW4Type@MFn@@XZ
?type@MFnNewtonField@@UEBA?AW4Type@MFn@@XZ
?type@MFnParticleSystem@@UEBA?AW4Type@MFn@@XZ
?type@MFnPfxGeometry@@UEBA?AW4Type@MFn@@XZ
?type@MFnRadialField@@UEBA?AW4Type@MFn@@XZ
?type@MFnTurbulenceField@@UEBA?AW4Type@MFn@@XZ
?type@MFnUniformField@@UEBA?AW4Type@MFn@@XZ
?type@MFnVolumeAxisField@@UEBA?AW4Type@MFn@@XZ
?type@MFnVortexField@@UEBA?AW4Type@MFn@@XZ
?type@MPxEmitterNode@@UEBA?AW4Type@MPxNode@@XZ
?type@MPxFieldNode@@UEBA?AW4Type@MPxNode@@XZ
?type@MPxFluidEmitterNode@@UEBA?AW4Type@MPxNode@@XZ
?type@MPxParticleAttributeMapperNode@@UEBA?AW4Type@MPxNode@@XZ
?type@MPxSpringNode@@UEBA?AW4Type@MPxNode@@XZ
?typeName@THdynEmitter@@UEBA?AVTstring@@XZ
?typeName@THdynField@@UEBA?AVTstring@@XZ
?typeName@THdynSpring@@UEBA?AVTstring@@XZ
?typeName@THfluidEmitter@@UEBA?AVTstring@@XZ
?typeof@THdynEmitter@@UEBAPEAVTmetaclass@@XZ
?typeof@THdynField@@UEBAPEAVTmetaclass@@XZ
?typeof@THdynSpring@@UEBAPEAVTmetaclass@@XZ
?typeof@THfluidEmitter@@UEBAPEAVTmetaclass@@XZ
?uCoordPP@MPxParticleAttributeMapperNode@@2VMObject@@A
?unregisterCollisionSolverCollide@MHairSystem@@SA?AVMStatus@@XZ
?unregisterCollisionSolverPreFrame@MHairSystem@@SA?AVMStatus@@XZ
?updateConstGeomPtr@MFnFluid@@IEBAPEAXXZ
?updateGeomPtr@MFnFluid@@IEAAPEAXXZ
?updateGrid@MFnFluid@@QEAA?AVMStatus@@XZ
?useDirection@MFnDragField@@QEBA_NPEAVMStatus@@@Z
?useMaxDistance@MFnField@@QEBA_NPEAVMStatus@@@Z
?userNodeValid@THdynEmitter@@QEBA_NXZ
?userNodeValid@THdynField@@QEBA_NXZ
?userNodeValid@THdynSpring@@QEBA_NXZ
?userNodeValid@THfluidEmitter@@QEBA_NXZ
?uvPoint@MDynSweptTriangle@@QEAA?AVMVector@@H@Z
?vCoordPP@MPxParticleAttributeMapperNode@@2VMObject@@A
?velocity@MFnParticleSystem@@QEBAXAEAVMVectorArray@@@Z
?velocityGridSizes@MFnFluid@@QEAA?AVMStatus@@AEAH00@Z
?vertex@MDynSweptLine@@QEAA?AVMVector@@HN@Z
?vertex@MDynSweptTriangle@@QEAA?AVMVector@@HN@Z
?visibleInReflections@MFnParticleSystem@@QEBA_NXZ
?visibleInRefractions@MFnParticleSystem@@QEBA_NXZ
?volumePrimitiveBoundingBox@MPxEmitterNode@@QEAA_NAEAVMBoundingBox@@@Z
?volumePrimitiveDistanceFromAxis@MPxEmitterNode@@QEAANAEBVMPoint@@AEBVMMatrix@@@Z
?volumePrimitivePointInside@MPxEmitterNode@@QEAA_NAEBVMPoint@@AEBVMMatrix@@@Z
?voxelCenterPosition@MFnFluid@@QEAA?AVMStatus@@HHHAEAVMPoint@@@Z
?vsData@THdynEmitter@@UEBAAEAVTdependNodeVS@@XZ
?vsData@THdynField@@UEBAAEAVTdependNodeVS@@XZ
?vsData@THdynSpring@@UEBAAEAVTdependNodeVS@@XZ
?vsData@THfluidEmitter@@UEBAAEAVTdependNodeVS@@XZ
