LIBRARY OPENMAYARENDER
EXPORTS
??$checkType@VMPxComponentConverter@MHWRender@@@MPyUtil@@SA_NPEAU_object@@_N@Z
??$checkType@VMPxDrawOverride@MHWRender@@@MPyUtil@@SA_NPEAU_object@@_N@Z
??$checkType@VMPxGeometryOverride@MHWRender@@@MPyUtil@@SA_NPEAU_object@@_N@Z
??$checkType@VMPxIndexBufferMutator@MHWRender@@@MPyUtil@@SA_NPEAU_object@@_N@Z
??$checkType@VMPxPrimitiveGenerator@MHWRender@@@MPyUtil@@SA_NPEAU_object@@_N@Z
??$checkType@VMPxShaderOverride@MHWRender@@@MPyUtil@@SA_NPEAU_object@@_N@Z
??$checkType@VMPxShadingNodeOverride@MHWRender@@@MPyUtil@@SA_NPEAU_object@@_N@Z
??$checkType@VMPxSubSceneOverride@MHWRender@@@MPyUtil@@SA_NPEAU_object@@_N@Z
??$checkType@VMPxSurfaceShadingNodeOverride@MHWRender@@@MPyUtil@@SA_NPEAU_object@@_N@Z
??$checkType@VMPxVertexBufferGenerator@MHWRender@@@MPyUtil@@SA_NPEAU_object@@_N@Z
??$checkType@VMPxVertexBufferMutator@MHWRender@@@MPyUtil@@SA_NPEAU_object@@_N@Z
??$checkType@W4DataType@MGeometry@MHWRender@@@MPyUtil@@SA_NPEAU_object@@_N@Z
??$checkType@W4DrawMode@MGeometry@MHWRender@@@MPyUtil@@SA_NPEAU_object@@_N@Z
??$checkType@W4IndexType@MIndexBufferDescriptor@MHWRender@@@MPyUtil@@SA_NPEAU_object@@_N@Z
??$checkType@W4Primitive@MGeometry@MHWRender@@@MPyUtil@@SA_NPEAU_object@@_N@Z
??$checkType@W4RenderItemType@MRenderItem@MHWRender@@@MPyUtil@@SA_NPEAU_object@@_N@Z
??$checkType@W4SelectionLevel@MSelectionContext@MHWRender@@@MPyUtil@@SA_NPEAU_object@@_N@Z
??$checkType@W4Semantic@MGeometry@MHWRender@@@MPyUtil@@SA_NPEAU_object@@_N@Z
??$objectToValue@PEAVMPxComponentConverter@MHWRender@@@MPyUtil@@SAPEAVMPxComponentConverter@MHWRender@@PEAU_object@@_N@Z
??$objectToValue@PEAVMPxDrawOverride@MHWRender@@@MPyUtil@@SAPEAVMPxDrawOverride@MHWRender@@PEAU_object@@_N@Z
??$objectToValue@PEAVMPxGeometryOverride@MHWRender@@@MPyUtil@@SAPEAVMPxGeometryOverride@MHWRender@@PEAU_object@@_N@Z
??$objectToValue@PEAVMPxIndexBufferMutator@MHWRender@@@MPyUtil@@SAPEAVMPxIndexBufferMutator@MHWRender@@PEAU_object@@_N@Z
??$objectToValue@PEAVMPxPrimitiveGenerator@MHWRender@@@MPyUtil@@SAPEAVMPxPrimitiveGenerator@MHWRender@@PEAU_object@@_N@Z
??$objectToValue@PEAVMPxShaderOverride@MHWRender@@@MPyUtil@@SAPEAVMPxShaderOverride@MHWRender@@PEAU_object@@_N@Z
??$objectToValue@PEAVMPxShadingNodeOverride@MHWRender@@@MPyUtil@@SAPEAVMPxShadingNodeOverride@MHWRender@@PEAU_object@@_N@Z
??$objectToValue@PEAVMPxSubSceneOverride@MHWRender@@@MPyUtil@@SAPEAVMPxSubSceneOverride@MHWRender@@PEAU_object@@_N@Z
??$objectToValue@PEAVMPxSurfaceShadingNodeOverride@MHWRender@@@MPyUtil@@SAPEAVMPxSurfaceShadingNodeOverride@MHWRender@@PEAU_object@@_N@Z
??$objectToValue@PEAVMPxVertexBufferGenerator@MHWRender@@@MPyUtil@@SAPEAVMPxVertexBufferGenerator@MHWRender@@PEAU_object@@_N@Z
??$objectToValue@PEAVMPxVertexBufferMutator@MHWRender@@@MPyUtil@@SAPEAVMPxVertexBufferMutator@MHWRender@@PEAU_object@@_N@Z
??$objectToValue@W4DataType@MGeometry@MHWRender@@@MPyUtil@@SA?AW4DataType@MGeometry@MHWRender@@PEAU_object@@_N@Z
??$objectToValue@W4DrawMode@MGeometry@MHWRender@@@MPyUtil@@SA?AW4DrawMode@MGeometry@MHWRender@@PEAU_object@@_N@Z
??$objectToValue@W4IndexType@MIndexBufferDescriptor@MHWRender@@@MPyUtil@@SA?AW4IndexType@MIndexBufferDescriptor@MHWRender@@PEAU_object@@_N@Z
??$objectToValue@W4Primitive@MGeometry@MHWRender@@@MPyUtil@@SA?AW4Primitive@MGeometry@MHWRender@@PEAU_object@@_N@Z
??$objectToValue@W4RenderItemType@MRenderItem@MHWRender@@@MPyUtil@@SA?AW4RenderItemType@MRenderItem@MHWRender@@PEAU_object@@_N@Z
??$objectToValue@W4SelectionLevel@MSelectionContext@MHWRender@@@MPyUtil@@SA?AW4SelectionLevel@MSelectionContext@MHWRender@@PEAU_object@@_N@Z
??$objectToValue@W4Semantic@MGeometry@MHWRender@@@MPyUtil@@SA?AW4Semantic@MGeometry@MHWRender@@PEAU_object@@_N@Z
??$valueToObject@W4DataType@MGeometry@MHWRender@@@MPyUtil@@SAPEAU_object@@W4DataType@MGeometry@MHWRender@@@Z
??$valueToObject@W4DrawMode@MGeometry@MHWRender@@@MPyUtil@@SAPEAU_object@@W4DrawMode@MGeometry@MHWRender@@@Z
??$valueToObject@W4IndexType@MIndexBufferDescriptor@MHWRender@@@MPyUtil@@SAPEAU_object@@W4IndexType@MIndexBufferDescriptor@MHWRender@@@Z
??$valueToObject@W4Primitive@MGeometry@MHWRender@@@MPyUtil@@SAPEAU_object@@W4Primitive@MGeometry@MHWRender@@@Z
??$valueToObject@W4RenderItemType@MRenderItem@MHWRender@@@MPyUtil@@SAPEAU_object@@W4RenderItemType@MRenderItem@MHWRender@@@Z
??$valueToObject@W4SelectionLevel@MSelectionContext@MHWRender@@@MPyUtil@@SAPEAU_object@@W4SelectionLevel@MSelectionContext@MHWRender@@@Z
??$valueToObject@W4Semantic@MGeometry@MHWRender@@@MPyUtil@@SAPEAU_object@@W4Semantic@MGeometry@MHWRender@@@Z
??0?$MPyMSwatchRenderBase_DirectorImpl@VMSwatchRenderBase@@@@QEAA@AEBV0@@Z
??0?$MPyMSwatchRenderBase_DirectorImpl@VMSwatchRenderBase@@@@QEAA@PEAU_object@@VMObject@@1H@Z
??0ConstIterator@MSubSceneContainer@MHWRender@@IEAA@PEBXPEAX@Z
??0Iterator@MSubSceneContainer@MHWRender@@IEAA@PEBXPEAX@Z
??0MAttributeParameterMapping@MHWRender@@AEAA@AEBV01@@Z
??0MAttributeParameterMapping@MHWRender@@AEAA@PEAX@Z
??0MAttributeParameterMapping@MHWRender@@QEAA@AEBVMString@@0_N1@Z
??0MAttributeParameterMappingList@MHWRender@@AEAA@AEBV01@@Z
??0MAttributeParameterMappingList@MHWRender@@QEAA@XZ
??0MBlendState@MHWRender@@AEAA@PEAX@Z
??0MBlendState@MHWRender@@AEAA@XZ
??0MBlendStateDesc@MHWRender@@QEAA@AEBV01@@Z
??0MBlendStateDesc@MHWRender@@QEAA@XZ
??0MCameraOverride@MHWRender@@QEAA@AEBV01@@Z
??0MCameraOverride@MHWRender@@QEAA@XZ
??0MClearOperation@MHWRender@@AEAA@AEBVMString@@@Z
??0MClearOperation@MHWRender@@AEAA@XZ
??0MClearOperation@MHWRender@@QEAA@AEBV01@@Z
??0MColorTransformData@MColorManagementUtilities@@QEAA@XZ
??0MCommonRenderSettingsData@@QEAA@AEBV0@@Z
??0MCommonRenderSettingsData@@QEAA@XZ
??0MComponentDataIndexing@MHWRender@@AEAA@AEAVMUintArray@@W4MComponentType@01@@Z
??0MComponentDataIndexing@MHWRender@@AEAA@AEBV01@@Z
??0MComponentDataIndexingList@MHWRender@@AEAA@AEBV01@@Z
??0MComponentDataIndexingList@MHWRender@@QEAA@XZ
??0MDepthStencilState@MHWRender@@AEAA@PEAX@Z
??0MDepthStencilState@MHWRender@@AEAA@XZ
??0MDepthStencilStateDesc@MHWRender@@QEAA@AEBV01@@Z
??0MDepthStencilStateDesc@MHWRender@@QEAA@XZ
??0MDrawContext@MHWRender@@AEAA@XZ
??0MDrawContext@MHWRender@@QEAA@AEBV01@@Z
??0MDrawProcedureBase@@IEAA@XZ
??0MDrawProcedureBase@@QEAA@AEBV0@@Z
??0MDrawProcedureBase@@QEAA@AEBVMString@@@Z
??0MDrawRegistry@MHWRender@@AEAA@XZ
??0MFnAdskMaterial@@QEAA@AEAVMObject@@PEAVMStatus@@@Z
??0MFnAdskMaterial@@QEAA@AEBVMObject@@PEAVMStatus@@@Z
??0MFnAdskMaterial@@QEAA@XZ
??0MFnImageSource@@QEAA@AEAVMObject@@PEAVMStatus@@@Z
??0MFnImageSource@@QEAA@AEBVMObject@@PEAVMStatus@@@Z
??0MFnImageSource@@QEAA@XZ
??0MFnRenderLayer@@QEAA@AEAVMObject@@PEAVMStatus@@@Z
??0MFnRenderLayer@@QEAA@AEBVMObject@@PEAVMStatus@@@Z
??0MFnRenderLayer@@QEAA@XZ
??0MFnRenderPass@@QEAA@AEAVMObject@@PEAVMStatus@@@Z
??0MFnRenderPass@@QEAA@AEBVMObject@@PEAVMStatus@@@Z
??0MFnRenderPass@@QEAA@XZ
??0MFragmentManager@MHWRender@@AEAA@XZ
??0MFrameContext@MHWRender@@IEAA@XZ
??0MFrameContext@MHWRender@@QEAA@AEBV01@@Z
??0MGLFunctionTable@@IEAA@XZ
??0MGLFunctionTable@@QEAA@AEBV0@@Z
??0MGeometry@@IEAA@PEAX0@Z
??0MGeometry@@IEAA@XZ
??0MGeometry@@QEAA@AEBV0@@Z
??0MGeometry@MHWRender@@AEAA@AEBV01@@Z
??0MGeometry@MHWRender@@AEAA@XZ
??0MGeometryData@@IEAA@PEAX@Z
??0MGeometryData@@IEAA@XZ
??0MGeometryData@@QEAA@AEBV0@@Z
??0MGeometryData@@QEAA@PEBDW4DataType@0@W4ElementType@0@W4ElementSize@0@IPEAX_N@Z
??0MGeometryExtractor@MHWRender@@QEAA@AEBVMGeometryRequirements@1@AEBVMDagPath@@HPEAVMStatus@@@Z
??0MGeometryExtractor@MHWRender@@QEAA@AEBVMGeometryRequirements@1@AEBVMDagPath@@_NPEAVMStatus@@@Z
??0MGeometryIndexMapping@MHWRender@@QEAA@XZ
??0MGeometryList@@IEAA@PEAXHPEBX@Z
??0MGeometryList@@QEAA@AEBV0@@Z
??0MGeometryList@@QEAA@AEBVMRenderingInfo@@H@Z
??0MGeometryPrimitive@@IEAA@PEAX@Z
??0MGeometryPrimitive@@IEAA@XZ
??0MGeometryPrimitive@@QEAA@AEBV0@@Z
??0MGeometryRequirements@@AEAA@AEBV0@@Z
??0MGeometryRequirements@@AEAA@PEAX@Z
??0MGeometryRequirements@@QEAA@XZ
??0MGeometryRequirements@MHWRender@@QEAA@XZ
??0MHUDRender@MHWRender@@QEAA@AEBV01@@Z
??0MHUDRender@MHWRender@@QEAA@XZ
??0MHardwareRenderer@@IEAA@XZ
??0MHwrCallback@@QEAA@AEBV0@@Z
??0MHwrCallback@@QEAA@XZ
??0MIndexBuffer@MHWRender@@QEAA@AEBV01@@Z
??0MIndexBuffer@MHWRender@@QEAA@W4DataType@MGeometry@1@@Z
??0MIndexBufferDescriptor@MHWRender@@QEAA@AEBV01@@Z
??0MIndexBufferDescriptor@MHWRender@@QEAA@W4IndexType@01@AEBVMString@@W4Primitive@MGeometry@1@IVMObject@@W4DataType@51@@Z
??0MIndexBufferDescriptor@MHWRender@@QEAA@XZ
??0MIndexBufferDescriptorList@MHWRender@@AEAA@AEBV01@@Z
??0MIndexBufferDescriptorList@MHWRender@@QEAA@XZ
??0MIntersection@MHWRender@@AEAA@PEAX@Z
??0MLightLinks@@QEAA@XZ
??0MLightParameterInformation@MHWRender@@AEAA@PEAX00@Z
??0MPassContext@MHWRender@@AEAA@XZ
??0MPassContext@MHWRender@@QEAA@AEBV01@@Z
??0MPresentTarget@MHWRender@@QEAA@AEBV01@@Z
??0MPresentTarget@MHWRender@@QEAA@AEBVMString@@@Z
??0MPxComponentConverter@MHWRender@@QEAA@AEBV01@@Z
??0MPxComponentConverter@MHWRender@@QEAA@XZ
??0MPxDrawOverride@MHWRender@@QEAA@AEBV01@@Z
??0MPxDrawOverride@MHWRender@@QEAA@AEBVMObject@@P6AXAEBVMDrawContext@1@PEBVMUserData@@@Z@Z
??0MPxGeometryOverride@MHWRender@@AEAA@XZ
??0MPxGeometryOverride@MHWRender@@QEAA@AEBV01@@Z
??0MPxGeometryOverride@MHWRender@@QEAA@AEBVMObject@@@Z
??0MPxIndexBufferMutator@MHWRender@@QEAA@AEBV01@@Z
??0MPxIndexBufferMutator@MHWRender@@QEAA@XZ
??0MPxPrimitiveGenerator@MHWRender@@QEAA@AEBV01@@Z
??0MPxPrimitiveGenerator@MHWRender@@QEAA@XZ
??0MPxRenderer@@IEAA@XZ
??0MPxRenderer@@QEAA@AEBV0@@Z
??0MPxShaderOverride@MHWRender@@QEAA@AEBV01@@Z
??0MPxShaderOverride@MHWRender@@QEAA@AEBVMObject@@@Z
??0MPxShadingNodeOverride@MHWRender@@QEAA@AEBV01@@Z
??0MPxShadingNodeOverride@MHWRender@@QEAA@AEBVMObject@@@Z
??0MPxSubSceneOverride@MHWRender@@QEAA@AEBV01@@Z
??0MPxSubSceneOverride@MHWRender@@QEAA@AEBVMObject@@@Z
??0MPxSurfaceShadingNodeOverride@MHWRender@@QEAA@AEBV01@@Z
??0MPxSurfaceShadingNodeOverride@MHWRender@@QEAA@AEBVMObject@@@Z
??0MPxVertexBufferGenerator@MHWRender@@QEAA@AEBV01@@Z
??0MPxVertexBufferGenerator@MHWRender@@QEAA@XZ
??0MPxVertexBufferMutator@MHWRender@@QEAA@AEBV01@@Z
??0MPxVertexBufferMutator@MHWRender@@QEAA@XZ
??0MPyMSwatchRenderBase_Director@@QEAA@AEBV0@@Z
??0MPyMSwatchRenderBase_Director@@QEAA@PEAU_object@@VMObject@@1H@Z
??0MPyMSwatchRenderBase_DirectorBase@@QEAA@AEBV0@@Z
??0MPyMSwatchRenderBase_DirectorBase@@QEAA@PEAU_object@@@Z
??0MQuadRender@MHWRender@@QEAA@AEBV01@@Z
??0MQuadRender@MHWRender@@QEAA@AEBVMString@@@Z
??0MRasterizerState@MHWRender@@AEAA@PEAX@Z
??0MRasterizerState@MHWRender@@AEAA@XZ
??0MRasterizerStateDesc@MHWRender@@QEAA@AEBV01@@Z
??0MRasterizerStateDesc@MHWRender@@QEAA@XZ
??0MRenderCallback@@QEAA@AEBV0@@Z
??0MRenderCallback@@QEAA@XZ
??0MRenderData@@QEAA@AEBV0@@Z
??0MRenderData@@QEAA@XZ
??0MRenderItem@MHWRender@@AEAA@AEBV01@@Z
??0MRenderItem@MHWRender@@AEAA@AEBVMString@@W4RenderItemType@01@W4Primitive@MGeometry@1@@Z
??0MRenderItem@MHWRender@@AEAA@XZ
??0MRenderItemList@MHWRender@@AEAA@AEBV01@@Z
??0MRenderItemList@MHWRender@@AEAA@XZ
??0MRenderOperation@MHWRender@@IEAA@AEBVMString@@@Z
??0MRenderOperation@MHWRender@@IEAA@XZ
??0MRenderOperation@MHWRender@@QEAA@AEBV01@@Z
??0MRenderOverride@MHWRender@@AEAA@XZ
??0MRenderOverride@MHWRender@@QEAA@AEBV01@@Z
??0MRenderOverride@MHWRender@@QEAA@AEBVMString@@@Z
??0MRenderProfile@@QEAA@XZ
??0MRenderShadowData@@QEAA@AEBV0@@Z
??0MRenderShadowData@@QEAA@XZ
??0MRenderTarget@@AEAA@XZ
??0MRenderTarget@MHWRender@@AEAA@PEAXPEAI_N@Z
??0MRenderTargetDescription@MHWRender@@QEAA@AEBV01@@Z
??0MRenderTargetDescription@MHWRender@@QEAA@AEBVMString@@IIIW4MRasterFormat@1@I_N@Z
??0MRenderTargetDescription@MHWRender@@QEAA@XZ
??0MRenderTargetManager@MHWRender@@AEAA@PEAI@Z
??0MRenderer@MHWRender@@AEAA@XZ
??0MRenderingInfo@@AEAA@XZ
??0MRenderingInfo@@QEAA@AEBV0@@Z
??0MSamplerState@MHWRender@@AEAA@PEAX@Z
??0MSamplerState@MHWRender@@AEAA@XZ
??0MSamplerStateDesc@MHWRender@@QEAA@AEBV01@@Z
??0MSamplerStateDesc@MHWRender@@QEAA@XZ
??0MSceneRender@MHWRender@@QEAA@AEBV01@@Z
??0MSceneRender@MHWRender@@QEAA@AEBVMString@@@Z
??0MSelectionContext@MHWRender@@AEAA@PEAX@Z
??0MSelectionContext@MHWRender@@QEAA@AEBV01@@Z
??0MSelectionInfo@MHWRender@@AEAA@PEAX@Z
??0MShaderInstance@MHWRender@@AEAA@PEAXP6AXAEAVMDrawContext@1@AEBVMRenderItemList@1@PEAV01@@Z4@Z
??0MShaderManager@MHWRender@@AEAA@XZ
??0MStateManager@MHWRender@@AEAA@PEAX@Z
??0MStencilOpDesc@MHWRender@@QEAA@AEBV01@@Z
??0MStencilOpDesc@MHWRender@@QEAA@XZ
??0MSubSceneContainer@MHWRender@@AEAA@AEBV01@@Z
??0MSubSceneContainer@MHWRender@@AEAA@PEAX@Z
??0MSwatchRenderBase@@QEAA@AEBV0@@Z
??0MSwatchRenderBase@@QEAA@VMObject@@0H@Z
??0MTargetBlendDesc@MHWRender@@QEAA@AEBV01@@Z
??0MTargetBlendDesc@MHWRender@@QEAA@XZ
??0MTexture@MHWRender@@AEAA@AEBVMString@@PEAX@Z
??0MTexture@MHWRender@@QEAA@AEBV01@@Z
??0MTextureArguments@MHWRender@@QEAA@AEBV01@@Z
??0MTextureArguments@MHWRender@@QEAA@AEBVMString@@H_N0H@Z
??0MTextureManager@MHWRender@@AEAA@PEAI@Z
??0MUIDrawManager@MHWRender@@AEAA@PEAX@Z
??0MUniformParameter@@IEAA@PEAX@Z
??0MUniformParameter@@QEAA@AEBVMString@@W4DataType@0@W4DataSemantic@0@IIPEAX@Z
??0MUniformParameter@@QEAA@XZ
??0MUniformParameterList@@IEAA@PEAX_N@Z
??0MUniformParameterList@@QEAA@XZ
??0MUserRenderOperation@MHWRender@@QEAA@AEBV01@@Z
??0MUserRenderOperation@MHWRender@@QEAA@AEBVMString@@@Z
??0MVaryingParameter@@IEAA@PEAX@Z
??0MVaryingParameter@@QEAA@AEBVMString@@W4MVaryingParameterType@0@HHHW4MVaryingParameterSemantic@0@0_N0@Z
??0MVaryingParameter@@QEAA@AEBVMString@@W4MVaryingParameterType@0@HHW4MVaryingParameterSemantic@0@_N0@Z
??0MVaryingParameter@@QEAA@XZ
??0MVaryingParameterList@@IEAA@PEAX_N@Z
??0MVaryingParameterList@@QEAA@XZ
??0MVertexBuffer@MHWRender@@QEAA@AEBV01@@Z
??0MVertexBuffer@MHWRender@@QEAA@AEBVMVertexBufferDescriptor@1@@Z
??0MVertexBufferArray@MHWRender@@QEAA@XZ
??0MVertexBufferDescriptor@MHWRender@@QEAA@AEBV01@@Z
??0MVertexBufferDescriptor@MHWRender@@QEAA@AEBVMString@@W4Semantic@MGeometry@1@0W4DataType@41@H@Z
??0MVertexBufferDescriptor@MHWRender@@QEAA@AEBVMString@@W4Semantic@MGeometry@1@W4DataType@41@H@Z
??0MVertexBufferDescriptor@MHWRender@@QEAA@XZ
??0MVertexBufferDescriptorList@MHWRender@@AEAA@AEBV01@@Z
??0MVertexBufferDescriptorList@MHWRender@@QEAA@XZ
??0MViewportRenderer@@IEAA@XZ
??0MViewportRenderer@@QEAA@AEBV0@@Z
??0MViewportRenderer@@QEAA@AEBVMString@@@Z
??1?$MPyMSwatchRenderBase_DirectorImpl@VMSwatchRenderBase@@@@UEAA@XZ
??1ConstIterator@MSubSceneContainer@MHWRender@@IEAA@XZ
??1Iterator@MSubSceneContainer@MHWRender@@IEAA@XZ
??1MAttributeParameterMapping@MHWRender@@QEAA@XZ
??1MAttributeParameterMappingList@MHWRender@@QEAA@XZ
??1MBlendState@MHWRender@@AEAA@XZ
??1MBlendStateDesc@MHWRender@@QEAA@XZ
??1MCameraOverride@MHWRender@@QEAA@XZ
??1MClearOperation@MHWRender@@EEAA@XZ
??1MColorManagementUtilities@@AEAA@XZ
??1MColorTransformData@MColorManagementUtilities@@QEAA@XZ
??1MCommonRenderSettingsData@@QEAA@XZ
??1MComponentDataIndexing@MHWRender@@AEAA@XZ
??1MComponentDataIndexingList@MHWRender@@QEAA@XZ
??1MDepthStencilState@MHWRender@@AEAA@XZ
??1MDepthStencilStateDesc@MHWRender@@QEAA@XZ
??1MDrawContext@MHWRender@@EEAA@XZ
??1MDrawProcedureBase@@UEAA@XZ
??1MDrawRegistry@MHWRender@@AEAA@XZ
??1MFnAdskMaterial@@UEAA@XZ
??1MFnImageSource@@UEAA@XZ
??1MFnRenderLayer@@UEAA@XZ
??1MFnRenderPass@@UEAA@XZ
??1MFragmentManager@MHWRender@@AEAA@XZ
??1MFrameContext@MHWRender@@MEAA@XZ
??1MGLFunctionTable@@MEAA@XZ
??1MGeometry@@QEAA@XZ
??1MGeometry@MHWRender@@AEAA@XZ
??1MGeometryData@@QEAA@XZ
??1MGeometryExtractor@MHWRender@@QEAA@XZ
??1MGeometryIndexMapping@MHWRender@@QEAA@XZ
??1MGeometryList@@QEAA@XZ
??1MGeometryManager@@AEAA@XZ
??1MGeometryPrimitive@@QEAA@XZ
??1MGeometryRequirements@@QEAA@XZ
??1MGeometryRequirements@MHWRender@@QEAA@XZ
??1MGeometryUtilities@MHWRender@@AEAA@XZ
??1MHUDRender@MHWRender@@UEAA@XZ
??1MHardwareRenderer@@IEAA@XZ
??1MHwTextureManager@@AEAA@XZ
??1MHwrCallback@@UEAA@XZ
??1MIndexBuffer@MHWRender@@QEAA@XZ
??1MIndexBufferDescriptor@MHWRender@@QEAA@XZ
??1MIndexBufferDescriptorList@MHWRender@@QEAA@XZ
??1MIntersection@MHWRender@@AEAA@XZ
??1MLightLinks@@QEAA@XZ
??1MLightParameterInformation@MHWRender@@IEAA@XZ
??1MPassContext@MHWRender@@AEAA@XZ
??1MPresentTarget@MHWRender@@UEAA@XZ
??1MPxComponentConverter@MHWRender@@UEAA@XZ
??1MPxDrawOverride@MHWRender@@UEAA@XZ
??1MPxGeometryOverride@MHWRender@@UEAA@XZ
??1MPxIndexBufferMutator@MHWRender@@UEAA@XZ
??1MPxPrimitiveGenerator@MHWRender@@UEAA@XZ
??1MPxRenderer@@UEAA@XZ
??1MPxShaderOverride@MHWRender@@UEAA@XZ
??1MPxShadingNodeOverride@MHWRender@@UEAA@XZ
??1MPxSubSceneOverride@MHWRender@@UEAA@XZ
??1MPxSurfaceShadingNodeOverride@MHWRender@@UEAA@XZ
??1MPxVertexBufferGenerator@MHWRender@@UEAA@XZ
??1MPxVertexBufferMutator@MHWRender@@UEAA@XZ
??1MPyMSwatchRenderBase_Director@@UEAA@XZ
??1MPyMSwatchRenderBase_DirectorBase@@UEAA@XZ
??1MQuadRender@MHWRender@@UEAA@XZ
??1MRasterizerState@MHWRender@@AEAA@XZ
??1MRasterizerStateDesc@MHWRender@@QEAA@XZ
??1MRenderCallback@@UEAA@XZ
??1MRenderData@@QEAA@XZ
??1MRenderItem@MHWRender@@AEAA@XZ
??1MRenderItemList@MHWRender@@AEAA@XZ
??1MRenderOperation@MHWRender@@UEAA@XZ
??1MRenderOverride@MHWRender@@UEAA@XZ
??1MRenderProfile@@QEAA@XZ
??1MRenderShadowData@@QEAA@XZ
??1MRenderTarget@@AEAA@XZ
??1MRenderTarget@MHWRender@@AEAA@XZ
??1MRenderTargetDescription@MHWRender@@UEAA@XZ
??1MRenderTargetManager@MHWRender@@AEAA@XZ
??1MRenderUtil@@AEAA@XZ
??1MRenderUtilities@MHWRender@@AEAA@XZ
??1MRenderer@MHWRender@@AEAA@XZ
??1MRenderingInfo@@AEAA@XZ
??1MSamplerState@MHWRender@@AEAA@XZ
??1MSamplerStateDesc@MHWRender@@QEAA@XZ
??1MSceneRender@MHWRender@@UEAA@XZ
??1MSelectionContext@MHWRender@@EEAA@XZ
??1MSelectionInfo@MHWRender@@AEAA@XZ
??1MShaderInstance@MHWRender@@AEAA@XZ
??1MShaderManager@MHWRender@@AEAA@XZ
??1MStateManager@MHWRender@@AEAA@XZ
??1MStencilOpDesc@MHWRender@@QEAA@XZ
??1MSubSceneContainer@MHWRender@@AEAA@XZ
??1MSwatchRenderBase@@UEAA@XZ
??1MTargetBlendDesc@MHWRender@@QEAA@XZ
??1MTexture@MHWRender@@AEAA@XZ
??1MTextureArguments@MHWRender@@QEAA@XZ
??1MTextureManager@MHWRender@@AEAA@XZ
??1MUIDrawManager@MHWRender@@AEAA@XZ
??1MUniformParameter@@QEAA@XZ
??1MUniformParameterList@@QEAA@XZ
??1MUserRenderOperation@MHWRender@@UEAA@XZ
??1MVaryingParameter@@QEAA@XZ
??1MVaryingParameterList@@QEAA@XZ
??1MVertexBuffer@MHWRender@@QEAA@XZ
??1MVertexBufferArray@MHWRender@@QEAA@XZ
??1MVertexBufferDescriptor@MHWRender@@QEAA@XZ
??1MVertexBufferDescriptorList@MHWRender@@QEAA@XZ
??1MViewportRenderer@@UEAA@XZ
??4?$MPyMSwatchRenderBase_DirectorImpl@VMSwatchRenderBase@@@@QEAAAEAV0@AEBV0@@Z
??4?$TiteratorWrapperBase@UConstIteratorDescriptor@TmultiIndexDependNodeSet@@@@QEAAAEAV0@AEBV0@@Z
??4?$TiteratorWrapperBase@UNodesOfBaseNameConstIteratorDescriptor@TmultiIndexDependNodeSet@@@@QEAAAEAV0@AEBV0@@Z
??4?$TiteratorWrapperBase@UNodesOfTypeConstIteratorDescriptor@TmultiIndexDependNodeSet@@@@QEAAAEAV0@AEBV0@@Z
??4?$TiteratorWrapperBidir@UConstIteratorDescriptor@TmultiIndexDependNodeSet@@V?$TiteratorWrapper@UConstIteratorDescriptor@TmultiIndexDependNodeSet@@@@@@QEAAAEAV0@AEBV0@@Z
??4?$TiteratorWrapperBidir@UNodesOfTypeConstIteratorDescriptor@TmultiIndexDependNodeSet@@V?$TiteratorWrapper@UNodesOfTypeConstIteratorDescriptor@TmultiIndexDependNodeSet@@@@@@QEAAAEAV0@AEBV0@@Z
??4?$TiteratorWrapperFwd@UConstIteratorDescriptor@TmultiIndexDependNodeSet@@V?$TiteratorWrapper@UConstIteratorDescriptor@TmultiIndexDependNodeSet@@@@@@QEAAAEAV0@AEBV0@@Z
??4?$TiteratorWrapperFwd@UNodesOfBaseNameConstIteratorDescriptor@TmultiIndexDependNodeSet@@V?$TiteratorWrapper@UNodesOfBaseNameConstIteratorDescriptor@TmultiIndexDependNodeSet@@@@@@QEAAAEAV0@AEBV0@@Z
??4?$TiteratorWrapperFwd@UNodesOfTypeConstIteratorDescriptor@TmultiIndexDependNodeSet@@V?$TiteratorWrapper@UNodesOfTypeConstIteratorDescriptor@TmultiIndexDependNodeSet@@@@@@QEAAAEAV0@AEBV0@@Z
??4ConstIterator@MSubSceneContainer@MHWRender@@IEAAAEAV012@AEBV012@@Z
??4Iterator@MSubSceneContainer@MHWRender@@IEAAAEAV012@AEBV012@@Z
??4MAttributeParameterMapping@MHWRender@@AEAAAEAV01@AEBV01@@Z
??4MAttributeParameterMappingList@MHWRender@@AEAAAEAV01@AEBV01@@Z
??4MBlendState@MHWRender@@QEAAAEAV01@AEBV01@@Z
??4MBlendStateDesc@MHWRender@@QEAAAEAV01@AEBV01@@Z
??4MCameraOverride@MHWRender@@QEAAAEAV01@AEBV01@@Z
??4MClearOperation@MHWRender@@QEAAAEAV01@AEBV01@@Z
??4MColorManagementUtilities@@QEAAAEAV0@AEBV0@@Z
??4MColorTransformData@MColorManagementUtilities@@QEAAAEAV01@AEBV01@@Z
??4MCommonRenderSettingsData@@QEAAAEAV0@AEBV0@@Z
??4MComponentDataIndexing@MHWRender@@AEAAAEAV01@AEBV01@@Z
??4MComponentDataIndexingList@MHWRender@@AEAAAEAV01@AEBV01@@Z
??4MD3D9Renderer@@QEAAAEAV0@AEBV0@@Z
??4MDepthStencilState@MHWRender@@QEAAAEAV01@AEBV01@@Z
??4MDepthStencilStateDesc@MHWRender@@QEAAAEAV01@AEBV01@@Z
??4MDrawContext@MHWRender@@QEAAAEAV01@AEBV01@@Z
??4MDrawProcedureBase@@QEAAAEAV0@AEBV0@@Z
??4MDrawRegistry@MHWRender@@QEAAAEAV01@AEBV01@@Z
??4MFnAdskMaterial@@AEAAAEAV0@AEBV0@@Z
??4MFnImageSource@@AEAAAEAV0@AEBV0@@Z
??4MFnRenderLayer@@AEAAAEAV0@AEBV0@@Z
??4MFnRenderPass@@AEAAAEAV0@AEBV0@@Z
??4MFragmentManager@MHWRender@@QEAAAEAV01@AEBV01@@Z
??4MFrameContext@MHWRender@@QEAAAEAV01@AEBV01@@Z
??4MGLFunctionTable@@QEAAAEAV0@AEBV0@@Z
??4MGeometry@@QEAAAEAV0@AEBV0@@Z
??4MGeometry@MHWRender@@AEAAAEAV01@AEBV01@@Z
??4MGeometryData@@QEAAAEAV0@AEBV0@@Z
??4MGeometryExtractor@MHWRender@@QEAAAEAV01@AEBV01@@Z
??4MGeometryIndexMapping@MHWRender@@QEAAAEAV01@AEBV01@@Z
??4MGeometryList@@QEAAAEAV0@AEBV0@@Z
??4MGeometryManager@@QEAAAEAV0@AEBV0@@Z
??4MGeometryPrimitive@@QEAAAEAV0@AEBV0@@Z
??4MGeometryRequirements@@AEAAAEBV0@AEBV0@@Z
??4MGeometryUtilities@MHWRender@@QEAAAEAV01@AEBV01@@Z
??4MHUDRender@MHWRender@@QEAAAEAV01@AEBV01@@Z
??4MHardwareRenderer@@QEAAAEAV0@AEBV0@@Z
??4MHwTextureManager@@QEAAAEAV0@AEBV0@@Z
??4MHwrCallback@@QEAAAEAV0@AEBV0@@Z
??4MIndexBuffer@MHWRender@@AEAAAEAV01@AEBV01@@Z
??4MIndexBufferDescriptor@MHWRender@@QEAAAEAV01@AEBV01@@Z
??4MIndexBufferDescriptorList@MHWRender@@AEAAAEAV01@AEBV01@@Z
??4MIntersection@MHWRender@@QEAAAEAV01@AEBV01@@Z
??4MLightLinks@@QEAAAEAV0@AEBV0@@Z
??4MLightParameterInformation@MHWRender@@QEAAAEAV01@AEBV01@@Z
??4MPassContext@MHWRender@@QEAAAEAV01@AEBV01@@Z
??4MPresentTarget@MHWRender@@QEAAAEAV01@AEBV01@@Z
??4MPxComponentConverter@MHWRender@@QEAAAEAV01@AEBV01@@Z
??4MPxDrawOverride@MHWRender@@QEAAAEAV01@AEBV01@@Z
??4MPxGeometryOverride@MHWRender@@QEAAAEAV01@AEBV01@@Z
??4MPxIndexBufferMutator@MHWRender@@QEAAAEAV01@AEBV01@@Z
??4MPxPrimitiveGenerator@MHWRender@@QEAAAEAV01@AEBV01@@Z
??4MPxRenderer@@QEAAAEAV0@AEBV0@@Z
??4MPxShaderOverride@MHWRender@@QEAAAEAV01@AEBV01@@Z
??4MPxShadingNodeOverride@MHWRender@@QEAAAEAV01@AEBV01@@Z
??4MPxSubSceneOverride@MHWRender@@QEAAAEAV01@AEBV01@@Z
??4MPxSurfaceShadingNodeOverride@MHWRender@@QEAAAEAV01@AEBV01@@Z
??4MPxVertexBufferGenerator@MHWRender@@QEAAAEAV01@AEBV01@@Z
??4MPxVertexBufferMutator@MHWRender@@QEAAAEAV01@AEBV01@@Z
??4MPyMAttributeParameterMappingList_Type@MHWRender@@QEAAAEAV01@AEBV01@@Z
??4MPyMAttributeParameterMapping_Type@MHWRender@@QEAAAEAV01@AEBV01@@Z
??4MPyMBlendStateDesc_Type@MHWRender@@QEAAAEAV01@AEBV01@@Z
??4MPyMBlendState_Type@MHWRender@@QEAAAEAV01@AEBV01@@Z
??4MPyMCameraOverride_Type@MHWRender@@QEAAAEAV01@AEBV01@@Z
??4MPyMClearOperation_Type@MHWRender@@QEAAAEAV01@AEBV01@@Z
??4MPyMColorManagementUtilities_Type@@QEAAAEAV0@AEBV0@@Z
??4MPyMComponentDataIndexingList_Type@MHWRender@@QEAAAEAV01@AEBV01@@Z
??4MPyMComponentDataIndexing_Type@MHWRender@@QEAAAEAV01@AEBV01@@Z
??4MPyMDepthNormalizationDescription_Type@MHWRender@@QEAAAEAV01@AEBV01@@Z
??4MPyMDepthStencilStateDesc_Type@MHWRender@@QEAAAEAV01@AEBV01@@Z
??4MPyMDepthStencilState_Type@MHWRender@@QEAAAEAV01@AEBV01@@Z
??4MPyMDrawContext_Type@MHWRender@@QEAAAEAV01@AEBV01@@Z
??4MPyMDrawRegistry_Type@MHWRender@@QEAAAEAV01@AEBV01@@Z
??4MPyMFragmentManager_Type@MHWRender@@QEAAAEAV01@AEBV01@@Z
??4MPyMFrameContext_Type@MHWRender@@QEAAAEAV01@AEBV01@@Z
??4MPyMGeometryExtractor_Type@MHWRender@@QEAAAEAV01@AEBV01@@Z
??4MPyMGeometryIndexMapping_Type@MHWRender@@QEAAAEAV01@AEBV01@@Z
??4MPyMGeometryRequirements_Type@MHWRender@@QEAAAEAV01@AEBV01@@Z
??4MPyMGeometryUtilities_Type@MHWRender@@QEAAAEAV01@AEBV01@@Z
??4MPyMGeometry_Type@MHWRender@@QEAAAEAV01@AEBV01@@Z
??4MPyMHUDRender_Type@MHWRender@@QEAAAEAV01@AEBV01@@Z
??4MPyMIndexBufferDescriptorList_Type@MHWRender@@QEAAAEAV01@AEBV01@@Z
??4MPyMIndexBufferDescriptor_Type@MHWRender@@QEAAAEAV01@AEBV01@@Z
??4MPyMIndexBuffer_Type@MHWRender@@QEAAAEAV01@AEBV01@@Z
??4MPyMIntersection_Type@MHWRender@@QEAAAEAV01@AEBV01@@Z
??4MPyMLightParameterInformation_Type@MHWRender@@QEAAAEAV01@AEBV01@@Z
??4MPyMPassContext_Type@MHWRender@@QEAAAEAV01@AEBV01@@Z
??4MPyMPresentTarget_Type@MHWRender@@QEAAAEAV01@AEBV01@@Z
??4MPyMPxComponentConverter_Type@MHWRender@@QEAAAEAV01@AEBV01@@Z
??4MPyMPxDrawOverride_Type@MHWRender@@QEAAAEAV01@AEBV01@@Z
??4MPyMPxGeometryOverride_Type@MHWRender@@QEAAAEAV01@AEBV01@@Z
??4MPyMPxIndexBufferMutator_Type@MHWRender@@QEAAAEAV01@AEBV01@@Z
??4MPyMPxPrimitiveGenerator_Type@MHWRender@@QEAAAEAV01@AEBV01@@Z
??4MPyMPxShaderOverride_MInitContext_Type@MHWRender@@QEAAAEAV01@AEBV01@@Z
??4MPyMPxShaderOverride_MInitFeedback_Type@MHWRender@@QEAAAEAV01@AEBV01@@Z
??4MPyMPxShaderOverride_Type@MHWRender@@QEAAAEAV01@AEBV01@@Z
??4MPyMPxShadingNodeOverride_Type@MHWRender@@QEAAAEAV01@AEBV01@@Z
??4MPyMPxSubSceneOverride_Type@MHWRender@@QEAAAEAV01@AEBV01@@Z
??4MPyMPxSurfaceShadingNodeOverride_Type@MHWRender@@QEAAAEAV01@AEBV01@@Z
??4MPyMPxVertexBufferGenerator_Type@MHWRender@@QEAAAEAV01@AEBV01@@Z
??4MPyMPxVertexBufferMutator_Type@MHWRender@@QEAAAEAV01@AEBV01@@Z
??4MPyMQuadRender_Type@MHWRender@@QEAAAEAV01@AEBV01@@Z
??4MPyMRasterizerStateDesc_Type@MHWRender@@QEAAAEAV01@AEBV01@@Z
??4MPyMRasterizerState_Type@MHWRender@@QEAAAEAV01@AEBV01@@Z
??4MPyMRenderItemList_Type@MHWRender@@QEAAAEAV01@AEBV01@@Z
??4MPyMRenderItem_Type@MHWRender@@QEAAAEAV01@AEBV01@@Z
??4MPyMRenderOperation_Type@MHWRender@@QEAAAEAV01@AEBV01@@Z
??4MPyMRenderOverride_Type@MHWRender@@QEAAAEAV01@AEBV01@@Z
??4MPyMRenderTargetDescription_Type@MHWRender@@QEAAAEAV01@AEBV01@@Z
??4MPyMRenderTargetManager_Type@MHWRender@@QEAAAEAV01@AEBV01@@Z
??4MPyMRenderTarget_Type@MHWRender@@QEAAAEAV01@AEBV01@@Z
??4MPyMRenderUtilities_Type@MHWRender@@QEAAAEAV01@AEBV01@@Z
??4MPyMRenderer_Type@MHWRender@@QEAAAEAV01@AEBV01@@Z
??4MPyMSamplerStateDesc_Type@MHWRender@@QEAAAEAV01@AEBV01@@Z
??4MPyMSamplerState_Type@MHWRender@@QEAAAEAV01@AEBV01@@Z
??4MPyMSceneRender_Type@MHWRender@@QEAAAEAV01@AEBV01@@Z
??4MPyMSelectionContext_Type@MHWRender@@QEAAAEAV01@AEBV01@@Z
??4MPyMSelectionInfo_Type@MHWRender@@QEAAAEAV01@AEBV01@@Z
??4MPyMShaderCompileMacroStub_Type@MHWRender@@QEAAAEAV01@AEBV01@@Z
??4MPyMShaderInstance_Type@MHWRender@@QEAAAEAV01@AEBV01@@Z
??4MPyMShaderManager_Type@MHWRender@@QEAAAEAV01@AEBV01@@Z
??4MPyMStateManager_Type@MHWRender@@QEAAAEAV01@AEBV01@@Z
??4MPyMStencilOpDesc_Type@MHWRender@@QEAAAEAV01@AEBV01@@Z
??4MPyMSubSceneContainerIterator_Type@MHWRender@@QEAAAEAV01@AEBV01@@Z
??4MPyMSubSceneContainer_Type@MHWRender@@QEAAAEAV01@AEBV01@@Z
??4MPyMSwatchRenderBase_Director@@QEAAAEAV0@AEBV0@@Z
??4MPyMSwatchRenderBase_DirectorBase@@QEAAAEAV0@AEBV0@@Z
??4MPyMSwatchRenderBase_Type@@QEAAAEAV0@AEBV0@@Z
??4MPyMTargetBlendDesc_Type@MHWRender@@QEAAAEAV01@AEBV01@@Z
??4MPyMTextureDescription_Type@MHWRender@@QEAAAEAV01@AEBV01@@Z
??4MPyMTextureManager_Type@MHWRender@@QEAAAEAV01@AEBV01@@Z
??4MPyMTextureUpdateRegion_Type@MHWRender@@QEAAAEAV01@AEBV01@@Z
??4MPyMTexture_Type@MHWRender@@QEAAAEAV01@AEBV01@@Z
??4MPyMUIDrawManager_Type@MHWRender@@QEAAAEAV01@AEBV01@@Z
??4MPyMUserRenderOperation_Type@MHWRender@@QEAAAEAV01@AEBV01@@Z
??4MPyMVertexBufferArray_Type@MHWRender@@QEAAAEAV01@AEBV01@@Z
??4MPyMVertexBufferDescriptorList_Type@MHWRender@@QEAAAEAV01@AEBV01@@Z
??4MPyMVertexBufferDescriptor_Type@MHWRender@@QEAAAEAV01@AEBV01@@Z
??4MPyMVertexBuffer_Type@MHWRender@@QEAAAEAV01@AEBV01@@Z
??4MQuadRender@MHWRender@@QEAAAEAV01@AEBV01@@Z
??4MRasterizerState@MHWRender@@QEAAAEAV01@AEBV01@@Z
??4MRasterizerStateDesc@MHWRender@@QEAAAEAV01@AEBV01@@Z
??4MRenderCallback@@QEAAAEAV0@AEBV0@@Z
??4MRenderData@@QEAAAEAV0@AEBV0@@Z
??4MRenderItem@MHWRender@@AEAAAEAV01@AEBV01@@Z
??4MRenderItemList@MHWRender@@AEAAAEAV01@AEBV01@@Z
??4MRenderOperation@MHWRender@@QEAAAEAV01@AEBV01@@Z
??4MRenderOverride@MHWRender@@QEAAAEAV01@AEBV01@@Z
??4MRenderProfile@@QEAAAEAV0@AEBV0@@Z
??4MRenderShadowData@@QEAAAEAV0@AEBV0@@Z
??4MRenderTarget@@QEAAAEAV0@AEBV0@@Z
??4MRenderTarget@MHWRender@@QEAAAEAV01@AEBV01@@Z
??4MRenderTargetDescription@MHWRender@@QEAAAEAV01@AEBV01@@Z
??4MRenderTargetManager@MHWRender@@QEAAAEAV01@AEBV01@@Z
??4MRenderUtil@@QEAAAEAV0@AEBV0@@Z
??4MRenderUtilities@MHWRender@@QEAAAEAV01@AEBV01@@Z
??4MRenderView@@QEAAAEAV0@AEBV0@@Z
??4MRenderingInfo@@QEAAAEAV0@AEBV0@@Z
??4MSamplerState@MHWRender@@QEAAAEAV01@AEBV01@@Z
??4MSamplerStateDesc@MHWRender@@QEAAAEAV01@AEBV01@@Z
??4MSceneRender@MHWRender@@QEAAAEAV01@AEBV01@@Z
??4MSelectionContext@MHWRender@@QEAAAEAV01@AEBV01@@Z
??4MSelectionInfo@MHWRender@@QEAAAEAV01@AEBV01@@Z
??4MShaderInstance@MHWRender@@QEAAAEAV01@AEBV01@@Z
??4MShaderManager@MHWRender@@QEAAAEAV01@AEBV01@@Z
??4MStateManager@MHWRender@@QEAAAEAV01@AEBV01@@Z
??4MStencilOpDesc@MHWRender@@QEAAAEAV01@AEBV01@@Z
??4MSubSceneContainer@MHWRender@@AEAAAEAV01@AEBV01@@Z
??4MSwatchRenderBase@@QEAAAEAV0@AEBV0@@Z
??4MSwatchRenderRegister@@QEAAAEAV0@AEBV0@@Z
??4MTargetBlendDesc@MHWRender@@QEAAAEAV01@AEBV01@@Z
??4MTexture@MHWRender@@QEAAAEAV01@AEBV01@@Z
??4MTextureArguments@MHWRender@@QEAAAEAV01@AEBV01@@Z
??4MTextureManager@MHWRender@@QEAAAEAV01@AEBV01@@Z
??4MUIDrawManager@MHWRender@@QEAAAEAV01@AEBV01@@Z
??4MUniformParameter@@QEAAAEBV0@AEBV0@@Z
??4MUniformParameterList@@QEAAAEBV0@AEBV0@@Z
??4MUserRenderOperation@MHWRender@@QEAAAEAV01@AEBV01@@Z
??4MVaryingParameter@@QEAAAEBV0@AEBV0@@Z
??4MVaryingParameterList@@QEAAAEBV0@AEBV0@@Z
??4MVertexBuffer@MHWRender@@AEAAAEAV01@AEBV01@@Z
??4MVertexBufferArray@MHWRender@@QEAAAEAV01@AEBV01@@Z
??4MVertexBufferDescriptor@MHWRender@@QEAAAEAV01@AEBV01@@Z
??4MVertexBufferDescriptorList@MHWRender@@AEAAAEAV01@AEBV01@@Z
??4MViewportRenderer@@QEAAAEAV0@AEBV0@@Z
??4TapiEnumRender@@QEAAAEAV0@AEBV0@@Z
??AMComponentDataIndexingList@MHWRender@@QEAAPEAVMComponentDataIndexing@1@H@Z
??AMComponentDataIndexingList@MHWRender@@QEBAPEBVMComponentDataIndexing@1@H@Z
??IMFnAdskMaterial@@AEBAPEAV0@XZ
??IMFnImageSource@@AEBAPEAV0@XZ
??IMFnRenderLayer@@AEBAPEAV0@XZ
??IMFnRenderPass@@AEBAPEAV0@XZ
??_7?$MPyMSwatchRenderBase_DirectorImpl@VMSwatchRenderBase@@@@6BMPyMSwatchRenderBase_DirectorBase@@@
??_7?$MPyMSwatchRenderBase_DirectorImpl@VMSwatchRenderBase@@@@6BMSwatchRenderBase@@@
??_7MClearOperation@MHWRender@@6B@
??_7MDrawContext@MHWRender@@6B@
??_7MDrawProcedureBase@@6B@
??_7MFnAdskMaterial@@6B@
??_7MFnImageSource@@6B@
??_7MFnRenderLayer@@6B@
??_7MFnRenderPass@@6B@
??_7MFrameContext@MHWRender@@6B@
??_7MGLFunctionTable@@6B@
??_7MHUDRender@MHWRender@@6B@
??_7MHwrCallback@@6B@
??_7MPresentTarget@MHWRender@@6B@
??_7MPxComponentConverter@MHWRender@@6B@
??_7MPxDrawOverride@MHWRender@@6B@
??_7MPxGeometryOverride@MHWRender@@6B@
??_7MPxIndexBufferMutator@MHWRender@@6B@
??_7MPxPrimitiveGenerator@MHWRender@@6B@
??_7MPxRenderer@@6B@
??_7MPxShaderOverride@MHWRender@@6B@
??_7MPxShadingNodeOverride@MHWRender@@6B@
??_7MPxSubSceneOverride@MHWRender@@6B@
??_7MPxSurfaceShadingNodeOverride@MHWRender@@6B@
??_7MPxVertexBufferGenerator@MHWRender@@6B@
??_7MPxVertexBufferMutator@MHWRender@@6B@
??_7MPyMSwatchRenderBase_Director@@6BMPyMSwatchRenderBase_DirectorBase@@@
??_7MPyMSwatchRenderBase_Director@@6BMSwatchRenderBase@@@
??_7MPyMSwatchRenderBase_DirectorBase@@6B@
??_7MQuadRender@MHWRender@@6B@
??_7MRenderCallback@@6B@
??_7MRenderOperation@MHWRender@@6B@
??_7MRenderOverride@MHWRender@@6B@
??_7MRenderTargetDescription@MHWRender@@6B@
??_7MSceneRender@MHWRender@@6B@
??_7MSelectionContext@MHWRender@@6B@
??_7MSwatchRenderBase@@6B@
??_7MUserRenderOperation@MHWRender@@6B@
??_7MViewportRenderer@@6B@
?Create@MRenderItem@MHWRender@@SAPEAV12@AEBV12@@Z
?Create@MRenderItem@MHWRender@@SAPEAV12@AEBVMString@@W4Primitive@MGeometry@2@W4DrawMode@52@_N@Z
?Create@MRenderItem@MHWRender@@SAPEAV12@AEBVMString@@W4RenderItemType@12@W4Primitive@MGeometry@2@@Z
?Destroy@MRenderItem@MHWRender@@SAXAEAPEAV12@@Z
?GPUDeviceHandle@MRenderer@MHWRender@@QEBAPEAXXZ
?GPUmaximumOutputTargetSize@MRenderer@MHWRender@@QEBAXAEAI0@Z
?GPUmaximumPrimitiveCount@MRenderer@MHWRender@@QEBAIXZ
?GPUmaximumVertexBufferSize@MRenderer@MHWRender@@QEBAIXZ
?MGeometryExtractorConstructHelper@MGeometryExtractor@MHWRender@@AEAAXAEBVMGeometryRequirements@2@AEBVMDagPath@@HPEAVMStatus@@@Z
?UIHidden@MUniformParameter@@QEBA_NXZ
?UIname@MViewportRenderer@@QEBAAEBVMString@@XZ
?acquire@MIndexBuffer@MHWRender@@QEAAPEAXI@Z
?acquire@MIndexBuffer@MHWRender@@QEAAPEAXI_N@Z
?acquire@MVertexBuffer@MHWRender@@QEAAPEAXI@Z
?acquire@MVertexBuffer@MHWRender@@QEAAPEAXI_N@Z
?acquireBlendState@MStateManager@MHWRender@@SAPEBVMBlendState@2@AEBVMBlendStateDesc@2@PEAVMStatus@@@Z
?acquireDepthStencilState@MStateManager@MHWRender@@SAPEBVMDepthStencilState@2@AEBVMDepthStencilStateDesc@2@PEAVMStatus@@@Z
?acquireDepthTexture@MTextureManager@MHWRender@@QEAAPEAVMTexture@2@AEBVMString@@AEBVMImage@@_NPEBVMDepthNormalizationDescription@2@@Z
?acquireDepthTexture@MTextureManager@MHWRender@@QEAAPEAVMTexture@2@AEBVMString@@PEAMII_NPEBVMDepthNormalizationDescription@2@@Z
?acquireRasterizerState@MStateManager@MHWRender@@SAPEBVMRasterizerState@2@AEBVMRasterizerStateDesc@2@PEAVMStatus@@@Z
?acquireReferenceGeometry@MGeometryUtilities@MHWRender@@SAPEAVMGeometry@2@W4GeometricShape@12@AEBVMGeometryRequirements@2@@Z
?acquireRenderTarget@MRenderTargetManager@MHWRender@@QEBAPEAVMRenderTarget@2@AEBVMRenderTargetDescription@2@@Z
?acquireRenderTargetFromScreen@MRenderTargetManager@MHWRender@@QEBAPEAVMRenderTarget@2@AEBVMString@@@Z
?acquireSamplerState@MStateManager@MHWRender@@SAPEBVMSamplerState@2@AEBVMSamplerStateDesc@2@PEAVMStatus@@@Z
?acquireSwatchDrawContext@MRenderUtilities@MHWRender@@SAPEAVMDrawContext@2@PEBVMRenderTarget@2@0@Z
?acquireTexture@MTextureManager@MHWRender@@QEAAPEAVMTexture@2@AEBVMString@@0H_N0H@Z
?acquireTexture@MTextureManager@MHWRender@@QEAAPEAVMTexture@2@AEBVMString@@AEBVMPlug@@HH_N@Z
?acquireTexture@MTextureManager@MHWRender@@QEAAPEAVMTexture@2@AEBVMString@@AEBVMTextureDescription@2@PEBX_N@Z
?acquireTexture@MTextureManager@MHWRender@@QEAAPEAVMTexture@2@AEBVMString@@H_N0H@Z
?acquireTexture@MTextureManager@MHWRender@@QEAAPEAVMTexture@2@AEBVMTextureArguments@2@@Z
?acquireTiledTexture@MTextureManager@MHWRender@@QEAAPEAVMTexture@2@VMString@@AEBVMStringArray@@AEBVMFloatArray@@AEBVMColor@@IIAEAV5@AEAV6@@Z
?acquireUVTextureDrawContext@MRenderUtilities@MHWRender@@SAPEAVMDrawContext@2@PEBVMRenderTarget@2@0@Z
?activateKey@MPxShaderOverride@MHWRender@@UEAAXAEAVMDrawContext@2@@Z
?activateKey@MPxShaderOverride@MHWRender@@UEAAXAEAVMDrawContext@2@AEBVMString@@@Z
?activatePass@MShaderInstance@MHWRender@@QEBA?AVMStatus@@AEBVMDrawContext@2@I@Z
?activeRenderOverride@MRenderer@MHWRender@@QEBA?BVMString@@XZ
?add@MSubSceneContainer@MHWRender@@QEAA_NPEAVMRenderItem@2@@Z
?addBinormal@MGeometryRequirements@@QEAAXAEBVMString@@H@Z
?addBuffer@MVertexBufferArray@MHWRender@@QEAA?AVMStatus@@AEBVMString@@PEAVMVertexBuffer@2@@Z
?addCallback@MHwrCallback@@SAXPEAV1@H@Z
?addCallback@MRenderCallback@@SAXPEAV1@H@Z
?addColor@MGeometryRequirements@@QEAAXAEBVMString@@@Z
?addComponentId@MGeometryRequirements@@QEAAXXZ
?addDrawProcedure@MHardwareRenderer@@QEAA?AW4DrawProcedureStatusCode@1@AEBVMString@@PEAVMDrawProcedureBase@@W4CallLocation@1@@Z
?addElement@MVaryingParameter@@QEAA?AVMStatus@@AEBV1@@Z
?addFaceOffsets@MGeometryRequirements@@QEAAXXZ
?addFragmentGraphFromBuffer@MFragmentManager@MHWRender@@QEAA?AVMString@@PEBD@Z
?addFragmentGraphFromFile@MFragmentManager@MHWRender@@QEAA?AVMString@@AEBV3@@Z
?addFragmentPath@MFragmentManager@MHWRender@@QEAA_NAEBVMString@@@Z
?addGeometryRequirement@MPxShaderOverride@MHWRender@@IEAA?AVMStatus@@AEBVMVertexBufferDescriptor@2@@Z
?addGeometryRequirements@MPxShaderOverride@MHWRender@@IEAA?AVMStatus@@AEBVMVertexBufferDescriptorList@2@@Z
?addImagePath@MTextureManager@MHWRender@@QEAA?AVMStatus@@AEBVMString@@@Z
?addIndexBuffer@MGeometry@MHWRender@@QEAA_NPEAVMIndexBuffer@2@@Z
?addIndexingRequirement@MGeometryRequirements@MHWRender@@QEAAXAEBVMIndexBufferDescriptor@2@@Z
?addIndexingRequirement@MPxShaderOverride@MHWRender@@IEAA?AVMStatus@@AEBVMIndexBufferDescriptor@2@@Z
?addInputFragment@MShaderInstance@MHWRender@@QEAA?AVMStatus@@AEBVMString@@00@Z
?addInstanceTransform@MPxSubSceneOverride@MHWRender@@QEAAIAEAVMRenderItem@2@AEBVMMatrix@@@Z
?addLast@MGeometryList@@QEAA_NAEBVMDagPath@@PEBVMObject@@@Z
?addLast@MGeometryList@@QEAA_NAEBVMGeometry@@AEBVMMatrix@@@Z
?addNormal@MGeometryRequirements@@QEAAXH@Z
?addNotification@MRenderer@MHWRender@@QEAA?AVMStatus@@P6AXAEAVMDrawContext@2@PEAX@ZAEBVMString@@V5@1@Z
?addOutputFragment@MShaderInstance@MHWRender@@QEAA?AVMStatus@@AEBVMString@@0@Z
?addPassSemantic@MPassContext@MHWRender@@AEAAXAEBVMString@@@Z
?addPosition@MGeometryRequirements@@QEAAXH@Z
?addPostUIDrawables@MSceneRender@MHWRender@@UEAAXAEAVMUIDrawManager@2@AEBVMFrameContext@2@@Z
?addPreUIDrawables@MSceneRender@MHWRender@@UEAAXAEAVMUIDrawManager@2@AEBVMFrameContext@2@@Z
?addRenderer@MRenderProfile@@QEAAXAEBVMString@@M@Z
?addRenderer@MRenderProfile@@QEAAXW4MStandardRenderer@1@@Z
?addShadeFragmentFromBuffer@MFragmentManager@MHWRender@@QEAA?AVMString@@PEBD_N@Z
?addShadeFragmentFromFile@MFragmentManager@MHWRender@@QEAA?AVMString@@AEBV3@_N@Z
?addShaderIncludePath@MShaderManager@MHWRender@@QEBA?AVMStatus@@AEBVMString@@@Z
?addShaderPath@MShaderManager@MHWRender@@QEBA?AVMStatus@@AEBVMString@@@Z
?addShaderSignature@MPxShaderOverride@MHWRender@@IEAA?AVMStatus@@AEBVMShaderInstance@2@@Z
?addShaderSignature@MPxShaderOverride@MHWRender@@IEAA?AVMStatus@@PEAX_K@Z
?addTangent@MGeometryRequirements@@QEAAXAEBVMString@@H@Z
?addTexCoord@MGeometryRequirements@@QEAAXAEBVMString@@@Z
?addToModule@MPyMAttributeParameterMappingList_Type@MHWRender@@SA_NPEAU_object@@@Z
?addToModule@MPyMAttributeParameterMapping_Type@MHWRender@@SA_NPEAU_object@@@Z
?addToModule@MPyMBlendStateDesc_Type@MHWRender@@SA_NPEAU_object@@@Z
?addToModule@MPyMBlendState_Type@MHWRender@@SA_NPEAU_object@@@Z
?addToModule@MPyMCameraOverride_Type@MHWRender@@SA_NPEAU_object@@@Z
?addToModule@MPyMClearOperation_Type@MHWRender@@SA_NPEAU_object@@@Z
?addToModule@MPyMColorManagementUtilities_Type@@SA_NPEAU_object@@@Z
?addToModule@MPyMComponentDataIndexingList_Type@MHWRender@@SA_NPEAU_object@@@Z
?addToModule@MPyMComponentDataIndexing_Type@MHWRender@@SA_NPEAU_object@@@Z
?addToModule@MPyMDepthNormalizationDescription_Type@MHWRender@@SA_NPEAU_object@@@Z
?addToModule@MPyMDepthStencilStateDesc_Type@MHWRender@@SA_NPEAU_object@@@Z
?addToModule@MPyMDepthStencilState_Type@MHWRender@@SA_NPEAU_object@@@Z
?addToModule@MPyMDrawContext_Type@MHWRender@@SA_NPEAU_object@@@Z
?addToModule@MPyMDrawRegistry_Type@MHWRender@@SA_NPEAU_object@@@Z
?addToModule@MPyMFragmentManager_Type@MHWRender@@SA_NPEAU_object@@@Z
?addToModule@MPyMFrameContext_Type@MHWRender@@SA_NPEAU_object@@@Z
?addToModule@MPyMGeometryExtractor_Type@MHWRender@@SA_NPEAU_object@@@Z
?addToModule@MPyMGeometryIndexMapping_Type@MHWRender@@SA_NPEAU_object@@@Z
?addToModule@MPyMGeometryRequirements_Type@MHWRender@@SA_NPEAU_object@@@Z
?addToModule@MPyMGeometryUtilities_Type@MHWRender@@SA_NPEAU_object@@@Z
?addToModule@MPyMGeometry_Type@MHWRender@@SA_NPEAU_object@@@Z
?addToModule@MPyMHUDRender_Type@MHWRender@@SA_NPEAU_object@@@Z
?addToModule@MPyMIndexBufferDescriptorList_Type@MHWRender@@SA_NPEAU_object@@@Z
?addToModule@MPyMIndexBufferDescriptor_Type@MHWRender@@SA_NPEAU_object@@@Z
?addToModule@MPyMIndexBuffer_Type@MHWRender@@SA_NPEAU_object@@@Z
?addToModule@MPyMIntersection_Type@MHWRender@@SA_NPEAU_object@@@Z
?addToModule@MPyMLightParameterInformation_Type@MHWRender@@SA_NPEAU_object@@@Z
?addToModule@MPyMPassContext_Type@MHWRender@@SA_NPEAU_object@@@Z
?addToModule@MPyMPresentTarget_Type@MHWRender@@SA_NPEAU_object@@@Z
?addToModule@MPyMPxComponentConverter_Type@MHWRender@@SA_NPEAU_object@@@Z
?addToModule@MPyMPxDrawOverride_Type@MHWRender@@SA_NPEAU_object@@@Z
?addToModule@MPyMPxGeometryOverride_Type@MHWRender@@SA_NPEAU_object@@@Z
?addToModule@MPyMPxIndexBufferMutator_Type@MHWRender@@SA_NPEAU_object@@@Z
?addToModule@MPyMPxPrimitiveGenerator_Type@MHWRender@@SA_NPEAU_object@@@Z
?addToModule@MPyMPxShaderOverride_MInitContext_Type@MHWRender@@SA_NPEAU_object@@@Z
?addToModule@MPyMPxShaderOverride_MInitFeedback_Type@MHWRender@@SA_NPEAU_object@@@Z
?addToModule@MPyMPxShaderOverride_Type@MHWRender@@SA_NPEAU_object@@@Z
?addToModule@MPyMPxShadingNodeOverride_Type@MHWRender@@SA_NPEAU_object@@@Z
?addToModule@MPyMPxSubSceneOverride_Type@MHWRender@@SA_NPEAU_object@@@Z
?addToModule@MPyMPxSurfaceShadingNodeOverride_Type@MHWRender@@SA_NPEAU_object@@@Z
?addToModule@MPyMPxVertexBufferGenerator_Type@MHWRender@@SA_NPEAU_object@@@Z
?addToModule@MPyMPxVertexBufferMutator_Type@MHWRender@@SA_NPEAU_object@@@Z
?addToModule@MPyMQuadRender_Type@MHWRender@@SA_NPEAU_object@@@Z
?addToModule@MPyMRasterizerStateDesc_Type@MHWRender@@SA_NPEAU_object@@@Z
?addToModule@MPyMRasterizerState_Type@MHWRender@@SA_NPEAU_object@@@Z
?addToModule@MPyMRenderItemList_Type@MHWRender@@SA_NPEAU_object@@@Z
?addToModule@MPyMRenderItem_Type@MHWRender@@SA_NPEAU_object@@@Z
?addToModule@MPyMRenderOperation_Type@MHWRender@@SA_NPEAU_object@@@Z
?addToModule@MPyMRenderOverride_Type@MHWRender@@SA_NPEAU_object@@@Z
?addToModule@MPyMRenderTargetDescription_Type@MHWRender@@SA_NPEAU_object@@@Z
?addToModule@MPyMRenderTargetManager_Type@MHWRender@@SA_NPEAU_object@@@Z
?addToModule@MPyMRenderTarget_Type@MHWRender@@SA_NPEAU_object@@@Z
?addToModule@MPyMRenderUtilities_Type@MHWRender@@SA_NPEAU_object@@@Z
?addToModule@MPyMRenderer_Type@MHWRender@@SA_NPEAU_object@@@Z
?addToModule@MPyMSamplerStateDesc_Type@MHWRender@@SA_NPEAU_object@@@Z
?addToModule@MPyMSamplerState_Type@MHWRender@@SA_NPEAU_object@@@Z
?addToModule@MPyMSceneRender_Type@MHWRender@@SA_NPEAU_object@@@Z
?addToModule@MPyMSelectionContext_Type@MHWRender@@SA_NPEAU_object@@@Z
?addToModule@MPyMSelectionInfo_Type@MHWRender@@SA_NPEAU_object@@@Z
?addToModule@MPyMShaderCompileMacroStub_Type@MHWRender@@SA_NPEAU_object@@@Z
?addToModule@MPyMShaderInstance_Type@MHWRender@@SA_NPEAU_object@@@Z
?addToModule@MPyMShaderManager_Type@MHWRender@@SA_NPEAU_object@@@Z
?addToModule@MPyMStateManager_Type@MHWRender@@SA_NPEAU_object@@@Z
?addToModule@MPyMStencilOpDesc_Type@MHWRender@@SA_NPEAU_object@@@Z
?addToModule@MPyMSubSceneContainerIterator_Type@MHWRender@@SA_NPEAU_object@@@Z
?addToModule@MPyMSubSceneContainer_Type@MHWRender@@SA_NPEAU_object@@@Z
?addToModule@MPyMSwatchRenderBase_Type@@SA_NPEAU_object@@@Z
?addToModule@MPyMTargetBlendDesc_Type@MHWRender@@SA_NPEAU_object@@@Z
?addToModule@MPyMTextureDescription_Type@MHWRender@@SA_NPEAU_object@@@Z
?addToModule@MPyMTextureManager_Type@MHWRender@@SA_NPEAU_object@@@Z
?addToModule@MPyMTextureUpdateRegion_Type@MHWRender@@SA_NPEAU_object@@@Z
?addToModule@MPyMTexture_Type@MHWRender@@SA_NPEAU_object@@@Z
?addToModule@MPyMUIDrawManager_Type@MHWRender@@SA_NPEAU_object@@@Z
?addToModule@MPyMUserRenderOperation_Type@MHWRender@@SA_NPEAU_object@@@Z
?addToModule@MPyMVertexBufferArray_Type@MHWRender@@SA_NPEAU_object@@@Z
?addToModule@MPyMVertexBufferDescriptorList_Type@MHWRender@@SA_NPEAU_object@@@Z
?addToModule@MPyMVertexBufferDescriptor_Type@MHWRender@@SA_NPEAU_object@@@Z
?addToModule@MPyMVertexBuffer_Type@MHWRender@@SA_NPEAU_object@@@Z
?addUIDrawables@MHUDRender@MHWRender@@UEAAXAEAVMUIDrawManager@2@AEBVMFrameContext@2@@Z
?addUIDrawables@MPxDrawOverride@MHWRender@@UEAAXAEBVMDagPath@@AEAVMUIDrawManager@2@AEBVMFrameContext@2@PEBVMUserData@@@Z
?addUIDrawables@MPxGeometryOverride@MHWRender@@UEAAXAEBVMDagPath@@AEAVMUIDrawManager@2@AEBVMFrameContext@2@@Z
?addUIDrawables@MPxSubSceneOverride@MHWRender@@UEAAXAEAVMUIDrawManager@2@AEBVMFrameContext@2@@Z
?addUIDrawables@MUserRenderOperation@MHWRender@@UEAAXAEAVMUIDrawManager@2@AEBVMFrameContext@2@@Z
?addVertexBuffer@MGeometry@MHWRender@@QEAA_NPEAVMVertexBuffer@2@@Z
?addVertexRequirement@MGeometryRequirements@MHWRender@@QEAAXAEBVMVertexBufferDescriptor@2@@Z
?adjustmentPlug@MFnRenderLayer@@QEBA?AVMPlug@@AEBV2@PEAVMStatus@@@Z
?allowConnection@MAttributeParameterMapping@MHWRender@@QEBA_NXZ
?allowConnections@MPxShadingNodeOverride@MHWRender@@UEBA_NXZ
?allowRename@MAttributeParameterMapping@MHWRender@@QEBA_NXZ
?allowsUnorderedAccess@MRenderTargetDescription@MHWRender@@QEBA_NXZ
?annotationAsFloat@MShaderInstance@MHWRender@@QEAAMAEBVMString@@0AEAVMStatus@@@Z
?annotationAsInt@MShaderInstance@MHWRender@@QEAAHAEBVMString@@0AEAVMStatus@@@Z
?annotationAsString@MShaderInstance@MHWRender@@QEAA?AVMString@@AEBV3@0AEAVMStatus@@@Z
?append@MAttributeParameterMappingList@MHWRender@@AEAAXPEAX@Z
?append@MAttributeParameterMappingList@MHWRender@@QEAAXAEBVMAttributeParameterMapping@2@@Z
?append@MComponentDataIndexingList@MHWRender@@QEAA_NAEBVMComponentDataIndexing@2@@Z
?append@MIndexBufferDescriptorList@MHWRender@@QEAA_NAEBVMIndexBufferDescriptor@2@@Z
?append@MRenderItemList@MHWRender@@QEAA_NPEAVMRenderItem@2@@Z
?append@MUniformParameterList@@QEAAXAEBVMUniformParameter@@@Z
?append@MVaryingParameterList@@QEAAXAEBVMVaryingParameter@@@Z
?append@MVertexBufferDescriptorList@MHWRender@@QEAA_NAEBVMVertexBufferDescriptor@2@@Z
?appendGeometry@MGeometryIndexMapping@MHWRender@@AEAAXPEAX@Z
?arc2d@MUIDrawManager@MHWRender@@QEAAXAEBVMPoint@@AEBVMVector@@1N_N@Z
?arc@MUIDrawManager@MHWRender@@QEAAXAEBVMPoint@@AEBVMVector@@11N_N@Z
?areUIDrawablesDirty@MPxSubSceneOverride@MHWRender@@UEBA_NXZ
?arrayParameterCount@MLightParameterInformation@MHWRender@@QEBAIAEBVMString@@@Z
?arraySliceCount@MRenderTargetDescription@MHWRender@@QEBAIXZ
?associateWithIndexBuffer@MRenderItem@MHWRender@@QEBA_NPEBVMIndexBuffer@2@@Z
?attributeName@MAttributeParameterMapping@MHWRender@@QEBAAEBVMString@@XZ
?availableShaderParameters@MRenderItem@MHWRender@@QEBAIAEAVMStringArray@@PEAVMStatus@@@Z
?backEndString@MHardwareRenderer@@QEBAAEBVMString@@XZ
?barycentricCoordinates@MIntersection@MHWRender@@QEBA?AVMStatus@@AEAM0@Z
?beginDrawInXray@MUIDrawManager@MHWRender@@QEAAXXZ
?beginDrawable@MUIDrawManager@MHWRender@@QEAAXI_N@Z
?beginDrawable@MUIDrawManager@MHWRender@@QEAAXXZ
?beginSceneUpdate@MPxRenderer@@UEAA?AVMStatus@@XZ
?bind@MShaderInstance@MHWRender@@QEBA?AVMStatus@@AEBVMDrawContext@2@@Z
?binormal@MGeometry@@QEAA?BVMGeometryData@@AEBVMString@@@Z
?blendStateOverride@MQuadRender@MHWRender@@UEAAPEBVMBlendState@2@XZ
?blitTargetToGL@MRenderUtilities@MHWRender@@SA?AVMStatus@@PEBVMRenderTarget@2@QEAY01$$CBM_N@Z
?blitTargetToImage@MRenderUtilities@MHWRender@@SA?AVMStatus@@PEBVMRenderTarget@2@AEAVMImage@@@Z
?boundingBox@MPxDrawOverride@MHWRender@@UEBA?AVMBoundingBox@@AEBVMDagPath@@0@Z
?boundingBox@MRenderItem@MHWRender@@QEBA?AVMBoundingBox@@W4Space@MSpace@@PEAVMStatus@@@Z
?boundingBoxExtraScale@MPxShaderOverride@MHWRender@@UEBANXZ
?box@MUIDrawManager@MHWRender@@QEAAXAEBVMPoint@@AEBVMVector@@1NNN_N@Z
?buildParamNameMap@MLightParameterInformation@MHWRender@@AEAAXXZ
?bumpAttribute@MPxSurfaceShadingNodeOverride@MHWRender@@UEBA?AVMString@@XZ
?bytesPerPixel@MTexture@MHWRender@@QEBAIXZ
?cameraOverride@MSceneRender@MHWRender@@UEAAPEBVMCameraOverride@2@XZ
?cameraOverride@MUserRenderOperation@MHWRender@@UEAAPEBVMCameraOverride@2@XZ
?cameraPath@MRenderingInfo@@QEBAAEBVMDagPath@@XZ
?cancelCurrentSwatchRender@MSwatchRenderBase@@SAXXZ
?cancelParallelRendering@?$MPyMSwatchRenderBase_DirectorImpl@VMSwatchRenderBase@@@@UEAAXXZ
?cancelParallelRendering@MSwatchRenderBase@@UEAAXXZ
?castsShadows@MRenderItem@MHWRender@@QEAAX_N@Z
?castsShadows@MRenderItem@MHWRender@@QEBA_NXZ
?circle2d@MUIDrawManager@MHWRender@@QEAAXAEBVMPoint@@N_N@Z
?circle@MUIDrawManager@MHWRender@@QEAAXAEBVMPoint@@AEBVMVector@@N_N@Z
?className@MAttributeParameterMapping@MHWRender@@SAPEBDXZ
?className@MAttributeParameterMappingList@MHWRender@@SAPEBDXZ
?className@MBlendState@MHWRender@@SAPEBDXZ
?className@MBlendStateDesc@MHWRender@@SAPEBDXZ
?className@MColorManagementUtilities@@SAPEBDXZ
?className@MCommonRenderSettingsData@@SAPEBDXZ
?className@MComponentDataIndexingList@MHWRender@@SAPEBDXZ
?className@MDepthStencilState@MHWRender@@SAPEBDXZ
?className@MDepthStencilStateDesc@MHWRender@@SAPEBDXZ
?className@MDrawContext@MHWRender@@SAPEBDXZ
?className@MDrawRegistry@MHWRender@@SAPEBDXZ
?className@MFnAdskMaterial@@SAPEBDXZ
?className@MFnImageSource@@SAPEBDXZ
?className@MFnRenderLayer@@SAPEBDXZ
?className@MFnRenderPass@@SAPEBDXZ
?className@MFragmentManager@MHWRender@@SAPEBDXZ
?className@MFrameContext@MHWRender@@SAPEBDXZ
?className@MGeometry@MHWRender@@SAPEBDXZ
?className@MGeometryManager@@SAPEBDXZ
?className@MGeometryRequirements@MHWRender@@SAPEBDXZ
?className@MGeometryUtilities@MHWRender@@SAPEBDXZ
?className@MHwTextureManager@@SAPEBDXZ
?className@MIndexBuffer@MHWRender@@SAPEBDXZ
?className@MIndexBufferDescriptorList@MHWRender@@SAPEBDXZ
?className@MIntersection@MHWRender@@SAPEBDXZ
?className@MPxComponentConverter@MHWRender@@SAPEBDXZ
?className@MPxDrawOverride@MHWRender@@SAPEBDXZ
?className@MPxGeometryOverride@MHWRender@@SAPEBDXZ
?className@MPxIndexBufferMutator@MHWRender@@SAPEBDXZ
?className@MPxPrimitiveGenerator@MHWRender@@SAPEBDXZ
?className@MPxShaderOverride@MHWRender@@SAPEBDXZ
?className@MPxShadingNodeOverride@MHWRender@@SAPEBDXZ
?className@MPxSubSceneOverride@MHWRender@@SAPEBDXZ
?className@MPxSurfaceShadingNodeOverride@MHWRender@@SAPEBDXZ
?className@MPxVertexBufferGenerator@MHWRender@@SAPEBDXZ
?className@MPxVertexBufferMutator@MHWRender@@SAPEBDXZ
?className@MRasterizerState@MHWRender@@SAPEBDXZ
?className@MRasterizerStateDesc@MHWRender@@SAPEBDXZ
?className@MRenderItem@MHWRender@@SAPEBDXZ
?className@MRenderItemList@MHWRender@@SAPEBDXZ
?className@MRenderTarget@MHWRender@@SAPEBDXZ
?className@MRenderTargetManager@MHWRender@@SAPEBDXZ
?className@MRenderUtil@@SAPEBDXZ
?className@MRenderUtilities@MHWRender@@SAPEBDXZ
?className@MRenderView@@SAPEBDXZ
?className@MSamplerState@MHWRender@@SAPEBDXZ
?className@MSamplerStateDesc@MHWRender@@SAPEBDXZ
?className@MSelectionContext@MHWRender@@SAPEBDXZ
?className@MSelectionInfo@MHWRender@@SAPEBDXZ
?className@MShaderInstance@MHWRender@@SAPEBDXZ
?className@MShaderManager@MHWRender@@SAPEBDXZ
?className@MStateManager@MHWRender@@SAPEBDXZ
?className@MStencilOpDesc@MHWRender@@SAPEBDXZ
?className@MSubSceneContainer@MHWRender@@SAPEBDXZ
?className@MTargetBlendDesc@MHWRender@@SAPEBDXZ
?className@MTexture@MHWRender@@SAPEBDXZ
?className@MTextureManager@MHWRender@@SAPEBDXZ
?className@MVertexBuffer@MHWRender@@SAPEBDXZ
?className@MVertexBufferArray@MHWRender@@SAPEBDXZ
?className@MVertexBufferDescriptor@MHWRender@@SAPEBDXZ
?className@MVertexBufferDescriptorList@MHWRender@@SAPEBDXZ
?classificationExclusions@MFrameContext@MHWRender@@QEBAXAEAVMStringArray@@@Z
?cleanup@MRenderOverride@MHWRender@@UEAA?AVMStatus@@XZ
?clear@MAttributeParameterMappingList@MHWRender@@QEAAXXZ
?clear@MComponentDataIndexingList@MHWRender@@QEAAXXZ
?clear@MIndexBufferDescriptorList@MHWRender@@QEAAXXZ
?clear@MRenderItemList@MHWRender@@QEAAXXZ
?clear@MSubSceneContainer@MHWRender@@QEAAXXZ
?clear@MVertexBufferArray@MHWRender@@QEAAXXZ
?clear@MVertexBufferDescriptorList@MHWRender@@QEAAXXZ
?clearCache@MSubSceneContainer@MHWRender@@AEAAXXZ
?clearColor2@MClearOperation@MHWRender@@QEBAPEBMXZ
?clearColor2@MRenderer@MHWRender@@QEBA?AVMColor@@XZ
?clearColor@MClearOperation@MHWRender@@QEBAPEBMXZ
?clearColor@MRenderer@MHWRender@@QEBA?AVMColor@@XZ
?clearDepth@MClearOperation@MHWRender@@QEBAMXZ
?clearGradient@MClearOperation@MHWRender@@QEBA_NXZ
?clearOperation@MQuadRender@MHWRender@@UEAAAEAVMClearOperation@2@XZ
?clearOperation@MSceneRender@MHWRender@@UEAAAEAVMClearOperation@2@XZ
?clearOwnedData@MRenderItem@MHWRender@@AEAAXXZ
?clearPassSemantics@MPassContext@MHWRender@@AEAAXXZ
?clearStencil@MClearOperation@MHWRender@@QEBAHXZ
?clone@MShaderInstance@MHWRender@@QEBAPEAV12@XZ
?collectionNumber@MGeometryData@@QEBAHXZ
?color@MGeometry@@QEAA?BVMGeometryData@@AEBVMString@@@Z
?commit@MIndexBuffer@MHWRender@@QEAAXPEAX@Z
?commit@MVertexBuffer@MHWRender@@QEAAXPEAX@Z
?compatibleWithDescription@MRenderTargetDescription@MHWRender@@QEAA_NAEBV12@@Z
?component@MGeometryIndexMapping@MHWRender@@QEBA?AVMObject@@H@Z
?component@MIndexBufferDescriptor@MHWRender@@QEBA?AVMObject@@XZ
?component@MRenderItem@MHWRender@@QEBA?AVMObject@@XZ
?componentId@MGeometry@@QEAA?BVMGeometryData@@XZ
?componentType@MComponentDataIndexing@MHWRender@@QEBA?BW4MComponentType@12@XZ
?cone@MUIDrawManager@MHWRender@@QEAAXAEBVMPoint@@AEBVMVector@@NN_N@Z
?convertPsdFile@MRenderUtil@@SA?AVMString@@AEBVMObject@@AEB_NPEAVMStatus@@@Z
?convertPsdFile@MRenderUtil@@SA_NAEBVMObject@@AEAVMString@@AEB_NPEAVMStatus@@@Z
?copyCurrentColorRenderTarget@MDrawContext@MHWRender@@QEBAPEBVMRenderTarget@2@AEBVMString@@@Z
?copyCurrentColorRenderTargetToTexture@MDrawContext@MHWRender@@QEBAPEAVMTexture@2@XZ
?copyCurrentDepthRenderTarget@MDrawContext@MHWRender@@QEBAPEBVMRenderTarget@2@AEBVMString@@@Z
?copyCurrentDepthRenderTargetToTexture@MDrawContext@MHWRender@@QEBAPEAVMTexture@2@XZ
?copyTargetToScreen@MRenderer@MHWRender@@QEAA_NPEBVMRenderTarget@2@@Z
?count@MSubSceneContainer@MHWRender@@QEBAIXZ
?count@MVertexBufferArray@MHWRender@@QEBAIXZ
?createIndexBuffer@MGeometry@MHWRender@@QEAAPEAVMIndexBuffer@2@W4DataType@12@@Z
?createInstance@MPyMAttributeParameterMappingList_Type@MHWRender@@SAPEAV?$MPyObject@VMAttributeParameterMappingList@MHWRender@@@@PEAU_object@@0@Z
?createInstance@MPyMAttributeParameterMappingList_Type@MHWRender@@SAPEAV?$MPyObject@VMAttributeParameterMappingList@MHWRender@@@@PEAVMAttributeParameterMappingList@2@@Z
?createInstance@MPyMAttributeParameterMappingList_Type@MHWRender@@SAPEAV?$MPyObject@VMAttributeParameterMappingList@MHWRender@@@@XZ
?createInstance@MPyMAttributeParameterMapping_Type@MHWRender@@SAPEAV?$MPyObject@VMAttributeParameterMapping@MHWRender@@@@PEAU_object@@0@Z
?createInstance@MPyMAttributeParameterMapping_Type@MHWRender@@SAPEAV?$MPyObject@VMAttributeParameterMapping@MHWRender@@@@PEAVMAttributeParameterMapping@2@@Z
?createInstance@MPyMAttributeParameterMapping_Type@MHWRender@@SAPEAV?$MPyObject@VMAttributeParameterMapping@MHWRender@@@@XZ
?createInstance@MPyMBlendStateDesc_Type@MHWRender@@SAPEAV?$MPyObject@VMBlendStateDesc@MHWRender@@@@PEAU_object@@0@Z
?createInstance@MPyMBlendStateDesc_Type@MHWRender@@SAPEAV?$MPyObject@VMBlendStateDesc@MHWRender@@@@PEAVMBlendStateDesc@2@@Z
?createInstance@MPyMBlendStateDesc_Type@MHWRender@@SAPEAV?$MPyObject@VMBlendStateDesc@MHWRender@@@@XZ
?createInstance@MPyMBlendState_Type@MHWRender@@SAPEAV?$MPyObject@VMBlendState@MHWRender@@@@PEAU_object@@0@Z
?createInstance@MPyMBlendState_Type@MHWRender@@SAPEAV?$MPyObject@VMBlendState@MHWRender@@@@PEAVMBlendState@2@@Z
?createInstance@MPyMBlendState_Type@MHWRender@@SAPEAV?$MPyObject@VMBlendState@MHWRender@@@@XZ
?createInstance@MPyMCameraOverride_Type@MHWRender@@SAPEAV?$MPyObject@VMCameraOverride@MHWRender@@@@PEAU_object@@0@Z
?createInstance@MPyMCameraOverride_Type@MHWRender@@SAPEAV?$MPyObject@VMCameraOverride@MHWRender@@@@PEAVMCameraOverride@2@@Z
?createInstance@MPyMCameraOverride_Type@MHWRender@@SAPEAV?$MPyObject@VMCameraOverride@MHWRender@@@@XZ
?createInstance@MPyMClearOperation_Type@MHWRender@@SAPEAV?$MPyObject@VMClearOperation@MHWRender@@@@PEAU_object@@0@Z
?createInstance@MPyMClearOperation_Type@MHWRender@@SAPEAV?$MPyObject@VMClearOperation@MHWRender@@@@PEAVMClearOperation@2@@Z
?createInstance@MPyMClearOperation_Type@MHWRender@@SAPEAV?$MPyObject@VMClearOperation@MHWRender@@@@XZ
?createInstance@MPyMComponentDataIndexingList_Type@MHWRender@@SAPEAV?$MPyObject@VMComponentDataIndexingList@MHWRender@@@@PEAU_object@@0@Z
?createInstance@MPyMComponentDataIndexingList_Type@MHWRender@@SAPEAV?$MPyObject@VMComponentDataIndexingList@MHWRender@@@@PEAVMComponentDataIndexingList@2@@Z
?createInstance@MPyMComponentDataIndexingList_Type@MHWRender@@SAPEAV?$MPyObject@VMComponentDataIndexingList@MHWRender@@@@XZ
?createInstance@MPyMComponentDataIndexing_Type@MHWRender@@SAPEAV?$MPyObject@VMComponentDataIndexing@MHWRender@@@@PEAU_object@@0@Z
?createInstance@MPyMComponentDataIndexing_Type@MHWRender@@SAPEAV?$MPyObject@VMComponentDataIndexing@MHWRender@@@@PEAVMComponentDataIndexing@2@@Z
?createInstance@MPyMComponentDataIndexing_Type@MHWRender@@SAPEAV?$MPyObject@VMComponentDataIndexing@MHWRender@@@@XZ
?createInstance@MPyMDepthNormalizationDescription_Type@MHWRender@@SAPEAV?$MPyObject@VMDepthNormalizationDescription@MHWRender@@@@PEAU_object@@0@Z
?createInstance@MPyMDepthNormalizationDescription_Type@MHWRender@@SAPEAV?$MPyObject@VMDepthNormalizationDescription@MHWRender@@@@PEAVMDepthNormalizationDescription@2@@Z
?createInstance@MPyMDepthNormalizationDescription_Type@MHWRender@@SAPEAV?$MPyObject@VMDepthNormalizationDescription@MHWRender@@@@XZ
?createInstance@MPyMDepthStencilStateDesc_Type@MHWRender@@SAPEAV?$MPyObject@VMDepthStencilStateDesc@MHWRender@@@@PEAU_object@@0@Z
?createInstance@MPyMDepthStencilStateDesc_Type@MHWRender@@SAPEAV?$MPyObject@VMDepthStencilStateDesc@MHWRender@@@@PEAVMDepthStencilStateDesc@2@@Z
?createInstance@MPyMDepthStencilStateDesc_Type@MHWRender@@SAPEAV?$MPyObject@VMDepthStencilStateDesc@MHWRender@@@@XZ
?createInstance@MPyMDepthStencilState_Type@MHWRender@@SAPEAV?$MPyObject@VMDepthStencilState@MHWRender@@@@PEAU_object@@0@Z
?createInstance@MPyMDepthStencilState_Type@MHWRender@@SAPEAV?$MPyObject@VMDepthStencilState@MHWRender@@@@PEAVMDepthStencilState@2@@Z
?createInstance@MPyMDepthStencilState_Type@MHWRender@@SAPEAV?$MPyObject@VMDepthStencilState@MHWRender@@@@XZ
?createInstance@MPyMDrawContext_Type@MHWRender@@SAPEAV?$MPyObject@VMDrawContext@MHWRender@@@@PEAU_object@@0@Z
?createInstance@MPyMDrawContext_Type@MHWRender@@SAPEAV?$MPyObject@VMDrawContext@MHWRender@@@@PEAVMDrawContext@2@@Z
?createInstance@MPyMDrawContext_Type@MHWRender@@SAPEAV?$MPyObject@VMDrawContext@MHWRender@@@@XZ
?createInstance@MPyMFragmentManager_Type@MHWRender@@SAPEAV?$MPyObject@VMFragmentManager@MHWRender@@@@PEAU_object@@0@Z
?createInstance@MPyMFragmentManager_Type@MHWRender@@SAPEAV?$MPyObject@VMFragmentManager@MHWRender@@@@PEAVMFragmentManager@2@@Z
?createInstance@MPyMFragmentManager_Type@MHWRender@@SAPEAV?$MPyObject@VMFragmentManager@MHWRender@@@@XZ
?createInstance@MPyMFrameContext_Type@MHWRender@@SAPEAV?$MPyObject@VMFrameContext@MHWRender@@@@PEAU_object@@0@Z
?createInstance@MPyMFrameContext_Type@MHWRender@@SAPEAV?$MPyObject@VMFrameContext@MHWRender@@@@PEAVMFrameContext@2@@Z
?createInstance@MPyMFrameContext_Type@MHWRender@@SAPEAV?$MPyObject@VMFrameContext@MHWRender@@@@XZ
?createInstance@MPyMGeometryExtractor_Type@MHWRender@@SAPEAV?$MPyObject@VMGeometryExtractor@MHWRender@@@@PEAU_object@@0@Z
?createInstance@MPyMGeometryExtractor_Type@MHWRender@@SAPEAV?$MPyObject@VMGeometryExtractor@MHWRender@@@@PEAVMGeometryExtractor@2@@Z
?createInstance@MPyMGeometryExtractor_Type@MHWRender@@SAPEAV?$MPyObject@VMGeometryExtractor@MHWRender@@@@XZ
?createInstance@MPyMGeometryIndexMapping_Type@MHWRender@@SAPEAV?$MPyObject@VMGeometryIndexMapping@MHWRender@@@@PEAU_object@@0@Z
?createInstance@MPyMGeometryIndexMapping_Type@MHWRender@@SAPEAV?$MPyObject@VMGeometryIndexMapping@MHWRender@@@@PEAVMGeometryIndexMapping@2@@Z
?createInstance@MPyMGeometryIndexMapping_Type@MHWRender@@SAPEAV?$MPyObject@VMGeometryIndexMapping@MHWRender@@@@XZ
?createInstance@MPyMGeometryRequirements_Type@MHWRender@@SAPEAV?$MPyObject@VMGeometryRequirements@MHWRender@@@@PEAU_object@@0@Z
?createInstance@MPyMGeometryRequirements_Type@MHWRender@@SAPEAV?$MPyObject@VMGeometryRequirements@MHWRender@@@@PEAVMGeometryRequirements@2@@Z
?createInstance@MPyMGeometryRequirements_Type@MHWRender@@SAPEAV?$MPyObject@VMGeometryRequirements@MHWRender@@@@XZ
?createInstance@MPyMGeometry_Type@MHWRender@@SAPEAV?$MPyObject@VMGeometry@MHWRender@@@@PEAU_object@@0@Z
?createInstance@MPyMGeometry_Type@MHWRender@@SAPEAV?$MPyObject@VMGeometry@MHWRender@@@@PEAVMGeometry@2@@Z
?createInstance@MPyMGeometry_Type@MHWRender@@SAPEAV?$MPyObject@VMGeometry@MHWRender@@@@XZ
?createInstance@MPyMHUDRender_Type@MHWRender@@SAPEAV?$MPyObject@VMHUDRender@MHWRender@@@@PEAU_object@@0@Z
?createInstance@MPyMHUDRender_Type@MHWRender@@SAPEAV?$MPyObject@VMHUDRender@MHWRender@@@@PEAVMHUDRender@2@@Z
?createInstance@MPyMHUDRender_Type@MHWRender@@SAPEAV?$MPyObject@VMHUDRender@MHWRender@@@@XZ
?createInstance@MPyMIndexBufferDescriptorList_Type@MHWRender@@SAPEAV?$MPyObject@VMIndexBufferDescriptorList@MHWRender@@@@PEAU_object@@0@Z
?createInstance@MPyMIndexBufferDescriptorList_Type@MHWRender@@SAPEAV?$MPyObject@VMIndexBufferDescriptorList@MHWRender@@@@PEAVMIndexBufferDescriptorList@2@@Z
?createInstance@MPyMIndexBufferDescriptorList_Type@MHWRender@@SAPEAV?$MPyObject@VMIndexBufferDescriptorList@MHWRender@@@@XZ
?createInstance@MPyMIndexBufferDescriptor_Type@MHWRender@@SAPEAV?$MPyObject@VMIndexBufferDescriptor@MHWRender@@@@PEAU_object@@0@Z
?createInstance@MPyMIndexBufferDescriptor_Type@MHWRender@@SAPEAV?$MPyObject@VMIndexBufferDescriptor@MHWRender@@@@PEAVMIndexBufferDescriptor@2@@Z
?createInstance@MPyMIndexBufferDescriptor_Type@MHWRender@@SAPEAV?$MPyObject@VMIndexBufferDescriptor@MHWRender@@@@XZ
?createInstance@MPyMIndexBuffer_Type@MHWRender@@SAPEAV?$MPyObject@VMIndexBuffer@MHWRender@@@@PEAU_object@@0@Z
?createInstance@MPyMIndexBuffer_Type@MHWRender@@SAPEAV?$MPyObject@VMIndexBuffer@MHWRender@@@@PEAVMIndexBuffer@2@@Z
?createInstance@MPyMIndexBuffer_Type@MHWRender@@SAPEAV?$MPyObject@VMIndexBuffer@MHWRender@@@@XZ
?createInstance@MPyMIntersection_Type@MHWRender@@SAPEAV?$MPyObject@VMIntersection@MHWRender@@@@PEAU_object@@0@Z
?createInstance@MPyMIntersection_Type@MHWRender@@SAPEAV?$MPyObject@VMIntersection@MHWRender@@@@PEAVMIntersection@2@@Z
?createInstance@MPyMIntersection_Type@MHWRender@@SAPEAV?$MPyObject@VMIntersection@MHWRender@@@@XZ
?createInstance@MPyMLightParameterInformation_Type@MHWRender@@SAPEAV?$MPyObject@VMLightParameterInformation@MHWRender@@@@PEAU_object@@0@Z
?createInstance@MPyMLightParameterInformation_Type@MHWRender@@SAPEAV?$MPyObject@VMLightParameterInformation@MHWRender@@@@PEAVMLightParameterInformation@2@@Z
?createInstance@MPyMLightParameterInformation_Type@MHWRender@@SAPEAV?$MPyObject@VMLightParameterInformation@MHWRender@@@@XZ
?createInstance@MPyMPassContext_Type@MHWRender@@SAPEAV?$MPyObject@VMPassContext@MHWRender@@@@PEAU_object@@0@Z
?createInstance@MPyMPassContext_Type@MHWRender@@SAPEAV?$MPyObject@VMPassContext@MHWRender@@@@PEAVMPassContext@2@@Z
?createInstance@MPyMPassContext_Type@MHWRender@@SAPEAV?$MPyObject@VMPassContext@MHWRender@@@@XZ
?createInstance@MPyMPresentTarget_Type@MHWRender@@SAPEAV?$MPyObject@VMPresentTarget@MHWRender@@@@PEAU_object@@0@Z
?createInstance@MPyMPresentTarget_Type@MHWRender@@SAPEAV?$MPyObject@VMPresentTarget@MHWRender@@@@PEAVMPresentTarget@2@@Z
?createInstance@MPyMPresentTarget_Type@MHWRender@@SAPEAV?$MPyObject@VMPresentTarget@MHWRender@@@@XZ
?createInstance@MPyMPxComponentConverter_Type@MHWRender@@SAPEAV?$MPyObject@VMPxComponentConverter@MHWRender@@@@PEAU_object@@0@Z
?createInstance@MPyMPxComponentConverter_Type@MHWRender@@SAPEAV?$MPyObject@VMPxComponentConverter@MHWRender@@@@PEAVMPxComponentConverter@2@@Z
?createInstance@MPyMPxComponentConverter_Type@MHWRender@@SAPEAV?$MPyObject@VMPxComponentConverter@MHWRender@@@@XZ
?createInstance@MPyMPxDrawOverride_Type@MHWRender@@SAPEAV?$MPyObject@VMPyMPxDrawOverride_Director@MHWRender@@@@PEAU_object@@0@Z
?createInstance@MPyMPxDrawOverride_Type@MHWRender@@SAPEAV?$MPyObject@VMPyMPxDrawOverride_Director@MHWRender@@@@PEAVMPyMPxDrawOverride_Director@2@@Z
?createInstance@MPyMPxDrawOverride_Type@MHWRender@@SAPEAV?$MPyObject@VMPyMPxDrawOverride_Director@MHWRender@@@@XZ
?createInstance@MPyMPxGeometryOverride_Type@MHWRender@@SAPEAV?$MPyObject@VMPyMPxGeometryOverride_Director@MHWRender@@@@PEAU_object@@0@Z
?createInstance@MPyMPxGeometryOverride_Type@MHWRender@@SAPEAV?$MPyObject@VMPyMPxGeometryOverride_Director@MHWRender@@@@PEAVMPyMPxGeometryOverride_Director@2@@Z
?createInstance@MPyMPxGeometryOverride_Type@MHWRender@@SAPEAV?$MPyObject@VMPyMPxGeometryOverride_Director@MHWRender@@@@XZ
?createInstance@MPyMPxIndexBufferMutator_Type@MHWRender@@SAPEAV?$MPyObject@VMPyMPxIndexBufferMutator_Director@MHWRender@@@@PEAU_object@@0@Z
?createInstance@MPyMPxIndexBufferMutator_Type@MHWRender@@SAPEAV?$MPyObject@VMPyMPxIndexBufferMutator_Director@MHWRender@@@@PEAVMPyMPxIndexBufferMutator_Director@2@@Z
?createInstance@MPyMPxIndexBufferMutator_Type@MHWRender@@SAPEAV?$MPyObject@VMPyMPxIndexBufferMutator_Director@MHWRender@@@@XZ
?createInstance@MPyMPxPrimitiveGenerator_Type@MHWRender@@SAPEAV?$MPyObject@VMPyMPxPrimitiveGenerator_Director@MHWRender@@@@PEAU_object@@0@Z
?createInstance@MPyMPxPrimitiveGenerator_Type@MHWRender@@SAPEAV?$MPyObject@VMPyMPxPrimitiveGenerator_Director@MHWRender@@@@PEAVMPyMPxPrimitiveGenerator_Director@2@@Z
?createInstance@MPyMPxPrimitiveGenerator_Type@MHWRender@@SAPEAV?$MPyObject@VMPyMPxPrimitiveGenerator_Director@MHWRender@@@@XZ
?createInstance@MPyMPxShaderOverride_MInitContext_Type@MHWRender@@SAPEAV?$MPyObject@VMPxShaderOverride_MInitContext@MHWRender@@@@PEAU_object@@0@Z
?createInstance@MPyMPxShaderOverride_MInitContext_Type@MHWRender@@SAPEAV?$MPyObject@VMPxShaderOverride_MInitContext@MHWRender@@@@PEAVMPxShaderOverride_MInitContext@2@@Z
?createInstance@MPyMPxShaderOverride_MInitContext_Type@MHWRender@@SAPEAV?$MPyObject@VMPxShaderOverride_MInitContext@MHWRender@@@@XZ
?createInstance@MPyMPxShaderOverride_MInitFeedback_Type@MHWRender@@SAPEAV?$MPyObject@VMPxShaderOverride_MInitFeedback@MHWRender@@@@PEAU_object@@0@Z
?createInstance@MPyMPxShaderOverride_MInitFeedback_Type@MHWRender@@SAPEAV?$MPyObject@VMPxShaderOverride_MInitFeedback@MHWRender@@@@PEAVMPxShaderOverride_MInitFeedback@2@@Z
?createInstance@MPyMPxShaderOverride_MInitFeedback_Type@MHWRender@@SAPEAV?$MPyObject@VMPxShaderOverride_MInitFeedback@MHWRender@@@@XZ
?createInstance@MPyMPxShaderOverride_Type@MHWRender@@SAPEAV?$MPyObject@VMPyMPxShaderOverride_Director@MHWRender@@@@PEAU_object@@0@Z
?createInstance@MPyMPxShaderOverride_Type@MHWRender@@SAPEAV?$MPyObject@VMPyMPxShaderOverride_Director@MHWRender@@@@PEAVMPyMPxShaderOverride_Director@2@@Z
?createInstance@MPyMPxShaderOverride_Type@MHWRender@@SAPEAV?$MPyObject@VMPyMPxShaderOverride_Director@MHWRender@@@@XZ
?createInstance@MPyMPxShadingNodeOverride_Type@MHWRender@@SAPEAV?$MPyObject@VMPyMPxShadingNodeOverride_Director@MHWRender@@@@PEAU_object@@0@Z
?createInstance@MPyMPxShadingNodeOverride_Type@MHWRender@@SAPEAV?$MPyObject@VMPyMPxShadingNodeOverride_Director@MHWRender@@@@PEAVMPyMPxShadingNodeOverride_Director@2@@Z
?createInstance@MPyMPxShadingNodeOverride_Type@MHWRender@@SAPEAV?$MPyObject@VMPyMPxShadingNodeOverride_Director@MHWRender@@@@XZ
?createInstance@MPyMPxSubSceneOverride_Type@MHWRender@@SAPEAV?$MPyObject@VMPyMPxSubSceneOverride_Director@MHWRender@@@@PEAU_object@@0@Z
?createInstance@MPyMPxSubSceneOverride_Type@MHWRender@@SAPEAV?$MPyObject@VMPyMPxSubSceneOverride_Director@MHWRender@@@@PEAVMPyMPxSubSceneOverride_Director@2@@Z
?createInstance@MPyMPxSubSceneOverride_Type@MHWRender@@SAPEAV?$MPyObject@VMPyMPxSubSceneOverride_Director@MHWRender@@@@XZ
?createInstance@MPyMPxSurfaceShadingNodeOverride_Type@MHWRender@@SAPEAV?$MPyObject@VMPyMPxSurfaceShadingNodeOverride_Director@MHWRender@@@@PEAU_object@@0@Z
?createInstance@MPyMPxSurfaceShadingNodeOverride_Type@MHWRender@@SAPEAV?$MPyObject@VMPyMPxSurfaceShadingNodeOverride_Director@MHWRender@@@@PEAVMPyMPxSurfaceShadingNodeOverride_Director@2@@Z
?createInstance@MPyMPxSurfaceShadingNodeOverride_Type@MHWRender@@SAPEAV?$MPyObject@VMPyMPxSurfaceShadingNodeOverride_Director@MHWRender@@@@XZ
?createInstance@MPyMPxVertexBufferGenerator_Type@MHWRender@@SAPEAV?$MPyObject@VMPyMPxVertexBufferGenerator_Director@MHWRender@@@@PEAU_object@@0@Z
?createInstance@MPyMPxVertexBufferGenerator_Type@MHWRender@@SAPEAV?$MPyObject@VMPyMPxVertexBufferGenerator_Director@MHWRender@@@@PEAVMPyMPxVertexBufferGenerator_Director@2@@Z
?createInstance@MPyMPxVertexBufferGenerator_Type@MHWRender@@SAPEAV?$MPyObject@VMPyMPxVertexBufferGenerator_Director@MHWRender@@@@XZ
?createInstance@MPyMPxVertexBufferMutator_Type@MHWRender@@SAPEAV?$MPyObject@VMPyMPxVertexBufferMutator_Director@MHWRender@@@@PEAU_object@@0@Z
?createInstance@MPyMPxVertexBufferMutator_Type@MHWRender@@SAPEAV?$MPyObject@VMPyMPxVertexBufferMutator_Director@MHWRender@@@@PEAVMPyMPxVertexBufferMutator_Director@2@@Z
?createInstance@MPyMPxVertexBufferMutator_Type@MHWRender@@SAPEAV?$MPyObject@VMPyMPxVertexBufferMutator_Director@MHWRender@@@@XZ
?createInstance@MPyMQuadRender_Type@MHWRender@@SAPEAV?$MPyObject@VMQuadRender@MHWRender@@@@PEAU_object@@0@Z
?createInstance@MPyMQuadRender_Type@MHWRender@@SAPEAV?$MPyObject@VMQuadRender@MHWRender@@@@PEAVMQuadRender@2@@Z
?createInstance@MPyMQuadRender_Type@MHWRender@@SAPEAV?$MPyObject@VMQuadRender@MHWRender@@@@XZ
?createInstance@MPyMRasterizerStateDesc_Type@MHWRender@@SAPEAV?$MPyObject@VMRasterizerStateDesc@MHWRender@@@@PEAU_object@@0@Z
?createInstance@MPyMRasterizerStateDesc_Type@MHWRender@@SAPEAV?$MPyObject@VMRasterizerStateDesc@MHWRender@@@@PEAVMRasterizerStateDesc@2@@Z
?createInstance@MPyMRasterizerStateDesc_Type@MHWRender@@SAPEAV?$MPyObject@VMRasterizerStateDesc@MHWRender@@@@XZ
?createInstance@MPyMRasterizerState_Type@MHWRender@@SAPEAV?$MPyObject@VMRasterizerState@MHWRender@@@@PEAU_object@@0@Z
?createInstance@MPyMRasterizerState_Type@MHWRender@@SAPEAV?$MPyObject@VMRasterizerState@MHWRender@@@@PEAVMRasterizerState@2@@Z
?createInstance@MPyMRasterizerState_Type@MHWRender@@SAPEAV?$MPyObject@VMRasterizerState@MHWRender@@@@XZ
?createInstance@MPyMRenderItemList_Type@MHWRender@@SAPEAV?$MPyObject@VMRenderItemList@MHWRender@@@@PEAU_object@@0@Z
?createInstance@MPyMRenderItemList_Type@MHWRender@@SAPEAV?$MPyObject@VMRenderItemList@MHWRender@@@@PEAVMRenderItemList@2@@Z
?createInstance@MPyMRenderItemList_Type@MHWRender@@SAPEAV?$MPyObject@VMRenderItemList@MHWRender@@@@XZ
?createInstance@MPyMRenderItem_Type@MHWRender@@SAPEAV?$MPyObject@VMRenderItem@MHWRender@@@@PEAU_object@@0@Z
?createInstance@MPyMRenderItem_Type@MHWRender@@SAPEAV?$MPyObject@VMRenderItem@MHWRender@@@@PEAVMRenderItem@2@@Z
?createInstance@MPyMRenderItem_Type@MHWRender@@SAPEAV?$MPyObject@VMRenderItem@MHWRender@@@@XZ
?createInstance@MPyMRenderOperation_Type@MHWRender@@SAPEAV?$MPyObject@VMRenderOperation@MHWRender@@@@PEAU_object@@0@Z
?createInstance@MPyMRenderOperation_Type@MHWRender@@SAPEAV?$MPyObject@VMRenderOperation@MHWRender@@@@PEAVMRenderOperation@2@@Z
?createInstance@MPyMRenderOperation_Type@MHWRender@@SAPEAV?$MPyObject@VMRenderOperation@MHWRender@@@@XZ
?createInstance@MPyMRenderOverride_Type@MHWRender@@SAPEAV?$MPyObject@VMRenderOverride@MHWRender@@@@PEAU_object@@0@Z
?createInstance@MPyMRenderOverride_Type@MHWRender@@SAPEAV?$MPyObject@VMRenderOverride@MHWRender@@@@PEAVMRenderOverride@2@@Z
?createInstance@MPyMRenderOverride_Type@MHWRender@@SAPEAV?$MPyObject@VMRenderOverride@MHWRender@@@@XZ
?createInstance@MPyMRenderTargetDescription_Type@MHWRender@@SAPEAV?$MPyObject@VMRenderTargetDescription@MHWRender@@@@PEAU_object@@0@Z
?createInstance@MPyMRenderTargetDescription_Type@MHWRender@@SAPEAV?$MPyObject@VMRenderTargetDescription@MHWRender@@@@PEAVMRenderTargetDescription@2@@Z
?createInstance@MPyMRenderTargetDescription_Type@MHWRender@@SAPEAV?$MPyObject@VMRenderTargetDescription@MHWRender@@@@XZ
?createInstance@MPyMRenderTargetManager_Type@MHWRender@@SAPEAV?$MPyObject@VMRenderTargetManager@MHWRender@@@@PEAU_object@@0@Z
?createInstance@MPyMRenderTargetManager_Type@MHWRender@@SAPEAV?$MPyObject@VMRenderTargetManager@MHWRender@@@@PEAVMRenderTargetManager@2@@Z
?createInstance@MPyMRenderTargetManager_Type@MHWRender@@SAPEAV?$MPyObject@VMRenderTargetManager@MHWRender@@@@XZ
?createInstance@MPyMRenderTarget_Type@MHWRender@@SAPEAV?$MPyObject@VMRenderTarget@MHWRender@@@@PEAU_object@@0@Z
?createInstance@MPyMRenderTarget_Type@MHWRender@@SAPEAV?$MPyObject@VMRenderTarget@MHWRender@@@@PEAVMRenderTarget@2@@Z
?createInstance@MPyMRenderTarget_Type@MHWRender@@SAPEAV?$MPyObject@VMRenderTarget@MHWRender@@@@XZ
?createInstance@MPyMSamplerStateDesc_Type@MHWRender@@SAPEAV?$MPyObject@VMSamplerStateDesc@MHWRender@@@@PEAU_object@@0@Z
?createInstance@MPyMSamplerStateDesc_Type@MHWRender@@SAPEAV?$MPyObject@VMSamplerStateDesc@MHWRender@@@@PEAVMSamplerStateDesc@2@@Z
?createInstance@MPyMSamplerStateDesc_Type@MHWRender@@SAPEAV?$MPyObject@VMSamplerStateDesc@MHWRender@@@@XZ
?createInstance@MPyMSamplerState_Type@MHWRender@@SAPEAV?$MPyObject@VMSamplerState@MHWRender@@@@PEAU_object@@0@Z
?createInstance@MPyMSamplerState_Type@MHWRender@@SAPEAV?$MPyObject@VMSamplerState@MHWRender@@@@PEAVMSamplerState@2@@Z
?createInstance@MPyMSamplerState_Type@MHWRender@@SAPEAV?$MPyObject@VMSamplerState@MHWRender@@@@XZ
?createInstance@MPyMSceneRender_Type@MHWRender@@SAPEAV?$MPyObject@VMSceneRender@MHWRender@@@@PEAU_object@@0@Z
?createInstance@MPyMSceneRender_Type@MHWRender@@SAPEAV?$MPyObject@VMSceneRender@MHWRender@@@@PEAVMSceneRender@2@@Z
?createInstance@MPyMSceneRender_Type@MHWRender@@SAPEAV?$MPyObject@VMSceneRender@MHWRender@@@@XZ
?createInstance@MPyMSelectionContext_Type@MHWRender@@SAPEAV?$MPyObject@VMSelectionContext@MHWRender@@@@PEAU_object@@0@Z
?createInstance@MPyMSelectionContext_Type@MHWRender@@SAPEAV?$MPyObject@VMSelectionContext@MHWRender@@@@PEAVMSelectionContext@2@@Z
?createInstance@MPyMSelectionContext_Type@MHWRender@@SAPEAV?$MPyObject@VMSelectionContext@MHWRender@@@@XZ
?createInstance@MPyMSelectionInfo_Type@MHWRender@@SAPEAV?$MPyObject@VMSelectionInfo@MHWRender@@@@PEAU_object@@0@Z
?createInstance@MPyMSelectionInfo_Type@MHWRender@@SAPEAV?$MPyObject@VMSelectionInfo@MHWRender@@@@PEAVMSelectionInfo@2@@Z
?createInstance@MPyMSelectionInfo_Type@MHWRender@@SAPEAV?$MPyObject@VMSelectionInfo@MHWRender@@@@XZ
?createInstance@MPyMShaderCompileMacroStub_Type@MHWRender@@SAPEAV?$MPyObject@VMShaderCompileMacroStub@MHWRender@@@@PEAU_object@@0@Z
?createInstance@MPyMShaderCompileMacroStub_Type@MHWRender@@SAPEAV?$MPyObject@VMShaderCompileMacroStub@MHWRender@@@@PEAVMShaderCompileMacroStub@2@@Z
?createInstance@MPyMShaderCompileMacroStub_Type@MHWRender@@SAPEAV?$MPyObject@VMShaderCompileMacroStub@MHWRender@@@@XZ
?createInstance@MPyMShaderInstance_Type@MHWRender@@SAPEAV?$MPyObject@VMShaderInstance@MHWRender@@@@PEAU_object@@0@Z
?createInstance@MPyMShaderInstance_Type@MHWRender@@SAPEAV?$MPyObject@VMShaderInstance@MHWRender@@@@PEAVMShaderInstance@2@@Z
?createInstance@MPyMShaderInstance_Type@MHWRender@@SAPEAV?$MPyObject@VMShaderInstance@MHWRender@@@@XZ
?createInstance@MPyMShaderManager_Type@MHWRender@@SAPEAV?$MPyObject@VMShaderManager@MHWRender@@@@PEAU_object@@0@Z
?createInstance@MPyMShaderManager_Type@MHWRender@@SAPEAV?$MPyObject@VMShaderManager@MHWRender@@@@PEAVMShaderManager@2@@Z
?createInstance@MPyMShaderManager_Type@MHWRender@@SAPEAV?$MPyObject@VMShaderManager@MHWRender@@@@XZ
?createInstance@MPyMStateManager_Type@MHWRender@@SAPEAV?$MPyObject@VMStateManager@MHWRender@@@@PEAU_object@@0@Z
?createInstance@MPyMStateManager_Type@MHWRender@@SAPEAV?$MPyObject@VMStateManager@MHWRender@@@@PEAVMStateManager@2@@Z
?createInstance@MPyMStateManager_Type@MHWRender@@SAPEAV?$MPyObject@VMStateManager@MHWRender@@@@XZ
?createInstance@MPyMStencilOpDesc_Type@MHWRender@@SAPEAV?$MPyObject@VMStencilOpDesc@MHWRender@@@@PEAU_object@@0@Z
?createInstance@MPyMStencilOpDesc_Type@MHWRender@@SAPEAV?$MPyObject@VMStencilOpDesc@MHWRender@@@@PEAVMStencilOpDesc@2@@Z
?createInstance@MPyMStencilOpDesc_Type@MHWRender@@SAPEAV?$MPyObject@VMStencilOpDesc@MHWRender@@@@XZ
?createInstance@MPyMSubSceneContainerIterator_Type@MHWRender@@SAPEAV?$MPyObject@VMSubSceneContainerIterator@MHWRender@@@@PEAU_object@@0@Z
?createInstance@MPyMSubSceneContainerIterator_Type@MHWRender@@SAPEAV?$MPyObject@VMSubSceneContainerIterator@MHWRender@@@@PEAVMSubSceneContainerIterator@2@@Z
?createInstance@MPyMSubSceneContainerIterator_Type@MHWRender@@SAPEAV?$MPyObject@VMSubSceneContainerIterator@MHWRender@@@@XZ
?createInstance@MPyMSubSceneContainer_Type@MHWRender@@SAPEAV?$MPyObject@VMSubSceneContainer@MHWRender@@@@PEAU_object@@0@Z
?createInstance@MPyMSubSceneContainer_Type@MHWRender@@SAPEAV?$MPyObject@VMSubSceneContainer@MHWRender@@@@PEAVMSubSceneContainer@2@@Z
?createInstance@MPyMSubSceneContainer_Type@MHWRender@@SAPEAV?$MPyObject@VMSubSceneContainer@MHWRender@@@@XZ
?createInstance@MPyMSwatchRenderBase_Type@@SAPEAV?$MPyObject@VMSwatchRenderBase@@@@PEAU_object@@0@Z
?createInstance@MPyMSwatchRenderBase_Type@@SAPEAV?$MPyObject@VMSwatchRenderBase@@@@PEAVMSwatchRenderBase@@@Z
?createInstance@MPyMSwatchRenderBase_Type@@SAPEAV?$MPyObject@VMSwatchRenderBase@@@@XZ
?createInstance@MPyMTargetBlendDesc_Type@MHWRender@@SAPEAV?$MPyObject@VMTargetBlendDesc@MHWRender@@@@PEAU_object@@0@Z
?createInstance@MPyMTargetBlendDesc_Type@MHWRender@@SAPEAV?$MPyObject@VMTargetBlendDesc@MHWRender@@@@PEAVMTargetBlendDesc@2@@Z
?createInstance@MPyMTargetBlendDesc_Type@MHWRender@@SAPEAV?$MPyObject@VMTargetBlendDesc@MHWRender@@@@XZ
?createInstance@MPyMTextureDescription_Type@MHWRender@@SAPEAV?$MPyObject@VMTextureDescription@MHWRender@@@@PEAU_object@@0@Z
?createInstance@MPyMTextureDescription_Type@MHWRender@@SAPEAV?$MPyObject@VMTextureDescription@MHWRender@@@@PEAVMTextureDescription@2@@Z
?createInstance@MPyMTextureDescription_Type@MHWRender@@SAPEAV?$MPyObject@VMTextureDescription@MHWRender@@@@XZ
?createInstance@MPyMTextureManager_Type@MHWRender@@SAPEAV?$MPyObject@VMTextureManager@MHWRender@@@@PEAU_object@@0@Z
?createInstance@MPyMTextureManager_Type@MHWRender@@SAPEAV?$MPyObject@VMTextureManager@MHWRender@@@@PEAVMTextureManager@2@@Z
?createInstance@MPyMTextureManager_Type@MHWRender@@SAPEAV?$MPyObject@VMTextureManager@MHWRender@@@@XZ
?createInstance@MPyMTextureUpdateRegion_Type@MHWRender@@SAPEAV?$MPyObject@VMTextureUpdateRegion@MHWRender@@@@PEAU_object@@0@Z
?createInstance@MPyMTextureUpdateRegion_Type@MHWRender@@SAPEAV?$MPyObject@VMTextureUpdateRegion@MHWRender@@@@PEAVMTextureUpdateRegion@2@@Z
?createInstance@MPyMTextureUpdateRegion_Type@MHWRender@@SAPEAV?$MPyObject@VMTextureUpdateRegion@MHWRender@@@@XZ
?createInstance@MPyMTexture_Type@MHWRender@@SAPEAV?$MPyObject@VMTexture@MHWRender@@@@PEAU_object@@0@Z
?createInstance@MPyMTexture_Type@MHWRender@@SAPEAV?$MPyObject@VMTexture@MHWRender@@@@PEAVMTexture@2@@Z
?createInstance@MPyMTexture_Type@MHWRender@@SAPEAV?$MPyObject@VMTexture@MHWRender@@@@XZ
?createInstance@MPyMUIDrawManager_Type@MHWRender@@SAPEAV?$MPyObject@VMUIDrawManager@MHWRender@@@@PEAU_object@@0@Z
?createInstance@MPyMUIDrawManager_Type@MHWRender@@SAPEAV?$MPyObject@VMUIDrawManager@MHWRender@@@@PEAVMUIDrawManager@2@@Z
?createInstance@MPyMUIDrawManager_Type@MHWRender@@SAPEAV?$MPyObject@VMUIDrawManager@MHWRender@@@@XZ
?createInstance@MPyMUserRenderOperation_Type@MHWRender@@SAPEAV?$MPyObject@VMUserRenderOperation@MHWRender@@@@PEAU_object@@0@Z
?createInstance@MPyMUserRenderOperation_Type@MHWRender@@SAPEAV?$MPyObject@VMUserRenderOperation@MHWRender@@@@PEAVMUserRenderOperation@2@@Z
?createInstance@MPyMUserRenderOperation_Type@MHWRender@@SAPEAV?$MPyObject@VMUserRenderOperation@MHWRender@@@@XZ
?createInstance@MPyMVertexBufferArray_Type@MHWRender@@SAPEAV?$MPyObject@VMVertexBufferArray@MHWRender@@@@PEAU_object@@0@Z
?createInstance@MPyMVertexBufferArray_Type@MHWRender@@SAPEAV?$MPyObject@VMVertexBufferArray@MHWRender@@@@PEAVMVertexBufferArray@2@@Z
?createInstance@MPyMVertexBufferArray_Type@MHWRender@@SAPEAV?$MPyObject@VMVertexBufferArray@MHWRender@@@@XZ
?createInstance@MPyMVertexBufferDescriptorList_Type@MHWRender@@SAPEAV?$MPyObject@VMVertexBufferDescriptorList@MHWRender@@@@PEAU_object@@0@Z
?createInstance@MPyMVertexBufferDescriptorList_Type@MHWRender@@SAPEAV?$MPyObject@VMVertexBufferDescriptorList@MHWRender@@@@PEAVMVertexBufferDescriptorList@2@@Z
?createInstance@MPyMVertexBufferDescriptorList_Type@MHWRender@@SAPEAV?$MPyObject@VMVertexBufferDescriptorList@MHWRender@@@@XZ
?createInstance@MPyMVertexBufferDescriptor_Type@MHWRender@@SAPEAV?$MPyObject@VMVertexBufferDescriptor@MHWRender@@@@PEAU_object@@0@Z
?createInstance@MPyMVertexBufferDescriptor_Type@MHWRender@@SAPEAV?$MPyObject@VMVertexBufferDescriptor@MHWRender@@@@PEAVMVertexBufferDescriptor@2@@Z
?createInstance@MPyMVertexBufferDescriptor_Type@MHWRender@@SAPEAV?$MPyObject@VMVertexBufferDescriptor@MHWRender@@@@XZ
?createInstance@MPyMVertexBuffer_Type@MHWRender@@SAPEAV?$MPyObject@VMVertexBuffer@MHWRender@@@@PEAU_object@@0@Z
?createInstance@MPyMVertexBuffer_Type@MHWRender@@SAPEAV?$MPyObject@VMVertexBuffer@MHWRender@@@@PEAVMVertexBuffer@2@@Z
?createInstance@MPyMVertexBuffer_Type@MHWRender@@SAPEAV?$MPyObject@VMVertexBuffer@MHWRender@@@@XZ
?createShaderInstanceWithColorManagementFragment@MShaderInstance@MHWRender@@QEAAPEAV12@AEBVMString@@@Z
?createVertexBuffer@MGeometry@MHWRender@@QEAAPEAVMVertexBuffer@2@AEBVMVertexBufferDescriptor@2@@Z
?cullMode@MGeometryList@@QEBA?AW4MCullMode@1@XZ
?cullingOverride@MSceneRender@MHWRender@@UEAA?AW4MCullingOption@12@XZ
?currentLayer@MFnRenderLayer@@SA?AVMObject@@PEAVMStatus@@@Z
?customData@MRenderItem@MHWRender@@QEBAPEAVMUserData@@XZ
?customTokenString@MFnRenderPass@@QEBA?AVMString@@PEAVMStatus@@@Z
?dagPath@MGeometryIndexMapping@MHWRender@@QEBA?AVMDagPath@@H@Z
?data@MGeometry@@QEAA?BVMGeometryData@@W4DataType@2@AEBVMString@@@Z
?data@MGeometryData@@QEBAPEAXXZ
?data@MGeometryPrimitive@@QEBAPEBXXZ
?dataType@MGeometryData@@QEBA?AW4DataType@1@XZ
?dataType@MGeometryPrimitive@@QEBA?AW4ElementType@MGeometryData@@XZ
?dataType@MIndexBuffer@MHWRender@@QEBA?AW4DataType@MGeometry@2@XZ
?dataType@MIndexBufferDescriptor@MHWRender@@QEAAXW4DataType@MGeometry@2@@Z
?dataType@MIndexBufferDescriptor@MHWRender@@QEBA?AW4DataType@MGeometry@2@XZ
?dataType@MVertexBufferDescriptor@MHWRender@@QEBA?AW4DataType@MGeometry@2@XZ
?dataTypeSize@MVertexBufferDescriptor@MHWRender@@QEBAIXZ
?dataTypeString@MGeometry@MHWRender@@SAAEBVMString@@W4DataType@12@@Z
?defaultRenderLayer@MFnRenderLayer@@SA?AVMObject@@PEAVMStatus@@@Z
?deleteIndexBuffer@MGeometry@MHWRender@@QEAA_NH@Z
?deleteVertexBuffer@MGeometry@MHWRender@@QEAA_NH@Z
?depthPriority@MRenderItem@MHWRender@@QEAAXI@Z
?depthPriority@MRenderItem@MHWRender@@QEBAIXZ
?depthPriority@MUIDrawManager@MHWRender@@QEBAIXZ
?depthStencilStateOverride@MQuadRender@MHWRender@@UEAAPEBVMDepthStencilState@2@XZ
?dereferenceDefaultGeometry@MGeometryManager@@SA?AVMStatus@@PEAVMGeometryList@@@Z
?dereferenceGeometry@MHardwareRenderer@@QEAA?AVMStatus@@PEAVMGeometryData@@I@Z
?deregisterComponentConverter@MDrawRegistry@MHWRender@@SA?AVMStatus@@AEBVMString@@@Z
?deregisterDrawOverrideCreator@MDrawRegistry@MHWRender@@SA?AVMStatus@@AEBVMString@@0@Z
?deregisterGeometryOverrideCreator@MDrawRegistry@MHWRender@@SA?AVMStatus@@AEBVMString@@0@Z
?deregisterIndexBufferMutator@MDrawRegistry@MHWRender@@SA?AVMStatus@@AEBVMString@@@Z
?deregisterOverride@MRenderer@MHWRender@@QEAA?AVMStatus@@PEBVMRenderOverride@2@@Z
?deregisterOverrideCreator@MDrawRegistry@MHWRender@@CA?AVMStatus@@AEBVMString@@0PEBD@Z
?deregisterPrimitiveGenerator@MDrawRegistry@MHWRender@@SA?AVMStatus@@AEBVMString@@@Z
?deregisterRenderer@MViewportRenderer@@QEBA?AVMStatus@@XZ
?deregisterShaderOverrideCreator@MDrawRegistry@MHWRender@@SA?AVMStatus@@AEBVMString@@0@Z
?deregisterShadingNodeOverrideCreator@MDrawRegistry@MHWRender@@SA?AVMStatus@@AEBVMString@@0@Z
?deregisterSubSceneOverrideCreator@MDrawRegistry@MHWRender@@SA?AVMStatus@@AEBVMString@@0@Z
?deregisterSurfaceShadingNodeOverrideCreator@MDrawRegistry@MHWRender@@SA?AVMStatus@@AEBVMString@@0@Z
?deregisterTextureFile@MHwTextureManager@@SA?AVMStatus@@AEBH@Z
?deregisterVertexBufferGenerator@MDrawRegistry@MHWRender@@SA?AVMStatus@@AEBVMString@@@Z
?deregisterVertexBufferMutator@MDrawRegistry@MHWRender@@SA?AVMStatus@@AEBVMString@@@Z
?desc@MBlendState@MHWRender@@QEBAAEBVMBlendStateDesc@2@PEAVMStatus@@@Z
?desc@MDepthStencilState@MHWRender@@QEBAAEBVMDepthStencilStateDesc@2@PEAVMStatus@@@Z
?desc@MRasterizerState@MHWRender@@QEBAAEBVMRasterizerStateDesc@2@PEAVMStatus@@@Z
?desc@MSamplerState@MHWRender@@QEBAAEBVMSamplerStateDesc@2@PEAVMStatus@@@Z
?descriptor@MVertexBuffer@MHWRender@@QEBAAEBVMVertexBufferDescriptor@2@XZ
?destinationSet@MVaryingParameter@@QEBA?AVMString@@XZ
?destroy@ConstIterator@MSubSceneContainer@MHWRender@@QEAAXXZ
?destroy@Iterator@MSubSceneContainer@MHWRender@@QEAAXXZ
?destroyScene@MPxRenderer@@UEAA?AVMStatus@@XZ
?deviceDeleted@MHwrCallback@@UEAAXXZ
?deviceLost@MHwrCallback@@UEAAXXZ
?deviceNew@MHwrCallback@@UEAAXXZ
?deviceReset@MHwrCallback@@UEAAXXZ
?diffuseReflectance@MRenderUtil@@SAMPEBXAEBVMFloatVector@@11_NPEAVMStatus@@@Z
?dimension@MVaryingParameter@@QEBAHXZ
?dimension@MVertexBufferDescriptor@MHWRender@@QEBAHXZ
?disableChangeManagementUntilNextRefresh@MRenderer@MHWRender@@SAXXZ
?disableInternalBoundingBoxDraw@MPxDrawOverride@MHWRender@@UEBA_NXZ
?displayModeOverride@MSceneRender@MHWRender@@UEAA?AW4MDisplayMode@12@XZ
?displayStatus@MGeometryUtilities@MHWRender@@SA?AW4DisplayStatus@2@AEBVMDagPath@@PEAVMStatus@@@Z
?doIteration@?$MPyMSwatchRenderBase_DirectorImpl@VMSwatchRenderBase@@@@UEAA_NXZ
?doIteration@MSwatchRenderBase@@UEAA_NXZ
?doesRenderEditorExist@MRenderView@@SA_NXZ
?drawAPI@MRenderer@MHWRender@@QEBA?AW4DrawAPI@2@XZ
?drawAPIIsOpenGL@MRenderer@MHWRender@@QEBA_NXZ
?drawAPIVersion@MRenderer@MHWRender@@QEBAIXZ
?drawGeometry@MPxShaderOverride@MHWRender@@IEBAXAEBVMDrawContext@2@@Z
?drawMode@MRenderItem@MHWRender@@QEBA?AW4DrawMode@MGeometry@2@XZ
?drawModeString@MGeometry@MHWRender@@SA?BVMString@@W4DrawMode@12@@Z
?drawPrimitiveType@MGeometryPrimitive@@QEBA?AW4DrawPrimitiveType@1@XZ
?drawRenderItem@MPxDrawOverride@MHWRender@@KA?AVMStatus@@AEBVMDrawContext@2@AEAVMRenderItem@2@@Z
?drawSimpleMesh@MRenderUtilities@MHWRender@@SA?AVMStatus@@AEAVMDrawContext@2@AEBVMVertexBuffer@2@AEBVMIndexBuffer@2@W4Primitive@MGeometry@2@HH@Z
?drawSwatchBackGroundQuads@MHardwareRenderer@@QEBAXAEBVMColor@@_NI@Z
?edgeInterpolantValue@MIntersection@MHWRender@@QEBAMPEAVMStatus@@@Z
?elementCount@MGeometryData@@QEBAIXZ
?elementCount@MGeometryPrimitive@@QEBAIXZ
?elementSize@MGeometryData@@QEBA?AW4ElementSize@1@XZ
?elementType@MGeometryData@@QEBA?AW4ElementType@1@XZ
?elementTypeSize@MGeometryData@@QEBAIXZ
?enable@MRenderItem@MHWRender@@QEAAX_N@Z
?enableSRGBWrite@MRenderOperation@MHWRender@@UEAA_NXZ
?enableSwatchRender@MSwatchRenderBase@@SAX_N@Z
?enabled@MDrawProcedureBase@@QEBA_NXZ
?endDrawInXray@MUIDrawManager@MHWRender@@QEAAXXZ
?endDrawable@MUIDrawManager@MHWRender@@QEAAXXZ
?endRender@MRenderView@@SA?AVMStatus@@XZ
?endSceneUpdate@MPxRenderer@@UEAA?AVMStatus@@XZ
?endUpdate@MPxShaderOverride@MHWRender@@UEAAXXZ
?eval2dTexture@MRenderUtil@@SA?AVMStatus@@AEBVMObject@@AEAVMDoubleArray@@1PEAVMVectorArray@@PEAV4@@Z
?exactFileTextureName@MRenderUtil@@SA?AVMString@@AEBV2@_N00PEAVMStatus@@@Z
?exactFileTextureName@MRenderUtil@@SA?AVMString@@AEBV2@_N0PEAVMStatus@@@Z
?exactFileTextureName@MRenderUtil@@SA?AVMString@@AEBVMObject@@PEAVMStatus@@@Z
?exactFileTextureName@MRenderUtil@@SA_NAEBVMObject@@AEAVMString@@PEAVMStatus@@@Z
?exactFileTextureName@MRenderUtil@@SA_NAEBVMString@@_N00AEAV2@PEAVMStatus@@@Z
?exactFileTextureName@MRenderUtil@@SA_NAEBVMString@@_N0AEAV2@PEAVMStatus@@@Z
?exactFileTextureUvTileData@MRenderUtil@@SA_NAEBVMObject@@AEAVMStringArray@@AEAVMFloatArray@@PEAVMStatus@@@Z
?exactImagePlaneFileName@MRenderUtil@@SA?AVMString@@AEBVMObject@@PEAVMStatus@@@Z
?exactImagePlaneFileName@MRenderUtil@@SA_NAEBVMObject@@AEAVMString@@PEAVMStatus@@@Z
?excludedFromPostEffects@MRenderItem@MHWRender@@QEBA_NXZ
?extensionExists@MGLFunctionTable@@QEAA_NW4MGLExtension@@@Z
?externalRenderPasses@MFnRenderLayer@@QEBA?AVMStatus@@AEAVMObjectArray@@@Z
?fErrorDesc@MBlendState@MHWRender@@0PEAVMBlendStateDesc@2@EA
?fErrorDesc@MDepthStencilState@MHWRender@@0PEAVMDepthStencilStateDesc@2@EA
?fErrorDesc@MRasterizerState@MHWRender@@0PEAVMRasterizerStateDesc@2@EA
?fErrorDesc@MSamplerState@MHWRender@@0PEAVMSamplerStateDesc@2@EA
?fRegisteringCallableScript@MDrawRegistry@MHWRender@@0_NA
?find@MSubSceneContainer@MHWRender@@QEAAPEAVMRenderItem@2@AEBVMString@@@Z
?find@MSubSceneContainer@MHWRender@@QEBAPEBVMRenderItem@2@AEBVMString@@@Z
?findByAttributeName@MAttributeParameterMappingList@MHWRender@@QEBAPEBVMAttributeParameterMapping@2@AEBVMString@@@Z
?findByParameterName@MAttributeParameterMappingList@MHWRender@@QEBAPEBVMAttributeParameterMapping@2@AEBVMString@@@Z
?findDrawProcedure@MHardwareRenderer@@QEBAPEAVMDrawProcedureBase@@AEBVMString@@W4CallLocation@1@0@Z
?findLayerByName@MFnRenderLayer@@SA?AVMObject@@AEBVMString@@PEAVMStatus@@@Z
?findParameterFromName@MLightParameterInformation@MHWRender@@AEBAPEAXAEBVMString@@AEAVMStatus@@@Z
?findParametersBySemantic@MLightParameterInformation@MHWRender@@AEBAXW4StockParameterSemantic@12@PEAX@Z
?findRenderOverride@MRenderer@MHWRender@@QEAAPEBVMRenderOverride@2@AEBVMString@@@Z
?findTexture@MTextureManager@MHWRender@@QEAAPEAVMTexture@2@AEBVMString@@@Z
?finishParallelRender@MPyMSwatchRenderBase_Director@@QEAAXXZ
?finishParallelRender@MSwatchRenderBase@@IEAAXXZ
?formatSupportsSRGBWrite@MRenderTargetManager@MHWRender@@QEBA_NW4MRasterFormat@2@@Z
?fragmentList@MFragmentManager@MHWRender@@QEBAXAEAVMStringArray@@@Z
?frameBufferChannels@MFnRenderPass@@QEBAIPEAVMStatus@@@Z
?frameBufferType@MFnRenderPass@@QEBA?AW4PassTypeBit@MPxRenderPassImpl@@PEAVMStatus@@@Z
?freeRawData@MRenderTarget@MHWRender@@SAXPEAX@Z
?freeRawData@MTexture@MHWRender@@SAXPEAX@Z
?fsGLFunctionTable@MHardwareRenderer@@1PEAVMGLFunctionTable@@EA
?fsHardwareRenderer@MD3D9Renderer@@0PEAV1@EA
?fsHardwareRenderer@MHardwareRenderer@@1PEAV1@EA
?fsTheRenderer@MRenderer@MHWRender@@0PEAV12@EA
?furtherUpdateRequired@MPxSubSceneOverride@MHWRender@@UEAA_NAEBVMFrameContext@2@@Z
?generatingIprFile@MRenderUtil@@SA_NXZ
?geometry@MGeometryList@@QEAAAEAVMGeometry@@H@Z
?geometry@MRenderItem@MHWRender@@QEBAPEBVMGeometry@2@XZ
?geometryCount@MGeometryIndexMapping@MHWRender@@QEBAHXZ
?get@MRenderingInfo@@AEBAPEBXXZ
?getAlignmentMatrix@MSelectionInfo@MHWRender@@QEBA?AVMMatrix@@PEAVMStatus@@@Z
?getAsBool@MUniformParameter@@QEBA_NAEBVMDrawContext@MHWRender@@@Z
?getAsBool@MUniformParameter@@QEBA_NAEBVMGeometryList@@@Z
?getAsFloat@MUniformParameter@@QEBAMAEBVMDrawContext@MHWRender@@@Z
?getAsFloat@MUniformParameter@@QEBAMAEBVMGeometryList@@@Z
?getAsFloatArray@MUniformParameter@@QEBAPEBMAEBVMDrawContext@MHWRender@@@Z
?getAsFloatArray@MUniformParameter@@QEBAPEBMAEBVMGeometryList@@@Z
?getAsInt@MUniformParameter@@QEBAHAEBVMDrawContext@MHWRender@@@Z
?getAsInt@MUniformParameter@@QEBAHAEBVMGeometryList@@@Z
?getAsString@MUniformParameter@@QEBA?AVMString@@AEBVMDrawContext@MHWRender@@@Z
?getAsString@MUniformParameter@@QEBA?AVMString@@AEBVMGeometryList@@@Z
?getAssetInstance_2_0@MFnAdskMaterial@@QEAAPEAVIAssetInstance@assets@platform@autodesk@@PEAVMStatus@@@Z
?getBackgroundParameters@MFrameContext@MHWRender@@QEBAXAEAUBackgroundParams@12@@Z
?getBlendState@MStateManager@MHWRender@@QEBAPEBVMBlendState@2@PEAVMStatus@@@Z
?getBuffer@MVaryingParameter@@QEBA?AVMStatus@@AEAVMGeometry@@AEAPEBXAEAI2@Z
?getBuffer@MVertexBufferArray@MHWRender@@QEBAPEAVMVertexBuffer@2@AEBVMString@@@Z
?getBuffer@MVertexBufferArray@MHWRender@@QEBAPEAVMVertexBuffer@2@I@Z
?getBufferName@MCommonRenderSettingsData@@QEBA?BVMString@@AEBVMObject@@0AEBV2@1_NPEAVMStatus@@@Z
?getBufferSize@MHardwareRenderer@@QEBA?AVMStatus@@AEBVMString@@AEAI1@Z
?getColorBufferPixelFormat@MHardwareRenderer@@QEBA?AVMStatus@@AEBVMString@@AEAW4BufferPixelFormat@1@@Z
?getColorTransformCacheIdForInputSpace@MColorManagementUtilities@@SA?AVMStatus@@AEBVMString@@AEAV3@@Z
?getColorTransformCacheIdForOutputTransform@MColorManagementUtilities@@SA?AVMStatus@@AEAVMString@@@Z
?getCommonRenderSettings@MRenderUtil@@SAXAEAVMCommonRenderSettingsData@@@Z
?getConstIterator@MSubSceneContainer@MHWRender@@QEBAPEAVConstIterator@12@XZ
?getCurrentCameraPath@MFrameContext@MHWRender@@QEBA?AVMDagPath@@PEAVMStatus@@@Z
?getCurrentColorRenderTarget@MFrameContext@MHWRender@@QEBAPEBVMRenderTarget@2@XZ
?getCurrentDepthRenderTarget@MFrameContext@MHWRender@@QEBAPEBVMRenderTarget@2@XZ
?getCurrentExposureNumber@MHardwareRenderer@@QEBA?AVMStatus@@AEBVMString@@AEAI@Z
?getCustomMappings@MPxShadingNodeOverride@MHWRender@@UEAAXAEAVMAttributeParameterMappingList@2@@Z
?getD3D9Device@MD3D9Renderer@@QEAAPEAUIDirect3DDevice9@@XZ
?getDOFParameters@MFrameContext@MHWRender@@QEBAXAEAUDOFParams@12@@Z
?getData@MColorTransformData@MColorManagementUtilities@@QEBAPEBXXZ
?getDepthBufferPixelFormat@MHardwareRenderer@@QEBA?AVMStatus@@AEBVMString@@AEAW4BufferPixelFormat@1@@Z
?getDepthRange@MDrawContext@MHWRender@@QEBA?AVMStatus@@AEAM0@Z
?getDepthStencilState@MStateManager@MHWRender@@QEBAPEBVMDepthStencilState@2@PEAVMStatus@@@Z
?getDescriptor@MIndexBufferDescriptorList@MHWRender@@QEBA_NHAEAVMIndexBufferDescriptor@2@@Z
?getDescriptor@MVertexBufferDescriptorList@MHWRender@@QEBA_NHAEAVMVertexBufferDescriptor@2@@Z
?getDisplayStyle@MFrameContext@MHWRender@@QEBAIXZ
?getDrawProcedureCount@MHardwareRenderer@@QEBA?AW4DrawProcedureStatusCode@1@AEBVMString@@W4CallLocation@1@AEAI@Z
?getDrawProcedureListNames@MHardwareRenderer@@QEBA?AW4DrawProcedureStatusCode@1@AEBVMString@@W4CallLocation@1@AEAVMStringArray@@@Z
?getEffectOutputDirectory@MFragmentManager@MHWRender@@QEBA?AVMString@@XZ
?getEffectsBufferShader@MShaderManager@MHWRender@@QEBAPEAVMShaderInstance@2@PEBXIAEBVMString@@PEAUMShaderCompileMacro@2@I_NP6AXAEAVMDrawContext@2@AEBVMRenderItemList@2@PEAV32@@Z7@Z
?getEffectsFileShader@MShaderManager@MHWRender@@QEBAPEAVMShaderInstance@2@AEBVMString@@0PEAUMShaderCompileMacro@2@I_NP6AXAEAVMDrawContext@2@AEBVMRenderItemList@2@PEAV32@@Z6@Z
?getEffectsTechniques@MShaderManager@MHWRender@@QEBAXAEBVMString@@AEAVMStringArray@@PEAUMShaderCompileMacro@2@I@Z
?getElement@MUniformParameterList@@QEBA?AVMUniformParameter@@H@Z
?getElement@MVaryingParameter@@QEBA?AV1@I@Z
?getElement@MVaryingParameterList@@QEBA?AVMVaryingParameter@@H@Z
?getElementSize@MVaryingParameter@@QEBAIXZ
?getFontList@MUIDrawManager@MHWRender@@SAIAEAVMStringArray@@@Z
?getFragmentManager@MRenderer@MHWRender@@QEBAPEAVMFragmentManager@2@XZ
?getFragmentShader@MShaderManager@MHWRender@@QEBAPEAVMShaderInstance@2@AEBVMString@@0_NP6AXAEAVMDrawContext@2@AEBVMRenderItemList@2@PEAV32@@Z5@Z
?getFragmentXML@MFragmentManager@MHWRender@@QEBA_NAEBVMObject@@AEAVMString@@_NPEBVMDagPath@@@Z
?getFragmentXML@MFragmentManager@MHWRender@@QEBA_NAEBVMString@@AEAV3@@Z
?getFrameStamp@MDrawContext@MHWRender@@QEBA_KXZ
?getFrustumBox@MDrawContext@MHWRender@@QEBA?AVMBoundingBox@@PEAVMStatus@@@Z
?getGeometry@MGeometryManager@@SA?AVMGeometry@@AEBVMDagPath@@AEBVMGeometryRequirements@@PEAVMObject@@@Z
?getGlobalLineWidth@MFrameContext@MHWRender@@UEBAMXZ
?getHwFogParameters@MFrameContext@MHWRender@@QEBA?AUHwFogParams@12@XZ
?getIconNames@MUIDrawManager@MHWRender@@SAIAEAVMStringArray@@@Z
?getIgnoredLights@MLightLinks@@QEAA?AVMStatus@@AEBVMDagPath@@AEBVMObject@@AEAVMDagPathArray@@@Z
?getIgnoredObjects@MLightLinks@@QEAA?AVMStatus@@AEBVMDagPath@@AEAVMSelectionList@@@Z
?getImageName@MCommonRenderSettingsData@@QEBA?BVMString@@W4MpathType@1@NAEBV2@11VMObject@@1_NPEAVMStatus@@@Z
?getImageName@MCommonRenderSettingsData@@QEBA?BVMString@@W4MpathType@1@NAEBV2@11VMObject@@_NPEAVMStatus@@@Z
?getImageName@MFnImageSource@@QEBA?AVMString@@W4MpathType@MCommonRenderSettingsData@@NAEBV2@VMObject@@2PEAV2@PEAVMStatus@@@Z
?getImplementation@MFnRenderPass@@QEBAPEAVMPxRenderPassImpl@@XZ
?getIndexBuffer@MIndexBuffer@MHWRender@@AEBAPEAXXZ
?getIntermediateGraphOutputDirectory@MFragmentManager@MHWRender@@QEBA?AVMString@@XZ
?getInternalTexture@MDrawContext@MHWRender@@QEBAPEBVMTexture@2@W4InternalTexture@12@@Z
?getIterator@MSubSceneContainer@MHWRender@@QEAAPEAVIterator@12@XZ
?getLightInformation@MDrawContext@MHWRender@@QEBA?AVMStatus@@IAEAVMFloatPointArray@@AEAVMFloatVector@@AEAMAEAVMColor@@AEA_N4W4LightFilter@12@@Z
?getLightLimit@MFrameContext@MHWRender@@QEBAIXZ
?getLightParameterInformation@MDrawContext@MHWRender@@QEBAPEAVMLightParameterInformation@2@IW4LightFilter@12@@Z
?getLightingMode@MFrameContext@MHWRender@@QEBA?AW4LightingMode@12@XZ
?getLinkedLights@MLightLinks@@QEAA?AVMStatus@@AEBVMDagPath@@AEBVMObject@@AEAVMDagPathArray@@@Z
?getLinkedObjects@MLightLinks@@QEAA?AVMStatus@@AEBVMDagPath@@AEAVMSelectionList@@@Z
?getLocalRay@MSelectionInfo@MHWRender@@QEBA?AVMStatus@@AEAVMPoint@@AEAVMVector@@@Z
?getMItem@MSubSceneContainer@MHWRender@@AEBAPEAVMRenderItem@2@PEAX@Z
?getMapping@MAttributeParameterMappingList@MHWRender@@QEBAPEBVMAttributeParameterMapping@2@I@Z
?getMatrix@MDrawContext@MHWRender@@UEBA?AVMMatrix@@W4MatrixType@MFrameContext@2@PEAVMStatus@@@Z
?getMatrix@MFrameContext@MHWRender@@UEBA?AVMMatrix@@W4MatrixType@12@PEAVMStatus@@@Z
?getMaxSamplerCount@MStateManager@MHWRender@@SAHXZ
?getMaximumStride@MVaryingParameter@@QEBAIXZ
?getMayaObj@MPyMAttributeParameterMappingList_Type@MHWRender@@SAPEAVMAttributeParameterMappingList@2@PEAU_object@@@Z
?getMayaObj@MPyMAttributeParameterMapping_Type@MHWRender@@SAPEAVMAttributeParameterMapping@2@PEAU_object@@@Z
?getMayaObj@MPyMBlendStateDesc_Type@MHWRender@@SAPEAVMBlendStateDesc@2@PEAU_object@@@Z
?getMayaObj@MPyMBlendState_Type@MHWRender@@SAPEAVMBlendState@2@PEAU_object@@@Z
?getMayaObj@MPyMCameraOverride_Type@MHWRender@@SAPEAVMCameraOverride@2@PEAU_object@@@Z
?getMayaObj@MPyMClearOperation_Type@MHWRender@@SAPEAVMClearOperation@2@PEAU_object@@@Z
?getMayaObj@MPyMComponentDataIndexingList_Type@MHWRender@@SAPEAVMComponentDataIndexingList@2@PEAU_object@@@Z
?getMayaObj@MPyMComponentDataIndexing_Type@MHWRender@@SAPEAVMComponentDataIndexing@2@PEAU_object@@@Z
?getMayaObj@MPyMDepthNormalizationDescription_Type@MHWRender@@SAPEAVMDepthNormalizationDescription@2@PEAU_object@@@Z
?getMayaObj@MPyMDepthStencilStateDesc_Type@MHWRender@@SAPEAVMDepthStencilStateDesc@2@PEAU_object@@@Z
?getMayaObj@MPyMDepthStencilState_Type@MHWRender@@SAPEAVMDepthStencilState@2@PEAU_object@@@Z
?getMayaObj@MPyMDrawContext_Type@MHWRender@@SAPEAVMDrawContext@2@PEAU_object@@@Z
?getMayaObj@MPyMFragmentManager_Type@MHWRender@@SAPEAVMFragmentManager@2@PEAU_object@@@Z
?getMayaObj@MPyMFrameContext_Type@MHWRender@@SAPEAVMFrameContext@2@PEAU_object@@@Z
?getMayaObj@MPyMGeometryExtractor_Type@MHWRender@@SAPEAVMGeometryExtractor@2@PEAU_object@@@Z
?getMayaObj@MPyMGeometryIndexMapping_Type@MHWRender@@SAPEAVMGeometryIndexMapping@2@PEAU_object@@@Z
?getMayaObj@MPyMGeometryRequirements_Type@MHWRender@@SAPEAVMGeometryRequirements@2@PEAU_object@@@Z
?getMayaObj@MPyMGeometry_Type@MHWRender@@SAPEAVMGeometry@2@PEAU_object@@@Z
?getMayaObj@MPyMHUDRender_Type@MHWRender@@SAPEAVMHUDRender@2@PEAU_object@@@Z
?getMayaObj@MPyMIndexBufferDescriptorList_Type@MHWRender@@SAPEAVMIndexBufferDescriptorList@2@PEAU_object@@@Z
?getMayaObj@MPyMIndexBufferDescriptor_Type@MHWRender@@SAPEAVMIndexBufferDescriptor@2@PEAU_object@@@Z
?getMayaObj@MPyMIndexBuffer_Type@MHWRender@@SAPEAVMIndexBuffer@2@PEAU_object@@@Z
?getMayaObj@MPyMIntersection_Type@MHWRender@@SAPEAVMIntersection@2@PEAU_object@@@Z
?getMayaObj@MPyMLightParameterInformation_Type@MHWRender@@SAPEAVMLightParameterInformation@2@PEAU_object@@@Z
?getMayaObj@MPyMPassContext_Type@MHWRender@@SAPEAVMPassContext@2@PEAU_object@@@Z
?getMayaObj@MPyMPresentTarget_Type@MHWRender@@SAPEAVMPresentTarget@2@PEAU_object@@@Z
?getMayaObj@MPyMPxComponentConverter_Type@MHWRender@@SAPEAVMPxComponentConverter@2@PEAU_object@@@Z
?getMayaObj@MPyMPxDrawOverride_Type@MHWRender@@SAPEAVMPyMPxDrawOverride_Director@2@PEAU_object@@@Z
?getMayaObj@MPyMPxGeometryOverride_Type@MHWRender@@SAPEAVMPyMPxGeometryOverride_Director@2@PEAU_object@@@Z
?getMayaObj@MPyMPxIndexBufferMutator_Type@MHWRender@@SAPEAVMPyMPxIndexBufferMutator_Director@2@PEAU_object@@@Z
?getMayaObj@MPyMPxPrimitiveGenerator_Type@MHWRender@@SAPEAVMPyMPxPrimitiveGenerator_Director@2@PEAU_object@@@Z
?getMayaObj@MPyMPxShaderOverride_MInitContext_Type@MHWRender@@SAPEAVMPxShaderOverride_MInitContext@2@PEAU_object@@@Z
?getMayaObj@MPyMPxShaderOverride_MInitFeedback_Type@MHWRender@@SAPEAVMPxShaderOverride_MInitFeedback@2@PEAU_object@@@Z
?getMayaObj@MPyMPxShaderOverride_Type@MHWRender@@SAPEAVMPyMPxShaderOverride_Director@2@PEAU_object@@@Z
?getMayaObj@MPyMPxShadingNodeOverride_Type@MHWRender@@SAPEAVMPyMPxShadingNodeOverride_Director@2@PEAU_object@@@Z
?getMayaObj@MPyMPxSubSceneOverride_Type@MHWRender@@SAPEAVMPyMPxSubSceneOverride_Director@2@PEAU_object@@@Z
?getMayaObj@MPyMPxSurfaceShadingNodeOverride_Type@MHWRender@@SAPEAVMPyMPxSurfaceShadingNodeOverride_Director@2@PEAU_object@@@Z
?getMayaObj@MPyMPxVertexBufferGenerator_Type@MHWRender@@SAPEAVMPyMPxVertexBufferGenerator_Director@2@PEAU_object@@@Z
?getMayaObj@MPyMPxVertexBufferMutator_Type@MHWRender@@SAPEAVMPyMPxVertexBufferMutator_Director@2@PEAU_object@@@Z
?getMayaObj@MPyMQuadRender_Type@MHWRender@@SAPEAVMQuadRender@2@PEAU_object@@@Z
?getMayaObj@MPyMRasterizerStateDesc_Type@MHWRender@@SAPEAVMRasterizerStateDesc@2@PEAU_object@@@Z
?getMayaObj@MPyMRasterizerState_Type@MHWRender@@SAPEAVMRasterizerState@2@PEAU_object@@@Z
?getMayaObj@MPyMRenderItemList_Type@MHWRender@@SAPEAVMRenderItemList@2@PEAU_object@@@Z
?getMayaObj@MPyMRenderItem_Type@MHWRender@@SAPEAVMRenderItem@2@PEAU_object@@@Z
?getMayaObj@MPyMRenderOperation_Type@MHWRender@@SAPEAVMRenderOperation@2@PEAU_object@@@Z
?getMayaObj@MPyMRenderOverride_Type@MHWRender@@SAPEAVMRenderOverride@2@PEAU_object@@@Z
?getMayaObj@MPyMRenderTargetDescription_Type@MHWRender@@SAPEAVMRenderTargetDescription@2@PEAU_object@@@Z
?getMayaObj@MPyMRenderTargetManager_Type@MHWRender@@SAPEAVMRenderTargetManager@2@PEAU_object@@@Z
?getMayaObj@MPyMRenderTarget_Type@MHWRender@@SAPEAVMRenderTarget@2@PEAU_object@@@Z
?getMayaObj@MPyMSamplerStateDesc_Type@MHWRender@@SAPEAVMSamplerStateDesc@2@PEAU_object@@@Z
?getMayaObj@MPyMSamplerState_Type@MHWRender@@SAPEAVMSamplerState@2@PEAU_object@@@Z
?getMayaObj@MPyMSceneRender_Type@MHWRender@@SAPEAVMSceneRender@2@PEAU_object@@@Z
?getMayaObj@MPyMSelectionContext_Type@MHWRender@@SAPEAVMSelectionContext@2@PEAU_object@@@Z
?getMayaObj@MPyMSelectionInfo_Type@MHWRender@@SAPEAVMSelectionInfo@2@PEAU_object@@@Z
?getMayaObj@MPyMShaderCompileMacroStub_Type@MHWRender@@SAPEAVMShaderCompileMacroStub@2@PEAU_object@@@Z
?getMayaObj@MPyMShaderInstance_Type@MHWRender@@SAPEAVMShaderInstance@2@PEAU_object@@@Z
?getMayaObj@MPyMShaderManager_Type@MHWRender@@SAPEAVMShaderManager@2@PEAU_object@@@Z
?getMayaObj@MPyMStateManager_Type@MHWRender@@SAPEAVMStateManager@2@PEAU_object@@@Z
?getMayaObj@MPyMStencilOpDesc_Type@MHWRender@@SAPEAVMStencilOpDesc@2@PEAU_object@@@Z
?getMayaObj@MPyMSubSceneContainerIterator_Type@MHWRender@@SAPEAVMSubSceneContainerIterator@2@PEAU_object@@@Z
?getMayaObj@MPyMSubSceneContainer_Type@MHWRender@@SAPEAVMSubSceneContainer@2@PEAU_object@@@Z
?getMayaObj@MPyMSwatchRenderBase_Type@@SAPEAVMSwatchRenderBase@@PEAU_object@@@Z
?getMayaObj@MPyMTargetBlendDesc_Type@MHWRender@@SAPEAVMTargetBlendDesc@2@PEAU_object@@@Z
?getMayaObj@MPyMTextureDescription_Type@MHWRender@@SAPEAVMTextureDescription@2@PEAU_object@@@Z
?getMayaObj@MPyMTextureManager_Type@MHWRender@@SAPEAVMTextureManager@2@PEAU_object@@@Z
?getMayaObj@MPyMTextureUpdateRegion_Type@MHWRender@@SAPEAVMTextureUpdateRegion@2@PEAU_object@@@Z
?getMayaObj@MPyMTexture_Type@MHWRender@@SAPEAVMTexture@2@PEAU_object@@@Z
?getMayaObj@MPyMUIDrawManager_Type@MHWRender@@SAPEAVMUIDrawManager@2@PEAU_object@@@Z
?getMayaObj@MPyMUserRenderOperation_Type@MHWRender@@SAPEAVMUserRenderOperation@2@PEAU_object@@@Z
?getMayaObj@MPyMVertexBufferArray_Type@MHWRender@@SAPEAVMVertexBufferArray@2@PEAU_object@@@Z
?getMayaObj@MPyMVertexBufferDescriptorList_Type@MHWRender@@SAPEAVMVertexBufferDescriptorList@2@PEAU_object@@@Z
?getMayaObj@MPyMVertexBufferDescriptor_Type@MHWRender@@SAPEAVMVertexBufferDescriptor@2@PEAU_object@@@Z
?getMayaObj@MPyMVertexBuffer_Type@MHWRender@@SAPEAVMVertexBuffer@2@PEAU_object@@@Z
?getName@MVertexBufferArray@MHWRender@@QEBA?AVMString@@I@Z
?getOutputTargetOverrideSize@MRenderer@MHWRender@@QEAAXAEAH0@Z
?getOwnedData@MRenderItem@MHWRender@@AEAAPEAXXZ
?getParameter@MLightParameterInformation@MHWRender@@AEAA?AVMStatus@@PEAXAEAVMSamplerStateDesc@2@@Z
?getParameter@MLightParameterInformation@MHWRender@@QEAA?AVMStatus@@AEBVMString@@AEAUMTextureAssignment@2@@Z
?getParameter@MLightParameterInformation@MHWRender@@QEAA?AVMStatus@@AEBVMString@@AEAVMFloatArray@@@Z
?getParameter@MLightParameterInformation@MHWRender@@QEAA?AVMStatus@@AEBVMString@@AEAVMIntArray@@@Z
?getParameter@MLightParameterInformation@MHWRender@@QEAA?AVMStatus@@AEBVMString@@AEAVMMatrix@@@Z
?getParameter@MLightParameterInformation@MHWRender@@QEAA?AVMStatus@@AEBVMString@@AEAVMSamplerStateDesc@2@@Z
?getParameter@MLightParameterInformation@MHWRender@@QEAA?AVMStatus@@W4StockParameterSemantic@12@AEAUMTextureAssignment@2@@Z
?getParameter@MLightParameterInformation@MHWRender@@QEAA?AVMStatus@@W4StockParameterSemantic@12@AEAVMFloatArray@@@Z
?getParameter@MLightParameterInformation@MHWRender@@QEAA?AVMStatus@@W4StockParameterSemantic@12@AEAVMIntArray@@@Z
?getParameter@MLightParameterInformation@MHWRender@@QEAA?AVMStatus@@W4StockParameterSemantic@12@AEAVMMatrix@@@Z
?getParameter@MLightParameterInformation@MHWRender@@QEAA?AVMStatus@@W4StockParameterSemantic@12@AEAVMSamplerStateDesc@2@@Z
?getParameterTextureHandle@MLightParameterInformation@MHWRender@@QEAAPEAXAEBVMString@@@Z
?getParameterTextureHandle@MLightParameterInformation@MHWRender@@QEAAPEAXW4StockParameterSemantic@12@@Z
?getPassContext@MDrawContext@MHWRender@@QEBAAEBVMPassContext@2@XZ
?getPassCount@MShaderInstance@MHWRender@@QEBAIAEBVMDrawContext@2@PEAVMStatus@@@Z
?getPlug@MUniformParameter@@QEBA?AVMPlug@@XZ
?getPostEffectEnabled@MFrameContext@MHWRender@@QEBA_NW4PostEffectType@12@@Z
?getPostRenderFrameCmd@MCommonRenderSettingsData@@SA?AVMString@@XZ
?getPreRenderFrameCmd@MCommonRenderSettingsData@@SA?AVMString@@XZ
?getRasterizerState@MStateManager@MHWRender@@QEBAPEBVMRasterizerState@2@PEAVMStatus@@@Z
?getRenderOverrideInformation@MFrameContext@MHWRender@@QEBAXAEAURenderOverrideInformation@12@@Z
?getRenderRegion@MRenderView@@SA?AVMStatus@@AEAI000@Z
?getRenderTargetManager@MRenderer@MHWRender@@QEBAPEBVMRenderTargetManager@2@XZ
?getRenderTargetSize@MDrawContext@MHWRender@@QEBA?AVMStatus@@AEAH0@Z
?getSamplerState@MStateManager@MHWRender@@QEBAPEBVMSamplerState@2@W4ShaderType@12@HPEAVMStatus@@@Z
?getSceneBox@MDrawContext@MHWRender@@QEBA?AVMBoundingBox@@PEAVMStatus@@@Z
?getSelectionPath@MPxSubSceneOverride@MHWRender@@UEBA_NAEBVMRenderItem@2@AEAVMDagPath@@@Z
?getShader@MRenderItem@MHWRender@@QEAAPEAVMShaderInstance@2@XZ
?getShader@MRenderItem@MHWRender@@QEBAPEBVMShaderInstance@2@XZ
?getShaderBoolParameter@MRenderItem@MHWRender@@QEBA_NAEBVMString@@PEAVMStatus@@@Z
?getShaderFloatArrayParameter@MRenderItem@MHWRender@@QEBAPEBMAEBVMString@@AEAIPEAVMStatus@@@Z
?getShaderFloatParameter@MRenderItem@MHWRender@@QEBAMAEBVMString@@PEAVMStatus@@@Z
?getShaderFromNode@MShaderManager@MHWRender@@QEBAPEAVMShaderInstance@2@AEBVMObject@@AEBVMDagPath@@P6AXPEAV32@PEAVMUserData@@@Z3P6AXAEAVMDrawContext@2@AEBVMRenderItemList@2@2@Z7@Z
?getShaderIntParameter@MRenderItem@MHWRender@@QEBAHAEBVMString@@PEAVMStatus@@@Z
?getShaderManager@MRenderer@MHWRender@@QEBAPEBVMShaderManager@2@XZ
?getShadowIgnoredLights@MLightLinks@@QEAA?AVMStatus@@AEBVMDagPath@@AEBVMObject@@AEAVMDagPathArray@@@Z
?getShadowIgnoredObjects@MLightLinks@@QEAA?AVMStatus@@AEBVMDagPath@@AEAVMSelectionList@@@Z
?getShadowLinkedLights@MLightLinks@@QEAA?AVMStatus@@AEBVMDagPath@@AEBVMObject@@AEAVMDagPathArray@@@Z
?getShadowLinkedObjects@MLightLinks@@QEAA?AVMStatus@@AEBVMDagPath@@AEAVMSelectionList@@@Z
?getSize@MColorTransformData@MColorManagementUtilities@@QEBA?BIXZ
?getSource@MUniformParameter@@QEBA?AVMPlug@@XZ
?getSourceSetName@MVaryingParameter@@QEBA?AVMString@@XZ
?getSourceType@MVaryingParameter@@QEBA?AW4MVaryingParameterSemantic@1@XZ
?getStateManager@MDrawContext@MHWRender@@QEBAPEAVMStateManager@2@XZ
?getStockShader@MShaderManager@MHWRender@@QEBAPEAVMShaderInstance@2@W4MStockShader@12@P6AXAEAVMDrawContext@2@AEBVMRenderItemList@2@PEAV32@@Z4@Z
?getSwatchLightDirection@MHardwareRenderer@@QEBAXAEAM000@Z
?getSwatchOrthoCameraSetting@MHardwareRenderer@@QEBAXAEAN00000@Z
?getSwatchPerspectiveCameraSetting@MHardwareRenderer@@QEBAXAEAN00000@Z
?getSwatchPerspectiveCameraTranslation@MHardwareRenderer@@QEBAXAEAM000@Z
?getTextureManager@MRenderer@MHWRender@@QEBAPEAVMTextureManager@2@XZ
?getTotalExposureCount@MHardwareRenderer@@QEBA?AVMStatus@@AEBVMString@@AEAI@Z
?getTransparencyAlgorithm@MFrameContext@MHWRender@@QEBA?AW4TransparencyAlgorithm@12@XZ
?getTuple@MDrawContext@MHWRender@@UEBA?AVMDoubleArray@@W4TupleType@MFrameContext@2@PEAVMStatus@@@Z
?getTuple@MFrameContext@MHWRender@@UEBA?AVMDoubleArray@@W4TupleType@12@PEAVMStatus@@@Z
?getUpdateId@MVaryingParameter@@QEBAIXZ
?getVertexBuffer@MVertexBuffer@MHWRender@@AEBAPEAXXZ
?getViewportDimensions@MDrawContext@MHWRender@@UEBA?AVMStatus@@AEAH000@Z
?getViewportDimensions@MFrameContext@MHWRender@@UEBA?AVMStatus@@AEAH000@Z
?glAccum@MGLFunctionTable@@QEAAXIM@Z
?glActiveTexture@MGLFunctionTable@@QEAAXI@Z
?glActiveVaryingNV@MGLFunctionTable@@QEAAXIPEBD@Z
?glAlphaFragmentOp1ATI@MGLFunctionTable@@QEAAXIIIIII@Z
?glAlphaFragmentOp2ATI@MGLFunctionTable@@QEAAXIIIIIIIII@Z
?glAlphaFragmentOp3ATI@MGLFunctionTable@@QEAAXIIIIIIIIIIII@Z
?glAlphaFunc@MGLFunctionTable@@QEAAXIM@Z
?glAreProgramsResidentNV@MGLFunctionTable@@QEAAEHPEBIPEAE@Z
?glAreTexturesResident@MGLFunctionTable@@QEAAEHPEBIPEAE@Z
?glArrayElement@MGLFunctionTable@@QEAAXH@Z
?glAttachObjectARB@MGLFunctionTable@@QEAAXII@Z
?glBegin@MGLFunctionTable@@QEAAXI@Z
?glBeginFragmentShaderATI@MGLFunctionTable@@QEAAXXZ
?glBeginOcclusionQueryNV@MGLFunctionTable@@QEAAXI@Z
?glBeginQueryARB@MGLFunctionTable@@QEAAXII@Z
?glBeginTransformFeedbackEXT@MGLFunctionTable@@QEAAXI@Z
?glBeginTransformFeedbackNV@MGLFunctionTable@@QEAAXI@Z
?glBeginVertexShaderEXT@MGLFunctionTable@@QEAAXXZ
?glBind@MHwTextureManager@@SA?AVMStatus@@AEBHAEAW4MHwTextureType@MImageFileInfo@@W4MImageType@4@@Z
?glBind@MHwTextureManager@@SA?AVMStatus@@AEBVMObject@@AEAW4MHwTextureType@MImageFileInfo@@W4MImageType@5@@Z
?glBind@MHwTextureManager@@SA?AVMStatus@@AEBVMPlug@@AEAW4MHwTextureType@MImageFileInfo@@W4MImageType@5@@Z
?glBindAttribLocationARB@MGLFunctionTable@@QEAAXIIPEBD@Z
?glBindBufferARB@MGLFunctionTable@@QEAAXII@Z
?glBindBufferBaseEXT@MGLFunctionTable@@QEAAXIII@Z
?glBindBufferBaseNV@MGLFunctionTable@@QEAAXIII@Z
?glBindBufferOffsetEXT@MGLFunctionTable@@QEAAXIII_J@Z
?glBindBufferOffsetNV@MGLFunctionTable@@QEAAXIII_J@Z
?glBindBufferRangeEXT@MGLFunctionTable@@QEAAXIII_J0@Z
?glBindBufferRangeNV@MGLFunctionTable@@QEAAXIII_J0@Z
?glBindFragmentShaderATI@MGLFunctionTable@@QEAAXI@Z
?glBindFramebufferEXT@MGLFunctionTable@@QEAAXII@Z
?glBindLightParameterEXT@MGLFunctionTable@@QEAAIII@Z
?glBindMaterialParameterEXT@MGLFunctionTable@@QEAAIII@Z
?glBindParameterEXT@MGLFunctionTable@@QEAAII@Z
?glBindProgram@MGLFunctionTable@@QEAAXII@Z
?glBindProgramNV@MGLFunctionTable@@QEAAXII@Z
?glBindRenderbufferEXT@MGLFunctionTable@@QEAAXII@Z
?glBindTexGenParameterEXT@MGLFunctionTable@@QEAAIIII@Z
?glBindTexture@MGLFunctionTable@@QEAAXII@Z
?glBindTextureUnitParameterEXT@MGLFunctionTable@@QEAAIII@Z
?glBindVertexShaderEXT@MGLFunctionTable@@QEAAXI@Z
?glBitmap@MGLFunctionTable@@QEAAXHHMMMMPEBE@Z
?glBlendEquationEXT@MGLFunctionTable@@QEAAXI@Z
?glBlendFunc@MGLFunctionTable@@QEAAXII@Z
?glBlitFramebufferEXT@MGLFunctionTable@@QEAAXHHHHHHHHII@Z
?glBufferDataARB@MGLFunctionTable@@QEAA_NI_JPEBXI@Z
?glBufferSubDataARB@MGLFunctionTable@@QEAA_NI_J0PEBX@Z
?glCallList@MGLFunctionTable@@QEAAXI@Z
?glCallLists@MGLFunctionTable@@QEAAXHIPEBX@Z
?glCheckFramebufferStatusEXT@MGLFunctionTable@@QEAAII@Z
?glClear@MGLFunctionTable@@QEAAXI@Z
?glClearAccum@MGLFunctionTable@@QEAAXMMMM@Z
?glClearColor@MGLFunctionTable@@QEAAXMMMM@Z
?glClearDepth@MGLFunctionTable@@QEAAXN@Z
?glClearIndex@MGLFunctionTable@@QEAAXM@Z
?glClearStencil@MGLFunctionTable@@QEAAXH@Z
?glClientActiveTexture@MGLFunctionTable@@QEAAXI@Z
?glClipPlane@MGLFunctionTable@@QEAAXIPEBN@Z
?glColor3b@MGLFunctionTable@@QEAAXCCC@Z
?glColor3bv@MGLFunctionTable@@QEAAXPEBC@Z
?glColor3d@MGLFunctionTable@@QEAAXNNN@Z
?glColor3dv@MGLFunctionTable@@QEAAXPEBN@Z
?glColor3f@MGLFunctionTable@@QEAAXMMM@Z
?glColor3fv@MGLFunctionTable@@QEAAXPEBM@Z
?glColor3i@MGLFunctionTable@@QEAAXHHH@Z
?glColor3iv@MGLFunctionTable@@QEAAXPEBH@Z
?glColor3s@MGLFunctionTable@@QEAAXFFF@Z
?glColor3sv@MGLFunctionTable@@QEAAXPEBF@Z
?glColor3ub@MGLFunctionTable@@QEAAXEEE@Z
?glColor3ubv@MGLFunctionTable@@QEAAXPEBE@Z
?glColor3ui@MGLFunctionTable@@QEAAXIII@Z
?glColor3uiv@MGLFunctionTable@@QEAAXPEBI@Z
?glColor3us@MGLFunctionTable@@QEAAXGGG@Z
?glColor3usv@MGLFunctionTable@@QEAAXPEBG@Z
?glColor4b@MGLFunctionTable@@QEAAXCCCC@Z
?glColor4bv@MGLFunctionTable@@QEAAXPEBC@Z
?glColor4d@MGLFunctionTable@@QEAAXNNNN@Z
?glColor4dv@MGLFunctionTable@@QEAAXPEBN@Z
?glColor4f@MGLFunctionTable@@QEAAXMMMM@Z
?glColor4fv@MGLFunctionTable@@QEAAXPEBM@Z
?glColor4i@MGLFunctionTable@@QEAAXHHHH@Z
?glColor4iv@MGLFunctionTable@@QEAAXPEBH@Z
?glColor4s@MGLFunctionTable@@QEAAXFFFF@Z
?glColor4sv@MGLFunctionTable@@QEAAXPEBF@Z
?glColor4ub@MGLFunctionTable@@QEAAXEEEE@Z
?glColor4ubv@MGLFunctionTable@@QEAAXPEBE@Z
?glColor4ui@MGLFunctionTable@@QEAAXIIII@Z
?glColor4uiv@MGLFunctionTable@@QEAAXPEBI@Z
?glColor4us@MGLFunctionTable@@QEAAXGGGG@Z
?glColor4usv@MGLFunctionTable@@QEAAXPEBG@Z
?glColorFragmentOp1ATI@MGLFunctionTable@@QEAAXIIIIIII@Z
?glColorFragmentOp2ATI@MGLFunctionTable@@QEAAXIIIIIIIIII@Z
?glColorFragmentOp3ATI@MGLFunctionTable@@QEAAXIIIIIIIIIIIII@Z
?glColorMask@MGLFunctionTable@@QEAAXEEEE@Z
?glColorMaterial@MGLFunctionTable@@QEAAXII@Z
?glColorPointer@MGLFunctionTable@@QEAAXHIHPEBX@Z
?glCombinerInputNV@MGLFunctionTable@@QEAAXIIIIII@Z
?glCombinerOutputNV@MGLFunctionTable@@QEAAXIIIIIIIEEE@Z
?glCombinerParameterfNV@MGLFunctionTable@@QEAAXIM@Z
?glCombinerParameterfvNV@MGLFunctionTable@@QEAAXIPEBM@Z
?glCombinerParameteriNV@MGLFunctionTable@@QEAAXIH@Z
?glCombinerParameterivNV@MGLFunctionTable@@QEAAXIPEBH@Z
?glCompileShaderARB@MGLFunctionTable@@QEAAXI@Z
?glCompressedTexImage1D@MGLFunctionTable@@QEAAXIHIHHHPEBX@Z
?glCompressedTexImage2D@MGLFunctionTable@@QEAAXIHIHHHHPEBX@Z
?glCompressedTexImage3D@MGLFunctionTable@@QEAAXIHIHHHHHPEBX@Z
?glCompressedTexSubImage1D@MGLFunctionTable@@QEAAXIHHHIHPEBX@Z
?glCompressedTexSubImage2D@MGLFunctionTable@@QEAAXIHHHHHIHPEBX@Z
?glCompressedTexSubImage3D@MGLFunctionTable@@QEAAXIHHHHHHHIHPEBX@Z
?glCopyPixels@MGLFunctionTable@@QEAAXHHHHI@Z
?glCopyTexImage1D@MGLFunctionTable@@QEAAXIHIHHHH@Z
?glCopyTexImage2D@MGLFunctionTable@@QEAAXIHIHHHHH@Z
?glCopyTexSubImage1D@MGLFunctionTable@@QEAAXIHHHHH@Z
?glCopyTexSubImage2D@MGLFunctionTable@@QEAAXIHHHHHHH@Z
?glCopyTexSubImage3D@MGLFunctionTable@@QEAAXIHHHHHHHH@Z
?glCreateProgramObjectARB@MGLFunctionTable@@QEAAIXZ
?glCreateShaderObjectARB@MGLFunctionTable@@QEAAII@Z
?glCullFace@MGLFunctionTable@@QEAAXI@Z
?glCullParameterdvEXT@MGLFunctionTable@@QEAAXIPEAN@Z
?glCullParameterfvEXT@MGLFunctionTable@@QEAAXIPEAM@Z
?glDeleteBuffersARB@MGLFunctionTable@@QEAAXHPEBI@Z
?glDeleteFencesNV@MGLFunctionTable@@QEAAXHPEBI@Z
?glDeleteFragmentShaderATI@MGLFunctionTable@@QEAAXI@Z
?glDeleteFramebuffersEXT@MGLFunctionTable@@QEAAXHPEBI@Z
?glDeleteLists@MGLFunctionTable@@QEAAXIH@Z
?glDeleteObjectARB@MGLFunctionTable@@QEAAXI@Z
?glDeleteOcclusionQueriesNV@MGLFunctionTable@@QEAAXHPEBI@Z
?glDeletePrograms@MGLFunctionTable@@QEAAXHPEBI@Z
?glDeleteProgramsNV@MGLFunctionTable@@QEAAXHPEBI@Z
?glDeleteQueriesARB@MGLFunctionTable@@QEAAXHPEBI@Z
?glDeleteRenderbuffersEXT@MGLFunctionTable@@QEAAXHPEBI@Z
?glDeleteTextures@MGLFunctionTable@@QEAAXHPEBI@Z
?glDeleteVertexShaderEXT@MGLFunctionTable@@QEAAXI@Z
?glDepthFunc@MGLFunctionTable@@QEAAXI@Z
?glDepthMask@MGLFunctionTable@@QEAAXE@Z
?glDepthRange@MGLFunctionTable@@QEAAXNN@Z
?glDetachObjectARB@MGLFunctionTable@@QEAAXII@Z
?glDisable@MGLFunctionTable@@QEAAXI@Z
?glDisableClientState@MGLFunctionTable@@QEAAXI@Z
?glDisableVariantClientStateEXT@MGLFunctionTable@@QEAAXI@Z
?glDisableVertexAttribArray@MGLFunctionTable@@QEAAXI@Z
?glDrawArrays@MGLFunctionTable@@QEAAXIHH@Z
?glDrawBuffer@MGLFunctionTable@@QEAAXI@Z
?glDrawElements@MGLFunctionTable@@QEAAXIHIPEBX@Z
?glDrawPixels@MGLFunctionTable@@QEAAXHHIIPEBX@Z
?glDrawRangeElements@MGLFunctionTable@@QEAAXIIIHIPEBX@Z
?glEdgeFlag@MGLFunctionTable@@QEAAXE@Z
?glEdgeFlagPointer@MGLFunctionTable@@QEAAXHPEBX@Z
?glEdgeFlagv@MGLFunctionTable@@QEAAXPEBE@Z
?glEnable@MGLFunctionTable@@QEAAXI@Z
?glEnableClientState@MGLFunctionTable@@QEAAXI@Z
?glEnableVariantClientStateEXT@MGLFunctionTable@@QEAAXI@Z
?glEnableVertexAttribArray@MGLFunctionTable@@QEAAXI@Z
?glEnd@MGLFunctionTable@@QEAAXXZ
?glEndFragmentShaderATI@MGLFunctionTable@@QEAAXXZ
?glEndList@MGLFunctionTable@@QEAAXXZ
?glEndOcclusionQueryNV@MGLFunctionTable@@QEAAXXZ
?glEndQueryARB@MGLFunctionTable@@QEAAXI@Z
?glEndTransformFeedbackEXT@MGLFunctionTable@@QEAAXXZ
?glEndTransformFeedbackNV@MGLFunctionTable@@QEAAXXZ
?glEndVertexShaderEXT@MGLFunctionTable@@QEAAXXZ
?glEvalCoord1d@MGLFunctionTable@@QEAAXN@Z
?glEvalCoord1dv@MGLFunctionTable@@QEAAXPEBN@Z
?glEvalCoord1f@MGLFunctionTable@@QEAAXM@Z
?glEvalCoord1fv@MGLFunctionTable@@QEAAXPEBM@Z
?glEvalCoord2d@MGLFunctionTable@@QEAAXNN@Z
?glEvalCoord2dv@MGLFunctionTable@@QEAAXPEBN@Z
?glEvalCoord2f@MGLFunctionTable@@QEAAXMM@Z
?glEvalCoord2fv@MGLFunctionTable@@QEAAXPEBM@Z
?glEvalMesh1@MGLFunctionTable@@QEAAXIHH@Z
?glEvalMesh2@MGLFunctionTable@@QEAAXIHHHH@Z
?glEvalPoint1@MGLFunctionTable@@QEAAXH@Z
?glEvalPoint2@MGLFunctionTable@@QEAAXHH@Z
?glExecuteProgramNV@MGLFunctionTable@@QEAAXIIPEBM@Z
?glExtractComponentEXT@MGLFunctionTable@@QEAAXIII@Z
?glFeedbackBuffer@MGLFunctionTable@@QEAAXHIPEAM@Z
?glFinalCombinerInputNV@MGLFunctionTable@@QEAAXIIII@Z
?glFinish@MGLFunctionTable@@QEAAXXZ
?glFinishFenceNV@MGLFunctionTable@@QEAAXI@Z
?glFlush@MGLFunctionTable@@QEAAXXZ
?glFlushVertexArrayRangeNV@MGLFunctionTable@@QEAAXXZ
?glFogCoordPointerEXT@MGLFunctionTable@@QEAAXIHPEBX@Z
?glFogCoorddEXT@MGLFunctionTable@@QEAAXN@Z
?glFogCoorddvEXT@MGLFunctionTable@@QEAAXPEBN@Z
?glFogCoordfEXT@MGLFunctionTable@@QEAAXM@Z
?glFogCoordfvEXT@MGLFunctionTable@@QEAAXPEBM@Z
?glFogf@MGLFunctionTable@@QEAAXIM@Z
?glFogfv@MGLFunctionTable@@QEAAXIPEBM@Z
?glFogi@MGLFunctionTable@@QEAAXIH@Z
?glFogiv@MGLFunctionTable@@QEAAXIPEBH@Z
?glFramebufferRenderbufferEXT@MGLFunctionTable@@QEAAXIIII@Z
?glFramebufferTexture1DEXT@MGLFunctionTable@@QEAAXIIIIH@Z
?glFramebufferTexture2DEXT@MGLFunctionTable@@QEAAXIIIIH@Z
?glFramebufferTexture3DEXT@MGLFunctionTable@@QEAAXIIIIHH@Z
?glFrontFace@MGLFunctionTable@@QEAAXI@Z
?glFrustum@MGLFunctionTable@@QEAAXNNNNNN@Z
?glFunctionTable@MHardwareRenderer@@QEBAPEAVMGLFunctionTable@@XZ
?glGenBuffersARB@MGLFunctionTable@@QEAAXHPEAI@Z
?glGenFencesNV@MGLFunctionTable@@QEAAXHPEAI@Z
?glGenFragmentShadersATI@MGLFunctionTable@@QEAAII@Z
?glGenFramebuffersEXT@MGLFunctionTable@@QEAAXHPEAI@Z
?glGenLists@MGLFunctionTable@@QEAAIH@Z
?glGenOcclusionQueriesNV@MGLFunctionTable@@QEAAXHPEAI@Z
?glGenPrograms@MGLFunctionTable@@QEAAXHPEAI@Z
?glGenProgramsNV@MGLFunctionTable@@QEAAXHPEAI@Z
?glGenQueriesARB@MGLFunctionTable@@QEAAXHPEAI@Z
?glGenRenderbuffersEXT@MGLFunctionTable@@QEAAXHPEAI@Z
?glGenSymbolsEXT@MGLFunctionTable@@QEAAIIIII@Z
?glGenTextures@MGLFunctionTable@@QEAAXHPEAI@Z
?glGenVertexShadersEXT@MGLFunctionTable@@QEAAII@Z
?glGenerateMipmapEXT@MGLFunctionTable@@QEAAXI@Z
?glGetActiveAttribARB@MGLFunctionTable@@QEAAXIIHPEAH0PEAIPEAD@Z
?glGetActiveUniformARB@MGLFunctionTable@@QEAAXIIHPEAH0PEAIPEAD@Z
?glGetActiveVaryingNV@MGLFunctionTable@@QEAAXIIHPEAH0PEAIPEAD@Z
?glGetAttachedObjectsARB@MGLFunctionTable@@QEAAXIHPEAHPEAI@Z
?glGetAttribLocationARB@MGLFunctionTable@@QEAAHIPEBD@Z
?glGetBooleanv@MGLFunctionTable@@QEAAXIPEAE@Z
?glGetBufferParameterivARB@MGLFunctionTable@@QEAAXIIPEAH@Z
?glGetBufferPointervARB@MGLFunctionTable@@QEAAXIIPEAPEAX@Z
?glGetBufferSubDataARB@MGLFunctionTable@@QEAAXI_J0PEAX@Z
?glGetClipPlane@MGLFunctionTable@@QEAAXIPEAN@Z
?glGetCombinerInputParameterfvNV@MGLFunctionTable@@QEAAXIIIIPEAM@Z
?glGetCombinerInputParameterivNV@MGLFunctionTable@@QEAAXIIIIPEAH@Z
?glGetCombinerOutputParameterfvNV@MGLFunctionTable@@QEAAXIIIPEAM@Z
?glGetCombinerOutputParameterivNV@MGLFunctionTable@@QEAAXIIIPEAH@Z
?glGetCompressedTexImage@MGLFunctionTable@@QEAAXIHPEAX@Z
?glGetDoublev@MGLFunctionTable@@QEAAXIPEAN@Z
?glGetError@MGLFunctionTable@@QEAAIXZ
?glGetFenceivNV@MGLFunctionTable@@QEAAXIIPEAH@Z
?glGetFinalCombinerInputParameterfvNV@MGLFunctionTable@@QEAAXIIPEAM@Z
?glGetFinalCombinerInputParameterivNV@MGLFunctionTable@@QEAAXIIPEAH@Z
?glGetFloatv@MGLFunctionTable@@QEAAXIPEAM@Z
?glGetFramebufferAttachmentParameterivEXT@MGLFunctionTable@@QEAAXIIIPEAH@Z
?glGetHandleARB@MGLFunctionTable@@QEAAII@Z
?glGetInfoLogARB@MGLFunctionTable@@QEAAXIHPEAHPEAD@Z
?glGetIntegerv@MGLFunctionTable@@QEAAXIPEAH@Z
?glGetInvariantBooleanvEXT@MGLFunctionTable@@QEAAXIIPEAE@Z
?glGetInvariantFloatvEXT@MGLFunctionTable@@QEAAXIIPEAM@Z
?glGetInvariantIntegervEXT@MGLFunctionTable@@QEAAXIIPEAH@Z
?glGetLightfv@MGLFunctionTable@@QEAAXIIPEAM@Z
?glGetLightiv@MGLFunctionTable@@QEAAXIIPEAH@Z
?glGetLocalConstantBooleanvEXT@MGLFunctionTable@@QEAAXIIPEAE@Z
?glGetLocalConstantFloatvEXT@MGLFunctionTable@@QEAAXIIPEAM@Z
?glGetLocalConstantIntegervEXT@MGLFunctionTable@@QEAAXIIPEAH@Z
?glGetMapdv@MGLFunctionTable@@QEAAXIIPEAN@Z
?glGetMapfv@MGLFunctionTable@@QEAAXIIPEAM@Z
?glGetMapiv@MGLFunctionTable@@QEAAXIIPEAH@Z
?glGetMaterialfv@MGLFunctionTable@@QEAAXIIPEAM@Z
?glGetMaterialiv@MGLFunctionTable@@QEAAXIIPEAH@Z
?glGetObjectParameterfvARB@MGLFunctionTable@@QEAAXIIPEAM@Z
?glGetObjectParameterivARB@MGLFunctionTable@@QEAAXIIPEAH@Z
?glGetOcclusionQueryivNV@MGLFunctionTable@@QEAAXIIPEAH@Z
?glGetOcclusionQueryuivNV@MGLFunctionTable@@QEAAXIIPEAI@Z
?glGetPixelMapfv@MGLFunctionTable@@QEAAXIPEAM@Z
?glGetPixelMapuiv@MGLFunctionTable@@QEAAXIPEAI@Z
?glGetPixelMapusv@MGLFunctionTable@@QEAAXIPEAG@Z
?glGetPointerv@MGLFunctionTable@@QEAAXIPEAPEAX@Z
?glGetPolygonStipple@MGLFunctionTable@@QEAAXPEAE@Z
?glGetProgramEnvParameterdv@MGLFunctionTable@@QEAAXIIPEAN@Z
?glGetProgramEnvParameterfv@MGLFunctionTable@@QEAAXIIPEAM@Z
?glGetProgramLocalParameterdv@MGLFunctionTable@@QEAAXIIPEAN@Z
?glGetProgramLocalParameterfv@MGLFunctionTable@@QEAAXIIPEAM@Z
?glGetProgramParameterdvNV@MGLFunctionTable@@QEAAXIIIPEAN@Z
?glGetProgramParameterfvNV@MGLFunctionTable@@QEAAXIIIPEAM@Z
?glGetProgramString@MGLFunctionTable@@QEAAXIIPEAX@Z
?glGetProgramStringNV@MGLFunctionTable@@QEAAXIIPEAE@Z
?glGetProgramiv@MGLFunctionTable@@QEAAXIIPEAH@Z
?glGetProgramivNV@MGLFunctionTable@@QEAAXIIPEAH@Z
?glGetQueryObjectivARB@MGLFunctionTable@@QEAAXIIPEAH@Z
?glGetQueryObjectuivARB@MGLFunctionTable@@QEAAXIIPEAI@Z
?glGetQueryivARB@MGLFunctionTable@@QEAAXIIPEAH@Z
?glGetRenderbufferParameterivEXT@MGLFunctionTable@@QEAAXIIPEAH@Z
?glGetShaderSourceARB@MGLFunctionTable@@QEAAXIHPEAHPEAD@Z
?glGetString@MGLFunctionTable@@QEAAPEBEI@Z
?glGetTexEnvfv@MGLFunctionTable@@QEAAXIIPEAM@Z
?glGetTexEnviv@MGLFunctionTable@@QEAAXIIPEAH@Z
?glGetTexGendv@MGLFunctionTable@@QEAAXIIPEAN@Z
?glGetTexGenfv@MGLFunctionTable@@QEAAXIIPEAM@Z
?glGetTexGeniv@MGLFunctionTable@@QEAAXIIPEAH@Z
?glGetTexImage@MGLFunctionTable@@QEAAXIHIIPEAX@Z
?glGetTexLevelParameterfv@MGLFunctionTable@@QEAAXIHIPEAM@Z
?glGetTexLevelParameteriv@MGLFunctionTable@@QEAAXIHIPEAH@Z
?glGetTexParameterfv@MGLFunctionTable@@QEAAXIIPEAM@Z
?glGetTexParameteriv@MGLFunctionTable@@QEAAXIIPEAH@Z
?glGetTrackMatrixivNV@MGLFunctionTable@@QEAAXIIIPEAH@Z
?glGetTransformFeedbackVaryingEXT@MGLFunctionTable@@QEAAXIIHPEAH0PEAIPEAD@Z
?glGetTransformFeedbackVaryingNV@MGLFunctionTable@@QEAAXIIPEAH@Z
?glGetUniformLocationARB@MGLFunctionTable@@QEAAHIPEBD@Z
?glGetUniformfvARB@MGLFunctionTable@@QEAAXIHPEAM@Z
?glGetUniformivARB@MGLFunctionTable@@QEAAXIHPEAH@Z
?glGetVariantBooleanvEXT@MGLFunctionTable@@QEAAXIIPEAE@Z
?glGetVariantFloatvEXT@MGLFunctionTable@@QEAAXIIPEAM@Z
?glGetVariantIntegervEXT@MGLFunctionTable@@QEAAXIIPEAH@Z
?glGetVariantPointervEXT@MGLFunctionTable@@QEAAXIIPEAPEAX@Z
?glGetVaryingLocationNV@MGLFunctionTable@@QEAAHIPEBD@Z
?glGetVertexAttribPointerv@MGLFunctionTable@@QEAAXIIPEAPEAX@Z
?glGetVertexAttribPointervNV@MGLFunctionTable@@QEAAXIIPEAPEAX@Z
?glGetVertexAttribdv@MGLFunctionTable@@QEAAXIIPEAN@Z
?glGetVertexAttribdvNV@MGLFunctionTable@@QEAAXIIPEAN@Z
?glGetVertexAttribfv@MGLFunctionTable@@QEAAXIIPEAM@Z
?glGetVertexAttribfvNV@MGLFunctionTable@@QEAAXIIPEAM@Z
?glGetVertexAttribiv@MGLFunctionTable@@QEAAXIIPEAH@Z
?glGetVertexAttribivNV@MGLFunctionTable@@QEAAXIIPEAH@Z
?glHint@MGLFunctionTable@@QEAAXII@Z
?glIndexMask@MGLFunctionTable@@QEAAXI@Z
?glIndexPointer@MGLFunctionTable@@QEAAXIHPEBX@Z
?glIndexd@MGLFunctionTable@@QEAAXN@Z
?glIndexdv@MGLFunctionTable@@QEAAXPEBN@Z
?glIndexf@MGLFunctionTable@@QEAAXM@Z
?glIndexfv@MGLFunctionTable@@QEAAXPEBM@Z
?glIndexi@MGLFunctionTable@@QEAAXH@Z
?glIndexiv@MGLFunctionTable@@QEAAXPEBH@Z
?glIndexs@MGLFunctionTable@@QEAAXF@Z
?glIndexsv@MGLFunctionTable@@QEAAXPEBF@Z
?glIndexub@MGLFunctionTable@@QEAAXE@Z
?glIndexubv@MGLFunctionTable@@QEAAXPEBE@Z
?glInitNames@MGLFunctionTable@@QEAAXXZ
?glInsertComponentEXT@MGLFunctionTable@@QEAAXIII@Z
?glInterleavedArrays@MGLFunctionTable@@QEAAXIHPEBX@Z
?glIsBufferARB@MGLFunctionTable@@QEAAEI@Z
?glIsEnabled@MGLFunctionTable@@QEAAEI@Z
?glIsFenceNV@MGLFunctionTable@@QEAAEI@Z
?glIsFramebufferEXT@MGLFunctionTable@@QEAAEI@Z
?glIsList@MGLFunctionTable@@QEAAEI@Z
?glIsOcclusionQueryNV@MGLFunctionTable@@QEAAXI@Z
?glIsProgram@MGLFunctionTable@@QEAAEI@Z
?glIsProgramNV@MGLFunctionTable@@QEAAEI@Z
?glIsQueryARB@MGLFunctionTable@@QEAAEI@Z
?glIsRenderbufferEXT@MGLFunctionTable@@QEAAEI@Z
?glIsTexture@MGLFunctionTable@@QEAAEI@Z
?glIsVariantEnabledEXT@MGLFunctionTable@@QEAAEII@Z
?glLightModelf@MGLFunctionTable@@QEAAXIM@Z
?glLightModelfv@MGLFunctionTable@@QEAAXIPEBM@Z
?glLightModeli@MGLFunctionTable@@QEAAXIH@Z
?glLightModeliv@MGLFunctionTable@@QEAAXIPEBH@Z
?glLightf@MGLFunctionTable@@QEAAXIIM@Z
?glLightfv@MGLFunctionTable@@QEAAXIIPEBM@Z
?glLighti@MGLFunctionTable@@QEAAXIIH@Z
?glLightiv@MGLFunctionTable@@QEAAXIIPEBH@Z
?glLineStipple@MGLFunctionTable@@QEAAXHG@Z
?glLineWidth@MGLFunctionTable@@QEAAXM@Z
?glLinkProgramARB@MGLFunctionTable@@QEAAXI@Z
?glListBase@MGLFunctionTable@@QEAAXI@Z
?glLoadIdentity@MGLFunctionTable@@QEAAXXZ
?glLoadMatrixd@MGLFunctionTable@@QEAAXPEBN@Z
?glLoadMatrixf@MGLFunctionTable@@QEAAXPEBM@Z
?glLoadName@MGLFunctionTable@@QEAAXI@Z
?glLoadProgramNV@MGLFunctionTable@@QEAAXIIHPEBE@Z
?glLoadTransposeMatrixd@MGLFunctionTable@@QEAAXQEBN@Z
?glLoadTransposeMatrixdARB@MGLFunctionTable@@QEAAXPEBN@Z
?glLoadTransposeMatrixf@MGLFunctionTable@@QEAAXQEBM@Z
?glLoadTransposeMatrixfARB@MGLFunctionTable@@QEAAXPEBM@Z
?glLockArraysEXT@MGLFunctionTable@@QEAAXHH@Z
?glLogicOp@MGLFunctionTable@@QEAAXI@Z
?glMap1d@MGLFunctionTable@@QEAAXINNHHPEBN@Z
?glMap1f@MGLFunctionTable@@QEAAXIMMHHPEBM@Z
?glMap2d@MGLFunctionTable@@QEAAXINNHHNNHHPEBN@Z
?glMap2f@MGLFunctionTable@@QEAAXIMMHHMMHHPEBM@Z
?glMapBufferARB@MGLFunctionTable@@QEAAPEAXII@Z
?glMapGrid1d@MGLFunctionTable@@QEAAXHNN@Z
?glMapGrid1f@MGLFunctionTable@@QEAAXHMM@Z
?glMapGrid2d@MGLFunctionTable@@QEAAXHNNHNN@Z
?glMapGrid2f@MGLFunctionTable@@QEAAXHMMHMM@Z
?glMaterialf@MGLFunctionTable@@QEAAXIIM@Z
?glMaterialfv@MGLFunctionTable@@QEAAXIIPEBM@Z
?glMateriali@MGLFunctionTable@@QEAAXIIH@Z
?glMaterialiv@MGLFunctionTable@@QEAAXIIPEBH@Z
?glMatrixMode@MGLFunctionTable@@QEAAXI@Z
?glMultMatrixd@MGLFunctionTable@@QEAAXPEBN@Z
?glMultMatrixf@MGLFunctionTable@@QEAAXPEBM@Z
?glMultTransposeMatrixd@MGLFunctionTable@@QEAAXQEBN@Z
?glMultTransposeMatrixdARB@MGLFunctionTable@@QEAAXPEBN@Z
?glMultTransposeMatrixf@MGLFunctionTable@@QEAAXQEBM@Z
?glMultTransposeMatrixfARB@MGLFunctionTable@@QEAAXPEBM@Z
?glMultiDrawArrays@MGLFunctionTable@@QEAAXIPEAH0H@Z
?glMultiDrawElements@MGLFunctionTable@@QEAAXIPEBHIPEAPEBXH@Z
?glMultiTexCoord1d@MGLFunctionTable@@QEAAXIN@Z
?glMultiTexCoord1dv@MGLFunctionTable@@QEAAXIPEBN@Z
?glMultiTexCoord1f@MGLFunctionTable@@QEAAXIM@Z
?glMultiTexCoord1fv@MGLFunctionTable@@QEAAXIPEBM@Z
?glMultiTexCoord1i@MGLFunctionTable@@QEAAXIH@Z
?glMultiTexCoord1iv@MGLFunctionTable@@QEAAXIPEBH@Z
?glMultiTexCoord1s@MGLFunctionTable@@QEAAXIF@Z
?glMultiTexCoord1sv@MGLFunctionTable@@QEAAXIPEBF@Z
?glMultiTexCoord2d@MGLFunctionTable@@QEAAXINN@Z
?glMultiTexCoord2dv@MGLFunctionTable@@QEAAXIPEBN@Z
?glMultiTexCoord2f@MGLFunctionTable@@QEAAXIMM@Z
?glMultiTexCoord2fv@MGLFunctionTable@@QEAAXIPEBM@Z
?glMultiTexCoord2i@MGLFunctionTable@@QEAAXIHH@Z
?glMultiTexCoord2iv@MGLFunctionTable@@QEAAXIPEBH@Z
?glMultiTexCoord2s@MGLFunctionTable@@QEAAXIFF@Z
?glMultiTexCoord2sv@MGLFunctionTable@@QEAAXIPEBF@Z
?glMultiTexCoord3d@MGLFunctionTable@@QEAAXINNN@Z
?glMultiTexCoord3dv@MGLFunctionTable@@QEAAXIPEBN@Z
?glMultiTexCoord3f@MGLFunctionTable@@QEAAXIMMM@Z
?glMultiTexCoord3fv@MGLFunctionTable@@QEAAXIPEBM@Z
?glMultiTexCoord3i@MGLFunctionTable@@QEAAXIHHH@Z
?glMultiTexCoord3iv@MGLFunctionTable@@QEAAXIPEBH@Z
?glMultiTexCoord3s@MGLFunctionTable@@QEAAXIFFF@Z
?glMultiTexCoord3sv@MGLFunctionTable@@QEAAXIPEBF@Z
?glMultiTexCoord4d@MGLFunctionTable@@QEAAXINNNN@Z
?glMultiTexCoord4dv@MGLFunctionTable@@QEAAXIPEBN@Z
?glMultiTexCoord4f@MGLFunctionTable@@QEAAXIMMMM@Z
?glMultiTexCoord4fv@MGLFunctionTable@@QEAAXIPEBM@Z
?glMultiTexCoord4i@MGLFunctionTable@@QEAAXIHHHH@Z
?glMultiTexCoord4iv@MGLFunctionTable@@QEAAXIPEBH@Z
?glMultiTexCoord4s@MGLFunctionTable@@QEAAXIFFFF@Z
?glMultiTexCoord4sv@MGLFunctionTable@@QEAAXIPEBF@Z
?glNewList@MGLFunctionTable@@QEAAXII@Z
?glNormal3b@MGLFunctionTable@@QEAAXCCC@Z
?glNormal3bv@MGLFunctionTable@@QEAAXPEBC@Z
?glNormal3d@MGLFunctionTable@@QEAAXNNN@Z
?glNormal3dv@MGLFunctionTable@@QEAAXPEBN@Z
?glNormal3f@MGLFunctionTable@@QEAAXMMM@Z
?glNormal3fv@MGLFunctionTable@@QEAAXPEBM@Z
?glNormal3i@MGLFunctionTable@@QEAAXHHH@Z
?glNormal3iv@MGLFunctionTable@@QEAAXPEBH@Z
?glNormal3s@MGLFunctionTable@@QEAAXFFF@Z
?glNormal3sv@MGLFunctionTable@@QEAAXPEBF@Z
?glNormalPointer@MGLFunctionTable@@QEAAXIHPEBX@Z
?glOrtho@MGLFunctionTable@@QEAAXNNNNNN@Z
?glPNTrianglesfATI@MGLFunctionTable@@QEAAXIM@Z
?glPNTrianglesiATI@MGLFunctionTable@@QEAAXIH@Z
?glPassTexCoordATI@MGLFunctionTable@@QEAAXIII@Z
?glPassThrough@MGLFunctionTable@@QEAAXM@Z
?glPixelMapfv@MGLFunctionTable@@QEAAXIHPEBM@Z
?glPixelMapuiv@MGLFunctionTable@@QEAAXIHPEBI@Z
?glPixelMapusv@MGLFunctionTable@@QEAAXIHPEBG@Z
?glPixelStoref@MGLFunctionTable@@QEAAXIM@Z
?glPixelStorei@MGLFunctionTable@@QEAAXIH@Z
?glPixelTransferf@MGLFunctionTable@@QEAAXIM@Z
?glPixelTransferi@MGLFunctionTable@@QEAAXIH@Z
?glPixelZoom@MGLFunctionTable@@QEAAXMM@Z
?glPointParameterf@MGLFunctionTable@@QEAAXIM@Z
?glPointParameterfv@MGLFunctionTable@@QEAAXIPEBM@Z
?glPointSize@MGLFunctionTable@@QEAAXM@Z
?glPolygonMode@MGLFunctionTable@@QEAAXII@Z
?glPolygonOffset@MGLFunctionTable@@QEAAXMM@Z
?glPolygonStipple@MGLFunctionTable@@QEAAXPEBE@Z
?glPopAttrib@MGLFunctionTable@@QEAAXXZ
?glPopClientAttrib@MGLFunctionTable@@QEAAXXZ
?glPopMatrix@MGLFunctionTable@@QEAAXXZ
?glPopName@MGLFunctionTable@@QEAAXXZ
?glPrimitiveRestartIndexNV@MGLFunctionTable@@QEAAXI@Z
?glPrimitiveRestartNV@MGLFunctionTable@@QEAAXXZ
?glPrioritizeTextures@MGLFunctionTable@@QEAAXHPEBIPEBM@Z
?glProgramEnvParameter4d@MGLFunctionTable@@QEAAXIINNNN@Z
?glProgramEnvParameter4dv@MGLFunctionTable@@QEAAXIIPEBN@Z
?glProgramEnvParameter4f@MGLFunctionTable@@QEAAXIIMMMM@Z
?glProgramEnvParameter4fv@MGLFunctionTable@@QEAAXIIPEBM@Z
?glProgramLocalParameter4d@MGLFunctionTable@@QEAAXIINNNN@Z
?glProgramLocalParameter4dv@MGLFunctionTable@@QEAAXIIPEBN@Z
?glProgramLocalParameter4f@MGLFunctionTable@@QEAAXIIMMMM@Z
?glProgramLocalParameter4fv@MGLFunctionTable@@QEAAXIIPEBM@Z
?glProgramParameter4dNV@MGLFunctionTable@@QEAAXIINNNN@Z
?glProgramParameter4dvNV@MGLFunctionTable@@QEAAXIIPEBN@Z
?glProgramParameter4fNV@MGLFunctionTable@@QEAAXIIMMMM@Z
?glProgramParameter4fvNV@MGLFunctionTable@@QEAAXIIPEBM@Z
?glProgramParameters4dvNV@MGLFunctionTable@@QEAAXIIHPEBN@Z
?glProgramParameters4fvNV@MGLFunctionTable@@QEAAXIIHPEBM@Z
?glProgramString@MGLFunctionTable@@QEAAXIIHPEBX@Z
?glPushAttrib@MGLFunctionTable@@QEAAXI@Z
?glPushClientAttrib@MGLFunctionTable@@QEAAXI@Z
?glPushMatrix@MGLFunctionTable@@QEAAXXZ
?glPushName@MGLFunctionTable@@QEAAXI@Z
?glRasterPos2d@MGLFunctionTable@@QEAAXNN@Z
?glRasterPos2dv@MGLFunctionTable@@QEAAXPEBN@Z
?glRasterPos2f@MGLFunctionTable@@QEAAXMM@Z
?glRasterPos2fv@MGLFunctionTable@@QEAAXPEBM@Z
?glRasterPos2i@MGLFunctionTable@@QEAAXHH@Z
?glRasterPos2iv@MGLFunctionTable@@QEAAXPEBH@Z
?glRasterPos2s@MGLFunctionTable@@QEAAXFF@Z
?glRasterPos2sv@MGLFunctionTable@@QEAAXPEBF@Z
?glRasterPos3d@MGLFunctionTable@@QEAAXNNN@Z
?glRasterPos3dv@MGLFunctionTable@@QEAAXPEBN@Z
?glRasterPos3f@MGLFunctionTable@@QEAAXMMM@Z
?glRasterPos3fv@MGLFunctionTable@@QEAAXPEBM@Z
?glRasterPos3i@MGLFunctionTable@@QEAAXHHH@Z
?glRasterPos3iv@MGLFunctionTable@@QEAAXPEBH@Z
?glRasterPos3s@MGLFunctionTable@@QEAAXFFF@Z
?glRasterPos3sv@MGLFunctionTable@@QEAAXPEBF@Z
?glRasterPos4d@MGLFunctionTable@@QEAAXNNNN@Z
?glRasterPos4dv@MGLFunctionTable@@QEAAXPEBN@Z
?glRasterPos4f@MGLFunctionTable@@QEAAXMMMM@Z
?glRasterPos4fv@MGLFunctionTable@@QEAAXPEBM@Z
?glRasterPos4i@MGLFunctionTable@@QEAAXHHHH@Z
?glRasterPos4iv@MGLFunctionTable@@QEAAXPEBH@Z
?glRasterPos4s@MGLFunctionTable@@QEAAXFFFF@Z
?glRasterPos4sv@MGLFunctionTable@@QEAAXPEBF@Z
?glReadBuffer@MGLFunctionTable@@QEAAXI@Z
?glReadPixels@MGLFunctionTable@@QEAAXHHHHIIPEAX@Z
?glRectd@MGLFunctionTable@@QEAAXNNNN@Z
?glRectdv@MGLFunctionTable@@QEAAXPEBN0@Z
?glRectf@MGLFunctionTable@@QEAAXMMMM@Z
?glRectfv@MGLFunctionTable@@QEAAXPEBM0@Z
?glRecti@MGLFunctionTable@@QEAAXHHHH@Z
?glRectiv@MGLFunctionTable@@QEAAXPEBH0@Z
?glRects@MGLFunctionTable@@QEAAXFFFF@Z
?glRectsv@MGLFunctionTable@@QEAAXPEBF0@Z
?glRenderMode@MGLFunctionTable@@QEAAHI@Z
?glRenderbufferStorageEXT@MGLFunctionTable@@QEAAXIIHH@Z
?glRequestResidentProgramsNV@MGLFunctionTable@@QEAAXHPEBI@Z
?glRotated@MGLFunctionTable@@QEAAXNNNN@Z
?glRotatef@MGLFunctionTable@@QEAAXMMMM@Z
?glSampleCoverage@MGLFunctionTable@@QEAAXME@Z
?glSampleMapATI@MGLFunctionTable@@QEAAXIII@Z
?glScaled@MGLFunctionTable@@QEAAXNNN@Z
?glScalef@MGLFunctionTable@@QEAAXMMM@Z
?glScissor@MGLFunctionTable@@QEAAXHHHH@Z
?glSecondaryColor3bEXT@MGLFunctionTable@@QEAAXCCC@Z
?glSecondaryColor3bvEXT@MGLFunctionTable@@QEAAXPEBC@Z
?glSecondaryColor3dEXT@MGLFunctionTable@@QEAAXNNN@Z
?glSecondaryColor3dvEXT@MGLFunctionTable@@QEAAXPEBN@Z
?glSecondaryColor3fEXT@MGLFunctionTable@@QEAAXMMM@Z
?glSecondaryColor3fvEXT@MGLFunctionTable@@QEAAXPEBM@Z
?glSecondaryColor3iEXT@MGLFunctionTable@@QEAAXHHH@Z
?glSecondaryColor3ivEXT@MGLFunctionTable@@QEAAXPEBH@Z
?glSecondaryColor3sEXT@MGLFunctionTable@@QEAAXFFF@Z
?glSecondaryColor3svEXT@MGLFunctionTable@@QEAAXPEBF@Z
?glSecondaryColor3ubEXT@MGLFunctionTable@@QEAAXEEE@Z
?glSecondaryColor3ubvEXT@MGLFunctionTable@@QEAAXPEBE@Z
?glSecondaryColor3uiEXT@MGLFunctionTable@@QEAAXIII@Z
?glSecondaryColor3uivEXT@MGLFunctionTable@@QEAAXPEBI@Z
?glSecondaryColor3usEXT@MGLFunctionTable@@QEAAXGGG@Z
?glSecondaryColor3usvEXT@MGLFunctionTable@@QEAAXPEBG@Z
?glSecondaryColorPointerEXT@MGLFunctionTable@@QEAAXHIHPEAX@Z
?glSelectBuffer@MGLFunctionTable@@QEAAXHPEAI@Z
?glSetFenceNV@MGLFunctionTable@@QEAAXII@Z
?glSetFragmentShaderConstantATI@MGLFunctionTable@@QEAAXIPEBM@Z
?glSetInvariantEXT@MGLFunctionTable@@QEAAXIIPEAX@Z
?glSetLocalConstantEXT@MGLFunctionTable@@QEAAXIIPEAX@Z
?glShadeModel@MGLFunctionTable@@QEAAXI@Z
?glShaderOp1EXT@MGLFunctionTable@@QEAAXIII@Z
?glShaderOp2EXT@MGLFunctionTable@@QEAAXIIII@Z
?glShaderOp3EXT@MGLFunctionTable@@QEAAXIIIII@Z
?glShaderSourceARB@MGLFunctionTable@@QEAAXIHPEAPEBDPEBH@Z
?glStencilFunc@MGLFunctionTable@@QEAAXIHI@Z
?glStencilMask@MGLFunctionTable@@QEAAXI@Z
?glStencilOp@MGLFunctionTable@@QEAAXIII@Z
?glSwizzleEXT@MGLFunctionTable@@QEAAXIIIIII@Z
?glTestFenceNV@MGLFunctionTable@@QEAAEI@Z
?glTexCoord1d@MGLFunctionTable@@QEAAXN@Z
?glTexCoord1dv@MGLFunctionTable@@QEAAXPEBN@Z
?glTexCoord1f@MGLFunctionTable@@QEAAXM@Z
?glTexCoord1fv@MGLFunctionTable@@QEAAXPEBM@Z
?glTexCoord1i@MGLFunctionTable@@QEAAXH@Z
?glTexCoord1iv@MGLFunctionTable@@QEAAXPEBH@Z
?glTexCoord1s@MGLFunctionTable@@QEAAXF@Z
?glTexCoord1sv@MGLFunctionTable@@QEAAXPEBF@Z
?glTexCoord2d@MGLFunctionTable@@QEAAXNN@Z
?glTexCoord2dv@MGLFunctionTable@@QEAAXPEBN@Z
?glTexCoord2f@MGLFunctionTable@@QEAAXMM@Z
?glTexCoord2fv@MGLFunctionTable@@QEAAXPEBM@Z
?glTexCoord2i@MGLFunctionTable@@QEAAXHH@Z
?glTexCoord2iv@MGLFunctionTable@@QEAAXPEBH@Z
?glTexCoord2s@MGLFunctionTable@@QEAAXFF@Z
?glTexCoord2sv@MGLFunctionTable@@QEAAXPEBF@Z
?glTexCoord3d@MGLFunctionTable@@QEAAXNNN@Z
?glTexCoord3dv@MGLFunctionTable@@QEAAXPEBN@Z
?glTexCoord3f@MGLFunctionTable@@QEAAXMMM@Z
?glTexCoord3fv@MGLFunctionTable@@QEAAXPEBM@Z
?glTexCoord3i@MGLFunctionTable@@QEAAXHHH@Z
?glTexCoord3iv@MGLFunctionTable@@QEAAXPEBH@Z
?glTexCoord3s@MGLFunctionTable@@QEAAXFFF@Z
?glTexCoord3sv@MGLFunctionTable@@QEAAXPEBF@Z
?glTexCoord4d@MGLFunctionTable@@QEAAXNNNN@Z
?glTexCoord4dv@MGLFunctionTable@@QEAAXPEBN@Z
?glTexCoord4f@MGLFunctionTable@@QEAAXMMMM@Z
?glTexCoord4fv@MGLFunctionTable@@QEAAXPEBM@Z
?glTexCoord4i@MGLFunctionTable@@QEAAXHHHH@Z
?glTexCoord4iv@MGLFunctionTable@@QEAAXPEBH@Z
?glTexCoord4s@MGLFunctionTable@@QEAAXFFFF@Z
?glTexCoord4sv@MGLFunctionTable@@QEAAXPEBF@Z
?glTexCoordPointer@MGLFunctionTable@@QEAAXHIHPEBX@Z
?glTexEnvf@MGLFunctionTable@@QEAAXIIM@Z
?glTexEnvfv@MGLFunctionTable@@QEAAXIIPEBM@Z
?glTexEnvi@MGLFunctionTable@@QEAAXIIH@Z
?glTexEnviv@MGLFunctionTable@@QEAAXIIPEBH@Z
?glTexGend@MGLFunctionTable@@QEAAXIIN@Z
?glTexGendv@MGLFunctionTable@@QEAAXIIPEBN@Z
?glTexGenf@MGLFunctionTable@@QEAAXIIM@Z
?glTexGenfv@MGLFunctionTable@@QEAAXIIPEBM@Z
?glTexGeni@MGLFunctionTable@@QEAAXIIH@Z
?glTexGeniv@MGLFunctionTable@@QEAAXIIPEBH@Z
?glTexImage1D@MGLFunctionTable@@QEAAXIHHHHIIPEBX@Z
?glTexImage2D@MGLFunctionTable@@QEAAXIHHHHHIIPEBX@Z
?glTexImage3D@MGLFunctionTable@@QEAAXIHIHHHHIIPEBX@Z
?glTexParameterf@MGLFunctionTable@@QEAAXIIM@Z
?glTexParameterfv@MGLFunctionTable@@QEAAXIIPEBM@Z
?glTexParameteri@MGLFunctionTable@@QEAAXIIH@Z
?glTexParameteriv@MGLFunctionTable@@QEAAXIIPEBH@Z
?glTexSubImage1D@MGLFunctionTable@@QEAAXIHHHIIPEBX@Z
?glTexSubImage2D@MGLFunctionTable@@QEAAXIHHHHHIIPEBX@Z
?glTexSubImage3D@MGLFunctionTable@@QEAAXIHHHHHHHIIPEBX@Z
?glTrackMatrixNV@MGLFunctionTable@@QEAAXIIII@Z
?glTransformFeedbackAttribsNV@MGLFunctionTable@@QEAAXIPEBHI@Z
?glTransformFeedbackVaryingsEXT@MGLFunctionTable@@QEAAXIHPEAPEBDI@Z
?glTransformFeedbackVaryingsNV@MGLFunctionTable@@QEAAXIHPEBHI@Z
?glTranslated@MGLFunctionTable@@QEAAXNNN@Z
?glTranslatef@MGLFunctionTable@@QEAAXMMM@Z
?glUniform1fARB@MGLFunctionTable@@QEAAXHM@Z
?glUniform1fvARB@MGLFunctionTable@@QEAAXHHPEAM@Z
?glUniform1iARB@MGLFunctionTable@@QEAAXHH@Z
?glUniform1ivARB@MGLFunctionTable@@QEAAXHHPEAH@Z
?glUniform2fARB@MGLFunctionTable@@QEAAXHMM@Z
?glUniform2fvARB@MGLFunctionTable@@QEAAXHHPEAM@Z
?glUniform2iARB@MGLFunctionTable@@QEAAXHHH@Z
?glUniform2ivARB@MGLFunctionTable@@QEAAXHHPEAH@Z
?glUniform3fARB@MGLFunctionTable@@QEAAXHMMM@Z
?glUniform3fvARB@MGLFunctionTable@@QEAAXHHPEAM@Z
?glUniform3iARB@MGLFunctionTable@@QEAAXHHHH@Z
?glUniform3ivARB@MGLFunctionTable@@QEAAXHHPEAH@Z
?glUniform4fARB@MGLFunctionTable@@QEAAXHMMMM@Z
?glUniform4fvARB@MGLFunctionTable@@QEAAXHHPEAM@Z
?glUniform4iARB@MGLFunctionTable@@QEAAXHHHHH@Z
?glUniform4ivARB@MGLFunctionTable@@QEAAXHHPEAH@Z
?glUniformMatrix2fvARB@MGLFunctionTable@@QEAAXHHEPEAM@Z
?glUniformMatrix3fvARB@MGLFunctionTable@@QEAAXHHEPEAM@Z
?glUniformMatrix4fvARB@MGLFunctionTable@@QEAAXHHEPEAM@Z
?glUnlockArraysEXT@MGLFunctionTable@@QEAAXXZ
?glUnmapBufferARB@MGLFunctionTable@@QEAAEI@Z
?glUseProgramObjectARB@MGLFunctionTable@@QEAAXI@Z
?glValidateProgramARB@MGLFunctionTable@@QEAAXI@Z
?glVariantPointerEXT@MGLFunctionTable@@QEAAXIIIPEAX@Z
?glVariantbvEXT@MGLFunctionTable@@QEAAXIPEAC@Z
?glVariantdvEXT@MGLFunctionTable@@QEAAXIPEAN@Z
?glVariantfvEXT@MGLFunctionTable@@QEAAXIPEAM@Z
?glVariantivEXT@MGLFunctionTable@@QEAAXIPEAH@Z
?glVariantsvEXT@MGLFunctionTable@@QEAAXIPEAF@Z
?glVariantubvEXT@MGLFunctionTable@@QEAAXIPEAE@Z
?glVariantuivEXT@MGLFunctionTable@@QEAAXIPEAI@Z
?glVariantusvEXT@MGLFunctionTable@@QEAAXIPEAG@Z
?glVertex2d@MGLFunctionTable@@QEAAXNN@Z
?glVertex2dv@MGLFunctionTable@@QEAAXPEBN@Z
?glVertex2f@MGLFunctionTable@@QEAAXMM@Z
?glVertex2fv@MGLFunctionTable@@QEAAXPEBM@Z
?glVertex2i@MGLFunctionTable@@QEAAXHH@Z
?glVertex2iv@MGLFunctionTable@@QEAAXPEBH@Z
?glVertex2s@MGLFunctionTable@@QEAAXFF@Z
?glVertex2sv@MGLFunctionTable@@QEAAXPEBF@Z
?glVertex3d@MGLFunctionTable@@QEAAXNNN@Z
?glVertex3dv@MGLFunctionTable@@QEAAXPEBN@Z
?glVertex3f@MGLFunctionTable@@QEAAXMMM@Z
?glVertex3fv@MGLFunctionTable@@QEAAXPEBM@Z
?glVertex3i@MGLFunctionTable@@QEAAXHHH@Z
?glVertex3iv@MGLFunctionTable@@QEAAXPEBH@Z
?glVertex3s@MGLFunctionTable@@QEAAXFFF@Z
?glVertex3sv@MGLFunctionTable@@QEAAXPEBF@Z
?glVertex4d@MGLFunctionTable@@QEAAXNNNN@Z
?glVertex4dv@MGLFunctionTable@@QEAAXPEBN@Z
?glVertex4f@MGLFunctionTable@@QEAAXMMMM@Z
?glVertex4fv@MGLFunctionTable@@QEAAXPEBM@Z
?glVertex4i@MGLFunctionTable@@QEAAXHHHH@Z
?glVertex4iv@MGLFunctionTable@@QEAAXPEBH@Z
?glVertex4s@MGLFunctionTable@@QEAAXFFFF@Z
?glVertex4sv@MGLFunctionTable@@QEAAXPEBF@Z
?glVertexArrayRangeNV@MGLFunctionTable@@QEAAXHPEBX@Z
?glVertexAttrib1d@MGLFunctionTable@@QEAAXIN@Z
?glVertexAttrib1dNV@MGLFunctionTable@@QEAAXIN@Z
?glVertexAttrib1dv@MGLFunctionTable@@QEAAXIPEBN@Z
?glVertexAttrib1dvNV@MGLFunctionTable@@QEAAXIPEBN@Z
?glVertexAttrib1f@MGLFunctionTable@@QEAAXIM@Z
?glVertexAttrib1fNV@MGLFunctionTable@@QEAAXIM@Z
?glVertexAttrib1fv@MGLFunctionTable@@QEAAXIPEBM@Z
?glVertexAttrib1fvNV@MGLFunctionTable@@QEAAXIPEBM@Z
?glVertexAttrib1s@MGLFunctionTable@@QEAAXIF@Z
?glVertexAttrib1sNV@MGLFunctionTable@@QEAAXIF@Z
?glVertexAttrib1sv@MGLFunctionTable@@QEAAXIPEBF@Z
?glVertexAttrib1svNV@MGLFunctionTable@@QEAAXIPEBF@Z
?glVertexAttrib2d@MGLFunctionTable@@QEAAXINN@Z
?glVertexAttrib2dNV@MGLFunctionTable@@QEAAXINN@Z
?glVertexAttrib2dv@MGLFunctionTable@@QEAAXIPEBN@Z
?glVertexAttrib2dvNV@MGLFunctionTable@@QEAAXIPEBN@Z
?glVertexAttrib2f@MGLFunctionTable@@QEAAXIMM@Z
?glVertexAttrib2fNV@MGLFunctionTable@@QEAAXIMM@Z
?glVertexAttrib2fv@MGLFunctionTable@@QEAAXIPEBM@Z
?glVertexAttrib2fvNV@MGLFunctionTable@@QEAAXIPEBM@Z
?glVertexAttrib2s@MGLFunctionTable@@QEAAXIFF@Z
?glVertexAttrib2sNV@MGLFunctionTable@@QEAAXIFF@Z
?glVertexAttrib2sv@MGLFunctionTable@@QEAAXIPEBF@Z
?glVertexAttrib2svNV@MGLFunctionTable@@QEAAXIPEBF@Z
?glVertexAttrib3d@MGLFunctionTable@@QEAAXINNN@Z
?glVertexAttrib3dNV@MGLFunctionTable@@QEAAXINNN@Z
?glVertexAttrib3dv@MGLFunctionTable@@QEAAXIPEBN@Z
?glVertexAttrib3dvNV@MGLFunctionTable@@QEAAXIPEBN@Z
?glVertexAttrib3f@MGLFunctionTable@@QEAAXIMMM@Z
?glVertexAttrib3fNV@MGLFunctionTable@@QEAAXIMMM@Z
?glVertexAttrib3fv@MGLFunctionTable@@QEAAXIPEBM@Z
?glVertexAttrib3fvNV@MGLFunctionTable@@QEAAXIPEBM@Z
?glVertexAttrib3s@MGLFunctionTable@@QEAAXIFFF@Z
?glVertexAttrib3sNV@MGLFunctionTable@@QEAAXIFFF@Z
?glVertexAttrib3sv@MGLFunctionTable@@QEAAXIPEBF@Z
?glVertexAttrib3svNV@MGLFunctionTable@@QEAAXIPEBF@Z
?glVertexAttrib4Nbv@MGLFunctionTable@@QEAAXIPEBC@Z
?glVertexAttrib4Niv@MGLFunctionTable@@QEAAXIPEBH@Z
?glVertexAttrib4Nsv@MGLFunctionTable@@QEAAXIPEBF@Z
?glVertexAttrib4Nub@MGLFunctionTable@@QEAAXIEEEE@Z
?glVertexAttrib4Nubv@MGLFunctionTable@@QEAAXIPEBE@Z
?glVertexAttrib4Nuiv@MGLFunctionTable@@QEAAXIPEBI@Z
?glVertexAttrib4Nusv@MGLFunctionTable@@QEAAXIPEBG@Z
?glVertexAttrib4bv@MGLFunctionTable@@QEAAXIPEBC@Z
?glVertexAttrib4d@MGLFunctionTable@@QEAAXINNNN@Z
?glVertexAttrib4dNV@MGLFunctionTable@@QEAAXINNNN@Z
?glVertexAttrib4dv@MGLFunctionTable@@QEAAXIPEBN@Z
?glVertexAttrib4dvNV@MGLFunctionTable@@QEAAXIPEBN@Z
?glVertexAttrib4f@MGLFunctionTable@@QEAAXIMMMM@Z
?glVertexAttrib4fNV@MGLFunctionTable@@QEAAXIMMMM@Z
?glVertexAttrib4fv@MGLFunctionTable@@QEAAXIPEBM@Z
?glVertexAttrib4fvNV@MGLFunctionTable@@QEAAXIPEBM@Z
?glVertexAttrib4iv@MGLFunctionTable@@QEAAXIPEBH@Z
?glVertexAttrib4s@MGLFunctionTable@@QEAAXIFFFF@Z
?glVertexAttrib4sNV@MGLFunctionTable@@QEAAXIFFFF@Z
?glVertexAttrib4sv@MGLFunctionTable@@QEAAXIPEBF@Z
?glVertexAttrib4svNV@MGLFunctionTable@@QEAAXIPEBF@Z
?glVertexAttrib4ubNV@MGLFunctionTable@@QEAAXIEEEE@Z
?glVertexAttrib4ubv@MGLFunctionTable@@QEAAXIPEBE@Z
?glVertexAttrib4ubvNV@MGLFunctionTable@@QEAAXIPEBE@Z
?glVertexAttrib4uiv@MGLFunctionTable@@QEAAXIPEBI@Z
?glVertexAttrib4usv@MGLFunctionTable@@QEAAXIPEBG@Z
?glVertexAttribPointer@MGLFunctionTable@@QEAAXIHIEHPEBX@Z
?glVertexAttribPointerNV@MGLFunctionTable@@QEAAXIHIHPEBX@Z
?glVertexAttribs1dvNV@MGLFunctionTable@@QEAAXIHPEBN@Z
?glVertexAttribs1fvNV@MGLFunctionTable@@QEAAXIHPEBM@Z
?glVertexAttribs1svNV@MGLFunctionTable@@QEAAXIHPEBF@Z
?glVertexAttribs2dvNV@MGLFunctionTable@@QEAAXIHPEBN@Z
?glVertexAttribs2fvNV@MGLFunctionTable@@QEAAXIHPEBM@Z
?glVertexAttribs2svNV@MGLFunctionTable@@QEAAXIHPEBF@Z
?glVertexAttribs3dvNV@MGLFunctionTable@@QEAAXIHPEBN@Z
?glVertexAttribs3fvNV@MGLFunctionTable@@QEAAXIHPEBM@Z
?glVertexAttribs3svNV@MGLFunctionTable@@QEAAXIHPEBF@Z
?glVertexAttribs4dvNV@MGLFunctionTable@@QEAAXIHPEBN@Z
?glVertexAttribs4fvNV@MGLFunctionTable@@QEAAXIHPEBM@Z
?glVertexAttribs4svNV@MGLFunctionTable@@QEAAXIHPEBF@Z
?glVertexAttribs4ubvNV@MGLFunctionTable@@QEAAXIHPEBE@Z
?glVertexPointer@MGLFunctionTable@@QEAAXHIHPEBX@Z
?glVertexWeightPointerEXT@MGLFunctionTable@@QEAAXHIHPEAX@Z
?glVertexWeightfEXT@MGLFunctionTable@@QEAAXM@Z
?glVertexWeightfvEXT@MGLFunctionTable@@QEAAXPEAM@Z
?glViewport@MGLFunctionTable@@QEAAXHHHH@Z
?glWriteMaskEXT@MGLFunctionTable@@QEAAXIIIIII@Z
?handlesDraw@MPxShaderOverride@MHWRender@@UEAA_NAEAVMDrawContext@2@@Z
?hasAlpha@MTexture@MHWRender@@QEBA_NXZ
?hasChanged@MUniformParameter@@QEBA_NAEBVMDrawContext@MHWRender@@@Z
?hasChanged@MUniformParameter@@QEBA_NAEBVMGeometryList@@@Z
?hasCustomResourceHandle@MIndexBuffer@MHWRender@@QEBA_NXZ
?hasCustomResourceHandle@MVertexBuffer@MHWRender@@QEBA_NXZ
?hasFragment@MFragmentManager@MHWRender@@QEBA_NAEBVMString@@@Z
?hasRenderer@MRenderProfile@@QEBA_NAEBVMString@@M@Z
?hasRenderer@MRenderProfile@@QEBA_NW4MStandardRenderer@1@@Z
?hasShaderOverride@MPassContext@MHWRender@@QEBA_NXZ
?hasTransparentAlpha@MTexture@MHWRender@@QEBA_NXZ
?hasUIDrawables@MHUDRender@MHWRender@@UEBA_NXZ
?hasUIDrawables@MPxDrawOverride@MHWRender@@UEBA_NXZ
?hasUIDrawables@MPxGeometryOverride@MHWRender@@UEBA_NXZ
?hasUIDrawables@MPxSubSceneOverride@MHWRender@@UEBA_NXZ
?hasUIDrawables@MSceneRender@MHWRender@@UEBA_NXZ
?hasUIDrawables@MUserRenderOperation@MHWRender@@UEBA_NXZ
?hasZeroAlpha@MTexture@MHWRender@@QEBA_NXZ
?height@MRenderTarget@@QEBAIXZ
?height@MRenderTargetDescription@MHWRender@@QEBAIXZ
?height@MRenderingInfo@@QEBAIXZ
?hemisphereCoverage@MRenderUtil@@SAMPEBXAEBVMFloatVector@@11_NPEAVMStatus@@@Z
?icon@MUIDrawManager@MHWRender@@QEAA?AVMStatus@@AEBVMPoint@@AEBVMString@@M@Z
?image@MSwatchRenderBase@@QEAAAEAVMImage@@XZ
?imagePaths@MTextureManager@MHWRender@@QEBA?AVMStatus@@AEAVMStringArray@@@Z
?inCurrentRenderLayer@MFnRenderLayer@@QEAA_NAEBVMDagPath@@PEAVMStatus@@@Z
?inCurrentRenderLayer@MRenderUtil@@SA_NAEBVMDagPath@@PEAVMStatus@@@Z
?inLayer@MFnRenderLayer@@QEAA_NAEBVMObject@@PEAVMStatus@@@Z
?inUserInteraction@MFrameContext@MHWRender@@SA_NXZ
?index@MIntersection@MHWRender@@QEBAHPEAVMStatus@@@Z
?indexBuffer@MGeometry@MHWRender@@QEAAPEAVMIndexBuffer@2@H@Z
?indexBuffer@MGeometry@MHWRender@@QEBAPEBVMIndexBuffer@2@H@Z
?indexBufferCount@MGeometry@MHWRender@@QEBAHXZ
?indexLength@MGeometryIndexMapping@MHWRender@@QEBAHH@Z
?indexOf@MRenderItemList@MHWRender@@QEBAHAEBVMString@@@Z
?indexOf@MRenderItemList@MHWRender@@QEBAHAEBVMString@@W4Primitive@MGeometry@2@W4DrawMode@52@@Z
?indexOf@MRenderItemList@MHWRender@@QEBAHAEBVMString@@W4RenderItemType@MRenderItem@2@@Z
?indexStart@MGeometryIndexMapping@MHWRender@@QEBAHH@Z
?indexType@MIndexBufferDescriptor@MHWRender@@QEBA?AW4IndexType@12@XZ
?indexingRequirements@MGeometryRequirements@MHWRender@@QEBAAEBVMIndexBufferDescriptorList@2@XZ
?indices@MComponentDataIndexing@MHWRender@@QEAAAEAVMUintArray@@XZ
?indices@MComponentDataIndexing@MHWRender@@QEBAAEBVMUintArray@@XZ
?initialize@MPxShaderOverride@MHWRender@@UEAA?AVMString@@AEBUMInitContext@12@AEAUMInitFeedback@12@@Z
?initialize@MPxShaderOverride@MHWRender@@UEAA?AVMString@@VMObject@@@Z
?initialize@MRenderer@MHWRender@@AEAAX_N@Z
?insertDrawProcedure@MHardwareRenderer@@QEAA?AW4DrawProcedureStatusCode@1@AEBVMString@@PEAVMDrawProcedureBase@@W4CallLocation@1@I_N@Z
?instanceID@MIntersection@MHWRender@@QEBAHPEAVMStatus@@@Z
?intersectionPoint@MIntersection@MHWRender@@QEBA?AVMFloatPoint@@PEAVMStatus@@@Z
?isATexture@MUniformParameter@@QEBA_NXZ
?isAnimated@MCommonRenderSettingsData@@QEBA_NXZ
?isArrayParameter@MShaderInstance@MHWRender@@QEBA_NAEBVMString@@@Z
?isBounded@MPxDrawOverride@MHWRender@@UEBA_NAEBVMDagPath@@0@Z
?isColorManagementAvailable@MColorManagementUtilities@@SA_NXZ
?isColorManagementEnabled@MColorManagementUtilities@@SA_NXZ
?isConsolidated@MRenderItem@MHWRender@@QEBA_NXZ
?isCubeMap@MRenderTargetDescription@MHWRender@@QEBA_NXZ
?isDone@MGeometryList@@QEBA_NXZ
?isEnabled@MRenderItem@MHWRender@@QEBA_NXZ
?isIndexingDirty@MPxGeometryOverride@MHWRender@@UEAA_NAEBVMRenderItem@2@@Z
?isMovieFormat@MCommonRenderSettingsData@@QEBA_NXZ
?isPlugAdjusted@MFnRenderLayer@@QEBA_NAEBVMPlug@@PEAVMStatus@@@Z
?isRay@MSelectionInfo@MHWRender@@QEBA_NPEAVMStatus@@@Z
?isRunningAsync@MPxRenderer@@UEAA_NXZ
?isShaderFromNode@MRenderItem@MHWRender@@QEBA_NXZ
?isStreamDirty@MPxGeometryOverride@MHWRender@@UEAA_NAEBVMVertexBufferDescriptor@2@@Z
?isSupportedShaderSemantic@MShaderManager@MHWRender@@SA_NAEBVMString@@@Z
?isTransparent@MPxShaderOverride@MHWRender@@UEAA_NXZ
?isTransparent@MShaderInstance@MHWRender@@QEBA_NXZ
?isValid@MGeometryExtractor@MHWRender@@AEBA_NXZ
?itemAt@MRenderItemList@MHWRender@@QEAAPEAVMRenderItem@2@H@Z
?itemAt@MRenderItemList@MHWRender@@QEBAPEBVMRenderItem@2@H@Z
?kBeginRenderSemantic@MPassContext@MHWRender@@2VMString@@B
?kBeginSceneRenderSemantic@MPassContext@MHWRender@@2VMString@@B
?kColorPassSemantic@MPassContext@MHWRender@@2VMString@@B
?kCullBackSemantic@MPassContext@MHWRender@@2VMString@@B
?kCullFrontSemantic@MPassContext@MHWRender@@2VMString@@B
?kDOFPassSemantic@MPassContext@MHWRender@@2VMString@@B
?kDepthPassSemantic@MPassContext@MHWRender@@2VMString@@B
?kEndRenderSemantic@MPassContext@MHWRender@@2VMString@@B
?kEndSceneRenderSemantic@MPassContext@MHWRender@@2VMString@@B
?kExcludeAll@MFrameContext@MHWRender@@2_KA
?kExcludeCVs@MFrameContext@MHWRender@@2_KA
?kExcludeCameras@MFrameContext@MHWRender@@2_KA
?kExcludeClipGhosts@MFrameContext@MHWRender@@2_KA
?kExcludeDeformers@MFrameContext@MHWRender@@2_KA
?kExcludeDimensions@MFrameContext@MHWRender@@2_KA
?kExcludeDynamicConstraints@MFrameContext@MHWRender@@2_KA
?kExcludeDynamics@MFrameContext@MHWRender@@2_KA
?kExcludeFluids@MFrameContext@MHWRender@@2_KA
?kExcludeFollicles@MFrameContext@MHWRender@@2_KA
?kExcludeGreasePencils@MFrameContext@MHWRender@@2_KA
?kExcludeGrid@MFrameContext@MHWRender@@2_KA
?kExcludeHUD@MFrameContext@MHWRender@@2_KA
?kExcludeHairSystems@MFrameContext@MHWRender@@2_KA
?kExcludeHoldOuts@MFrameContext@MHWRender@@2_KA
?kExcludeHulls@MFrameContext@MHWRender@@2_KA
?kExcludeIkHandles@MFrameContext@MHWRender@@2_KA
?kExcludeImagePlane@MFrameContext@MHWRender@@2_KA
?kExcludeJoints@MFrameContext@MHWRender@@2_KA
?kExcludeLights@MFrameContext@MHWRender@@2_KA
?kExcludeLocators@MFrameContext@MHWRender@@2_KA
?kExcludeManipulators@MFrameContext@MHWRender@@2_KA
?kExcludeMeshes@MFrameContext@MHWRender@@2_KA
?kExcludeMotionTrails@MFrameContext@MHWRender@@2_KA
?kExcludeNCloths@MFrameContext@MHWRender@@2_KA
?kExcludeNParticles@MFrameContext@MHWRender@@2_KA
?kExcludeNRigids@MFrameContext@MHWRender@@2_KA
?kExcludeNone@MFrameContext@MHWRender@@2_KA
?kExcludeNurbsCurves@MFrameContext@MHWRender@@2_KA
?kExcludeNurbsSurfaces@MFrameContext@MHWRender@@2_KA
?kExcludeParticleInstancers@MFrameContext@MHWRender@@2_KA
?kExcludePivots@MFrameContext@MHWRender@@2_KA
?kExcludePlanes@MFrameContext@MHWRender@@2_KA
?kExcludePluginShapes@MFrameContext@MHWRender@@2_KA
?kExcludeSelectHandles@MFrameContext@MHWRender@@2_KA
?kExcludeStrokes@MFrameContext@MHWRender@@2_KA
?kExcludeSubdivSurfaces@MFrameContext@MHWRender@@2_KA
?kExcludeTextures@MFrameContext@MHWRender@@2_KA
?kMaterialOverrideSemantic@MPassContext@MHWRender@@2VMString@@B
?kMaxTargets@MBlendState@MHWRender@@2HB
?kMotionVectorPassSemantic@MPassContext@MHWRender@@2VMString@@B
?kNormalDepthPassSemantic@MPassContext@MHWRender@@2VMString@@B
?kOpaqueGeometrySemantic@MPassContext@MHWRender@@2VMString@@B
?kOpaqueUISemantic@MPassContext@MHWRender@@2VMString@@B
?kPostUIGeometrySemantic@MPassContext@MHWRender@@2VMString@@B
?kPreUIGeometrySemantic@MPassContext@MHWRender@@2VMString@@B
?kSelectionPassSemantic@MPassContext@MHWRender@@2VMString@@B
?kShadowPassSemantic@MPassContext@MHWRender@@2VMString@@B
?kTransparentGeometrySemantic@MPassContext@MHWRender@@2VMString@@B
?kTransparentPeelAndAvgSemantic@MPassContext@MHWRender@@2VMString@@B
?kTransparentPeelSemantic@MPassContext@MHWRender@@2VMString@@B
?kTransparentUISemantic@MPassContext@MHWRender@@2VMString@@B
?kTransparentWeightedAvgSemantic@MPassContext@MHWRender@@2VMString@@B
?kUIGeometrySemantic@MPassContext@MHWRender@@2VMString@@B
?kUserPassSemantic@MPassContext@MHWRender@@2VMString@@B
?kXrayUISemantic@MPassContext@MHWRender@@2VMString@@B
?keyable@MUniformParameter@@QEBA_NXZ
?layerChildren@MFnRenderLayer@@QEAA?AVMStatus@@AEAVMObjectArray@@_N@Z
?length@MAttributeParameterMappingList@MHWRender@@QEBAIXZ
?length@MComponentDataIndexingList@MHWRender@@QEBAHXZ
?length@MGeometryList@@QEBAHXZ
?length@MIndexBufferDescriptorList@MHWRender@@QEBAHXZ
?length@MRenderItemList@MHWRender@@QEBAHXZ
?length@MUniformParameterList@@QEBAHXZ
?length@MVaryingParameterList@@QEBAHXZ
?length@MVertexBufferDescriptorList@MHWRender@@QEBAHXZ
?lightAttenuation@MRenderUtil@@SAMPEBXAEBVMFloatVector@@1_NPEAVMStatus@@@Z
?lightModeOverride@MSceneRender@MHWRender@@UEAA?AW4MLightingMode@12@XZ
?lightPath@MLightParameterInformation@MHWRender@@QEBA?AVMDagPath@@PEAVMStatus@@@Z
?lightType@MLightParameterInformation@MHWRender@@QEBA?AVMString@@XZ
?line2d@MUIDrawManager@MHWRender@@QEAAXAEBVMPoint@@0@Z
?line@MUIDrawManager@MHWRender@@QEAAXAEBVMPoint@@0@Z
?lineList@MUIDrawManager@MHWRender@@QEAA?AVMStatus@@AEBVMPointArray@@_N@Z
?lineStrip@MUIDrawManager@MHWRender@@QEAA?AVMStatus@@AEBVMPointArray@@_N@Z
?listAllRenderLayers@MFnRenderLayer@@SA?AVMStatus@@AEAVMObjectArray@@@Z
?listMembers@MFnRenderLayer@@QEBA?AVMStatus@@AEAVMObjectArray@@@Z
?mainBeautyPassCustomTokenString@MRenderUtil@@SA?AVMString@@XZ
?mainBeautyPassName@MRenderUtil@@SA?AVMString@@XZ
?makeResourceContextCurrent@MHardwareRenderer@@QEAA?AVMStatus@@AEBVMString@@@Z
?makeSwatchContextCurrent@MD3D9Renderer@@QEAA?AVMStatus@@AEAI0@Z
?makeSwatchContextCurrent@MHardwareRenderer@@QEAA?AVMStatus@@AEBVMString@@AEAI1@Z
?makeTargetCurrent@MRenderTarget@@QEBAXXZ
?map@MIndexBuffer@MHWRender@@QEAAPEAXXZ
?map@MVertexBuffer@MHWRender@@QEAAPEAXXZ
?map@TapiEnumRender@@SA?AW4DeviceAPI@OGSRenderer@@W4DrawAPI@MHWRender@@@Z
?map@TapiEnumRender@@SA?AW4DisplayStatus@MHWRender@@G@Z
?map@TapiEnumRender@@SA?AW4DrawAPI@MHWRender@@W4DeviceAPI@OGSRenderer@@@Z
?map@TapiEnumRender@@SA?AW4FogMode@MFrameContext@MHWRender@@W4MayaFogMode@OGSRenderGlobals@@@Z
?map@TapiEnumRender@@SA?AW4MayaFogMode@OGSRenderGlobals@@W4FogMode@MFrameContext@MHWRender@@@Z
?map@TapiEnumRender@@SA?AW4RendererOverride@TviewportRenderer@@W4RenderingOverride@MViewportRenderer@@@Z
?map@TapiEnumRender@@SA?AW4RenderingDestination@MFrameContext@MHWRender@@W42OGSRenderGlobals@@@Z
?map@TapiEnumRender@@SA?AW4RenderingDestination@OGSRenderGlobals@@W42MFrameContext@MHWRender@@@Z
?map@TapiEnumRender@@SA?AW4RenderingOverride@MViewportRenderer@@W4RendererOverride@TviewportRenderer@@@Z
?map@TapiEnumRender@@SAGW4DisplayStatus@MHWRender@@@Z
?mask@MClearOperation@MHWRender@@QEBAIXZ
?maxTextureSize@MGLFunctionTable@@QEBAIXZ
?maxVertexAttributes@MGLFunctionTable@@QEBAIXZ
?maximumSpecularReflection@MRenderUtil@@SA?AVMFloatVector@@PEBXAEBV2@111PEAVMStatus@@@Z
?mayaRenderState@MRenderUtil@@SA?AW4MRenderState@1@XZ
?mesh2d@MUIDrawManager@MHWRender@@QEAAXW4Primitive@12@AEBVMPointArray@@PEBVMColorArray@@PEBVMUintArray@@PEBV4@@Z
?mesh@MUIDrawManager@MHWRender@@QEAAXW4Primitive@12@AEBVMPointArray@@PEBVMVectorArray@@PEBVMColorArray@@PEBVMUintArray@@PEBV4@@Z
?minimumBufferSize@MGeometryExtractor@MHWRender@@SAIIW4Primitive@MGeometry@2@I@Z
?multiSampleCount@MRenderTargetDescription@MHWRender@@QEBAIXZ
?name@MDrawProcedureBase@@QEBAAEBVMString@@XZ
?name@MHUDRender@MHWRender@@UEBAAEBVMString@@XZ
?name@MIndexBufferDescriptor@MHWRender@@QEBA?AVMString@@XZ
?name@MRenderItem@MHWRender@@QEBA?AVMString@@XZ
?name@MRenderOperation@MHWRender@@UEBAAEBVMString@@XZ
?name@MRenderOverride@MHWRender@@QEBAAEBVMString@@XZ
?name@MRenderTargetDescription@MHWRender@@QEBAAEBVMString@@XZ
?name@MTexture@MHWRender@@QEBAAEBVMString@@XZ
?name@MUniformParameter@@QEBA?AVMString@@XZ
?name@MVaryingParameter@@QEBA?BVMString@@XZ
?name@MVertexBufferDescriptor@MHWRender@@QEBA?AVMString@@XZ
?name@MViewportRenderer@@QEBAAEBVMString@@XZ
?next@ConstIterator@MSubSceneContainer@MHWRender@@QEAAPEBVMRenderItem@3@XZ
?next@Iterator@MSubSceneContainer@MHWRender@@QEAAPEAVMRenderItem@3@XZ
?next@MGeometryList@@QEAAXXZ
?node@MSwatchRenderBase@@QEBA?AVMObject@@XZ
?noise1@MRenderUtil@@SAMM@Z
?noise2@MRenderUtil@@SAMMM@Z
?noise3@MRenderUtil@@SAMMMM@Z
?noise4@MRenderUtil@@SAMMMMMG@Z
?noiseTableCubeSide@MRenderUtil@@SAIXZ
?noiseTableSize@MRenderUtil@@SAIXZ
?nonTexturedShaderInstance@MPxShaderOverride@MHWRender@@UEBAPEAVMShaderInstance@2@AEA_N@Z
?normal@MGeometry@@QEAA?BVMGeometryData@@XZ
?notificationCount@MRenderer@MHWRender@@QEBAIAEBVMString@@@Z
?numColumns@MUniformParameter@@QEBAIXZ
?numElements@MUniformParameter@@QEBAIXZ
?numElements@MVaryingParameter@@QEBAIXZ
?numRows@MUniformParameter@@QEBAIXZ
?numTexImageUnits@MGLFunctionTable@@QEBAIXZ
?numTexInterpolants@MGLFunctionTable@@QEBAIXZ
?numTexUnits@MGLFunctionTable@@QEBAIXZ
?numberOfActiveLights@MDrawContext@MHWRender@@QEBAIPEAVMStatus@@@Z
?numberOfActiveLights@MDrawContext@MHWRender@@QEBAIW4LightFilter@12@PEAVMStatus@@@Z
?numberOfRenderers@MRenderProfile@@QEBAIXZ
?objectName@MGeometryData@@QEBAPEBDXZ
?objectOwnsData@MGeometryData@@QEBA_NXZ
?objectSetOverride@MSceneRender@MHWRender@@UEAAPEBVMSelectionList@@XZ
?objectToWorldMatrix@MGeometryList@@QEBAAEBVMMatrix@@XZ
?objectTypeExclusions@MFrameContext@MHWRender@@QEBA_KXZ
?objectTypeExclusions@MSceneRender@MHWRender@@UEAA?AW4MObjectTypeExclusions@12@XZ
?offset@MVertexBufferDescriptor@MHWRender@@QEBAHXZ
?operationType@MRenderOperation@MHWRender@@QEBA?AW4MRenderOperationType@12@XZ
?originX@MRenderingInfo@@QEBAIXZ
?originY@MRenderingInfo@@QEBAIXZ
?outputForConnection@MPxShadingNodeOverride@MHWRender@@UEAA?AVMString@@AEBVMPlug@@0@Z
?outputTargetSize@MRenderer@MHWRender@@QEBA?AVMStatus@@AEAI0@Z
?overrideThenStandardExclusion@MViewportRenderer@@UEBAIXZ
?overridesDrawState@MPxShaderOverride@MHWRender@@UEAA_NXZ
?overridesNonMaterialItems@MPxShaderOverride@MHWRender@@UEBA_NXZ
?pId@MRenderer@MHWRender@@AEAAAEAVMString@@XZ
?pSem@MRenderer@MHWRender@@AEAAAEAVMStringArray@@XZ
?parameterDefaultValue@MShaderInstance@MHWRender@@QEAAPEAXAEBVMString@@AEAVMStatus@@@Z
?parameterList@MLightParameterInformation@MHWRender@@QEBAXAEAVMStringArray@@@Z
?parameterList@MShaderInstance@MHWRender@@QEBAXAEAVMStringArray@@@Z
?parameterName@MAttributeParameterMapping@MHWRender@@QEBAAEBVMString@@XZ
?parameterNames@MLightParameterInformation@MHWRender@@QEBAXW4StockParameterSemantic@12@AEAVMStringArray@@@Z
?parameterSemantic@MLightParameterInformation@MHWRender@@QEBA?AW4StockParameterSemantic@12@AEBVMString@@@Z
?parameterSemantic@MShaderInstance@MHWRender@@QEAA?AVMString@@AEBV3@AEAVMStatus@@@Z
?parameterType@MLightParameterInformation@MHWRender@@QEBA?AW4ParameterType@12@AEBVMString@@@Z
?parameterType@MShaderInstance@MHWRender@@QEBA?AW4ParameterType@12@AEBVMString@@@Z
?parseLinks@MLightLinks@@QEAA?AVMStatus@@AEBVMObject@@_NPEAV?$basic_ostream@DU?$char_traits@D@std@@@std@@11@Z
?passAnnotationAsFloat@MShaderInstance@MHWRender@@QEAAMIAEBVMString@@AEAVMStatus@@@Z
?passAnnotationAsInt@MShaderInstance@MHWRender@@QEAAHIAEBVMString@@AEAVMStatus@@@Z
?passAnnotationAsString@MShaderInstance@MHWRender@@QEAA?AVMString@@IAEBV3@AEAVMStatus@@@Z
?passHasLight@MFnRenderLayer@@QEBA_NAEBVMObject@@0PEAVMStatus@@@Z
?passHasObject@MFnRenderLayer@@QEBA_NAEBVMObject@@AEBVMDagPath@@PEAVMStatus@@@Z
?passID@MFnRenderPass@@QEBA?AVMString@@PEAVMStatus@@@Z
?passIdentifier@MPassContext@MHWRender@@QEBAAEBVMString@@XZ
?passSemantics@MPassContext@MHWRender@@QEBAAEBVMStringArray@@XZ
?path@MGeometryList@@QEBA?AVMDagPath@@XZ
?point2d@MUIDrawManager@MHWRender@@QEAAXAEBVMPoint@@@Z
?point@MUIDrawManager@MHWRender@@QEAAXAEBVMPoint@@@Z
?pointSnappingActive@MPxGeometryOverride@MHWRender@@SA_NXZ
?pointSnappingActive@MPxSubSceneOverride@MHWRender@@SA_NXZ
?points@MUIDrawManager@MHWRender@@QEAA?AVMStatus@@AEBVMPointArray@@_N@Z
?populateIndexBuffer@MGeometryExtractor@MHWRender@@QEBA?AVMStatus@@PEAXIAEBVMIndexBufferDescriptor@2@@Z
?populateVertexBuffer@MGeometryExtractor@MHWRender@@QEBA?AVMStatus@@PEAXIAEBVMVertexBufferDescriptor@2@@Z
?position@MGeometry@@QEAA?BVMGeometryData@@XZ
?postDrawCallback@MShaderInstance@MHWRender@@QEBAP6AXAEAVMDrawContext@2@AEBVMRenderItemList@2@PEAV12@@ZXZ
?postEffectsOverride@MSceneRender@MHWRender@@UEAA?AW4MPostEffectsOverride@12@XZ
?postProcessCallback@MRenderCallback@@UEAA_NAEBVMRenderData@@@Z
?postRender@MSceneRender@MHWRender@@UEAAXXZ
?postSceneRender@MSceneRender@MHWRender@@UEAAXAEBVMDrawContext@2@@Z
?postUpdate@MSubSceneContainer@MHWRender@@AEAAXXZ
?preDrawCallback@MShaderInstance@MHWRender@@QEBAP6AXAEAVMDrawContext@2@AEBVMRenderItemList@2@PEAV12@@ZXZ
?preRender@MSceneRender@MHWRender@@UEAAXXZ
?preSceneRender@MSceneRender@MHWRender@@UEAAXAEBVMDrawContext@2@@Z
?presentDepth@MPresentTarget@MHWRender@@QEBA_NXZ
?presentOnScreen@MRenderer@MHWRender@@QEBA_NXZ
?primaryColorParameter@MPxSurfaceShadingNodeOverride@MHWRender@@UEBA?AVMString@@XZ
?primitive@MIndexBufferDescriptor@MHWRender@@QEBA?AW4Primitive@MGeometry@2@XZ
?primitive@MRenderItem@MHWRender@@QEBA?AW4Primitive@MGeometry@2@AEAH@Z
?primitive@MRenderItem@MHWRender@@QEBA?AW4Primitive@MGeometry@2@XZ
?primitiveArray@MGeometry@@QEBA?BVMGeometryPrimitive@@I@Z
?primitiveArrayCount@MGeometry@@QEBAIXZ
?primitiveCount@MGeometryExtractor@MHWRender@@QEBAIAEBVMIndexBufferDescriptor@2@@Z
?primitiveStride@MIndexBufferDescriptor@MHWRender@@QEBAIXZ
?primitiveString@MGeometry@MHWRender@@SAAEBVMString@@W4Primitive@12@@Z
?progress@MPxRenderer@@IEAAXAEBVProgressParams@1@@Z
?projectionMatrix@MGeometryList@@QEBAAEBVMMatrix@@XZ
?projectionMatrix@MRenderingInfo@@QEBAAEBVMMatrix@@XZ
?rasterFormat@MRenderTargetDescription@MHWRender@@QEBA?AW4MRasterFormat@2@XZ
?rasterizerStateOverride@MQuadRender@MHWRender@@UEAAPEBVMRasterizerState@2@XZ
?rawData@MRenderTarget@MHWRender@@QEAAPEAXAEAH0@Z
?rawData@MTexture@MHWRender@@QEBAPEAXAEAH0@Z
?raytrace@MRenderUtil@@SA?AVMStatus@@AEBVMFloatVector@@0PEBX1FAEAV3@2_N@Z
?raytrace@MRenderUtil@@SA?AVMStatus@@AEBVMFloatVectorArray@@0PEBX1FAEAV3@2_N@Z
?raytraceFirstGeometryIntersections@MRenderUtil@@SA?AVMStatus@@AEBVMFloatVectorArray@@0PEBX1AEAV3@AEAVMIntArray@@@Z
?readSwatchContextPixels@MD3D9Renderer@@QEAA?AVMStatus@@AEAVMImage@@@Z
?readSwatchContextPixels@MHardwareRenderer@@QEAA?AVMStatus@@AEBVMString@@AEAVMImage@@@Z
?rebuildAlways@MPxShaderOverride@MHWRender@@UEAA_NXZ
?receivesShadows@MRenderItem@MHWRender@@QEAAX_N@Z
?receivesShadows@MRenderItem@MHWRender@@QEBA_NXZ
?rect2d@MUIDrawManager@MHWRender@@QEAAXAEBVMPoint@@AEBVMVector@@NN_N@Z
?rect@MUIDrawManager@MHWRender@@QEAAXAEBVMPoint@@AEBVMVector@@1NN_N@Z
?referenceDefaultGeometry@MGeometryManager@@SAPEAVMGeometryList@@W4GeometricShape@1@AEBVMGeometryRequirements@@@Z
?referenceDefaultGeometry@MHardwareRenderer@@QEAAPEAVMGeometryData@@W4GeometricShape@1@AEAIAEAPEAI1@Z
?refineSelectionPath@MPxDrawOverride@MHWRender@@UEAA_NAEBVMSelectionInfo@2@AEBVMRenderItem@2@AEAVMDagPath@@AEAVMObject@@AEAVMSelectionMask@@@Z
?refineSelectionPath@MPxGeometryOverride@MHWRender@@UEAA_NAEBVMSelectionInfo@2@AEBVMRenderItem@2@AEAVMDagPath@@AEAVMObject@@AEAVMSelectionMask@@@Z
?refresh@MPxRenderer@@IEAAXAEBVRefreshParams@1@@Z
?refresh@MRenderView@@SA?AVMStatus@@IIII@Z
?registerComponentConverter@MDrawRegistry@MHWRender@@SA?AVMStatus@@AEBVMString@@P6APEAVMPxComponentConverter@2@XZ@Z
?registerDrawOverrideCreator@MDrawRegistry@MHWRender@@SA?AVMStatus@@AEBVMString@@0P6APEAVMPxDrawOverride@2@AEBVMObject@@@Z@Z
?registerGeometryOverrideCreator@MDrawRegistry@MHWRender@@SA?AVMStatus@@AEBVMString@@0P6APEAVMPxGeometryOverride@2@AEBVMObject@@@Z@Z
?registerIndexBufferMutator@MDrawRegistry@MHWRender@@SA?AVMStatus@@AEBVMString@@P6APEAVMPxIndexBufferMutator@2@XZ@Z
?registerOverride@MRenderer@MHWRender@@QEAA?AVMStatus@@PEBVMRenderOverride@2@@Z
?registerPrimitiveGenerator@MDrawRegistry@MHWRender@@SA?AVMStatus@@AEBVMString@@P6APEAVMPxPrimitiveGenerator@2@XZ@Z
?registerRenderer@MViewportRenderer@@QEBA?AVMStatus@@XZ
?registerShaderOverrideCreator@MDrawRegistry@MHWRender@@SA?AVMStatus@@AEBVMString@@0P6APEAVMPxShaderOverride@2@AEBVMObject@@@Z@Z
?registerShadingNodeOverrideCreator@MDrawRegistry@MHWRender@@SA?AVMStatus@@AEBVMString@@0P6APEAVMPxShadingNodeOverride@2@AEBVMObject@@@Z@Z
?registerSubSceneOverrideCreator@MDrawRegistry@MHWRender@@SA?AVMStatus@@AEBVMString@@0P6APEAVMPxSubSceneOverride@2@AEBVMObject@@@Z@Z
?registerSurfaceShadingNodeOverrideCreator@MDrawRegistry@MHWRender@@SA?AVMStatus@@AEBVMString@@0P6APEAVMPxSurfaceShadingNodeOverride@2@AEBVMObject@@@Z@Z
?registerSwatchRender@MSwatchRenderRegister@@SA?AVMStatus@@VMString@@P6APEAVMSwatchRenderBase@@VMObject@@1H@Z@Z
?registerTextureFile@MHwTextureManager@@SA?AVMStatus@@AEBVMString@@AEAH@Z
?registerVertexBufferGenerator@MDrawRegistry@MHWRender@@SA?AVMStatus@@AEBVMString@@P6APEAVMPxVertexBufferGenerator@2@XZ@Z
?registerVertexBufferMutator@MDrawRegistry@MHWRender@@SA?AVMStatus@@AEBVMString@@P6APEAVMPxVertexBufferMutator@2@XZ@Z
?registeringCallableScript@MDrawRegistry@MHWRender@@SA_NXZ
?relativeFileName@MRenderUtil@@SA?AVMString@@AEBV2@PEAVMStatus@@@Z
?release@MGeometryData@@IEAAXXZ
?release@MGeometryPrimitive@@IEAAXXZ
?releaseBlendState@MStateManager@MHWRender@@SAXPEBVMBlendState@2@@Z
?releaseDepthStencilState@MStateManager@MHWRender@@SAXPEBVMDepthStencilState@2@@Z
?releaseDrawContext@MRenderUtilities@MHWRender@@SAXPEAVMDrawContext@2@_N@Z
?releaseRasterizerState@MStateManager@MHWRender@@SAXPEBVMRasterizerState@2@@Z
?releaseReferenceGeometry@MGeometryUtilities@MHWRender@@SAXPEAVMGeometry@2@@Z
?releaseRenderTarget@MRenderTargetManager@MHWRender@@QEBAXPEAVMRenderTarget@2@@Z
?releaseSamplerState@MStateManager@MHWRender@@SAXPEBVMSamplerState@2@@Z
?releaseShader@MShaderManager@MHWRender@@QEBAXPEAVMShaderInstance@2@@Z
?releaseTexture@MTextureManager@MHWRender@@QEBAXPEAVMTexture@2@@Z
?remove@MSubSceneContainer@MHWRender@@QEAA_NAEBVMString@@@Z
?removeAllInstances@MPxSubSceneOverride@MHWRender@@QEAA?AVMStatus@@AEAVMRenderItem@2@@Z
?removeAt@MComponentDataIndexingList@MHWRender@@QEAA_NH@Z
?removeAt@MIndexBufferDescriptorList@MHWRender@@QEAA_NH@Z
?removeAt@MRenderItemList@MHWRender@@QEAA_NH@Z
?removeAt@MVertexBufferDescriptorList@MHWRender@@QEAA_NH@Z
?removeCallback@MHwrCallback@@SAXPEAV1@@Z
?removeCallback@MRenderCallback@@SAXPEAV1@@Z
?removeDrawProcedure@MHardwareRenderer@@QEAA?AW4DrawProcedureStatusCode@1@AEBVMString@@PEAVMDrawProcedureBase@@W4CallLocation@1@@Z
?removeElements@MVaryingParameter@@QEAA?AVMStatus@@XZ
?removeExtraInstanceData@MPxSubSceneOverride@MHWRender@@QEAA?AVMStatus@@AEAVMRenderItem@2@AEBVMString@@@Z
?removeFragment@MFragmentManager@MHWRender@@QEAA_NAEBVMString@@@Z
?removeInstance@MPxSubSceneOverride@MHWRender@@QEAA?AVMStatus@@AEAVMRenderItem@2@I@Z
?removeNotification@MRenderer@MHWRender@@QEAA?AVMStatus@@AEBVMString@@0@Z
?renderCallback@MRenderCallback@@UEAA_NAEBVMRenderData@@@Z
?renderFilterOverride@MSceneRender@MHWRender@@UEAA?AW4MSceneFilterOption@12@XZ
?renderMaterialViewerGeometry@MRenderUtilities@MHWRender@@SA?AVMStatus@@AEBVMString@@VMObject@@AEAVMImage@@W4MaterialViewerCamera@12@W4MaterialViewerLights@12@@Z
?renderObjectItem@MRenderUtil@@SA?AVMStatus@@PEBXAEAVMSelectionList@@@Z
?renderOverrideCount@MRenderer@MHWRender@@QEAAIXZ
?renderOverrideName@MRenderer@MHWRender@@QEBA?AVMString@@PEAVMStatus@@@Z
?renderParallel@?$MPyMSwatchRenderBase_DirectorImpl@VMSwatchRenderBase@@@@UEAA_NXZ
?renderParallel@MSwatchRenderBase@@UEAA_NXZ
?renderPass@MRenderUtil@@SA?AW4MRenderPass@1@XZ
?renderQuality@MSwatchRenderBase@@QEBAHXZ
?renderTarget@MRenderingInfo@@QEBAAEBVMRenderTarget@@XZ
?renderingAPI@MRenderingInfo@@QEBA?AW4RenderingAPI@MViewportRenderer@@XZ
?renderingDestination@MFrameContext@MHWRender@@QEBA?AW4RenderingDestination@12@AEAVMString@@@Z
?renderingOverride@MViewportRenderer@@QEBA?AW4RenderingOverride@1@XZ
?renderingVersion@MRenderingInfo@@QEBAMXZ
?requiredVertexBuffers@MRenderItem@MHWRender@@QEBAAEBVMVertexBufferDescriptorList@2@XZ
?requiredVertexBuffers@MShaderInstance@MHWRender@@CAXAEAVMVertexBufferDescriptorList@2@PEAX@Z
?requiredVertexBuffers@MShaderInstance@MHWRender@@QEBA?AVMStatus@@AEAVMVertexBufferDescriptorList@2@@Z
?requiresLightData@MUserRenderOperation@MHWRender@@UEBA_NXZ
?reset@ConstIterator@MSubSceneContainer@MHWRender@@QEAAXXZ
?reset@Iterator@MSubSceneContainer@MHWRender@@QEAAXXZ
?reset@MGeometryList@@QEAAXXZ
?resolution@MSwatchRenderBase@@QEBAHXZ
?resolvedParameterName@MAttributeParameterMapping@MHWRender@@QEBAAEBVMString@@XZ
?resourceHandle@MBlendState@MHWRender@@QEBAPEAXXZ
?resourceHandle@MDepthStencilState@MHWRender@@QEBAPEAXXZ
?resourceHandle@MIndexBuffer@MHWRender@@QEAAXPEAXI@Z
?resourceHandle@MIndexBuffer@MHWRender@@QEBAPEAXXZ
?resourceHandle@MRasterizerState@MHWRender@@QEBAPEAXXZ
?resourceHandle@MRenderTarget@MHWRender@@QEBAPEAXXZ
?resourceHandle@MSamplerState@MHWRender@@QEBAPEAXXZ
?resourceHandle@MTexture@MHWRender@@QEBAPEAXXZ
?resourceHandle@MVertexBuffer@MHWRender@@QEAAXPEAXI@Z
?resourceHandle@MVertexBuffer@MHWRender@@QEBAPEAXXZ
?resourceName@MShaderInstance@MHWRender@@QEAA?AVMString@@AEBV3@AEAVMStatus@@@Z
?restoreCurrent@MHardwareRenderer@@QEBA?AVMStatus@@AEBVMString@@@Z
?sActiveLineDepthPriority@MRenderItem@MHWRender@@2IA
?sActivePointDepthPriority@MRenderItem@MHWRender@@2IA
?sActiveWireDepthPriority@MRenderItem@MHWRender@@2IA
?sDormantFilledDepthPriority@MRenderItem@MHWRender@@2IA
?sDormantPointDepthPriority@MRenderItem@MHWRender@@2IA
?sDormantWireDepthPriority@MRenderItem@MHWRender@@2IA
?sHiliteWireDepthPriority@MRenderItem@MHWRender@@2IA
?sSelectionDepthPriority@MRenderItem@MHWRender@@2IA
?sampleShadingNetwork@MRenderUtil@@SA?AVMStatus@@VMString@@H_N1AEAVMFloatMatrix@@PEAVMFloatPointArray@@PEAVMFloatArray@@4PEAVMFloatVectorArray@@3554AEAV7@6@Z
?samplerDescriptionFromState@MStateManager@MHWRender@@CAXPEAXAEAVMSamplerStateDesc@2@@Z
?saveTexture@MTextureManager@MHWRender@@QEAA?AVMStatus@@PEAVMTexture@2@AEBVMString@@@Z
?screenToWorld@MRenderData@@QEBAXAEBVMFloatPoint@@AEAV2@@Z
?selectClosest@MSelectionInfo@MHWRender@@QEBA_NPEAVMStatus@@@Z
?selectForHilite@MSelectionInfo@MHWRender@@QEBA_NAEBVMSelectionMask@@PEAVMStatus@@@Z
?selectOnHilitedOnly@MSelectionInfo@MHWRender@@QEBA_NPEAVMStatus@@@Z
?selectRect@MSelectionInfo@MHWRender@@QEBA?AVMStatus@@AEAI000@Z
?selectable@MSelectionInfo@MHWRender@@QEBA_NAEAVMSelectionMask@@PEAVMStatus@@@Z
?selectableComponent@MSelectionInfo@MHWRender@@QEBA_N_NAEAVMSelectionMask@@PEAVMStatus@@@Z
?selectionLevel@MIntersection@MHWRender@@QEBA?AW4SelectionLevel@MSelectionContext@2@PEAVMStatus@@@Z
?selectionLevel@MSelectionContext@MHWRender@@QEBA?AW4SelectionLevel@12@PEAVMStatus@@@Z
?selectionMask@MRenderItem@MHWRender@@QEBA?AVMSelectionMask@@XZ
?semantic@MShaderInstance@MHWRender@@QEBA?AVMString@@AEBV3@@Z
?semantic@MUniformParameter@@QEBA?AW4DataSemantic@1@XZ
?semantic@MVaryingParameter@@QEBA?AW4MVaryingParameterSemantic@1@XZ
?semantic@MVertexBufferDescriptor@MHWRender@@QEBA?AW4Semantic@MGeometry@2@XZ
?semanticName@MVaryingParameter@@QEBA?BVMString@@XZ
?semanticName@MVertexBufferDescriptor@MHWRender@@QEBA?AVMString@@XZ
?semanticString@MGeometry@MHWRender@@SAAEBVMString@@W4Semantic@12@@Z
?semanticToMatrixType@MFrameContext@MHWRender@@SA?AW4MatrixType@12@AEBVMString@@PEAVMStatus@@@Z
?semanticToTupleType@MFrameContext@MHWRender@@SA?AW4TupleType@12@AEBVMString@@PEAVMStatus@@@Z
?sendRenderProgressInfo@MRenderUtil@@SAXAEBVMString@@H@Z
?set@MGeometry@@IEAAXPEAX0@Z
?set@MGeometryPrimitive@@IEAAXPEAX@Z
?set@MLightParameterInformation@MHWRender@@AEAAXPEAX00@Z
?set@MRenderTarget@@AEAAXPEAX@Z
?set@MRenderingInfo@@AEAAXPEAX@Z
?setAllowTransparentInstances@MPxSubSceneOverride@MHWRender@@QEAA?AVMStatus@@AEAVMRenderItem@2@_N@Z
?setAllowsUnorderedAccess@MRenderTargetDescription@MHWRender@@QEAAX_N@Z
?setArrayParameter@MShaderInstance@MHWRender@@QEAA?AVMStatus@@AEBVMString@@PEBHI@Z
?setArrayParameter@MShaderInstance@MHWRender@@QEAA?AVMStatus@@AEBVMString@@PEBMI@Z
?setArrayParameter@MShaderInstance@MHWRender@@QEAA?AVMStatus@@AEBVMString@@PEBVMMatrix@@I@Z
?setArrayParameter@MShaderInstance@MHWRender@@QEAA?AVMStatus@@AEBVMString@@PEB_NI@Z
?setArraySliceCount@MRenderTargetDescription@MHWRender@@QEAAXI@Z
?setAsBool@MUniformParameter@@QEBAX_N@Z
?setAsFloat@MUniformParameter@@QEBAXM@Z
?setAsFloatArray@MUniformParameter@@QEBAXPEBMI@Z
?setAsInt@MUniformParameter@@QEBAXH@Z
?setAsString@MUniformParameter@@QEBAXAEBVMString@@@Z
?setBackgroundColor@MD3D9Renderer@@QEAA?AVMStatus@@AEBVMColor@@@Z
?setBlendState@MStateManager@MHWRender@@QEAA?AVMStatus@@PEBVMBlendState@2@@Z
?setCapacity@MGeometryList@@AEAAXH@Z
?setClearColor2@MClearOperation@MHWRender@@QEAAXQEAM@Z
?setClearColor@MClearOperation@MHWRender@@QEAAXQEAM@Z
?setClearDepth@MClearOperation@MHWRender@@QEAAXM@Z
?setClearGradient@MClearOperation@MHWRender@@QEAAX_N@Z
?setClearStencil@MClearOperation@MHWRender@@QEAAXH@Z
?setCollectionNumber@MGeometryData@@QEAAXH@Z
?setColor@MUIDrawManager@MHWRender@@QEAAXAEBVMColor@@@Z
?setColorIndex@MUIDrawManager@MHWRender@@QEAAXF@Z
?setComponent@MIndexBufferDescriptor@MHWRender@@QEAAXVMObject@@@Z
?setComponentType@MComponentDataIndexing@MHWRender@@QEAAXW4MComponentType@12@@Z
?setContextNodeFullName@MTextureArguments@MHWRender@@QEAAXAEBVMString@@@Z
?setCurrentCamera@MRenderView@@SA?AVMStatus@@AEAVMDagPath@@@Z
?setCurrentElement@MGeometryList@@QEAAXH@Z
?setCustomData@MRenderItem@MHWRender@@QEAAXPEAVMUserData@@@Z
?setData@MDrawContext@MHWRender@@AEAAXPEAX@Z
?setData@MStateManager@MHWRender@@AEAAXPEAX@Z
?setData@MSubSceneContainer@MHWRender@@AEAAXPEAX@Z
?setDataType@MVertexBufferDescriptor@MHWRender@@QEAAXW4DataType@MGeometry@2@@Z
?setDefaults@MBlendStateDesc@MHWRender@@QEAAXXZ
?setDefaults@MDepthStencilStateDesc@MHWRender@@QEAAXXZ
?setDefaults@MRasterizerStateDesc@MHWRender@@QEAAXXZ
?setDefaults@MSamplerStateDesc@MHWRender@@QEAAXXZ
?setDefaults@MStencilOpDesc@MHWRender@@QEAAXXZ
?setDefaults@MTargetBlendDesc@MHWRender@@QEAAXXZ
?setDepthPriority@MUIDrawManager@MHWRender@@QEAAXI@Z
?setDepthStencilState@MStateManager@MHWRender@@QEAA?AVMStatus@@PEBVMDepthStencilState@2@@Z
?setDimension@MVertexBufferDescriptor@MHWRender@@QEAAXH@Z
?setDirty@MUniformParameter@@QEAAXXZ
?setDrawMode@MRenderItem@MHWRender@@QEAAXW4DrawMode@MGeometry@2@@Z
?setDrawTileBoundary@MRenderView@@SA?AVMStatus@@_N@Z
?setEffectOutputDirectory@MFragmentManager@MHWRender@@QEAAXAEBVMString@@@Z
?setElement@MUniformParameterList@@QEAAXHAEBVMUniformParameter@@@Z
?setElement@MVaryingParameterList@@QEAAXHAEBVMVaryingParameter@@@Z
?setEnabled@MDrawProcedureBase@@QEAAX_N@Z
?setEnumFieldNames@MUniformParameter@@QEAAXAEBVMString@@@Z
?setExcludedFromPostEffects@MRenderItem@MHWRender@@QEAAX_N@Z
?setExtraInstanceData@MPxSubSceneOverride@MHWRender@@QEAA?AVMStatus@@AEAVMRenderItem@2@AEBVMString@@AEBVMFloatArray@@@Z
?setExtraInstanceData@MPxSubSceneOverride@MHWRender@@QEAA?AVMStatus@@AEAVMRenderItem@2@IAEBVMString@@AEBVMFloatArray@@@Z
?setFieldName@MCommonRenderSettingsData@@QEAAXAEBVMString@@@Z
?setFileTextureNode@MTextureArguments@MHWRender@@QEAAXVMObject@@@Z
?setFontIncline@MUIDrawManager@MHWRender@@QEAAXH@Z
?setFontLine@MUIDrawManager@MHWRender@@QEAAXH@Z
?setFontName@MUIDrawManager@MHWRender@@QEAAXAEBVMString@@@Z
?setFontSize@MUIDrawManager@MHWRender@@QEAAXI@Z
?setFontStretch@MUIDrawManager@MHWRender@@QEAAXH@Z
?setFontWeight@MUIDrawManager@MHWRender@@QEAAXH@Z
?setGeometryDrawDirty@MRenderer@MHWRender@@SAXVMObject@@_N@Z
?setGeometryForRenderItem@MPxDrawOverride@MHWRender@@IEBA?AVMStatus@@AEAVMRenderItem@2@AEBVMVertexBufferArray@2@PEBVMIndexBuffer@2@PEBVMBoundingBox@@@Z
?setGeometryForRenderItem@MPxSubSceneOverride@MHWRender@@QEAA?AVMStatus@@AEAVMRenderItem@2@AEBVMVertexBufferArray@2@AEBVMIndexBuffer@2@PEBVMBoundingBox@@@Z
?setGeometryRequirements@MPxShaderOverride@MHWRender@@IEAA?AVMStatus@@AEBVMShaderInstance@2@@Z
?setHasAlpha@MTexture@MHWRender@@QEAA?AVMStatus@@_N@Z
?setHasTransparentAlpha@MTexture@MHWRender@@QEAA?AVMStatus@@_N@Z
?setHasZeroAlpha@MTexture@MHWRender@@QEAA?AVMStatus@@_N@Z
?setHeight@MRenderTarget@@AEAAXI@Z
?setHeight@MRenderTargetDescription@MHWRender@@QEAAXI@Z
?setImplementation@MFnRenderPass@@QEAAPEAVMPxRenderPassImpl@@AEBVMString@@PEAVMStatus@@@Z
?setIndexType@MIndexBufferDescriptor@MHWRender@@QEAAXW4IndexType@12@@Z
?setInstanceTransformArray@MPxSubSceneOverride@MHWRender@@QEAA?AVMStatus@@AEAVMRenderItem@2@AEBVMMatrixArray@@@Z
?setIntermediateGraphOutputDirectory@MFragmentManager@MHWRender@@QEAAXAEBVMString@@@Z
?setInternalData@MPxShaderOverride@MHWRender@@AEAAXPEAX@Z
?setIsCubeMap@MRenderTargetDescription@MHWRender@@QEAAX_N@Z
?setIsTransparent@MShaderInstance@MHWRender@@QEAA?AVMStatus@@_N@Z
?setKeyable@MUniformParameter@@QEBAX_N@Z
?setLength@MUniformParameterList@@QEAAXH@Z
?setLength@MVaryingParameterList@@QEAAXH@Z
?setLightRequiresShadows@MRenderer@MHWRender@@QEAA_NVMObject@@_N@Z
?setLightsAndShadowsDirty@MRenderer@MHWRender@@SAXXZ
?setLineStyle@MUIDrawManager@MHWRender@@QEAAXIG@Z
?setLineStyle@MUIDrawManager@MHWRender@@QEAAXW4LineStyle@12@@Z
?setLineWidth@MUIDrawManager@MHWRender@@QEAAXM@Z
?setMask@MClearOperation@MHWRender@@QEAAXI@Z
?setMatrix@MRenderItem@MHWRender@@QEAA_NPEBVMMatrix@@@Z
?setMultiSampleCount@MRenderTargetDescription@MHWRender@@QEAAXI@Z
?setName@MDrawProcedureBase@@QEAAXAEBVMString@@@Z
?setName@MIndexBufferDescriptor@MHWRender@@QEAAXAEAVMString@@@Z
?setName@MRenderTargetDescription@MHWRender@@QEAAXAEBVMString@@@Z
?setName@MVertexBufferDescriptor@MHWRender@@QEAAXAEBVMString@@@Z
?setObjectOwnsData@MGeometryData@@QEAAX_N@Z
?setOffset@MVertexBufferDescriptor@MHWRender@@QEAAXH@Z
?setOutputTargetOverrideSize@MRenderer@MHWRender@@QEAAXII@Z
?setOverrideEffectInstance@MPassContext@MHWRender@@AEAAXPEAX@Z
?setPId@MRenderer@MHWRender@@AEAAXAEBVMString@@@Z
?setPSem@MRenderer@MHWRender@@AEAAXAEBVMStringArray@@@Z
?setPaintStyle@MUIDrawManager@MHWRender@@QEAAXW4PaintStyle@12@@Z
?setParameter@MShaderInstance@MHWRender@@QEAA?AVMStatus@@AEBVMString@@AEAUMRenderTargetAssignment@2@@Z
?setParameter@MShaderInstance@MHWRender@@QEAA?AVMStatus@@AEBVMString@@AEAUMTextureAssignment@2@@Z
?setParameter@MShaderInstance@MHWRender@@QEAA?AVMStatus@@AEBVMString@@AEBVMFloatMatrix@@@Z
?setParameter@MShaderInstance@MHWRender@@QEAA?AVMStatus@@AEBVMString@@AEBVMFloatVector@@@Z
?setParameter@MShaderInstance@MHWRender@@QEAA?AVMStatus@@AEBVMString@@AEBVMMatrix@@@Z
?setParameter@MShaderInstance@MHWRender@@QEAA?AVMStatus@@AEBVMString@@AEBVMSamplerState@2@@Z
?setParameter@MShaderInstance@MHWRender@@QEAA?AVMStatus@@AEBVMString@@H@Z
?setParameter@MShaderInstance@MHWRender@@QEAA?AVMStatus@@AEBVMString@@M@Z
?setParameter@MShaderInstance@MHWRender@@QEAA?AVMStatus@@AEBVMString@@PEBM@Z
?setParameter@MShaderInstance@MHWRender@@QEAA?AVMStatus@@AEBVMString@@_N@Z
?setPassIdentifier@MPassContext@MHWRender@@AEAAXAEBVMString@@@Z
?setPassName@MCommonRenderSettingsData@@QEAAXAEBVMString@@@Z
?setPassSemantics@MPassContext@MHWRender@@AEAAXAEBVMStringArray@@@Z
?setPointSize@MUIDrawManager@MHWRender@@QEAAXM@Z
?setPresentDepth@MPresentTarget@MHWRender@@QEAAX_N@Z
?setPresentOnScreen@MRenderer@MHWRender@@QEAAX_N@Z
?setPrimitive@MIndexBufferDescriptor@MHWRender@@QEAAXW4Primitive@MGeometry@2@@Z
?setPrimitiveStride@MIndexBufferDescriptor@MHWRender@@QEAAXI@Z
?setProperty@MPxRenderer@@UEAA?AVMStatus@@AEBVMUuid@@AEBVMString@@1@Z
?setProperty@MPxRenderer@@UEAA?AVMStatus@@AEBVMUuid@@AEBVMString@@H@Z
?setProperty@MPxRenderer@@UEAA?AVMStatus@@AEBVMUuid@@AEBVMString@@M@Z
?setProperty@MPxRenderer@@UEAA?AVMStatus@@AEBVMUuid@@AEBVMString@@_N@Z
?setRangeMax@MUniformParameter@@QEBAXN@Z
?setRangeMin@MUniformParameter@@QEBAXN@Z
?setRasterFormat@MRenderTargetDescription@MHWRender@@QEAAXW4MRasterFormat@2@@Z
?setRasterizerState@MStateManager@MHWRender@@QEAA?AVMStatus@@PEBVMRasterizerState@2@@Z
?setRegisteringCallableScript@MDrawRegistry@MHWRender@@SAXXZ
?setRenderOverrideName@MRenderer@MHWRender@@QEAA?AVMStatus@@AEBVMString@@@Z
?setRenderQuality@MSwatchRenderBase@@QEAAXH@Z
?setRenderingOverride@MViewportRenderer@@QEAAXW4RenderingOverride@1@@Z
?setResolution@MPxRenderer@@UEAA?AVMStatus@@II@Z
?setSamplerState@MStateManager@MHWRender@@QEAA?AVMStatus@@W4ShaderType@12@HPEBVMSamplerState@2@@Z
?setSelectionLevel@MSelectionContext@MHWRender@@QEAA?AVMStatus@@W4SelectionLevel@12@@Z
?setSelectionMask@MRenderItem@MHWRender@@QEAAXAEBVMSelectionMask@@@Z
?setSemantic@MVertexBufferDescriptor@MHWRender@@QEAAXW4Semantic@MGeometry@2@@Z
?setSemanticName@MVertexBufferDescriptor@MHWRender@@QEAAXAEBVMString@@@Z
?setShader@MPxRenderer@@UEAA?AVMStatus@@AEBVMUuid@@0@Z
?setShader@MRenderItem@MHWRender@@QEAA_NPEBVMShaderInstance@2@PEBVMString@@@Z
?setShaderFromNode@MRenderItem@MHWRender@@QEAA_NAEBVMObject@@AEBVMDagPath@@P6AXPEAVMUserData@@@Z2@Z
?setSoftRangeMax@MUniformParameter@@QEBAXN@Z
?setSoftRangeMin@MUniformParameter@@QEBAXN@Z
?setSource@MVaryingParameter@@QEAA?AVMStatus@@W4MVaryingParameterSemantic@1@AEBVMString@@@Z
?setSupportsAdvancedTransparency@MRenderItem@MHWRender@@QEAAX_N@Z
?setTargetBackBuffer@MPresentTarget@MHWRender@@QEAAXW4MTargetBackBuffer@12@@Z
?setTexture@MUIDrawManager@MHWRender@@QEAAXPEAVMTexture@2@@Z
?setTextureMask@MUIDrawManager@MHWRender@@QEAA?AVMStatus@@W4ChannelMask@MBlendState@2@@Z
?setTextureSampler@MUIDrawManager@MHWRender@@QEAA?AVMStatus@@W4TextureFilter@MSamplerState@2@W4TextureAddress@52@@Z
?setUIHidden@MUniformParameter@@QEBAX_N@Z
?setUIName@MViewportRenderer@@QEAAXAEBVMString@@@Z
?setUINiceName@MUniformParameter@@QEAAXAEBVMString@@@Z
?setVertexRequirements@MGeometryRequirements@MHWRender@@AEAAXPEAX@Z
?setWidth@MRenderTarget@@AEAAXI@Z
?setWidth@MRenderTargetDescription@MHWRender@@QEAAXI@Z
?setup@MRenderOverride@MHWRender@@UEAA?AVMStatus@@AEBVMString@@@Z
?shadeTemplates@MFrameContext@MHWRender@@SA_NXZ
?shader@MQuadRender@MHWRender@@UEAAPEBVMShaderInstance@2@XZ
?shaderIncludePaths@MShaderManager@MHWRender@@QEBA?AVMStatus@@AEAVMStringArray@@@Z
?shaderInstance@MPxShaderOverride@MHWRender@@UEBAPEAVMShaderInstance@2@XZ
?shaderOverride@MSceneRender@MHWRender@@UEAAPEBVMShaderInstance@2@XZ
?shaderOverrideInstance@MPassContext@MHWRender@@QEBAPEAVMShaderInstance@2@XZ
?shaderPaths@MShaderManager@MHWRender@@QEBA?AVMStatus@@AEAVMStringArray@@@Z
?shadowCastCallback@MRenderCallback@@UEAA_NAEBVMRenderShadowData@@@Z
?shadowEnableOverride@MSceneRender@MHWRender@@UEAAPEB_NXZ
?shouldRenderFrameAtTime@MCommonRenderSettingsData@@QEBA_NW4MpathType@1@NAEBVMString@@11VMObject@@1@Z
?singleSelection@MSelectionInfo@MHWRender@@QEBA_NPEAVMStatus@@@Z
?size@MIndexBuffer@MHWRender@@QEBAIXZ
?sourceCamera@MFnImageSource@@QEAA?AVMObject@@AEBV2@PEAVMStatus@@@Z
?sourceDagPath@MRenderItem@MHWRender@@QEBA?AVMDagPath@@XZ
?sourceIndexMapping@MRenderItem@MHWRender@@QEBAXAEAVMGeometryIndexMapping@2@@Z
?sourceLayer@MFnImageSource@@QEAA?AVMObject@@AEBV2@PEAVMStatus@@@Z
?sphere@MUIDrawManager@MHWRender@@QEAAXAEBVMPoint@@N_N@Z
?startAsync@MPxRenderer@@UEAA?AVMStatus@@AEBVJobParams@1@@Z
?startRegionRender@MRenderView@@SA?AVMStatus@@IIIIII_N0@Z
?startRender@MRenderView@@SA?AVMStatus@@II_N0@Z
?stopAsync@MPxRenderer@@UEAA?AVMStatus@@XZ
?stride@MVertexBufferDescriptor@MHWRender@@QEBAHXZ
?supportedDrawAPIs@MPxDrawOverride@MHWRender@@UEBA?AW4DrawAPI@2@XZ
?supportedDrawAPIs@MPxGeometryOverride@MHWRender@@UEBA?AW4DrawAPI@2@XZ
?supportedDrawAPIs@MPxShaderOverride@MHWRender@@UEBA?AW4DrawAPI@2@XZ
?supportedDrawAPIs@MPxShadingNodeOverride@MHWRender@@UEBA?AW4DrawAPI@2@XZ
?supportedDrawAPIs@MPxSubSceneOverride@MHWRender@@UEBA?AW4DrawAPI@2@XZ
?supportedDrawAPIs@MRenderOverride@MHWRender@@UEBA?AW4DrawAPI@2@XZ
?supportsAdvancedTransparency@MPxShaderOverride@MHWRender@@UEBA_NXZ
?supportsAdvancedTransparency@MRenderItem@MHWRender@@QEBA_NXZ
?swatchBackgroundColor@MRenderUtilities@MHWRender@@SAXAEAM000@Z
?swatchNode@MSwatchRenderBase@@QEBA?AVMObject@@XZ
?tangent@MGeometry@@QEAA?BVMGeometryData@@AEBVMString@@@Z
?target@MRenderTargetManager@MHWRender@@AEBAPEAVMRenderTarget@2@PEAX_N@Z
?targetBackBuffer@MPresentTarget@MHWRender@@QEBA?AW4MTargetBackBuffer@12@XZ
?targetDescription@MRenderTarget@MHWRender@@QEBAXAEAVMRenderTargetDescription@2@@Z
?targetOverrideList@MRenderOperation@MHWRender@@UEAAPEBQEAVMRenderTarget@2@AEAI@Z
?techniqueAnnotationAsFloat@MShaderInstance@MHWRender@@QEAAMAEBVMString@@AEAVMStatus@@@Z
?techniqueAnnotationAsInt@MShaderInstance@MHWRender@@QEAAHAEBVMString@@AEAVMStatus@@@Z
?techniqueAnnotationAsString@MShaderInstance@MHWRender@@QEAA?AVMString@@AEBV3@AEAVMStatus@@@Z
?terminateKey@MPxShaderOverride@MHWRender@@UEAAXAEAVMDrawContext@2@@Z
?terminateKey@MPxShaderOverride@MHWRender@@UEAAXAEAVMDrawContext@2@AEBVMString@@@Z
?texCoord@MGeometry@@QEAA?BVMGeometryData@@AEBVMString@@@Z
?text2d@MUIDrawManager@MHWRender@@QEAAXAEBVMPoint@@AEBVMString@@W4TextAlignment@12@PEBHPEBVMColor@@_N@Z
?text@MUIDrawManager@MHWRender@@QEAAXAEBVMPoint@@AEBVMString@@W4TextAlignment@12@PEBHPEBVMColor@@_N@Z
?textureDescription@MTexture@MHWRender@@QEBAXAEAVMTextureDescription@2@@Z
?textureFile@MHwTextureManager@@SA?AVMStatus@@AEBHAEAVMString@@@Z
?theRenderer@MD3D9Renderer@@SAPEAV1@XZ
?theRenderer@MHardwareRenderer@@SAPEAV1@XZ
?theRenderer@MRenderer@MHWRender@@SAPEAV12@_N@Z
?transform@MPxDrawOverride@MHWRender@@UEBA?AVMMatrix@@AEBVMDagPath@@0@Z
?translateCamera@MPxRenderer@@UEAA?AVMStatus@@AEBVMUuid@@AEBVMObject@@@Z
?translateEnvironment@MPxRenderer@@UEAA?AVMStatus@@AEBVMUuid@@W4EnvironmentType@1@@Z
?translateLightSource@MPxRenderer@@UEAA?AVMStatus@@AEBVMUuid@@AEBVMObject@@@Z
?translateMesh@MPxRenderer@@UEAA?AVMStatus@@AEBVMUuid@@AEBVMObject@@@Z
?translateShader@MPxRenderer@@UEAA?AVMStatus@@AEBVMUuid@@AEBVMObject@@@Z
?translateTransform@MPxRenderer@@UEAA?AVMStatus@@AEBVMUuid@@0AEBVMMatrix@@@Z
?transparencyParameter@MPxSurfaceShadingNodeOverride@MHWRender@@UEBA?AVMString@@XZ
?type@MFnAdskMaterial@@UEBA?AW4Type@MFn@@XZ
?type@MFnImageSource@@UEBA?AW4Type@MFn@@XZ
?type@MFnRenderLayer@@UEBA?AW4Type@MFn@@XZ
?type@MFnRenderPass@@UEBA?AW4Type@MFn@@XZ
?type@MRenderItem@MHWRender@@QEBA?AW4RenderItemType@12@XZ
?type@MUniformParameter@@QEBA?AW4DataType@1@XZ
?type@MVaryingParameter@@QEBA?AW4MVaryingParameterType@1@XZ
?typeObj@MPyMAttributeParameterMappingList_Type@MHWRender@@SAAEAU_typeobject@@XZ
?typeObj@MPyMAttributeParameterMapping_Type@MHWRender@@SAAEAU_typeobject@@XZ
?typeObj@MPyMBlendStateDesc_Type@MHWRender@@SAAEAU_typeobject@@XZ
?typeObj@MPyMBlendState_Type@MHWRender@@SAAEAU_typeobject@@XZ
?typeObj@MPyMCameraOverride_Type@MHWRender@@SAAEAU_typeobject@@XZ
?typeObj@MPyMClearOperation_Type@MHWRender@@SAAEAU_typeobject@@XZ
?typeObj@MPyMColorManagementUtilities_Type@@SAAEAU_typeobject@@XZ
?typeObj@MPyMComponentDataIndexingList_Type@MHWRender@@SAAEAU_typeobject@@XZ
?typeObj@MPyMComponentDataIndexing_Type@MHWRender@@SAAEAU_typeobject@@XZ
?typeObj@MPyMDepthNormalizationDescription_Type@MHWRender@@SAAEAU_typeobject@@XZ
?typeObj@MPyMDepthStencilStateDesc_Type@MHWRender@@SAAEAU_typeobject@@XZ
?typeObj@MPyMDepthStencilState_Type@MHWRender@@SAAEAU_typeobject@@XZ
?typeObj@MPyMDrawContext_Type@MHWRender@@SAAEAU_typeobject@@XZ
?typeObj@MPyMDrawRegistry_Type@MHWRender@@SAAEAU_typeobject@@XZ
?typeObj@MPyMFragmentManager_Type@MHWRender@@SAAEAU_typeobject@@XZ
?typeObj@MPyMFrameContext_Type@MHWRender@@SAAEAU_typeobject@@XZ
?typeObj@MPyMGeometryExtractor_Type@MHWRender@@SAAEAU_typeobject@@XZ
?typeObj@MPyMGeometryIndexMapping_Type@MHWRender@@SAAEAU_typeobject@@XZ
?typeObj@MPyMGeometryRequirements_Type@MHWRender@@SAAEAU_typeobject@@XZ
?typeObj@MPyMGeometryUtilities_Type@MHWRender@@SAAEAU_typeobject@@XZ
?typeObj@MPyMGeometry_Type@MHWRender@@SAAEAU_typeobject@@XZ
?typeObj@MPyMHUDRender_Type@MHWRender@@SAAEAU_typeobject@@XZ
?typeObj@MPyMIndexBufferDescriptorList_Type@MHWRender@@SAAEAU_typeobject@@XZ
?typeObj@MPyMIndexBufferDescriptor_Type@MHWRender@@SAAEAU_typeobject@@XZ
?typeObj@MPyMIndexBuffer_Type@MHWRender@@SAAEAU_typeobject@@XZ
?typeObj@MPyMIntersection_Type@MHWRender@@SAAEAU_typeobject@@XZ
?typeObj@MPyMLightParameterInformation_Type@MHWRender@@SAAEAU_typeobject@@XZ
?typeObj@MPyMPassContext_Type@MHWRender@@SAAEAU_typeobject@@XZ
?typeObj@MPyMPresentTarget_Type@MHWRender@@SAAEAU_typeobject@@XZ
?typeObj@MPyMPxComponentConverter_Type@MHWRender@@SAAEAU_typeobject@@XZ
?typeObj@MPyMPxDrawOverride_Type@MHWRender@@SAAEAU_typeobject@@XZ
?typeObj@MPyMPxGeometryOverride_Type@MHWRender@@SAAEAU_typeobject@@XZ
?typeObj@MPyMPxIndexBufferMutator_Type@MHWRender@@SAAEAU_typeobject@@XZ
?typeObj@MPyMPxPrimitiveGenerator_Type@MHWRender@@SAAEAU_typeobject@@XZ
?typeObj@MPyMPxShaderOverride_MInitContext_Type@MHWRender@@SAAEAU_typeobject@@XZ
?typeObj@MPyMPxShaderOverride_MInitFeedback_Type@MHWRender@@SAAEAU_typeobject@@XZ
?typeObj@MPyMPxShaderOverride_Type@MHWRender@@SAAEAU_typeobject@@XZ
?typeObj@MPyMPxShadingNodeOverride_Type@MHWRender@@SAAEAU_typeobject@@XZ
?typeObj@MPyMPxSubSceneOverride_Type@MHWRender@@SAAEAU_typeobject@@XZ
?typeObj@MPyMPxSurfaceShadingNodeOverride_Type@MHWRender@@SAAEAU_typeobject@@XZ
?typeObj@MPyMPxVertexBufferGenerator_Type@MHWRender@@SAAEAU_typeobject@@XZ
?typeObj@MPyMPxVertexBufferMutator_Type@MHWRender@@SAAEAU_typeobject@@XZ
?typeObj@MPyMQuadRender_Type@MHWRender@@SAAEAU_typeobject@@XZ
?typeObj@MPyMRasterizerStateDesc_Type@MHWRender@@SAAEAU_typeobject@@XZ
?typeObj@MPyMRasterizerState_Type@MHWRender@@SAAEAU_typeobject@@XZ
?typeObj@MPyMRenderItemList_Type@MHWRender@@SAAEAU_typeobject@@XZ
?typeObj@MPyMRenderItem_Type@MHWRender@@SAAEAU_typeobject@@XZ
?typeObj@MPyMRenderOperation_Type@MHWRender@@SAAEAU_typeobject@@XZ
?typeObj@MPyMRenderOverride_Type@MHWRender@@SAAEAU_typeobject@@XZ
?typeObj@MPyMRenderTargetDescription_Type@MHWRender@@SAAEAU_typeobject@@XZ
?typeObj@MPyMRenderTargetManager_Type@MHWRender@@SAAEAU_typeobject@@XZ
?typeObj@MPyMRenderTarget_Type@MHWRender@@SAAEAU_typeobject@@XZ
?typeObj@MPyMRenderUtilities_Type@MHWRender@@SAAEAU_typeobject@@XZ
?typeObj@MPyMRenderer_Type@MHWRender@@SAAEAU_typeobject@@XZ
?typeObj@MPyMSamplerStateDesc_Type@MHWRender@@SAAEAU_typeobject@@XZ
?typeObj@MPyMSamplerState_Type@MHWRender@@SAAEAU_typeobject@@XZ
?typeObj@MPyMSceneRender_Type@MHWRender@@SAAEAU_typeobject@@XZ
?typeObj@MPyMSelectionContext_Type@MHWRender@@SAAEAU_typeobject@@XZ
?typeObj@MPyMSelectionInfo_Type@MHWRender@@SAAEAU_typeobject@@XZ
?typeObj@MPyMShaderCompileMacroStub_Type@MHWRender@@SAAEAU_typeobject@@XZ
?typeObj@MPyMShaderInstance_Type@MHWRender@@SAAEAU_typeobject@@XZ
?typeObj@MPyMShaderManager_Type@MHWRender@@SAAEAU_typeobject@@XZ
?typeObj@MPyMStateManager_Type@MHWRender@@SAAEAU_typeobject@@XZ
?typeObj@MPyMStencilOpDesc_Type@MHWRender@@SAAEAU_typeobject@@XZ
?typeObj@MPyMSubSceneContainerIterator_Type@MHWRender@@SAAEAU_typeobject@@XZ
?typeObj@MPyMSubSceneContainer_Type@MHWRender@@SAAEAU_typeobject@@XZ
?typeObj@MPyMSwatchRenderBase_Type@@SAAEAU_typeobject@@XZ
?typeObj@MPyMTargetBlendDesc_Type@MHWRender@@SAAEAU_typeobject@@XZ
?typeObj@MPyMTextureDescription_Type@MHWRender@@SAAEAU_typeobject@@XZ
?typeObj@MPyMTextureManager_Type@MHWRender@@SAAEAU_typeobject@@XZ
?typeObj@MPyMTextureUpdateRegion_Type@MHWRender@@SAAEAU_typeobject@@XZ
?typeObj@MPyMTexture_Type@MHWRender@@SAAEAU_typeobject@@XZ
?typeObj@MPyMUIDrawManager_Type@MHWRender@@SAAEAU_typeobject@@XZ
?typeObj@MPyMUserRenderOperation_Type@MHWRender@@SAAEAU_typeobject@@XZ
?typeObj@MPyMVertexBufferArray_Type@MHWRender@@SAAEAU_typeobject@@XZ
?typeObj@MPyMVertexBufferDescriptorList_Type@MHWRender@@SAAEAU_typeobject@@XZ
?typeObj@MPyMVertexBufferDescriptor_Type@MHWRender@@SAAEAU_typeobject@@XZ
?typeObj@MPyMVertexBuffer_Type@MHWRender@@SAAEAU_typeobject@@XZ
?uiName@MRenderOverride@MHWRender@@UEBA?AVMString@@XZ
?uiName@MShaderInstance@MHWRender@@QEAA?AVMString@@AEBV3@AEAVMStatus@@@Z
?uiWidget@MShaderInstance@MHWRender@@QEAA?AVMString@@AEBV3@AEAVMStatus@@@Z
?unbind@MShaderInstance@MHWRender@@QEBA?AVMStatus@@AEBVMDrawContext@2@@Z
?uniqueID@MGeometryData@@QEBAHXZ
?uniqueID@MGeometryPrimitive@@QEBAHXZ
?unload@MIndexBuffer@MHWRender@@QEAAXXZ
?unload@MVertexBuffer@MHWRender@@QEAAXXZ
?unmap@MIndexBuffer@MHWRender@@QEAAXXZ
?unmap@MVertexBuffer@MHWRender@@QEAAXXZ
?unregisterSwatchRender@MSwatchRenderRegister@@SA?AVMStatus@@VMString@@@Z
?unsetOutputTargetOverrideSize@MRenderer@MHWRender@@QEAAXXZ
?update@MIndexBuffer@MHWRender@@QEAA?AVMStatus@@PEBXII_N@Z
?update@MTexture@MHWRender@@QEAA?AVMStatus@@AEBVMImage@@_N@Z
?update@MTexture@MHWRender@@QEAA?AVMStatus@@PEBX_NIPEAVMTextureUpdateRegion@2@@Z
?update@MVertexBuffer@MHWRender@@QEAA?AVMStatus@@PEBXII_N@Z
?updateDG@MPxShaderOverride@MHWRender@@UEAAXVMObject@@@Z
?updateDG@MPxShadingNodeOverride@MHWRender@@UEAAXXZ
?updateDescription@MRenderTarget@MHWRender@@QEAA?AVMStatus@@AEBVMRenderTargetDescription@2@@Z
?updateDevice@MPxShaderOverride@MHWRender@@UEAAXXZ
?updateInstanceTransform@MPxSubSceneOverride@MHWRender@@QEAA?AVMStatus@@AEAVMRenderItem@2@IAEBVMMatrix@@@Z
?updateParameters@MShaderInstance@MHWRender@@QEBA?AVMStatus@@AEBVMDrawContext@2@@Z
?updatePixels@MRenderView@@SA?AVMStatus@@IIIIPEAURV_PIXEL@@_NIQEBURV_AOV@@@Z
?updateSelectionGranularity@MPxDrawOverride@MHWRender@@UEAAXAEBVMDagPath@@AEAVMSelectionContext@2@@Z
?updateSelectionGranularity@MPxGeometryOverride@MHWRender@@UEAAXAEBVMDagPath@@AEAVMSelectionContext@2@@Z
?updateSelectionGranularity@MPxSubSceneOverride@MHWRender@@UEAAXAEBVMDagPath@@AEAVMSelectionContext@2@@Z
?updateShader@MPxShadingNodeOverride@MHWRender@@UEAAXAEAVMShaderInstance@2@AEBVMAttributeParameterMappingList@2@@Z
?useGradient@MRenderer@MHWRender@@QEBA_NXZ
?userChangingViewContext@MFrameContext@MHWRender@@SA_NXZ
?userData@MUniformParameter@@QEBAPEAXXZ
?usesFiltering@MFnRenderPass@@QEBA_NPEAVMStatus@@@Z
?valueChangeRequiresFragmentRebuild@MPxShadingNodeOverride@MHWRender@@UEBA_NPEBVMPlug@@@Z
?valueInNoiseTable@MRenderUtil@@SAMI@Z
?vertexBuffer@MGeometry@MHWRender@@QEAAPEAVMVertexBuffer@2@H@Z
?vertexBuffer@MGeometry@MHWRender@@QEBAPEBVMVertexBuffer@2@H@Z
?vertexBufferCount@MGeometry@MHWRender@@QEBAHXZ
?vertexCount@MGeometryExtractor@MHWRender@@QEBAIXZ
?vertexCount@MVertexBuffer@MHWRender@@QEBAIXZ
?vertexRequirements@MGeometryRequirements@MHWRender@@QEBAAEBVMVertexBufferDescriptorList@2@XZ
?viewDirectionAlongNegZ@MDrawContext@MHWRender@@QEBA_NPEAVMStatus@@@Z
?viewMatrix@MGeometryList@@QEBAAEBVMMatrix@@XZ
?viewMatrix@MRenderingInfo@@QEBAAEBVMMatrix@@XZ
?viewportRectangleOverride@MRenderOperation@MHWRender@@UEAAPEBVMFloatPoint@@XZ
?width@MRenderTarget@@QEBAIXZ
?width@MRenderTargetDescription@MHWRender@@QEBAIXZ
?width@MRenderingInfo@@QEBAIXZ
?wireOnShadedMode@MFrameContext@MHWRender@@SA?AW4WireOnShadedMode@12@XZ
?wireframeColor@MGeometryUtilities@MHWRender@@SA?AVMColor@@AEBVMDagPath@@@Z
?worldToScreen@MRenderData@@QEBAXAEBVMFloatPoint@@AEAV2@@Z
?worldToZbuffer@MRenderShadowData@@QEBAXAEBVMFloatPoint@@AEAV2@@Z
?writeColorBuffer@MRenderTarget@@QEBA?AVMStatus@@AEBVMImage@@FF_N@Z
?zbufferToWorld@MRenderShadowData@@QEBAXAEBVMFloatPoint@@AEAV2@@Z
