LIBRARY OPENMAYAUI
EXPORTS
??$checkType@VM3dView@@@MPyUtil@@SA_NPEAU_object@@_N@Z
??$checkType@VMDrawData@@@MPyUtil@@SA_NPEAU_object@@_N@Z
??$checkType@VMMaterial@@@MPyUtil@@SA_NPEAU_object@@_N@Z
??$checkType@W4ColorTable@M3dView@@@MPyUtil@@SA_NPEAU_object@@_N@Z
??$checkType@W4DisplayStatus@M3dView@@@MPyUtil@@SA_NPEAU_object@@_N@Z
??$checkType@W4DisplayStyle@M3dView@@@MPyUtil@@SA_NPEAU_object@@_N@Z
??$checkType@W4DrawingFunction@MTextureEditorDrawInfo@@@MPyUtil@@SA_NPEAU_object@@_N@Z
??$checkType@W4LightingMode@M3dView@@@MPyUtil@@SA_NPEAU_object@@_N@Z
??$checkType@W4ManipPlane@MFnFreePointTriadManip@@@MPyUtil@@SA_NPEAU_object@@_N@Z
??$checkType@W4RendererName@M3dView@@@MPyUtil@@SA_NPEAU_object@@_N@Z
??$checkType@W4RotateMode@MFnRotateManip@@@MPyUtil@@SA_NPEAU_object@@_N@Z
??$checkType@W4ScaleOrientationMode@MFnScaleManip@@@MPyUtil@@SA_NPEAU_object@@_N@Z
??$checkType@W4UVSelectionType@MPxSurfaceShapeUI@@@MPyUtil@@SA_NPEAU_object@@_N@Z
??$objectToValue@VM3dView@@@MPyUtil@@SA?AVM3dView@@PEAU_object@@_N@Z
??$objectToValue@VMDrawData@@@MPyUtil@@SA?AVMDrawData@@PEAU_object@@_N@Z
??$objectToValue@VMDrawInfo@@@MPyUtil@@SA?AVMDrawInfo@@PEAU_object@@_N@Z
??$objectToValue@VMDrawRequest@@@MPyUtil@@SA?AVMDrawRequest@@PEAU_object@@_N@Z
??$objectToValue@VMMaterial@@@MPyUtil@@SA?AVMMaterial@@PEAU_object@@_N@Z
??$objectToValue@W4ColorTable@M3dView@@@MPyUtil@@SA?AW4ColorTable@M3dView@@PEAU_object@@_N@Z
??$objectToValue@W4DisplayStatus@M3dView@@@MPyUtil@@SA?AW4DisplayStatus@M3dView@@PEAU_object@@_N@Z
??$objectToValue@W4DisplayStyle@M3dView@@@MPyUtil@@SA?AW4DisplayStyle@M3dView@@PEAU_object@@_N@Z
??$objectToValue@W4DrawingFunction@MTextureEditorDrawInfo@@@MPyUtil@@SA?AW4DrawingFunction@MTextureEditorDrawInfo@@PEAU_object@@_N@Z
??$objectToValue@W4LightingMode@M3dView@@@MPyUtil@@SA?AW4LightingMode@M3dView@@PEAU_object@@_N@Z
??$objectToValue@W4ManipPlane@MFnFreePointTriadManip@@@MPyUtil@@SA?AW4ManipPlane@MFnFreePointTriadManip@@PEAU_object@@_N@Z
??$objectToValue@W4RendererName@M3dView@@@MPyUtil@@SA?AW4RendererName@M3dView@@PEAU_object@@_N@Z
??$objectToValue@W4RotateMode@MFnRotateManip@@@MPyUtil@@SA?AW4RotateMode@MFnRotateManip@@PEAU_object@@_N@Z
??$objectToValue@W4ScaleOrientationMode@MFnScaleManip@@@MPyUtil@@SA?AW4ScaleOrientationMode@MFnScaleManip@@PEAU_object@@_N@Z
??$objectToValue@W4UVSelectionType@MPxSurfaceShapeUI@@@MPyUtil@@SA?AW4UVSelectionType@MPxSurfaceShapeUI@@PEAU_object@@_N@Z
??$valueToObject@VM3dView@@@MPyUtil@@SAPEAU_object@@VM3dView@@@Z
??$valueToObject@VMDrawData@@@MPyUtil@@SAPEAU_object@@VMDrawData@@@Z
??$valueToObject@VMDrawInfo@@@MPyUtil@@SAPEAU_object@@VMDrawInfo@@@Z
??$valueToObject@VMDrawRequest@@@MPyUtil@@SAPEAU_object@@VMDrawRequest@@@Z
??$valueToObject@VMMaterial@@@MPyUtil@@SAPEAU_object@@VMMaterial@@@Z
??$valueToObject@VMSelectInfo@@@MPyUtil@@SAPEAU_object@@VMSelectInfo@@@Z
??$valueToObject@W4ColorTable@M3dView@@@MPyUtil@@SAPEAU_object@@W4ColorTable@M3dView@@@Z
??$valueToObject@W4DisplayStatus@M3dView@@@MPyUtil@@SAPEAU_object@@W4DisplayStatus@M3dView@@@Z
??$valueToObject@W4DisplayStyle@M3dView@@@MPyUtil@@SAPEAU_object@@W4DisplayStyle@M3dView@@@Z
??$valueToObject@W4DrawingFunction@MTextureEditorDrawInfo@@@MPyUtil@@SAPEAU_object@@W4DrawingFunction@MTextureEditorDrawInfo@@@Z
??$valueToObject@W4LightingMode@M3dView@@@MPyUtil@@SAPEAU_object@@W4LightingMode@M3dView@@@Z
??$valueToObject@W4ManipPlane@MFnFreePointTriadManip@@@MPyUtil@@SAPEAU_object@@W4ManipPlane@MFnFreePointTriadManip@@@Z
??$valueToObject@W4RendererName@M3dView@@@MPyUtil@@SAPEAU_object@@W4RendererName@M3dView@@@Z
??$valueToObject@W4RotateMode@MFnRotateManip@@@MPyUtil@@SAPEAU_object@@W4RotateMode@MFnRotateManip@@@Z
??$valueToObject@W4ScaleOrientationMode@MFnScaleManip@@@MPyUtil@@SAPEAU_object@@W4ScaleOrientationMode@MFnScaleManip@@@Z
??$valueToObject@W4UVSelectionType@MPxSurfaceShapeUI@@@MPyUtil@@SAPEAU_object@@W4UVSelectionType@MPxSurfaceShapeUI@@@Z
??0?$MPyMSwatchRenderBase_DirectorImpl@VMHWShaderSwatchGenerator@@@@QEAA@AEBV0@@Z
??0?$MPyMSwatchRenderBase_DirectorImpl@VMHWShaderSwatchGenerator@@@@QEAA@PEAU_object@@VMObject@@1H@Z
??0M3dView@@AEAA@PEBX@Z
??0M3dView@@QEAA@AEBV0@@Z
??0M3dView@@QEAA@XZ
??0MAnimStream@@AEAA@XZ
??0MCharBuffer@@QEAA@XZ
??0MCursor@@AEAA@PEBX@Z
??0MCursor@@AEAA@XZ
??0MCursor@@QEAA@AEBV0@@Z
??0MCursor@@QEAA@FFFFPEAE0@Z
??0MCursor@@QEAA@PEBD@Z
??0MDeviceChannel@@AEAA@PEAX@Z
??0MDeviceChannel@@QEAA@AEBVMString@@PEAV0@H@Z
??0MDeviceState@@AEAA@PEAX@Z
??0MDeviceState@@QEAA@AEBV0@@Z
??0MDrawData@@AEAA@PEAX@Z
??0MDrawData@@QEAA@AEBV0@@Z
??0MDrawData@@QEAA@XZ
??0MDrawInfo@@AEAA@PEAX@Z
??0MDrawInfo@@QEAA@AEBV0@@Z
??0MDrawInfo@@QEAA@XZ
??0MDrawRequest@@AEAA@PEAX_N@Z
??0MDrawRequest@@QEAA@AEBV0@@Z
??0MDrawRequest@@QEAA@XZ
??0MDrawRequestQueue@@AEAA@PEAX@Z
??0MDrawRequestQueue@@QEAA@AEBV0@@Z
??0MDrawRequestQueue@@QEAA@XZ
??0MDrawTraversal@@QEAA@AEBV0@@Z
??0MDrawTraversal@@QEAA@XZ
??0MEvent@@AEAA@PEBX@Z
??0MEvent@@QEAA@AEBV0@@Z
??0MEvent@@QEAA@XZ
??0MExternalDropCallback@@QEAA@XZ
??0MExternalDropData@@AEAA@PEBXHH@Z
??0MFnCircleSweepManip@@QEAA@AEAVMObject@@PEAVMStatus@@@Z
??0MFnCircleSweepManip@@QEAA@AEBVMDagPath@@PEAVMStatus@@@Z
??0MFnCircleSweepManip@@QEAA@AEBVMObject@@PEAVMStatus@@@Z
??0MFnCircleSweepManip@@QEAA@XZ
??0MFnCurveSegmentManip@@QEAA@AEAVMObject@@PEAVMStatus@@@Z
??0MFnCurveSegmentManip@@QEAA@AEBVMDagPath@@PEAVMStatus@@@Z
??0MFnCurveSegmentManip@@QEAA@AEBVMObject@@PEAVMStatus@@@Z
??0MFnCurveSegmentManip@@QEAA@XZ
??0MFnDirectionManip@@QEAA@AEAVMObject@@PEAVMStatus@@@Z
??0MFnDirectionManip@@QEAA@AEBVMDagPath@@PEAVMStatus@@@Z
??0MFnDirectionManip@@QEAA@AEBVMObject@@PEAVMStatus@@@Z
??0MFnDirectionManip@@QEAA@XZ
??0MFnDiscManip@@QEAA@AEAVMObject@@PEAVMStatus@@@Z
??0MFnDiscManip@@QEAA@AEBVMDagPath@@PEAVMStatus@@@Z
??0MFnDiscManip@@QEAA@AEBVMObject@@PEAVMStatus@@@Z
??0MFnDiscManip@@QEAA@XZ
??0MFnDistanceManip@@QEAA@AEAVMObject@@PEAVMStatus@@@Z
??0MFnDistanceManip@@QEAA@AEBVMDagPath@@PEAVMStatus@@@Z
??0MFnDistanceManip@@QEAA@AEBVMObject@@PEAVMStatus@@@Z
??0MFnDistanceManip@@QEAA@XZ
??0MFnFreePointTriadManip@@QEAA@AEAVMObject@@PEAVMStatus@@@Z
??0MFnFreePointTriadManip@@QEAA@AEBVMDagPath@@PEAVMStatus@@@Z
??0MFnFreePointTriadManip@@QEAA@AEBVMObject@@PEAVMStatus@@@Z
??0MFnFreePointTriadManip@@QEAA@XZ
??0MFnManip3D@@QEAA@AEAVMObject@@PEAVMStatus@@@Z
??0MFnManip3D@@QEAA@AEBVMDagPath@@PEAVMStatus@@@Z
??0MFnManip3D@@QEAA@AEBVMObject@@PEAVMStatus@@@Z
??0MFnManip3D@@QEAA@XZ
??0MFnPointOnCurveManip@@QEAA@AEAVMObject@@PEAVMStatus@@@Z
??0MFnPointOnCurveManip@@QEAA@AEBVMDagPath@@PEAVMStatus@@@Z
??0MFnPointOnCurveManip@@QEAA@AEBVMObject@@PEAVMStatus@@@Z
??0MFnPointOnCurveManip@@QEAA@XZ
??0MFnPointOnSurfaceManip@@QEAA@AEAVMObject@@PEAVMStatus@@@Z
??0MFnPointOnSurfaceManip@@QEAA@AEBVMDagPath@@PEAVMStatus@@@Z
??0MFnPointOnSurfaceManip@@QEAA@AEBVMObject@@PEAVMStatus@@@Z
??0MFnPointOnSurfaceManip@@QEAA@XZ
??0MFnRotateManip@@QEAA@AEAVMObject@@PEAVMStatus@@@Z
??0MFnRotateManip@@QEAA@AEBVMDagPath@@PEAVMStatus@@@Z
??0MFnRotateManip@@QEAA@AEBVMObject@@PEAVMStatus@@@Z
??0MFnRotateManip@@QEAA@XZ
??0MFnScaleManip@@QEAA@AEAVMObject@@PEAVMStatus@@@Z
??0MFnScaleManip@@QEAA@AEBVMDagPath@@PEAVMStatus@@@Z
??0MFnScaleManip@@QEAA@AEBVMObject@@PEAVMStatus@@@Z
??0MFnScaleManip@@QEAA@XZ
??0MFnStateManip@@QEAA@AEAVMObject@@PEAVMStatus@@@Z
??0MFnStateManip@@QEAA@AEBVMDagPath@@PEAVMStatus@@@Z
??0MFnStateManip@@QEAA@AEBVMObject@@PEAVMStatus@@@Z
??0MFnStateManip@@QEAA@XZ
??0MFnToggleManip@@QEAA@AEAVMObject@@PEAVMStatus@@@Z
??0MFnToggleManip@@QEAA@AEBVMDagPath@@PEAVMStatus@@@Z
??0MFnToggleManip@@QEAA@AEBVMObject@@PEAVMStatus@@@Z
??0MFnToggleManip@@QEAA@XZ
??0MFnToolContext@@QEAA@AEAVMObject@@PEAVMStatus@@@Z
??0MFnToolContext@@QEAA@AEBVMObject@@PEAVMStatus@@@Z
??0MFnToolContext@@QEAA@XZ
??0MGraphEditorInfo@@QEAA@AEBV0@@Z
??0MGraphEditorInfo@@QEAA@AEBVMString@@PEAVMStatus@@@Z
??0MGraphEditorInfo@@QEAA@PEAVMStatus@@@Z
??0MHWShaderSwatchGenerator@@QEAA@AEBV0@@Z
??0MHWShaderSwatchGenerator@@QEAA@VMObject@@0H@Z
??0MManipData@@QEAA@AEBV0@@Z
??0MManipData@@QEAA@AEBVMObject@@@Z
??0MManipData@@QEAA@F@Z
??0MManipData@@QEAA@H@Z
??0MManipData@@QEAA@I@Z
??0MManipData@@QEAA@M@Z
??0MManipData@@QEAA@N@Z
??0MManipData@@QEAA@XZ
??0MManipData@@QEAA@_N@Z
??0MMaterial@@AEAA@PEAX@Z
??0MMaterial@@QEAA@AEBV0@@Z
??0MMaterial@@QEAA@AEBVMObject@@PEAVMStatus@@@Z
??0MMaterial@@QEAA@XZ
??0MMaterialArray@@AEAA@PEAX@Z
??0MMaterialArray@@QEAA@AEBV0@@Z
??0MMaterialArray@@QEAA@XZ
??0MObjectListFilter@@AEAA@XZ
??0MObjectListFilter@@QEAA@AEBV0@@Z
??0MObjectListFilter@@QEAA@AEBVMString@@@Z
??0MPx3dModelView@@QEAA@AEBV0@@Z
??0MPx3dModelView@@QEAA@XZ
??0MPxClientDeviceNode@@QEAA@AEBV0@@Z
??0MPxClientDeviceNode@@QEAA@W4ClientType@0@@Z
??0MPxContext@@QEAA@AEBV0@@Z
??0MPxContext@@QEAA@XZ
??0MPxContextCommand@@QEAA@AEBV0@@Z
??0MPxContextCommand@@QEAA@XZ
??0MPxControlCommand@@QEAA@AEBV0@@Z
??0MPxControlCommand@@QEAA@XZ
??0MPxDragAndDropBehavior@@QEAA@AEBV0@@Z
??0MPxDragAndDropBehavior@@QEAA@PEAX@Z
??0MPxDragAndDropBehavior@@QEAA@XZ
??0MPxFileDialog@@QEAA@AEBV0@@Z
??0MPxFileDialog@@QEAA@XZ
??0MPxGlBuffer@@QEAA@AEAVM3dView@@@Z
??0MPxGlBuffer@@QEAA@AEBV0@@Z
??0MPxGlBuffer@@QEAA@XZ
??0MPxHardwareShader@@QEAA@AEBV0@@Z
??0MPxHardwareShader@@QEAA@XZ
??0MPxHwShaderNode@@QEAA@AEBV0@@Z
??0MPxHwShaderNode@@QEAA@XZ
??0MPxLocatorNode@@QEAA@AEBV0@@Z
??0MPxLocatorNode@@QEAA@XZ
??0MPxManipContainer@@QEAA@AEBV0@@Z
??0MPxManipContainer@@QEAA@XZ
??0MPxManipulatorNode@@QEAA@AEBV0@@Z
??0MPxManipulatorNode@@QEAA@XZ
??0MPxMidiInputDevice@@QEAA@AEBV0@@Z
??0MPxMidiInputDevice@@QEAA@PEAX@Z
??0MPxMidiInputDevice@@QEAA@XZ
??0MPxModelEditorCommand@@QEAA@AEBV0@@Z
??0MPxModelEditorCommand@@QEAA@XZ
??0MPxPolyTweakUVInteractiveCommand@@QEAA@AEBV0@@Z
??0MPxPolyTweakUVInteractiveCommand@@QEAA@XZ
??0MPxSelectionContext@@QEAA@AEBV0@@Z
??0MPxSelectionContext@@QEAA@XZ
??0MPxSurfaceShapeUI@@QEAA@AEBV0@@Z
??0MPxSurfaceShapeUI@@QEAA@XZ
??0MPxTexContext@@QEAA@AEBV0@@Z
??0MPxTexContext@@QEAA@XZ
??0MPxThreadedDeviceNode@@QEAA@AEBV0@@Z
??0MPxThreadedDeviceNode@@QEAA@XZ
??0MPxToolCommand@@QEAA@AEBV0@@Z
??0MPxToolCommand@@QEAA@XZ
??0MPxUIControl@@IEAA@XZ
??0MPxUIControl@@QEAA@AEBV0@@Z
??0MPxUITableControl@@QEAA@AEAVMPxControlCommand@@@Z
??0MPyMHWShaderSwatchGenerator_Director@@QEAA@AEBV0@@Z
??0MPyMHWShaderSwatchGenerator_Director@@QEAA@PEAU_object@@VMObject@@1H@Z
??0MPyMPxSurfaceShapeUI_Director@@QEAA@AEBV0@@Z
??0MPyMPxSurfaceShapeUI_Director@@QEAA@PEAU_object@@@Z
??0MSelectInfo@@AEAA@PEAX@Z
??0MSelectInfo@@QEAA@AEBV0@@Z
??0MSelectInfo@@QEAA@XZ
??0MTextureEditorDrawInfo@@AEAA@PEAX@Z
??0MTextureEditorDrawInfo@@QEAA@AEBV0@@Z
??0MTextureEditorDrawInfo@@QEAA@XZ
??0THcontrolCommand@@QEAA@PEAVTpluginControlCommand@@@Z
??0THnavigator@@QEAA@AEBV0@@Z
??0THnavigator@@QEAA@PEAVMPxDragAndDropBehavior@@@Z
??0THnavigator@@QEAA@XZ
??0TpluginNavigator@@AEAA@AEBVTstring@@PEAVTplugin@@P6APEAXXZ@Z
??0TpluginNavigator@@QEAA@AEBV0@@Z
??1?$MPyMSwatchRenderBase_DirectorImpl@VMHWShaderSwatchGenerator@@@@UEAA@XZ
??1M3dView@@UEAA@XZ
??1MCursor@@QEAA@XZ
??1MDeviceChannel@@QEAA@XZ
??1MDeviceState@@UEAA@XZ
??1MDrawData@@QEAA@XZ
??1MDrawInfo@@UEAA@XZ
??1MDrawRequest@@QEAA@XZ
??1MDrawRequestQueue@@QEAA@XZ
??1MDrawTraversal@@UEAA@XZ
??1MEvent@@UEAA@XZ
??1MExternalDropCallback@@UEAA@XZ
??1MFnCircleSweepManip@@UEAA@XZ
??1MFnCurveSegmentManip@@UEAA@XZ
??1MFnDirectionManip@@UEAA@XZ
??1MFnDiscManip@@UEAA@XZ
??1MFnDistanceManip@@UEAA@XZ
??1MFnFreePointTriadManip@@UEAA@XZ
??1MFnManip3D@@UEAA@XZ
??1MFnPointOnCurveManip@@UEAA@XZ
??1MFnPointOnSurfaceManip@@UEAA@XZ
??1MFnRotateManip@@UEAA@XZ
??1MFnScaleManip@@UEAA@XZ
??1MFnStateManip@@UEAA@XZ
??1MFnToggleManip@@UEAA@XZ
??1MFnToolContext@@UEAA@XZ
??1MGraphEditorInfo@@UEAA@XZ
??1MHWShaderSwatchGenerator@@UEAA@XZ
??1MManipData@@QEAA@XZ
??1MMaterial@@QEAA@XZ
??1MMaterialArray@@QEAA@XZ
??1MObjectListFilter@@UEAA@XZ
??1MPx3dModelView@@UEAA@XZ
??1MPxClientDeviceNode@@UEAA@XZ
??1MPxContext@@UEAA@XZ
??1MPxContextCommand@@UEAA@XZ
??1MPxControlCommand@@UEAA@XZ
??1MPxDragAndDropBehavior@@UEAA@XZ
??1MPxFileDialog@@UEAA@XZ
??1MPxGlBuffer@@UEAA@XZ
??1MPxHardwareShader@@UEAA@XZ
??1MPxHwShaderNode@@UEAA@XZ
??1MPxLocatorNode@@UEAA@XZ
??1MPxManipContainer@@UEAA@XZ
??1MPxManipulatorNode@@UEAA@XZ
??1MPxMidiInputDevice@@UEAA@XZ
??1MPxModelEditorCommand@@UEAA@XZ
??1MPxPolyTweakUVInteractiveCommand@@UEAA@XZ
??1MPxSelectionContext@@UEAA@XZ
??1MPxSurfaceShapeUI@@UEAA@XZ
??1MPxTexContext@@UEAA@XZ
??1MPxThreadedDeviceNode@@UEAA@XZ
??1MPxToolCommand@@UEAA@XZ
??1MPxUIControl@@UEAA@XZ
??1MPxUITableControl@@UEAA@XZ
??1MPyMHWShaderSwatchGenerator_Director@@UEAA@XZ
??1MPyMPxSurfaceShapeUI_Director@@UEAA@XZ
??1MSelectInfo@@UEAA@XZ
??1MTextureEditorDrawInfo@@UEAA@XZ
??1THcontrolCommand@@UEAA@XZ
??1THnavigator@@UEAA@XZ
??1TpluginNavigator@@UEAA@XZ
??4?$MPyMSwatchRenderBase_DirectorImpl@VMHWShaderSwatchGenerator@@@@QEAAAEAV0@AEBV0@@Z
??4?$TiteratorWrapperBase@UConstIteratorDescriptor@TmultiIndexDependNodeSet@@@@QEAAAEAV0@AEBV0@@Z
??4?$TiteratorWrapperBase@UConstIteratorDescriptor@TscenePartitions@@@@QEAAAEAV0@AEBV0@@Z
??4?$TiteratorWrapperBase@UNodesOfBaseNameConstIteratorDescriptor@TmultiIndexDependNodeSet@@@@QEAAAEAV0@AEBV0@@Z
??4?$TiteratorWrapperBase@UNodesOfTypeConstIteratorDescriptor@TmultiIndexDependNodeSet@@@@QEAAAEAV0@AEBV0@@Z
??4?$TiteratorWrapperBidir@UConstIteratorDescriptor@TmultiIndexDependNodeSet@@V?$TiteratorWrapper@UConstIteratorDescriptor@TmultiIndexDependNodeSet@@@@@@QEAAAEAV0@AEBV0@@Z
??4?$TiteratorWrapperBidir@UConstIteratorDescriptor@TscenePartitions@@V?$TiteratorWrapper@UConstIteratorDescriptor@TscenePartitions@@@@@@QEAAAEAV0@AEBV0@@Z
??4?$TiteratorWrapperBidir@UNodesOfTypeConstIteratorDescriptor@TmultiIndexDependNodeSet@@V?$TiteratorWrapper@UNodesOfTypeConstIteratorDescriptor@TmultiIndexDependNodeSet@@@@@@QEAAAEAV0@AEBV0@@Z
??4?$TiteratorWrapperFwd@UConstIteratorDescriptor@TmultiIndexDependNodeSet@@V?$TiteratorWrapper@UConstIteratorDescriptor@TmultiIndexDependNodeSet@@@@@@QEAAAEAV0@AEBV0@@Z
??4?$TiteratorWrapperFwd@UConstIteratorDescriptor@TscenePartitions@@V?$TiteratorWrapper@UConstIteratorDescriptor@TscenePartitions@@@@@@QEAAAEAV0@AEBV0@@Z
??4?$TiteratorWrapperFwd@UNodesOfBaseNameConstIteratorDescriptor@TmultiIndexDependNodeSet@@V?$TiteratorWrapper@UNodesOfBaseNameConstIteratorDescriptor@TmultiIndexDependNodeSet@@@@@@QEAAAEAV0@AEBV0@@Z
??4?$TiteratorWrapperFwd@UNodesOfTypeConstIteratorDescriptor@TmultiIndexDependNodeSet@@V?$TiteratorWrapper@UNodesOfTypeConstIteratorDescriptor@TmultiIndexDependNodeSet@@@@@@QEAAAEAV0@AEBV0@@Z
??4M3dView@@QEAAAEAV0@AEBV0@@Z
??4MAnimStream@@QEAAAEAV0@AEBV0@@Z
??4MCursor@@QEAAAEAV0@AEBV0@@Z
??4MDeviceChannel@@QEAAAEAV0@AEBV0@@Z
??4MDeviceState@@QEAAAEAV0@AEBV0@@Z
??4MDrawData@@IEAAAEAV0@AEBV0@@Z
??4MDrawInfo@@QEAAAEAV0@AEBV0@@Z
??4MDrawRequest@@QEAAAEAV0@AEBV0@@Z
??4MDrawRequestQueue@@QEAAAEAV0@AEBV0@@Z
??4MDrawTraversal@@QEAAAEAV0@AEBV0@@Z
??4MEvent@@QEAAAEAV0@AEBV0@@Z
??4MExternalDropCallback@@QEAAAEAV0@AEBV0@@Z
??4MExternalDropData@@QEAAAEAV0@AEBV0@@Z
??4MFeedbackLine@@QEAAAEAV0@AEBV0@@Z
??4MFnCircleSweepManip@@AEAAAEAV0@AEBV0@@Z
??4MFnCurveSegmentManip@@AEAAAEAV0@AEBV0@@Z
??4MFnDirectionManip@@AEAAAEAV0@AEBV0@@Z
??4MFnDiscManip@@AEAAAEAV0@AEBV0@@Z
??4MFnDistanceManip@@AEAAAEAV0@AEBV0@@Z
??4MFnFreePointTriadManip@@AEAAAEAV0@AEBV0@@Z
??4MFnManip3D@@AEAAAEAV0@AEBV0@@Z
??4MFnPointOnCurveManip@@AEAAAEAV0@AEBV0@@Z
??4MFnPointOnSurfaceManip@@AEAAAEAV0@AEBV0@@Z
??4MFnRotateManip@@AEAAAEAV0@AEBV0@@Z
??4MFnScaleManip@@AEAAAEAV0@AEBV0@@Z
??4MFnStateManip@@AEAAAEAV0@AEBV0@@Z
??4MFnToggleManip@@AEAAAEAV0@AEBV0@@Z
??4MFnToolContext@@AEAAAEAV0@AEBV0@@Z
??4MGraphEditorInfo@@QEAAAEAV0@AEBV0@@Z
??4MHWShaderSwatchGenerator@@QEAAAEAV0@AEBV0@@Z
??4MManipData@@QEAAAEAV0@AEBV0@@Z
??4MManipData@@QEAAAEAV0@AEBVMObject@@@Z
??4MManipData@@QEAAAEAV0@F@Z
??4MManipData@@QEAAAEAV0@H@Z
??4MManipData@@QEAAAEAV0@I@Z
??4MManipData@@QEAAAEAV0@M@Z
??4MManipData@@QEAAAEAV0@N@Z
??4MManipData@@QEAAAEAV0@_N@Z
??4MMaterial@@QEAAAEAV0@AEBV0@@Z
??4MMaterialArray@@QEAAAEAV0@AEBV0@@Z
??4MObjectListFilter@@QEAAAEAV0@AEBV0@@Z
??4MProgressWindow@@QEAAAEAV0@AEBV0@@Z
??4MPx3dModelView@@QEAAAEAV0@AEBV0@@Z
??4MPxClientDeviceNode@@QEAAAEAV0@AEBV0@@Z
??4MPxContext@@QEAAAEAV0@AEBV0@@Z
??4MPxContextCommand@@QEAAAEAV0@AEBV0@@Z
??4MPxControlCommand@@QEAAAEAV0@AEBV0@@Z
??4MPxDragAndDropBehavior@@QEAAAEAV0@AEBV0@@Z
??4MPxFileDialog@@QEAAAEAV0@AEBV0@@Z
??4MPxGlBuffer@@QEAAAEAV0@AEBV0@@Z
??4MPxHardwareShader@@QEAAAEAV0@AEBV0@@Z
??4MPxHwShaderNode@@QEAAAEAV0@AEBV0@@Z
??4MPxLocatorNode@@QEAAAEAV0@AEBV0@@Z
??4MPxManipContainer@@QEAAAEAV0@AEBV0@@Z
??4MPxManipulatorNode@@QEAAAEAV0@AEBV0@@Z
??4MPxMidiInputDevice@@QEAAAEAV0@AEBV0@@Z
??4MPxModelEditorCommand@@QEAAAEAV0@AEBV0@@Z
??4MPxPolyTweakUVInteractiveCommand@@QEAAAEAV0@AEBV0@@Z
??4MPxSelectionContext@@QEAAAEAV0@AEBV0@@Z
??4MPxSurfaceShapeUI@@QEAAAEAV0@AEBV0@@Z
??4MPxTexContext@@QEAAAEAV0@AEBV0@@Z
??4MPxThreadedDeviceNode@@QEAAAEAV0@AEBV0@@Z
??4MPxToolCommand@@QEAAAEAV0@AEBV0@@Z
??4MPxUIControl@@QEAAAEAV0@AEBV0@@Z
??4MPyM3dView_Type@@QEAAAEAV0@AEBV0@@Z
??4MPyMDrawData_Type@@QEAAAEAV0@AEBV0@@Z
??4MPyMDrawInfo_Type@@QEAAAEAV0@AEBV0@@Z
??4MPyMDrawRequest_Type@@QEAAAEAV0@AEBV0@@Z
??4MPyMFnCircleSweepManip_Type@@QEAAAEAV0@AEBV0@@Z
??4MPyMFnCurveSegmentManip_Type@@QEAAAEAV0@AEBV0@@Z
??4MPyMFnDirectionManip_Type@@QEAAAEAV0@AEBV0@@Z
??4MPyMFnDiscManip_Type@@QEAAAEAV0@AEBV0@@Z
??4MPyMFnDistanceManip_Type@@QEAAAEAV0@AEBV0@@Z
??4MPyMFnFreePointTriadManip_Type@@QEAAAEAV0@AEBV0@@Z
??4MPyMFnManip3D_Type@@QEAAAEAV0@AEBV0@@Z
??4MPyMFnPointOnCurveManip_Type@@QEAAAEAV0@AEBV0@@Z
??4MPyMFnPointOnSurfaceManip_Type@@QEAAAEAV0@AEBV0@@Z
??4MPyMFnRotateManip_Type@@QEAAAEAV0@AEBV0@@Z
??4MPyMFnScaleManip_Type@@QEAAAEAV0@AEBV0@@Z
??4MPyMFnStateManip_Type@@QEAAAEAV0@AEBV0@@Z
??4MPyMFnToggleManip_Type@@QEAAAEAV0@AEBV0@@Z
??4MPyMHWShaderSwatchGenerator_Director@@QEAAAEAV0@AEBV0@@Z
??4MPyMHWShaderSwatchGenerator_Type@@QEAAAEAV0@AEBV0@@Z
??4MPyMMaterialArray_Type@@QEAAAEAV0@AEBV0@@Z
??4MPyMMaterial_Type@@QEAAAEAV0@AEBV0@@Z
??4MPyMPxHwShaderNode_RenderParameters_Type@@QEAAAEAV0@AEBV0@@Z
??4MPyMPxHwShaderNode_Type@@QEAAAEAV0@AEBV0@@Z
??4MPyMPxLocatorNode_Type@@QEAAAEAV0@AEBV0@@Z
??4MPyMPxSurfaceShapeUI_Director@@QEAAAEAV0@AEBV0@@Z
??4MPyMPxSurfaceShapeUI_Type@@QEAAAEAV0@AEBV0@@Z
??4MPyMSelectInfo_Type@@QEAAAEAV0@AEBV0@@Z
??4MPyMTextureEditorDrawInfo_Type@@QEAAAEAV0@AEBV0@@Z
??4MPyMUiMessage_Type@@QEAAAEAV0@AEBV0@@Z
??4MQtUtil@@QEAAAEAV0@AEBV0@@Z
??4MSelectInfo@@QEAAAEAV0@AEBV0@@Z
??4MTextureEditorDrawInfo@@QEAAAEAV0@AEBV0@@Z
??4MToolsInfo@@QEAAAEAV0@AEBV0@@Z
??4MUiMessage@@QEAAAEAV0@AEBV0@@Z
??4THnavigator@@QEAAAEAV0@AEBV0@@Z
??4TapiCastUI@@QEAAAEAV0@AEBV0@@Z
??4TapiEnumUI@@QEAAAEAV0@AEBV0@@Z
??4TapiPackUI@@QEAAAEAV0@AEBV0@@Z
??4TpluginFileDialogDBase@@QEAAAEAV0@AEBV0@@Z
??4TpluginNavigator@@QEAAAEAV0@AEBV0@@Z
??4TpluginNavigatorDBase@@QEAAAEAV0@AEBV0@@Z
??8MCursor@@QEBA_NAEBV0@@Z
??9MCursor@@QEBA_NAEBV0@@Z
??AMMaterialArray@@QEAA?AVMMaterial@@I@Z
??AMMaterialArray@@QEBA?BVMMaterial@@I@Z
??E?$TiteratorWrapperFwd@UConstIteratorDescriptor@TmultiIndexDependNodeSet@@V?$TiteratorWrapper@UConstIteratorDescriptor@TmultiIndexDependNodeSet@@@@@@QEAAAEAV?$TiteratorWrapper@UConstIteratorDescriptor@TmultiIndexDependNodeSet@@@@XZ
??E?$TiteratorWrapperFwd@UConstIteratorDescriptor@TscenePartitions@@V?$TiteratorWrapper@UConstIteratorDescriptor@TscenePartitions@@@@@@QEAAAEAV?$TiteratorWrapper@UConstIteratorDescriptor@TscenePartitions@@@@XZ
??IMFnCircleSweepManip@@AEBAPEAV0@XZ
??IMFnCurveSegmentManip@@AEBAPEAV0@XZ
??IMFnDirectionManip@@AEBAPEAV0@XZ
??IMFnDiscManip@@AEBAPEAV0@XZ
??IMFnDistanceManip@@AEBAPEAV0@XZ
??IMFnFreePointTriadManip@@AEBAPEAV0@XZ
??IMFnManip3D@@AEBAPEAV0@XZ
??IMFnPointOnCurveManip@@AEBAPEAV0@XZ
??IMFnPointOnSurfaceManip@@AEBAPEAV0@XZ
??IMFnRotateManip@@AEBAPEAV0@XZ
??IMFnScaleManip@@AEBAPEAV0@XZ
??IMFnStateManip@@AEBAPEAV0@XZ
??IMFnToggleManip@@AEBAPEAV0@XZ
??IMFnToolContext@@AEBAPEAV0@XZ
??_7?$MPyMSwatchRenderBase_DirectorImpl@VMHWShaderSwatchGenerator@@@@6BMHWShaderSwatchGenerator@@@
??_7?$MPyMSwatchRenderBase_DirectorImpl@VMHWShaderSwatchGenerator@@@@6BMPyMSwatchRenderBase_DirectorBase@@@
??_7M3dView@@6B@
??_7MDeviceState@@6B@
??_7MDrawInfo@@6B@
??_7MDrawTraversal@@6B@
??_7MEvent@@6B@
??_7MExternalDropCallback@@6B@
??_7MFnCircleSweepManip@@6B@
??_7MFnCurveSegmentManip@@6B@
??_7MFnDirectionManip@@6B@
??_7MFnDiscManip@@6B@
??_7MFnDistanceManip@@6B@
??_7MFnFreePointTriadManip@@6B@
??_7MFnManip3D@@6B@
??_7MFnPointOnCurveManip@@6B@
??_7MFnPointOnSurfaceManip@@6B@
??_7MFnRotateManip@@6B@
??_7MFnScaleManip@@6B@
??_7MFnStateManip@@6B@
??_7MFnToggleManip@@6B@
??_7MFnToolContext@@6B@
??_7MGraphEditorInfo@@6B@
??_7MHWShaderSwatchGenerator@@6B@
??_7MObjectListFilter@@6B@
??_7MPx3dModelView@@6B@
??_7MPxClientDeviceNode@@6B@
??_7MPxContext@@6B@
??_7MPxContextCommand@@6B@
??_7MPxControlCommand@@6B@
??_7MPxDragAndDropBehavior@@6B@
??_7MPxFileDialog@@6B@
??_7MPxGlBuffer@@6B@
??_7MPxHardwareShader@@6B@
??_7MPxHwShaderNode@@6B@
??_7MPxLocatorNode@@6B@
??_7MPxManipContainer@@6B@
??_7MPxManipulatorNode@@6B@
??_7MPxMidiInputDevice@@6B@
??_7MPxModelEditorCommand@@6B@
??_7MPxPolyTweakUVInteractiveCommand@@6B@
??_7MPxSelectionContext@@6B@
??_7MPxSurfaceShapeUI@@6B@
??_7MPxTexContext@@6B@
??_7MPxThreadedDeviceNode@@6B@
??_7MPxToolCommand@@6B@
??_7MPxUIControl@@6B@
??_7MPxUITableControl@@6B@
??_7MPyMHWShaderSwatchGenerator_Director@@6BMHWShaderSwatchGenerator@@@
??_7MPyMHWShaderSwatchGenerator_Director@@6BMPyMSwatchRenderBase_DirectorBase@@@
??_7MPyMPxSurfaceShapeUI_Director@@6BMPxSurfaceShapeUI@@@
??_7MPyMPxSurfaceShapeUI_Director@@6BMPyDirector@@@
??_7MSelectInfo@@6B@
??_7MTextureEditorDrawInfo@@6B@
??_7THcontrolCommand@@6B@
??_7THnavigator@@6B@
??_7TpluginNavigator@@6B@
??_FMGraphEditorInfo@@QEAAXXZ
??_FMPxClientDeviceNode@@QEAAXXZ
?THmodelEditorTmeta@@3PEAVTmetaclass@@EA
?THmodelPaneTmeta@@3PEAVTmetaclass@@EA
?UIname@MObjectListFilter@@QEBAAEBVMString@@XZ
?_beginMarquee@MPxContext@@QEAA?AVMStatus@@AEAVMEvent@@@Z
?_control@MPxControlCommand@@QEAAPEAVMPxUIControl@@PEAVMStatus@@@Z
?_doFinalize@MPxToolCommand@@QEAA?AVMStatus@@AEAVMArgList@@@Z
?_ignoreEntry@MPxContext@@SA_NAEBVMIntArray@@I@Z
?_isSelecting@MPxSelectionContext@@QEAA_NXZ
?_lastDragPoint@MPxSelectionContext@@QEAA?AVMPoint@@XZ
?_newToolCommand@MPxContext@@QEAAPEAVMPxToolCommand@@XZ
?_newToolCommand@MPxSelectionContext@@QEAAPEAVMPxToolCommand@@XZ
?_parser@MPxContextCommand@@QEBA?AVMArgParser@@PEAVMStatus@@@Z
?_parser@MPxControlCommand@@QEBA?AVMArgParser@@PEAVMStatus@@@Z
?_parser@MPxModelEditorCommand@@QEBA?AVMArgParser@@PEAVMStatus@@@Z
?_releaseMarquee@MPxContext@@QEAA?AVMStatus@@AEAVMEvent@@AEAF111@Z
?_setCursor@MPxContext@@QEAA?AVMStatus@@AEBVMCursor@@@Z
?_setHelpString@MPxContext@@QEAA?AVMStatus@@AEBVMString@@@Z
?_setTitleString@MPxContext@@QEAA?AVMStatus@@AEBVMString@@@Z
?_startPoint@MPxSelectionContext@@QEAA?AVMPoint@@XZ
?_syntax@MPxContextCommand@@QEBA?AVMSyntax@@PEAVMStatus@@@Z
?_syntax@MPxControlCommand@@QEBA?AVMSyntax@@PEAVMStatus@@@Z
?_syntax@MPxModelEditorCommand@@QEBA?AVMSyntax@@PEAVMStatus@@@Z
?abortAction@MPxContext@@UEAAXXZ
?abortAction@MPxSelectionContext@@UEAAXXZ
?accept@MPxFileDialog@@QEAAXXZ
?acceptMode@MPxFileDialog@@QEBA?AW4AcceptMode@QFileDialog@@XZ
?acquireDataStorage@MPxThreadedDeviceNode@@QEAA?AVMStatus@@AEAVMCharBuffer@@@Z
?active3dView@M3dView@@SA?AV1@PEAVMStatus@@@Z
?activeAffectedColor@M3dView@@SA?AVMColor@@PEAVMStatus@@@Z
?activeTemplateColor@M3dView@@SA?AVMColor@@PEAVMStatus@@@Z
?add3dViewDestroyMsgCallback@MUiMessage@@SA_KAEBVMString@@P6AX0PEAX@Z1PEAVMStatus@@@Z
?add3dViewPostMultipleDrawPassMsgCallback@MUiMessage@@SA_KAEBVMString@@P6AX0IPEAX@Z1PEAVMStatus@@@Z
?add3dViewPostRenderMsgCallback@MUiMessage@@SA_KAEBVMString@@P6AX0PEAX@Z1PEAVMStatus@@@Z
?add3dViewPreMultipleDrawPassMsgCallback@MUiMessage@@SA_KAEBVMString@@P6AX0IPEAX@Z1PEAVMStatus@@@Z
?add3dViewPreRenderMsgCallback@MUiMessage@@SA_KAEBVMString@@P6AX0PEAX@Z1PEAVMStatus@@@Z
?add3dViewRenderOverrideChangedCallback@MUiMessage@@SA_KAEBVMString@@P6AX000PEAX@Z1PEAVMStatus@@@Z
?add3dViewRendererChangedCallback@MUiMessage@@SA_KAEBVMString@@P6AX000PEAX@Z1PEAVMStatus@@@Z
?add@MDrawRequestQueue@@QEAAXAEAVMDrawRequest@@@Z
?add@TpluginFileDialogDBase@@SAPEAVTpluginObject@@AEBVTstring@@PEAVTplugin@@P6APEAXXZ@Z
?add@TpluginNavigatorDBase@@SAPEAVTpluginObject@@AEBVTstring@@PEAVTplugin@@P6APEAXXZ@Z
?addCallback@MExternalDropCallback@@SA?AVMStatus@@PEAV1@H@Z
?addCameraChangedCallback@MUiMessage@@SA_KAEBVMString@@P6AX0AEAVMObject@@PEAX@Z2PEAVMStatus@@@Z
?addChannel@MPxMidiInputDevice@@IEAA?AVMStatus@@AEAVMDeviceChannel@@@Z
?addCircleSweepManip@MPxManipContainer@@QEAA?AVMDagPath@@AEBVMString@@0@Z
?addCurveSegmentManip@MPxManipContainer@@QEAA?AVMDagPath@@AEBVMString@@00@Z
?addDependentPlug@MPxManipulatorNode@@QEAA?AVMStatus@@AEBVMPlug@@@Z
?addDirectionManip@MPxManipContainer@@QEAA?AVMDagPath@@AEBVMString@@0@Z
?addDiscManip@MPxManipContainer@@QEAA?AVMDagPath@@AEBVMString@@0@Z
?addDistanceManip@MPxManipContainer@@QEAA?AVMDagPath@@AEBVMString@@0@Z
?addDoubleValue@MPxManipulatorNode@@QEAA?AVMStatus@@AEBVMString@@NAEAH@Z
?addFreePointTriadManip@MPxManipContainer@@QEAA?AVMDagPath@@AEBVMString@@0@Z
?addMPxManipulatorNode@MPxManipContainer@@QEAA?AVMStatus@@AEBVMString@@0AEAPEAVMPxManipulatorNode@@@Z
?addManipToPlugConversion@MPxManipContainer@@QEAAIAEAVMPlug@@@Z
?addManipToPlugConversionCallback@MPxManipContainer@@QEAAIAEAVMPlug@@P81@EAA?AVMManipData@@I@Z@Z
?addManipulator@MPxContext@@UEAA?AVMStatus@@AEBVMObject@@@Z
?addManipulator@MPxSelectionContext@@UEAA?AVMStatus@@AEBVMObject@@@Z
?addPlugToInViewEditor@MPxManipContainer@@QEAAXAEBVMPlug@@@Z
?addPlugToManipConversion@MPxManipContainer@@QEAAXI@Z
?addPlugToManipConversionCallback@MPxManipContainer@@QEAAXIP81@EAA?AVMManipData@@I@Z@Z
?addPointOnCurveManip@MPxManipContainer@@QEAA?AVMDagPath@@AEBVMString@@0@Z
?addPointOnSurfaceManip@MPxManipContainer@@QEAA?AVMDagPath@@AEBVMString@@0@Z
?addPointValue@MPxManipulatorNode@@QEAA?AVMStatus@@AEBVMString@@AEBVMPoint@@AEAH@Z
?addRotateManip@MPxManipContainer@@QEAA?AVMDagPath@@AEBVMString@@0@Z
?addScaleManip@MPxManipContainer@@QEAA?AVMDagPath@@AEBVMString@@0@Z
?addSelection@MSelectInfo@@QEAAXAEBVMSelectionList@@AEBVMPoint@@AEAV2@AEAVMPointArray@@AEBVMSelectionMask@@_N@Z
?addStateManip@MPxManipContainer@@QEAA?AVMDagPath@@AEBVMString@@0@Z
?addToManipConnectTable@MPxManipContainer@@SA?AVMStatus@@AEAVMTypeId@@@Z
?addToModule@MPyM3dView_Type@@SA_NPEAU_object@@@Z
?addToModule@MPyMDrawData_Type@@SA_NPEAU_object@@@Z
?addToModule@MPyMDrawInfo_Type@@SA_NPEAU_object@@@Z
?addToModule@MPyMDrawRequest_Type@@SA_NPEAU_object@@@Z
?addToModule@MPyMFnCircleSweepManip_Type@@SA_NPEAU_object@@@Z
?addToModule@MPyMFnCurveSegmentManip_Type@@SA_NPEAU_object@@@Z
?addToModule@MPyMFnDirectionManip_Type@@SA_NPEAU_object@@@Z
?addToModule@MPyMFnDiscManip_Type@@SA_NPEAU_object@@@Z
?addToModule@MPyMFnDistanceManip_Type@@SA_NPEAU_object@@@Z
?addToModule@MPyMFnFreePointTriadManip_Type@@SA_NPEAU_object@@@Z
?addToModule@MPyMFnManip3D_Type@@SA_NPEAU_object@@@Z
?addToModule@MPyMFnPointOnCurveManip_Type@@SA_NPEAU_object@@@Z
?addToModule@MPyMFnPointOnSurfaceManip_Type@@SA_NPEAU_object@@@Z
?addToModule@MPyMFnRotateManip_Type@@SA_NPEAU_object@@@Z
?addToModule@MPyMFnScaleManip_Type@@SA_NPEAU_object@@@Z
?addToModule@MPyMFnStateManip_Type@@SA_NPEAU_object@@@Z
?addToModule@MPyMFnToggleManip_Type@@SA_NPEAU_object@@@Z
?addToModule@MPyMHWShaderSwatchGenerator_Type@@SA_NPEAU_object@@@Z
?addToModule@MPyMMaterialArray_Type@@SA_NPEAU_object@@@Z
?addToModule@MPyMMaterial_Type@@SA_NPEAU_object@@@Z
?addToModule@MPyMPxHwShaderNode_RenderParameters_Type@@SA_NPEAU_object@@@Z
?addToModule@MPyMPxHwShaderNode_Type@@SA_NPEAU_object@@@Z
?addToModule@MPyMPxLocatorNode_Type@@SA_NPEAU_object@@@Z
?addToModule@MPyMPxSurfaceShapeUI_Type@@SA_NPEAU_object@@@Z
?addToModule@MPyMSelectInfo_Type@@SA_NPEAU_object@@@Z
?addToModule@MPyMTextureEditorDrawInfo_Type@@SA_NPEAU_object@@@Z
?addToModule@MPyMUiMessage_Type@@SA_NPEAU_object@@@Z
?addToSelection@MPxUITableControl@@QEAA?AVMStatus@@II@Z
?addToggleManip@MPxManipContainer@@QEAA?AVMDagPath@@AEBVMString@@0@Z
?addUiDeletedCallback@MUiMessage@@SA_KAEBVMString@@P6AXPEAX@Z1PEAVMStatus@@@Z
?addVectorValue@MPxManipulatorNode@@QEAA?AVMStatus@@AEBVMString@@AEBVMVector@@AEAH@Z
?addWidgetToMayaLayout@MQtUtil@@SA?AVMString@@PEAVQWidget@@0AEBV2@@Z
?advanceProgress@MProgressWindow@@SA?AVMStatus@@H@Z
?allowEdit@MPxUITableControl@@MEBA_NXZ
?allowSelection@MPxUITableControl@@MEAA_NHHHH@Z
?angleIndex@MFnCircleSweepManip@@QEBAIPEAVMStatus@@@Z
?angleIndex@MFnDiscManip@@QEBAIPEAVMStatus@@@Z
?append@MMaterialArray@@QEAA?AVMStatus@@AEBVMMaterial@@@Z
?appendSyntax@MPxContextCommand@@UEAA?AVMStatus@@XZ
?appendSyntax@MPxControlCommand@@UEAA?AVMStatus@@XZ
?appendSyntax@MPxModelEditorCommand@@UEAA?AVMStatus@@XZ
?appendSyntax@THcontrolCommand@@UEAA_NXZ
?applicationShell@M3dView@@SAPEAUHWND__@@PEAVMStatus@@@Z
?applyTexture@MMaterial@@QEAAXAEAVM3dView@@AEBVMDrawData@@@Z
?argParser@THcontrolCommand@@QEAAPEAVTargParser@@XZ
?argTypeNumericalInput@MPxContext@@UEBA?AW4MArgType@MSyntax@@I@Z
?argTypeNumericalInput@MPxSelectionContext@@UEBA?AW4MArgType@MSyntax@@I@Z
?asBool@MManipData@@QEBA_NXZ
?asDouble@MManipData@@QEBANXZ
?asFloat@MManipData@@QEBAMXZ
?asLong@MManipData@@QEBAHXZ
?asMObject@MManipData@@QEBA?AVMObject@@XZ
?asShort@MManipData@@QEBAFXZ
?asUnsigned@MManipData@@QEBAIXZ
?attachToGraphEditor@MGraphEditorInfo@@AEAAXAEBVMString@@PEAVMStatus@@@Z
?axisIndex@MDeviceChannel@@QEBAHXZ
?axisIndex@MFnCircleSweepManip@@QEBAIPEAVMStatus@@@Z
?axisIndex@MFnDiscManip@@QEBAIPEAVMStatus@@@Z
?backgroundColor@M3dView@@SA?AVMColor@@PEAVMStatus@@@Z
?backgroundColor@MPx3dModelView@@QEAA?AVMColor@@PEAVMStatus@@@Z
?backgroundColorBottom@M3dView@@SA?AVMColor@@PEAVMStatus@@@Z
?backgroundColorBottom@MPx3dModelView@@QEAA?AVMColor@@PEAVMStatus@@@Z
?backgroundColorTop@M3dView@@SA?AVMColor@@PEAVMStatus@@@Z
?backgroundColorTop@MPx3dModelView@@QEAA?AVMColor@@PEAVMStatus@@@Z
?beginBufferNotify@MPxGlBuffer@@UEAAXXZ
?beginGL@M3dView@@QEAA?AVMStatus@@XZ
?beginGL@MPx3dModelView@@QEAA?AVMStatus@@XZ
?beginMarquee@MPxContext@@IEAA?AVMStatus@@AEAVMEvent@@@Z
?beginProjMatrixOverride@M3dView@@QEAA?AVMStatus@@AEAVMMatrix@@@Z
?beginSelect@M3dView@@QEAAXPEAIH@Z
?beginThreadLoop@MPxThreadedDeviceNode@@QEAA?AVMStatus@@XZ
?beginXorDrawing@M3dView@@QEAA?AVMStatus@@_N0MW4LineStipplePattern@1@AEBVMColor@@@Z
?beginXorDrawing@MPx3dModelView@@QEAA?AVMStatus@@_N0MW4LineStipplePattern@M3dView@@AEBVMColor@@@Z
?bind@MPxHwShaderNode@@UEAA?AVMStatus@@AEBVMDrawRequest@@AEAVM3dView@@@Z
?bindFbo@MPxGlBuffer@@QEAA?AVMStatus@@XZ
?boundingBox@MPxLocatorNode@@UEBA?AVMBoundingBox@@XZ
?boundingBoxCenterX@MPxLocatorNode@@2VMObject@@A
?boundingBoxCenterY@MPxLocatorNode@@2VMObject@@A
?boundingBoxCenterZ@MPxLocatorNode@@2VMObject@@A
?buildCreateCmd@THcontrolCommand@@UEAA_NPEAVTnamedObject@@AEAVTstring@@_N2H@Z
?buttonState@MDeviceState@@QEBA_NAEBVMString@@@Z
?buttonState@MDeviceState@@QEBA_NG@Z
?canDrawComponent@MDrawInfo@@QEBA_N_NAEBVMSelectionMask@@@Z
?canDrawUV@MPxSurfaceShapeUI@@UEBA_NXZ
?canDrawUV@MPyMPxSurfaceShapeUI_Director@@UEBA_NXZ
?cancel@MPxPolyTweakUVInteractiveCommand@@UEAA?AVMStatus@@XZ
?cancel@MPxToolCommand@@UEAA?AVMStatus@@XZ
?cancelParallelRendering@?$MPyMSwatchRenderBase_DirectorImpl@VMHWShaderSwatchGenerator@@@@UEAAXXZ
?cellString@MPxUITableControl@@MEAA?AVMString@@IIAEA_N@Z
?center@MPxLocatorNode@@2VMObject@@A
?centerIndex@MFnCircleSweepManip@@QEBAIPEAVMStatus@@@Z
?centerIndex@MFnDiscManip@@QEBAIPEAVMStatus@@@Z
?childByIndex@MDeviceChannel@@QEAA?AV1@H@Z
?className@M3dView@@SAPEBDXZ
?className@MDrawData@@SAPEBDXZ
?className@MDrawInfo@@SAPEBDXZ
?className@MDrawRequest@@SAPEBDXZ
?className@MDrawRequestQueue@@SAPEBDXZ
?className@MEvent@@SAPEBDXZ
?className@MFeedbackLine@@SAPEBDXZ
?className@MFnCircleSweepManip@@SAPEBDXZ
?className@MFnCurveSegmentManip@@SAPEBDXZ
?className@MFnDirectionManip@@SAPEBDXZ
?className@MFnDiscManip@@SAPEBDXZ
?className@MFnDistanceManip@@SAPEBDXZ
?className@MFnFreePointTriadManip@@SAPEBDXZ
?className@MFnManip3D@@SAPEBDXZ
?className@MFnPointOnCurveManip@@SAPEBDXZ
?className@MFnPointOnSurfaceManip@@SAPEBDXZ
?className@MFnRotateManip@@SAPEBDXZ
?className@MFnScaleManip@@SAPEBDXZ
?className@MFnStateManip@@SAPEBDXZ
?className@MFnToggleManip@@SAPEBDXZ
?className@MFnToolContext@@SAPEBDXZ
?className@MGraphEditorInfo@@SAPEBDXZ
?className@MManipData@@SAPEBDXZ
?className@MMaterial@@SAPEBDXZ
?className@MMaterialArray@@SAPEBDXZ
?className@MObjectListFilter@@SAPEBDXZ
?className@MProgressWindow@@SAPEBDXZ
?className@MPx3dModelView@@SAPEBDXZ
?className@MPxClientDeviceNode@@SAPEBDXZ
?className@MPxContext@@SAPEBDXZ
?className@MPxContextCommand@@SAPEBDXZ
?className@MPxControlCommand@@SAPEBDXZ
?className@MPxDragAndDropBehavior@@SAPEBDXZ
?className@MPxFileDialog@@SAPEBDXZ
?className@MPxGlBuffer@@SAPEBDXZ
?className@MPxHardwareShader@@SAPEBDXZ
?className@MPxHwShaderNode@@SAPEBDXZ
?className@MPxLocatorNode@@SAPEBDXZ
?className@MPxManipContainer@@SAPEBDXZ
?className@MPxManipulatorNode@@SAPEBDXZ
?className@MPxMidiInputDevice@@SAPEBDXZ
?className@MPxModelEditorCommand@@SAPEBDXZ
?className@MPxPolyTweakUVInteractiveCommand@@SAPEBDXZ
?className@MPxSelectionContext@@SAPEBDXZ
?className@MPxSurfaceShapeUI@@SAPEBDXZ
?className@MPxTexContext@@SAPEBDXZ
?className@MPxThreadedDeviceNode@@SAPEBDXZ
?className@MPxToolCommand@@SAPEBDXZ
?className@MPxUIControl@@SAPEBDXZ
?className@MPxUITableControl@@SAPEBDXZ
?className@MQtUtil@@SAPEBDXZ
?className@MSelectInfo@@SAPEBDXZ
?className@MTextureEditorDrawInfo@@SAPEBDXZ
?className@MToolsInfo@@SAPEBDXZ
?className@MUiMessage@@SAPEBDXZ
?cleanup@MDrawRequestQueue@@AEAAXXZ
?clear@MFeedbackLine@@SAXXZ
?clear@MMaterialArray@@QEAA?AVMStatus@@XZ
?clear@THcontrolCommand@@UEAAXXZ
?clearInstance@THcontrolCommand@@UEAAXXZ
?clearResult@MPxControlCommand@@QEAAXXZ
?clearSelection@MPxUITableControl@@QEAA?AVMStatus@@XZ
?clearTheResult@THcontrolCommand@@QEAAXXZ
?clientType@MPxClientDeviceNode@@QEAA?AW4ClientType@1@XZ
?closeDevice@MPxMidiInputDevice@@UEAAXXZ
?closeFbo@MPxGlBuffer@@QEAA?AVMStatus@@AEAVM3dView@@@Z
?closestPoint@MPxLocatorNode@@UEBA?AVMPoint@@V2@VMVector@@@Z
?collapseOrExpandRow@MPxUITableControl@@UEAA_NI@Z
?color@MDrawRequest@@QEBA?AVMColor@@XZ
?color@MDrawRequest@@QEBAHW4ColorTable@M3dView@@@Z
?color@MExternalDropData@@QEBA?AVMColor@@XZ
?color@MPxLocatorNode@@QEAAIW4DisplayStatus@M3dView@@@Z
?colorAndName@MPxManipulatorNode@@QEBA?AVMStatus@@AEAVM3dView@@I_NF@Z
?colorAtIndex@M3dView@@QEAA?AVMColor@@IW4ColorTable@1@PEAVMStatus@@@Z
?colorAtIndex@MPx3dModelView@@QEAA?AVMColor@@IW4ColorTable@M3dView@@PEAVMStatus@@@Z
?colorMask@M3dView@@QEAA?AVMStatus@@AEA_N000@Z
?colorRGB@MPxLocatorNode@@QEAA?AVMColor@@W4DisplayStatus@M3dView@@@Z
?colorsPerVertex@MPxHwShaderNode@@UEAAHXZ
?completeAction@MPxContext@@UEAAXXZ
?completelyInside@MDrawInfo@@QEBA_NXZ
?component@MDrawRequest@@QEBA?AVMObject@@XZ
?confirmOverwrite@MPxFileDialog@@QEBA_NXZ
?connectAttrToAttr@MPxDragAndDropBehavior@@UEAA?AVMStatus@@AEAVMPlug@@0_N@Z
?connectAttrToAttr@THnavigator@@UEAAHPEAVTplug@@0_NPEAVTplugArray@@@Z
?connectAttrToNode@MPxDragAndDropBehavior@@UEAA?AVMStatus@@AEAVMPlug@@AEAVMObject@@_N@Z
?connectAttrToNode@THnavigator@@UEAAHPEAVTplug@@PEAVTdependNode@@_NPEAVTplugArray@@@Z
?connectNodeToAttr@MPxDragAndDropBehavior@@UEAA?AVMStatus@@AEAVMObject@@AEAVMPlug@@_N@Z
?connectNodeToAttr@THnavigator@@UEAAHPEAVTdependNode@@PEAVTplug@@_NPEAVTplugArray@@@Z
?connectNodeToNode@MPxDragAndDropBehavior@@UEAA?AVMStatus@@AEAVMObject@@0_N@Z
?connectNodeToNode@THnavigator@@UEAAHPEAVTdependNode@@0_NPEAVTplugArray@@@Z
?connectPlugToValue@MPxManipulatorNode@@QEAA?AVMStatus@@AEBVMPlug@@HAEAH@Z
?connectToAnglePlug@MFnCircleSweepManip@@QEAA?AVMStatus@@AEAVMPlug@@@Z
?connectToAnglePlug@MFnDiscManip@@QEAA?AVMStatus@@AEAVMPlug@@@Z
?connectToCurvePlug@MFnCurveSegmentManip@@QEAA?AVMStatus@@AEAVMPlug@@@Z
?connectToCurvePlug@MFnPointOnCurveManip@@QEAA?AVMStatus@@AEAVMPlug@@@Z
?connectToDependNode@MPxManipContainer@@UEAA?AVMStatus@@AEBVMObject@@@Z
?connectToDependNode@MPxManipulatorNode@@UEAA?AVMStatus@@AEBVMObject@@@Z
?connectToDirectionPlug@MFnDirectionManip@@QEAA?AVMStatus@@AEAVMPlug@@@Z
?connectToDistancePlug@MFnDistanceManip@@QEAA?AVMStatus@@AEAVMPlug@@@Z
?connectToEndParamPlug@MFnCurveSegmentManip@@QEAA?AVMStatus@@AEAVMPlug@@@Z
?connectToParamPlug@MFnPointOnCurveManip@@QEAA?AVMStatus@@AEAVMPlug@@@Z
?connectToParamPlug@MFnPointOnSurfaceManip@@QEAA?AVMStatus@@AEAVMPlug@@@Z
?connectToPointPlug@MFnFreePointTriadManip@@QEAA?AVMStatus@@AEAVMPlug@@@Z
?connectToRotationCenterPlug@MFnRotateManip@@QEAA?AVMStatus@@AEBVMPlug@@@Z
?connectToRotationPlug@MFnRotateManip@@QEAA?AVMStatus@@AEBVMPlug@@@Z
?connectToScaleCenterPlug@MFnScaleManip@@QEAA?AVMStatus@@AEBVMPlug@@@Z
?connectToScalePlug@MFnScaleManip@@QEAA?AVMStatus@@AEBVMPlug@@@Z
?connectToStartParamPlug@MFnCurveSegmentManip@@QEAA?AVMStatus@@AEAVMPlug@@@Z
?connectToStatePlug@MFnStateManip@@QEAA?AVMStatus@@AEAVMPlug@@@Z
?connectToSurfacePlug@MFnPointOnSurfaceManip@@QEAA?AVMStatus@@AEAVMPlug@@@Z
?connectToTogglePlug@MFnToggleManip@@QEAA?AVMStatus@@AEAVMPlug@@@Z
?connectedNodes@MPxManipulatorNode@@2VMObject@@A
?control@MPxControlCommand@@IEAAPEAVMPxUIControl@@PEAVMStatus@@@Z
?controlName@THcontrolCommand@@QEBA?AVTstring@@XZ
?copy@MMaterialArray@@QEAA?AVMStatus@@AEBV1@@Z
?copyData@MExternalDropData@@QEBA?AVMStatus@@AEBVMString@@PEAXI@Z
?count@TpluginFileDialogDBase@@SAIXZ
?create@MFnCircleSweepManip@@QEAA?AVMObject@@AEBVMString@@0PEAVMStatus@@@Z
?create@MFnCircleSweepManip@@QEAA?AVMObject@@PEAVMStatus@@@Z
?create@MFnCurveSegmentManip@@QEAA?AVMObject@@AEBVMString@@00PEAVMStatus@@@Z
?create@MFnCurveSegmentManip@@QEAA?AVMObject@@PEAVMStatus@@@Z
?create@MFnDirectionManip@@QEAA?AVMObject@@AEBVMString@@0PEAVMStatus@@@Z
?create@MFnDirectionManip@@QEAA?AVMObject@@PEAVMStatus@@@Z
?create@MFnDiscManip@@QEAA?AVMObject@@AEBVMString@@0PEAVMStatus@@@Z
?create@MFnDiscManip@@QEAA?AVMObject@@PEAVMStatus@@@Z
?create@MFnDistanceManip@@QEAA?AVMObject@@AEBVMString@@0PEAVMStatus@@@Z
?create@MFnDistanceManip@@QEAA?AVMObject@@PEAVMStatus@@@Z
?create@MFnFreePointTriadManip@@QEAA?AVMObject@@AEBVMString@@0PEAVMStatus@@@Z
?create@MFnFreePointTriadManip@@QEAA?AVMObject@@PEAVMStatus@@@Z
?create@MFnPointOnCurveManip@@QEAA?AVMObject@@AEBVMString@@0PEAVMStatus@@@Z
?create@MFnPointOnCurveManip@@QEAA?AVMObject@@PEAVMStatus@@@Z
?create@MFnPointOnSurfaceManip@@QEAA?AVMObject@@AEBVMString@@0PEAVMStatus@@@Z
?create@MFnPointOnSurfaceManip@@QEAA?AVMObject@@PEAVMStatus@@@Z
?create@MFnRotateManip@@QEAA?AVMObject@@AEBVMString@@0PEAVMStatus@@@Z
?create@MFnRotateManip@@QEAA?AVMObject@@PEAVMStatus@@@Z
?create@MFnScaleManip@@QEAA?AVMObject@@AEBVMString@@0PEAVMStatus@@@Z
?create@MFnScaleManip@@QEAA?AVMObject@@PEAVMStatus@@@Z
?create@MFnStateManip@@QEAA?AVMObject@@AEBVMString@@0PEAVMStatus@@@Z
?create@MFnStateManip@@QEAA?AVMObject@@PEAVMStatus@@@Z
?create@MFnToggleManip@@QEAA?AVMObject@@AEBVMString@@0PEAVMStatus@@@Z
?create@MFnToggleManip@@QEAA?AVMObject@@PEAVMStatus@@@Z
?createChildren@MPxManipContainer@@UEAA?AVMStatus@@XZ
?createInstance@MPyM3dView_Type@@SAPEAV?$MPyObject@VM3dView@@@@PEAU_object@@0@Z
?createInstance@MPyM3dView_Type@@SAPEAV?$MPyObject@VM3dView@@@@PEAVM3dView@@@Z
?createInstance@MPyM3dView_Type@@SAPEAV?$MPyObject@VM3dView@@@@XZ
?createInstance@MPyMDrawData_Type@@SAPEAV?$MPyObject@VMDrawData@@@@PEAU_object@@0@Z
?createInstance@MPyMDrawData_Type@@SAPEAV?$MPyObject@VMDrawData@@@@PEAVMDrawData@@@Z
?createInstance@MPyMDrawData_Type@@SAPEAV?$MPyObject@VMDrawData@@@@XZ
?createInstance@MPyMDrawInfo_Type@@SAPEAV?$MPyObject@VMDrawInfo@@@@PEAU_object@@0@Z
?createInstance@MPyMDrawInfo_Type@@SAPEAV?$MPyObject@VMDrawInfo@@@@PEAVMDrawInfo@@@Z
?createInstance@MPyMDrawInfo_Type@@SAPEAV?$MPyObject@VMDrawInfo@@@@XZ
?createInstance@MPyMDrawRequest_Type@@SAPEAV?$MPyObject@VMDrawRequest@@@@PEAU_object@@0@Z
?createInstance@MPyMDrawRequest_Type@@SAPEAV?$MPyObject@VMDrawRequest@@@@PEAVMDrawRequest@@@Z
?createInstance@MPyMDrawRequest_Type@@SAPEAV?$MPyObject@VMDrawRequest@@@@XZ
?createInstance@MPyMFnCircleSweepManip_Type@@SAPEAV?$MPyObject@VMFnCircleSweepManip@@@@PEAU_object@@0@Z
?createInstance@MPyMFnCircleSweepManip_Type@@SAPEAV?$MPyObject@VMFnCircleSweepManip@@@@PEAVMFnCircleSweepManip@@@Z
?createInstance@MPyMFnCircleSweepManip_Type@@SAPEAV?$MPyObject@VMFnCircleSweepManip@@@@XZ
?createInstance@MPyMFnCurveSegmentManip_Type@@SAPEAV?$MPyObject@VMFnCurveSegmentManip@@@@PEAU_object@@0@Z
?createInstance@MPyMFnCurveSegmentManip_Type@@SAPEAV?$MPyObject@VMFnCurveSegmentManip@@@@PEAVMFnCurveSegmentManip@@@Z
?createInstance@MPyMFnCurveSegmentManip_Type@@SAPEAV?$MPyObject@VMFnCurveSegmentManip@@@@XZ
?createInstance@MPyMFnDirectionManip_Type@@SAPEAV?$MPyObject@VMFnDirectionManip@@@@PEAU_object@@0@Z
?createInstance@MPyMFnDirectionManip_Type@@SAPEAV?$MPyObject@VMFnDirectionManip@@@@PEAVMFnDirectionManip@@@Z
?createInstance@MPyMFnDirectionManip_Type@@SAPEAV?$MPyObject@VMFnDirectionManip@@@@XZ
?createInstance@MPyMFnDiscManip_Type@@SAPEAV?$MPyObject@VMFnDiscManip@@@@PEAU_object@@0@Z
?createInstance@MPyMFnDiscManip_Type@@SAPEAV?$MPyObject@VMFnDiscManip@@@@PEAVMFnDiscManip@@@Z
?createInstance@MPyMFnDiscManip_Type@@SAPEAV?$MPyObject@VMFnDiscManip@@@@XZ
?createInstance@MPyMFnDistanceManip_Type@@SAPEAV?$MPyObject@VMFnDistanceManip@@@@PEAU_object@@0@Z
?createInstance@MPyMFnDistanceManip_Type@@SAPEAV?$MPyObject@VMFnDistanceManip@@@@PEAVMFnDistanceManip@@@Z
?createInstance@MPyMFnDistanceManip_Type@@SAPEAV?$MPyObject@VMFnDistanceManip@@@@XZ
?createInstance@MPyMFnFreePointTriadManip_Type@@SAPEAV?$MPyObject@VMFnFreePointTriadManip@@@@PEAU_object@@0@Z
?createInstance@MPyMFnFreePointTriadManip_Type@@SAPEAV?$MPyObject@VMFnFreePointTriadManip@@@@PEAVMFnFreePointTriadManip@@@Z
?createInstance@MPyMFnFreePointTriadManip_Type@@SAPEAV?$MPyObject@VMFnFreePointTriadManip@@@@XZ
?createInstance@MPyMFnManip3D_Type@@SAPEAV?$MPyObject@VMFnManip3D@@@@PEAU_object@@0@Z
?createInstance@MPyMFnManip3D_Type@@SAPEAV?$MPyObject@VMFnManip3D@@@@PEAVMFnManip3D@@@Z
?createInstance@MPyMFnManip3D_Type@@SAPEAV?$MPyObject@VMFnManip3D@@@@XZ
?createInstance@MPyMFnPointOnCurveManip_Type@@SAPEAV?$MPyObject@VMFnPointOnCurveManip@@@@PEAU_object@@0@Z
?createInstance@MPyMFnPointOnCurveManip_Type@@SAPEAV?$MPyObject@VMFnPointOnCurveManip@@@@PEAVMFnPointOnCurveManip@@@Z
?createInstance@MPyMFnPointOnCurveManip_Type@@SAPEAV?$MPyObject@VMFnPointOnCurveManip@@@@XZ
?createInstance@MPyMFnPointOnSurfaceManip_Type@@SAPEAV?$MPyObject@VMFnPointOnSurfaceManip@@@@PEAU_object@@0@Z
?createInstance@MPyMFnPointOnSurfaceManip_Type@@SAPEAV?$MPyObject@VMFnPointOnSurfaceManip@@@@PEAVMFnPointOnSurfaceManip@@@Z
?createInstance@MPyMFnPointOnSurfaceManip_Type@@SAPEAV?$MPyObject@VMFnPointOnSurfaceManip@@@@XZ
?createInstance@MPyMFnRotateManip_Type@@SAPEAV?$MPyObject@VMFnRotateManip@@@@PEAU_object@@0@Z
?createInstance@MPyMFnRotateManip_Type@@SAPEAV?$MPyObject@VMFnRotateManip@@@@PEAVMFnRotateManip@@@Z
?createInstance@MPyMFnRotateManip_Type@@SAPEAV?$MPyObject@VMFnRotateManip@@@@XZ
?createInstance@MPyMFnScaleManip_Type@@SAPEAV?$MPyObject@VMFnScaleManip@@@@PEAU_object@@0@Z
?createInstance@MPyMFnScaleManip_Type@@SAPEAV?$MPyObject@VMFnScaleManip@@@@PEAVMFnScaleManip@@@Z
?createInstance@MPyMFnScaleManip_Type@@SAPEAV?$MPyObject@VMFnScaleManip@@@@XZ
?createInstance@MPyMFnStateManip_Type@@SAPEAV?$MPyObject@VMFnStateManip@@@@PEAU_object@@0@Z
?createInstance@MPyMFnStateManip_Type@@SAPEAV?$MPyObject@VMFnStateManip@@@@PEAVMFnStateManip@@@Z
?createInstance@MPyMFnStateManip_Type@@SAPEAV?$MPyObject@VMFnStateManip@@@@XZ
?createInstance@MPyMFnToggleManip_Type@@SAPEAV?$MPyObject@VMFnToggleManip@@@@PEAU_object@@0@Z
?createInstance@MPyMFnToggleManip_Type@@SAPEAV?$MPyObject@VMFnToggleManip@@@@PEAVMFnToggleManip@@@Z
?createInstance@MPyMFnToggleManip_Type@@SAPEAV?$MPyObject@VMFnToggleManip@@@@XZ
?createInstance@MPyMHWShaderSwatchGenerator_Type@@SAPEAV?$MPyObject@VMHWShaderSwatchGenerator@@@@PEAU_object@@0@Z
?createInstance@MPyMHWShaderSwatchGenerator_Type@@SAPEAV?$MPyObject@VMHWShaderSwatchGenerator@@@@PEAVMHWShaderSwatchGenerator@@@Z
?createInstance@MPyMHWShaderSwatchGenerator_Type@@SAPEAV?$MPyObject@VMHWShaderSwatchGenerator@@@@XZ
?createInstance@MPyMMaterialArray_Type@@SAPEAV?$MPyObject@VMMaterialArray@@@@PEAU_object@@0@Z
?createInstance@MPyMMaterialArray_Type@@SAPEAV?$MPyObject@VMMaterialArray@@@@PEAVMMaterialArray@@@Z
?createInstance@MPyMMaterialArray_Type@@SAPEAV?$MPyObject@VMMaterialArray@@@@XZ
?createInstance@MPyMMaterial_Type@@SAPEAV?$MPyObject@VMMaterial@@@@PEAU_object@@0@Z
?createInstance@MPyMMaterial_Type@@SAPEAV?$MPyObject@VMMaterial@@@@PEAVMMaterial@@@Z
?createInstance@MPyMMaterial_Type@@SAPEAV?$MPyObject@VMMaterial@@@@XZ
?createInstance@MPyMPxHwShaderNode_RenderParameters_Type@@SAPEAV?$MPyObject@VMPxHwShaderNode_RenderParameters@@@@PEAU_object@@0@Z
?createInstance@MPyMPxHwShaderNode_RenderParameters_Type@@SAPEAV?$MPyObject@VMPxHwShaderNode_RenderParameters@@@@PEAVMPxHwShaderNode_RenderParameters@@@Z
?createInstance@MPyMPxHwShaderNode_RenderParameters_Type@@SAPEAV?$MPyObject@VMPxHwShaderNode_RenderParameters@@@@XZ
?createInstance@MPyMPxHwShaderNode_Type@@SAPEAV?$MPyObject@VMPxHwShaderNode@@@@PEAU_object@@0@Z
?createInstance@MPyMPxHwShaderNode_Type@@SAPEAV?$MPyObject@VMPxHwShaderNode@@@@PEAVMPxHwShaderNode@@@Z
?createInstance@MPyMPxHwShaderNode_Type@@SAPEAV?$MPyObject@VMPxHwShaderNode@@@@XZ
?createInstance@MPyMPxLocatorNode_Type@@SAPEAV?$MPyObject@VMPxLocatorNode@@@@PEAU_object@@0@Z
?createInstance@MPyMPxLocatorNode_Type@@SAPEAV?$MPyObject@VMPxLocatorNode@@@@PEAVMPxLocatorNode@@@Z
?createInstance@MPyMPxLocatorNode_Type@@SAPEAV?$MPyObject@VMPxLocatorNode@@@@XZ
?createInstance@MPyMPxSurfaceShapeUI_Type@@SAPEAV?$MPyObject@VMPxSurfaceShapeUI@@@@PEAU_object@@0@Z
?createInstance@MPyMPxSurfaceShapeUI_Type@@SAPEAV?$MPyObject@VMPxSurfaceShapeUI@@@@PEAVMPxSurfaceShapeUI@@@Z
?createInstance@MPyMPxSurfaceShapeUI_Type@@SAPEAV?$MPyObject@VMPxSurfaceShapeUI@@@@XZ
?createInstance@MPyMSelectInfo_Type@@SAPEAV?$MPyObject@VMSelectInfo@@@@PEAU_object@@0@Z
?createInstance@MPyMSelectInfo_Type@@SAPEAV?$MPyObject@VMSelectInfo@@@@PEAVMSelectInfo@@@Z
?createInstance@MPyMSelectInfo_Type@@SAPEAV?$MPyObject@VMSelectInfo@@@@XZ
?createInstance@MPyMTextureEditorDrawInfo_Type@@SAPEAV?$MPyObject@VMTextureEditorDrawInfo@@@@PEAU_object@@0@Z
?createInstance@MPyMTextureEditorDrawInfo_Type@@SAPEAV?$MPyObject@VMTextureEditorDrawInfo@@@@PEAVMTextureEditorDrawInfo@@@Z
?createInstance@MPyMTextureEditorDrawInfo_Type@@SAPEAV?$MPyObject@VMTextureEditorDrawInfo@@@@XZ
?createMemoryPools@MPxThreadedDeviceNode@@QEAA?AVMStatus@@HHJ@Z
?createObj@MHWShaderSwatchGenerator@@SAPEAVMSwatchRenderBase@@VMObject@@0H@Z
?creator@THcontrolCommand@@SAPEAXPEAX@Z
?crossHairCursor@MCursor@@2V1@B
?currentPath@MPxHwShaderNode@@QEBAAEBVMDagPath@@XZ
?currentPointIndex@MFnDistanceManip@@QEBAIPEAVMStatus@@@Z
?currentShadingEngine@MPxHwShaderNode@@QEBA?AVMObject@@XZ
?cursor@TapiCastUI@@SAAEAVTcursorShape@@AEAVMCursor@@@Z
?cursor@TapiCastUI@@SAAEBVTcursorShape@@AEBVMCursor@@@Z
?cursor@TapiPackUI@@SA?AVMCursor@@PEBVTcursorShape@@@Z
?curveIndex@MFnCurveSegmentManip@@QEBAIPEAVMStatus@@@Z
?curveIndex@MFnPointOnCurveManip@@QEBAIPEAVMStatus@@@Z
?curvePoint@MFnPointOnCurveManip@@QEBA?AVMPoint@@PEAVMStatus@@@Z
?customDraw@MPx3dModelView@@UEAAXPEAX0@Z
?customDrawEnabled@MPx3dModelView@@QEBA_NXZ
?data@MDeviceState@@AEAAPEAXXZ
?dataSize@MExternalDropData@@QEBAIAEBVMString@@@Z
?defaultCursor@MCursor@@2V1@B
?defaultMaterial@MMaterial@@SA?AV1@XZ
?defaultSuffix@MPxFileDialog@@QEBA?AVQString@@XZ
?deleteAction@MPxContext@@UEAAXXZ
?deleteControl@THcontrolCommand@@UEAAXXZ
?deleteManipulator@MFnManip3D@@SA?AVMStatus@@AEAVMObject@@@Z
?deleteManipulators@MPxContext@@UEAA?AVMStatus@@XZ
?deleteManipulators@MPxSelectionContext@@UEAA?AVMStatus@@XZ
?dependentOnSceneUpdates@MObjectListFilter@@UEAA?AW4MSceneUpdateType@1@XZ
?dependentPlugsReset@MPxManipulatorNode@@QEAA?AVMStatus@@XZ
?deregisterFileDialog@MPxFileDialog@@SA?AVMStatus@@AEAVMFnPlugin@@AEBVMString@@@Z
?deregisterFilter@MObjectListFilter@@SA?AVMStatus@@AEBV1@@Z
?deregisterForMouseMove@MPxManipulatorNode@@QEAA?AVMStatus@@XZ
?deregisterUIType@MQtUtil@@SA_NAEBVMString@@@Z
?destroyMemoryPools@MPxThreadedDeviceNode@@QEAA?AVMStatus@@XZ
?destroyOnPanelDestruction@MPx3dModelView@@QEBA_NXZ
?deviceChannel@TapiCastUI@@SAPEAVTdeviceChannel@@AEAVMDeviceChannel@@@Z
?deviceContext@M3dView@@QEAAPEAUHDC__@@PEAVMStatus@@@Z
?deviceName@MPxClientDeviceNode@@2VMObject@@A
?devicePosition@MDeviceState@@QEBAHAEBVMString@@@Z
?devicePosition@MDeviceState@@QEBAHG@Z
?deviceState@MPxMidiInputDevice@@UEAAPEAVMDeviceState@@XZ
?deviceState@TapiCastUI@@SAPEAVTdeviceState@@PEAVMDeviceState@@@Z
?deviceState@TapiPackUI@@SAPEAVMDeviceState@@PEAVTdeviceState@@@Z
?dimmedColor@MPxManipulatorNode@@QEAAFXZ
?direction@MFnToggleManip@@QEBA?AVMVector@@PEAVMStatus@@@Z
?directionIndex@MFnDirectionManip@@QEBAIPEAVMStatus@@@Z
?directionIndex@MFnDistanceManip@@QEBAIPEAVMStatus@@@Z
?directionIndex@MFnToggleManip@@QEBAIPEAVMStatus@@@Z
?directory@MPxFileDialog@@QEBA?AVQDir@@XZ
?dirtyMask@MPxHwShaderNode@@QEBAIXZ
?disallowPolygonOffset@M3dView@@QEBA_NXZ
?display@M3dView@@QEAAPEAUHGLRC__@@PEAVMStatus@@@Z
?displayAxisAtOriginOn@MPx3dModelView@@QEBA_NPEAVMStatus@@@Z
?displayAxisOn@MPx3dModelView@@QEBA_NPEAVMStatus@@@Z
?displayCameraAnnotationOn@MPx3dModelView@@QEBA_NPEAVMStatus@@@Z
?displayCullOpposite@MDrawRequest@@QEBA_NXZ
?displayCulling@MDrawRequest@@QEBA_NXZ
?displayHUD@MPx3dModelView@@QEBA_NPEAVMStatus@@@Z
?displayStatus@M3dView@@SA?AW4DisplayStatus@1@AEBVMDagPath@@PEAVMStatus@@@Z
?displayStatus@MDrawInfo@@QEBA?AW4DisplayStatus@M3dView@@XZ
?displayStatus@MDrawRequest@@QEBA?AW4DisplayStatus@M3dView@@XZ
?displayStyle@M3dView@@QEBA?AW4DisplayStyle@1@PEAVMStatus@@@Z
?displayStyle@MDrawInfo@@QEBA?AW4DisplayStyle@M3dView@@XZ
?displayStyle@MDrawRequest@@QEBA?AW4DisplayStyle@M3dView@@XZ
?displayStyle@MPx3dModelView@@QEBA?AW4DisplayStyle@M3dView@@PEAVMStatus@@@Z
?displayWithNode@MFnRotateManip@@QEAA?AVMStatus@@AEBVMObject@@@Z
?displayWithNode@MFnScaleManip@@QEAA?AVMStatus@@AEBVMObject@@@Z
?distanceIndex@MFnDistanceManip@@QEBAIPEAVMStatus@@@Z
?doButtonEvents@MPxMidiInputDevice@@UEAAX_N@Z
?doDrag@MPxContext@@UEAA?AVMStatus@@AEAVMEvent@@@Z
?doDrag@MPxContext@@UEAA?AVMStatus@@AEAVMEvent@@AEAVMUIDrawManager@MHWRender@@AEBVMFrameContext@5@@Z
?doDrag@MPxManipContainer@@UEAA?AVMStatus@@XZ
?doDrag@MPxManipulatorNode@@UEAA?AVMStatus@@AEAVM3dView@@@Z
?doDrag@MPxSelectionContext@@UEAA?AVMStatus@@AEAVMEvent@@@Z
?doDrag@MPxTexContext@@UEAA?AVMStatus@@AEAVMEvent@@AEAVMUIDrawManager@MHWRender@@AEBVMFrameContext@5@@Z
?doEditFlags@MPxContextCommand@@UEAA?AVMStatus@@XZ
?doEditFlags@MPxControlCommand@@UEAA?AVMStatus@@XZ
?doEditFlags@MPxModelEditorCommand@@UEAA?AVMStatus@@XZ
?doEditFlags@THcontrolCommand@@UEAA_NXZ
?doEnterRegion@MPxContext@@UEAA?AVMStatus@@AEAVMEvent@@@Z
?doFinalize@MPxToolCommand@@IEAA?AVMStatus@@AEAVMArgList@@@Z
?doHold@MPxContext@@UEAA?AVMStatus@@AEAVMEvent@@@Z
?doHold@MPxContext@@UEAA?AVMStatus@@AEAVMEvent@@AEAVMUIDrawManager@MHWRender@@AEBVMFrameContext@5@@Z
?doHold@MPxSelectionContext@@UEAA?AVMStatus@@AEAVMEvent@@@Z
?doIt@MPxPolyTweakUVInteractiveCommand@@UEAA?AVMStatus@@AEBVMArgList@@@Z
?doIteration@?$MPyMSwatchRenderBase_DirectorImpl@VMHWShaderSwatchGenerator@@@@UEAA_NXZ
?doIteration@MHWShaderSwatchGenerator@@UEAA_NXZ
?doMove@MPxManipulatorNode@@UEAA?AVMStatus@@AEAVM3dView@@AEA_N@Z
?doMovementEvents@MPxMidiInputDevice@@UEAAX_N@Z
?doPress@MPxContext@@UEAA?AVMStatus@@AEAVMEvent@@@Z
?doPress@MPxContext@@UEAA?AVMStatus@@AEAVMEvent@@AEAVMUIDrawManager@MHWRender@@AEBVMFrameContext@5@@Z
?doPress@MPxManipContainer@@UEAA?AVMStatus@@XZ
?doPress@MPxManipulatorNode@@UEAA?AVMStatus@@AEAVM3dView@@@Z
?doPress@MPxSelectionContext@@UEAA?AVMStatus@@AEAVMEvent@@@Z
?doPress@MPxTexContext@@UEAA?AVMStatus@@AEAVMEvent@@AEAVMUIDrawManager@MHWRender@@AEBVMFrameContext@5@@Z
?doPtrMoved@MPxTexContext@@UEAA?AVMStatus@@AEAVMEvent@@AEAVMUIDrawManager@MHWRender@@AEBVMFrameContext@5@@Z
?doQueryFlags@MPxContextCommand@@UEAA?AVMStatus@@XZ
?doQueryFlags@MPxControlCommand@@UEAA?AVMStatus@@XZ
?doQueryFlags@MPxModelEditorCommand@@UEAA?AVMStatus@@XZ
?doQueryFlags@THcontrolCommand@@UEAA_NXZ
?doRelease@MPxContext@@UEAA?AVMStatus@@AEAVMEvent@@@Z
?doRelease@MPxContext@@UEAA?AVMStatus@@AEAVMEvent@@AEAVMUIDrawManager@MHWRender@@AEBVMFrameContext@5@@Z
?doRelease@MPxManipContainer@@UEAA?AVMStatus@@XZ
?doRelease@MPxManipulatorNode@@UEAA?AVMStatus@@AEAVM3dView@@@Z
?doRelease@MPxSelectionContext@@UEAA?AVMStatus@@AEAVMEvent@@@Z
?doRelease@MPxTexContext@@UEAA?AVMStatus@@AEAVMEvent@@AEAVMUIDrawManager@MHWRender@@AEBVMFrameContext@5@@Z
?doUpdateOnMove@MPx3dModelView@@QEBA_NPEAVMStatus@@@Z
?done@MPxFileDialog@@QEAAXH@Z
?doubleCrossHairCursor@MCursor@@2V1@B
?dragMarquee@MPxContext@@IEAA?AVMStatus@@AEAVMEvent@@@Z
?draw@MPxLocatorNode@@UEAAXAEAVM3dView@@AEBVMDagPath@@W4DisplayStyle@2@W4DisplayStatus@2@@Z
?draw@MPxManipContainer@@UEAAXAEAVM3dView@@AEBVMDagPath@@W4DisplayStyle@2@W4DisplayStatus@2@@Z
?draw@MPxManipulatorNode@@UEAAXAEAVM3dView@@AEBVMDagPath@@W4DisplayStyle@2@W4DisplayStatus@2@@Z
?draw@MPxSurfaceShapeUI@@UEBAXAEBVMDrawRequest@@AEAVM3dView@@@Z
?drawAdornments@MPx3dModelView@@QEAA_NPEAVMStatus@@@Z
?drawAdornmentsNow@MPx3dModelView@@QEAA?AVMStatus@@XZ
?drawData@MDrawRequest@@QEBA?AVMDrawData@@XZ
?drawFeedback@MPxContext@@UEAA?AVMStatus@@AEAVMUIDrawManager@MHWRender@@AEBVMFrameContext@4@@Z
?drawHUDNow@MPx3dModelView@@QEAA?AVMStatus@@XZ
?drawInfo@TapiCastUI@@SA?AVMDrawInfo@@AEAVTdrawInfo@@@Z
?drawInfo@TapiCastUI@@SA?BVMDrawInfo@@AEBVTdrawInfo@@@Z
?drawInfo@TapiCastUI@@SAAEAVTdrawInfo@@AEAVMDrawInfo@@@Z
?drawInterrupt@MPx3dModelView@@QEBA_NXZ
?drawLast@MDrawRequest@@QEBA_NXZ
?drawLast@MPxLocatorNode@@UEBA_NXZ
?drawOnePass@MPx3dModelView@@QEAAXPEAX0@Z
?drawPlaneHandles@MFnManip3D@@SA_NXZ
?drawRequest@TapiCastUI@@SA?AVMDrawRequest@@AEAVTdrawRequest@@@Z
?drawRequest@TapiCastUI@@SA?BVMDrawRequest@@AEBVTdrawRequest@@@Z
?drawRequest@TapiCastUI@@SAAEAVTdrawRequest@@AEAVMDrawRequest@@@Z
?drawRequest@TapiCastUI@@SAAEBVTdrawRequest@@AEBVMDrawRequest@@@Z
?drawRequest@TapiPackUI@@SA?AVMDrawRequest@@AEAVTdrawRequest@@@Z
?drawRequestQueue@TapiCastUI@@SA?AVMDrawRequestQueue@@AEAVTdrawRequestCollection@@@Z
?drawText@M3dView@@QEAA?AVMStatus@@AEBVMString@@VMPoint@@W4TextPosition@1@@Z
?drawText@MPx3dModelView@@QEAA?AVMStatus@@AEBVMString@@VMPoint@@W4TextPosition@M3dView@@@Z
?drawUI@MPxManipContainer@@UEBAXAEAVMUIDrawManager@MHWRender@@AEBVMFrameContext@3@@Z
?drawUI@MPxManipulatorNode@@UEBAXAEAVMUIDrawManager@MHWRender@@AEBVMFrameContext@3@@Z
?drawUV@MPxSurfaceShapeUI@@UEBAXAEAVM3dView@@AEBVMTextureEditorDrawInfo@@@Z
?drawUV@MPyMPxSurfaceShapeUI_Director@@UEBAXAEAVM3dView@@AEBVMTextureEditorDrawInfo@@@Z
?drawingFunction@MTextureEditorDrawInfo@@QEBA?AW4DrawingFunction@1@XZ
?editCursor@MCursor@@2V1@B
?editorCommandName@MPxModelEditorCommand@@UEBA?AVMString@@XZ
?editorMenuScriptName@MPxModelEditorCommand@@UEBA?AVMString@@XZ
?enableFiltering@MDrawTraversal@@QEAAX_N@Z
?endBufferNotify@MPxGlBuffer@@UEAAXXZ
?endCircleIndex@MFnCircleSweepManip@@QEBAIPEAVMStatus@@@Z
?endGL@M3dView@@QEAA?AVMStatus@@XZ
?endGL@MPx3dModelView@@QEAA?AVMStatus@@XZ
?endParamIndex@MFnCurveSegmentManip@@QEBAIPEAVMStatus@@@Z
?endParameter@MFnCurveSegmentManip@@QEBANPEAVMStatus@@@Z
?endPoint@MFnCircleSweepManip@@QEBA?AVMPoint@@PEAVMStatus@@@Z
?endPointIndex@MFnDirectionManip@@QEBAIPEAVMStatus@@@Z
?endProgress@MProgressWindow@@SA?AVMStatus@@XZ
?endProjMatrixOverride@M3dView@@QEAA?AVMStatus@@XZ
?endSelect@M3dView@@QEAAHXZ
?endThreadLoop@MPxThreadedDeviceNode@@QEAA?AVMStatus@@XZ
?endXorDrawing@M3dView@@QEAA?AVMStatus@@XZ
?endXorDrawing@MPx3dModelView@@QEAA?AVMStatus@@XZ
?evaluateDiffuse@MMaterial@@QEAA?AVMStatus@@XZ
?evaluateEmission@MMaterial@@QEAA?AVMStatus@@XZ
?evaluateMaterial@MMaterial@@QEAA?AVMStatus@@AEAVM3dView@@AEBVMDagPath@@@Z
?evaluateShininess@MMaterial@@QEAA?AVMStatus@@XZ
?evaluateSpecular@MMaterial@@QEAA?AVMStatus@@XZ
?evaluateTexture@MMaterial@@QEAA?AVMStatus@@AEAVMDrawData@@@Z
?evaluateTextureTransformation@MMaterial@@QEAA?AVMStatus@@XZ
?event@TapiCastUI@@SAAEBVTevent@@AEAVMEvent@@@Z
?event@TapiPackUI@@SA?AVMEvent@@PEBVTevent@@@Z
?excludeAsLocator@MPxLocatorNode@@UEBA_NXZ
?feedbackNumericalInput@MPxContext@@UEBA_NXZ
?feedbackNumericalInput@MPxSelectionContext@@UEBA_NXZ
?fileMode@MPxFileDialog@@QEBA?AW4FileMode@QFileDialog@@XZ
?filter@MPxFileDialog@@QEBA?AV?$QFlags@W4Filter@QDir@@@@XZ
?filterNode@MDrawTraversal@@UEAA_NAEBVMDagPath@@@Z
?filterType@MObjectListFilter@@QEBA?AW4MFilterType@1@XZ
?filteredObjectList@MPx3dModelView@@QEBA?AVMStatus@@AEAVMSelectionList@@@Z
?filteringEnabled@MDrawTraversal@@QEBA_NXZ
?finalize@MPxPolyTweakUVInteractiveCommand@@UEAA?AVMStatus@@XZ
?finalize@MPxToolCommand@@UEAA?AVMStatus@@XZ
?find@TpluginFileDialogDBase@@SAPEAVTpluginObject@@AEBVTstring@@@Z
?find@TpluginNavigatorDBase@@SAPEAVTpluginObject@@AEBVTstring@@@Z
?findControl@MQtUtil@@SAPEAVQWidget@@VMString@@PEBV2@@Z
?findLayout@MQtUtil@@SAPEAVQWidget@@VMString@@PEBV2@@Z
?findMenuItem@MQtUtil@@SAPEAVQAction@@VMString@@@Z
?findPtrs@THcontrolCommand@@UEAA_NXZ
?findResource@MPxHardwareShader@@SA?AVMString@@AEBV2@0PEAVMStatus@@@Z
?findWindow@MQtUtil@@SAPEAVQWidget@@VMString@@@Z
?finishAddingManips@MPxManipContainer@@QEAA?AVMStatus@@XZ
?finishAddingManips@MPxManipulatorNode@@QEAA?AVMStatus@@XZ
?fogColor@MPx3dModelView@@QEBA?AVMColor@@PEAVMStatus@@@Z
?fogDensity@MPx3dModelView@@QEBANPEAVMStatus@@@Z
?fogEnd@MPx3dModelView@@QEBANPEAVMStatus@@@Z
?fogMode@MPx3dModelView@@QEBA?AW4FogMode@1@PEAVMStatus@@@Z
?fogSource@MPx3dModelView@@QEBA?AW4FogSource@1@PEAVMStatus@@@Z
?fogStart@MPx3dModelView@@QEBANPEAVMStatus@@@Z
?formats@MExternalDropData@@QEBA?AVMStringArray@@XZ
?frameRate@MPxThreadedDeviceNode@@2VMObject@@A
?frustumValid@MDrawTraversal@@QEBA_NXZ
?fullName@MQtUtil@@SA?AVMString@@PEBVQObject@@@Z
?geometry@MDrawData@@QEAAPEAXXZ
?geometry@MPxHwShaderNode@@UEAA?AVMStatus@@AEBVMDrawRequest@@AEAVM3dView@@HIHPEBIHPEBHPEBMHPEAPEBMH5H5@Z
?get3dView@M3dView@@SA?AVMStatus@@IAEAV1@@Z
?getAlignmentMatrix@MSelectInfo@@QEBA?AVMMatrix@@XZ
?getAnimCurveNodes@MGraphEditorInfo@@QEBA?AVMStatus@@AEAVMObjectArray@@W4AnimCurveQuery@1@@Z
?getAsM3dView@MPx3dModelView@@QEAA?AVMStatus@@AEAVM3dView@@@Z
?getAvailableImages@MPxHardwareShader@@UEAA?AVMStatus@@AEBUShaderContext@1@AEBVMString@@AEAVMStringArray@@@Z
?getAvailableImages@MPxHwShaderNode@@UEAA?AVMStatus@@AEBVMString@@AEAVMStringArray@@@Z
?getCamera@M3dView@@QEAA?AVMStatus@@AEAVMDagPath@@@Z
?getCamera@MPx3dModelView@@QEAA?AVMStatus@@AEAVMDagPath@@@Z
?getCameraHUDName@MPx3dModelView@@UEAA?AVMString@@XZ
?getCameraSet@MPx3dModelView@@QEAA?AVMStatus@@AEAVMObject@@@Z
?getCell@MPxUITableControl@@MEAA_NIIAEAVMString@@@Z
?getCellColor@MPxUITableControl@@MEAA_NIIAEAH00@Z
?getClassName@MPxContext@@UEBAXAEAVMString@@@Z
?getColorIndexAndTable@M3dView@@QEBA?AVMStatus@@IAEAIAEAW4ColorTable@1@@Z
?getColorIndexAndTable@MPx3dModelView@@QEBA?AVMStatus@@IAEAIAEAW4ColorTable@M3dView@@@Z
?getColorSetNames@MPxHwShaderNode@@UEAAHAEAVMStringArray@@@Z
?getConverterManipValue@MPxManipContainer@@QEAA?AVMStatus@@IAEAI@Z
?getConverterManipValue@MPxManipContainer@@QEAA?AVMStatus@@IAEAN0@Z
?getConverterManipValue@MPxManipContainer@@QEAA?AVMStatus@@IAEAN@Z
?getConverterManipValue@MPxManipContainer@@QEAA?AVMStatus@@IAEAVMEulerRotation@@@Z
?getConverterManipValue@MPxManipContainer@@QEAA?AVMStatus@@IAEAVMMatrix@@@Z
?getConverterManipValue@MPxManipContainer@@QEAA?AVMStatus@@IAEAVMPoint@@@Z
?getConverterManipValue@MPxManipContainer@@QEAA?AVMStatus@@IAEAVMTransformationMatrix@@@Z
?getConverterManipValue@MPxManipContainer@@QEAA?AVMStatus@@IAEAVMVector@@@Z
?getConverterPlugValue@MPxManipContainer@@QEAA?AVMStatus@@IAEAN0@Z
?getConverterPlugValue@MPxManipContainer@@QEAA?AVMStatus@@IAEAN@Z
?getConverterPlugValue@MPxManipContainer@@QEAA?AVMStatus@@IAEAVMEulerRotation@@@Z
?getConverterPlugValue@MPxManipContainer@@QEAA?AVMStatus@@IAEAVMMatrix@@@Z
?getConverterPlugValue@MPxManipContainer@@QEAA?AVMStatus@@IAEAVMPoint@@@Z
?getConverterPlugValue@MPxManipContainer@@QEAA?AVMStatus@@IAEAVMVector@@@Z
?getCurrentCameraSetCamera@MPx3dModelView@@QEAA?AVMStatus@@AEAVMString@@@Z
?getCurrentParent@MQtUtil@@SAPEAVQWidget@@XZ
?getDevicesList@MAnimStream@@SA?AVMStatus@@AEAVMStringArray@@AEAVMString@@@Z
?getDiffuse@MMaterial@@QEAA?AVMStatus@@AEAVMColor@@@Z
?getDoubleValue@MPxManipulatorNode@@QEAA?AVMStatus@@H_NAEAN@Z
?getDrawData@MPxSurfaceShapeUI@@QEAAXPEBXAEAVMDrawData@@@Z
?getDrawRequests@MPxSurfaceShapeUI@@UEAAXAEBVMDrawInfo@@_NAEAVMDrawRequestQueue@@@Z
?getEmission@MMaterial@@QEAA?AVMStatus@@AEAVMColor@@@Z
?getFileDialogList@TpluginFileDialogDBase@@SA_NAEAVTpluginFileDialogPtrArray@@@Z
?getFileDialogNames@TpluginFileDialogDBase@@SA_NAEAVTstringArray@@@Z
?getHardwareShaderPtr@MPxHardwareShader@@SAPEAV1@AEAVMObject@@@Z
?getHasTransparency@MMaterial@@QEAA?AVMStatus@@AEA_N@Z
?getHwShaderNode@MMaterial@@QEAAPEAVMPxHwShaderNode@@PEAVMStatus@@@Z
?getHwShaderNodePtr@MPxHwShaderNode@@SAPEAV1@AEAVMObject@@@Z
?getImage@MPxContext@@QEBA?AVMStatus@@AEAVMString@@W4ImageIndex@1@@Z
?getImage@MPxSelectionContext@@QEBA?AVMStatus@@AEAVMString@@W4ImageIndex@MPxContext@@@Z
?getInstancePtr@MPxManipulatorNode@@QEAAPEAXXZ
?getLabel@MPxUITableControl@@MEAAXW4MLabelType@1@IAEAVMString@@@Z
?getLayoutChildren@MQtUtil@@SA?AV?$QList@PEAVQObject@@@@PEBVQWidget@@@Z
?getLightCount@M3dView@@QEAA?AVMStatus@@AEAI_N@Z
?getLightIndex@M3dView@@QEAA?AVMStatus@@IAEAI@Z
?getLightPath@M3dView@@QEAA?AVMStatus@@IAEAVMDagPath@@@Z
?getLightingMode@M3dView@@QEAA?AVMStatus@@AEAW4LightingMode@1@@Z
?getLocalRay@MSelectInfo@@QEBAXAEAVMPoint@@AEAVMVector@@@Z
?getM3dViewFromModelEditor@M3dView@@SA?AVMStatus@@AEBVMString@@AEAV1@@Z
?getM3dViewFromModelPanel@M3dView@@SA?AVMStatus@@AEBVMString@@AEAV1@@Z
?getMarqueeSelection@MPxTexContext@@SA_NNNNNAEBVMSelectionMask@@_N1AEAVMSelectionList@@@Z
?getMayaObj@MPyM3dView_Type@@SAPEAVM3dView@@PEAU_object@@@Z
?getMayaObj@MPyMDrawData_Type@@SAPEAVMDrawData@@PEAU_object@@@Z
?getMayaObj@MPyMDrawInfo_Type@@SAPEAVMDrawInfo@@PEAU_object@@@Z
?getMayaObj@MPyMDrawRequest_Type@@SAPEAVMDrawRequest@@PEAU_object@@@Z
?getMayaObj@MPyMFnCircleSweepManip_Type@@SAPEAVMFnCircleSweepManip@@PEAU_object@@@Z
?getMayaObj@MPyMFnCurveSegmentManip_Type@@SAPEAVMFnCurveSegmentManip@@PEAU_object@@@Z
?getMayaObj@MPyMFnDirectionManip_Type@@SAPEAVMFnDirectionManip@@PEAU_object@@@Z
?getMayaObj@MPyMFnDiscManip_Type@@SAPEAVMFnDiscManip@@PEAU_object@@@Z
?getMayaObj@MPyMFnDistanceManip_Type@@SAPEAVMFnDistanceManip@@PEAU_object@@@Z
?getMayaObj@MPyMFnFreePointTriadManip_Type@@SAPEAVMFnFreePointTriadManip@@PEAU_object@@@Z
?getMayaObj@MPyMFnManip3D_Type@@SAPEAVMFnManip3D@@PEAU_object@@@Z
?getMayaObj@MPyMFnPointOnCurveManip_Type@@SAPEAVMFnPointOnCurveManip@@PEAU_object@@@Z
?getMayaObj@MPyMFnPointOnSurfaceManip_Type@@SAPEAVMFnPointOnSurfaceManip@@PEAU_object@@@Z
?getMayaObj@MPyMFnRotateManip_Type@@SAPEAVMFnRotateManip@@PEAU_object@@@Z
?getMayaObj@MPyMFnScaleManip_Type@@SAPEAVMFnScaleManip@@PEAU_object@@@Z
?getMayaObj@MPyMFnStateManip_Type@@SAPEAVMFnStateManip@@PEAU_object@@@Z
?getMayaObj@MPyMFnToggleManip_Type@@SAPEAVMFnToggleManip@@PEAU_object@@@Z
?getMayaObj@MPyMHWShaderSwatchGenerator_Type@@SAPEAVMHWShaderSwatchGenerator@@PEAU_object@@@Z
?getMayaObj@MPyMMaterialArray_Type@@SAPEAVMMaterialArray@@PEAU_object@@@Z
?getMayaObj@MPyMMaterial_Type@@SAPEAVMMaterial@@PEAU_object@@@Z
?getMayaObj@MPyMPxHwShaderNode_RenderParameters_Type@@SAPEAVMPxHwShaderNode_RenderParameters@@PEAU_object@@@Z
?getMayaObj@MPyMPxHwShaderNode_Type@@SAPEAVMPxHwShaderNode@@PEAU_object@@@Z
?getMayaObj@MPyMPxLocatorNode_Type@@SAPEAVMPxLocatorNode@@PEAU_object@@@Z
?getMayaObj@MPyMPxSurfaceShapeUI_Type@@SAPEAVMPxSurfaceShapeUI@@PEAU_object@@@Z
?getMayaObj@MPyMSelectInfo_Type@@SAPEAVMSelectInfo@@PEAU_object@@@Z
?getMayaObj@MPyMTextureEditorDrawInfo_Type@@SAPEAVMTextureEditorDrawInfo@@PEAU_object@@@Z
?getMessage@MPxMidiInputDevice@@UEAAPEADQEBDPEAD@Z
?getModelView@MPx3dModelView@@SAPEAV1@AEBVMString@@PEAVMStatus@@@Z
?getObjectsToView@MPx3dModelView@@QEBA?AVMStatus@@AEAVMSelectionList@@@Z
?getOrientation@MFnScaleManip@@QEBA?AVMEulerRotation@@PEAVMStatus@@@Z
?getOrientationMode@MFnScaleManip@@QEBA?AW4ScaleOrientationMode@1@PEAVMStatus@@@Z
?getParameters@MFnPointOnSurfaceManip@@QEAA?AVMStatus@@AEAN0@Z
?getParent@MQtUtil@@SAPEAVQObject@@PEBV2@@Z
?getPointValue@MPxManipulatorNode@@QEAA?AVMStatus@@H_NAEAVMPoint@@@Z
?getPosition@MEvent@@QEBA?AVMStatus@@AEAF0@Z
?getPrototype@MDrawInfo@@QEBA?AVMDrawRequest@@AEBVMPxSurfaceShapeUI@@@Z
?getRendererName@M3dView@@QEBA?AW4RendererName@1@PEAVMStatus@@@Z
?getRendererString@M3dView@@QEBA?AVMStatus@@AEAVMString@@@Z
?getScreenPosition@M3dView@@QEBAXAEAH0PEAVMStatus@@@Z
?getShininess@MMaterial@@QEAA?AVMStatus@@AEAM@Z
?getSpecular@MMaterial@@QEAA?AVMStatus@@AEAVMColor@@@Z
?getSwatchBackgroundColor@MHWShaderSwatchGenerator@@SAXAEAM000@Z
?getTexCoordSetNames@MPxHwShaderNode@@UEAAHAEAVMStringArray@@@Z
?getTextureTransformation@MMaterial@@QEAA?AVMStatus@@AEAM0000@Z
?getTextureTransformation@MMaterial@@QEAA?AVMStatus@@AEBVMDrawData@@AEAM11111@Z
?getTextureTransformation@MMaterial@@QEAA?AVMStatus@@AEBVMDrawData@@AEAVMMatrix@@@Z
?getVectorValue@MPxManipulatorNode@@QEAA?AVMStatus@@H_NAEAVMVector@@@Z
?getViewportBounds@MGraphEditorInfo@@QEBA?AVMStatus@@AEAN000@Z
?getViewportBounds@MGraphEditorInfo@@QEBA?AVMStatus@@AEAVMDoubleArray@@@Z
?getWindowPosition@MEvent@@QEBA?AVMStatus@@AEAF0@Z
?glActiveName@MPxManipulatorNode@@QEAA?AVMStatus@@AEAI@Z
?glBind@MPxHwShaderNode@@UEAA?AVMStatus@@AEBVMDagPath@@@Z
?glBuffer@TapiCastUI@@SAAEAVTglBuffer@@AEAVMPxGlBuffer@@@Z
?glFirstHandle@MPxManipulatorNode@@QEAA?AVMStatus@@AEAI@Z
?glGeometry@MPxHwShaderNode@@UEAA?AVMStatus@@AEBVMDagPath@@HIHPEBIHPEBHPEBMHPEAPEBMH4H4@Z
?glUnbind@MPxHwShaderNode@@UEAA?AVMStatus@@AEBVMDagPath@@@Z
?globalSize@MFnManip3D@@SAMXZ
?handCursor@MCursor@@2V1@B
?handleDraw@MPx3dModelView@@QEAAXPEAXAEAVMDrawRequest@@@Z
?handleSize@MFnManip3D@@SAMXZ
?hasChildren@MDeviceChannel@@QEBA_NXZ
?hasColor@MExternalDropData@@QEBA_NXZ
?hasFormat@MExternalDropData@@QEBA_NAEBVMString@@@Z
?hasHtml@MExternalDropData@@QEBA_NXZ
?hasImage@MExternalDropData@@QEBA_NXZ
?hasStereoBufferSupport@MPx3dModelView@@QEBA_NXZ
?hasText@MExternalDropData@@QEBA_NXZ
?hasTransparency@MPxHwShaderNode@@UEAA_NXZ
?hasUrls@MExternalDropData@@QEBA_NXZ
?hasValidNavigator@TpluginNavigator@@QEAA_NXZ
?helpStateHasChanged@MPxContext@@UEAA?AVMStatus@@AEAVMEvent@@@Z
?helpStateHasChanged@MPxSelectionContext@@UEAA?AVMStatus@@AEAVMEvent@@@Z
?highestPriority@MSelectInfo@@QEBAHXZ
?hiliteColor@M3dView@@SA?AVMColor@@PEAVMStatus@@@Z
?history@MPxFileDialog@@QEBA?AVQStringList@@XZ
?html@MExternalDropData@@QEBA?AVMString@@XZ
?iconProvider@MPxFileDialog@@QEBAPEAVQFileIconProvider@@XZ
?ignoreEntry@MPxContext@@KA_NAEBVMIntArray@@I@Z
?image@MExternalDropData@@QEBA?AVMImage@@XZ
?image@MPxContext@@QEBA?AVMString@@W4ImageIndex@1@PEAVMStatus@@@Z
?image@MPxSelectionContext@@QEBA?AVMString@@W4ImageIndex@MPxContext@@PEAVMStatus@@@Z
?inSelect@MDrawInfo@@QEBA_NXZ
?inUserInteraction@MDrawInfo@@QEBA_NXZ
?includeInvisible@MPx3dModelView@@QEBA_NPEAX@Z
?inclusiveMatrix@MDrawInfo@@QEBA?BVMMatrix@@XZ
?init@MPxFileDialog@@UEAAXXZ
?initNames@M3dView@@QEAAXXZ
?initialSetup@MPxClientDeviceNode@@CAXXZ
?initialSetup@MPxHardwareShader@@CAXXZ
?initialSetup@MPxHwShaderNode@@CAXXZ
?initialSetup@MPxLocatorNode@@CAXXZ
?initialSetup@MPxManipulatorNode@@CAXXZ
?initialSetup@MPxThreadedDeviceNode@@CAXXZ
?initialize@MHWShaderSwatchGenerator@@SAAEBVMString@@XZ
?initialize@MPxManipContainer@@SA?AVMStatus@@XZ
?insert@MMaterialArray@@QEAA?AVMStatus@@AEBVMMaterial@@I@Z
?instObjGroups@MPxLocatorNode@@2VMObject@@A
?intermediateObject@MPxLocatorNode@@2VMObject@@A
?inverseMatrix@MPxLocatorNode@@2VMObject@@A
?invertTexCoords@MPxHwShaderNode@@UEBA_NXZ
?isAcceptOpenSupported@MPxFileDialog@@UEAA_NXZ
?isAcceptSaveSupported@MPxFileDialog@@UEAA_NXZ
?isBackfaceCulling@MPx3dModelView@@QEBA_NPEAVMStatus@@@Z
?isBackgroundFogEnabled@MPx3dModelView@@QEBA_NPEAVMStatus@@@Z
?isBackgroundGradient@M3dView@@SA_NPEAVMStatus@@@Z
?isBackgroundGradient@MPx3dModelView@@QEAA_NPEAVMStatus@@@Z
?isBounded@MPxLocatorNode@@UEBA_NXZ
?isCancelled@MProgressWindow@@SA_NPEAVMStatus@@@Z
?isDirty@MToolsInfo@@SA_NXZ
?isDone@MPxThreadedDeviceNode@@QEAA_NXZ
?isDrawAxesOn@MFnFreePointTriadManip@@QEBA_NPEAVMStatus@@@Z
?isDrawCurveOn@MFnPointOnCurveManip@@QEBA_NPEAVMStatus@@@Z
?isDrawLineOn@MFnDistanceManip@@QEBA_NPEAVMStatus@@@Z
?isDrawStartOn@MFnDistanceManip@@QEBA_NPEAVMStatus@@@Z
?isDrawSurfaceOn@MFnPointOnSurfaceManip@@QEBA_NPEAVMStatus@@@Z
?isEmpty@MDrawRequestQueue@@QEBA_NXZ
?isFileSuppored@MPxFileDialog@@UEAA_NAEBVQString@@@Z
?isFogEnabled@MPx3dModelView@@QEBA_NPEAVMStatus@@@Z
?isInternalQueue@MDrawRequestQueue@@AEBA_NXZ
?isInterruptable@MProgressWindow@@SA_NPEAVMStatus@@@Z
?isKeyframeAllOn@MFnFreePointTriadManip@@QEBA_NPEAVMStatus@@@Z
?isLightVisible@M3dView@@QEAA?AVMStatus@@IAEA_N@Z
?isLive@MPxThreadedDeviceNode@@QEAA_NXZ
?isManipActive@MPxManipContainer@@QEAA_NAEBW4Type@MFn@@AEAVMObject@@@Z
?isModifierControl@MEvent@@QEBA_NPEAVMStatus@@@Z
?isModifierKeyRelease@MEvent@@QEBA_NPEAVMStatus@@@Z
?isModifierLeftMouseButton@MEvent@@QEBA_NPEAVMStatus@@@Z
?isModifierMiddleMouseButton@MEvent@@QEBA_NPEAVMStatus@@@Z
?isModifierNone@MEvent@@QEBA_NPEAVMStatus@@@Z
?isModifierShift@MEvent@@QEBA_NPEAVMStatus@@@Z
?isNameFilterDetailsVisible@MPxFileDialog@@QEBA_NXZ
?isNull@MDeviceState@@QEAA_NXZ
?isOkToUnload@TpluginNavigator@@UEAA_NXZ
?isOptimizePlaybackOn@MFnManip3D@@QEBA_NPEAVMStatus@@@Z
?isRay@MSelectInfo@@QEBA_NXZ
?isReadOnly@MPxFileDialog@@QEBA_NXZ
?isSelected@MPxUITableControl@@QEAA_NIIPEAVMStatus@@@Z
?isSelecting@MPxSelectionContext@@IEAA_NXZ
?isShadeActiveOnly@M3dView@@QEBA_NPEAVMStatus@@@Z
?isShadeActiveOnly@MPx3dModelView@@QEBA_NPEAVMStatus@@@Z
?isSimple@MManipData@@QEBA_NXZ
?isSnapModeOn@MFnFreePointTriadManip@@QEBA_NPEAVMStatus@@@Z
?isSnapModeOn@MFnRotateManip@@QEBA_NXZ
?isSnapModeOn@MFnScaleManip@@QEBA_NXZ
?isTemplated@MPxLocatorNode@@2VMObject@@A
?isTextureDisplayEnabled@MPx3dModelView@@QEBA_NPEAVMStatus@@@Z
?isTransparent@MDrawRequest@@QEBA_NXZ
?isTransparent@MPxLocatorNode@@UEBA_NXZ
?isTwoSidedLighting@MPx3dModelView@@QEBA_NPEAVMStatus@@@Z
?isUndoable@MPxPolyTweakUVInteractiveCommand@@UEBA_NXZ
?isUnsupportedViewportMode@MGraphEditorInfo@@AEBA_NXZ
?isVisible@M3dView@@QEAA_NPEAVMStatus@@@Z
?isVisible@MFnManip3D@@QEBA_NPEAVMStatus@@@Z
?isVisible@MPx3dModelView@@QEBA_NPEAVMStatus@@@Z
?isWireframeOnShaded@MPx3dModelView@@QEBA_NPEAVMStatus@@@Z
?isXrayEnabled@MPx3dModelView@@QEBA_NPEAVMStatus@@@Z
?itemDelegate@MPxFileDialog@@QEBAPEAVQAbstractItemDelegate@@XZ
?itemHasStatus@MDrawTraversal@@QEBA_NII@Z
?itemPath@MDrawTraversal@@QEBA?AVMStatus@@IAEAVMDagPath@@@Z
?keyboardModifiers@MExternalDropData@@QEBAHXZ
?labelBackgroundColor@MPxManipulatorNode@@QEAAFXZ
?labelColor@MPxManipulatorNode@@QEAAFXZ
?labelString@MPxUITableControl@@MEAA?AVMString@@W4MLabelType@1@I@Z
?labelText@MPxFileDialog@@QEBA?AVQString@@W4DialogLabel@QFileDialog@@@Z
?lastDragPoint@MPxSelectionContext@@IEAA?AVMPoint@@XZ
?leadColor@M3dView@@SA?AVMColor@@PEAVMStatus@@@Z
?leafLevelCulling@MDrawTraversal@@QEBA_NXZ
?length@MFnToggleManip@@QEBANPEAVMStatus@@@Z
?length@MMaterialArray@@QEBAIXZ
?lengthIndex@MFnToggleManip@@QEBAIPEAVMStatus@@@Z
?lightingMode@MPx3dModelView@@QEBA?AW4LightingMode@1@PEAVMStatus@@@Z
?lineColor@MPxManipulatorNode@@QEAAFXZ
?lineSize@MFnManip3D@@SAMXZ
?live@MPxThreadedDeviceNode@@2VMObject@@A
?liveColor@M3dView@@SA?AVMColor@@PEAVMStatus@@@Z
?loadName@M3dView@@QEAAXI@Z
?localPosition@MPxLocatorNode@@2VMObject@@A
?localPositionX@MPxLocatorNode@@2VMObject@@A
?localPositionY@MPxLocatorNode@@2VMObject@@A
?localPositionZ@MPxLocatorNode@@2VMObject@@A
?localScale@MPxLocatorNode@@2VMObject@@A
?localScaleX@MPxLocatorNode@@2VMObject@@A
?localScaleY@MPxLocatorNode@@2VMObject@@A
?localScaleZ@MPxLocatorNode@@2VMObject@@A
?longName@MDeviceChannel@@QEBA?AVMString@@XZ
?mainColor@MPxManipulatorNode@@QEAAFXZ
?mainWindow@MQtUtil@@SAPEAVQWidget@@XZ
?makeControl@THcontrolCommand@@UEAA_NXZ
?makeModelView@MPxModelEditorCommand@@UEAAPEAVMPx3dModelView@@PEAVMStatus@@@Z
?makeObj@MPxContextCommand@@UEAAPEAVMPxContext@@XZ
?makeSharedContextCurrent@M3dView@@QEAA?AVMStatus@@XZ
?manip3D@TapiCastUI@@SAPEAVTmanip3D@@AEBVMObject@@@Z
?manipScale@MFnManip3D@@QEBAMPEAVMStatus@@@Z
?manipToPlugConversion@MPxManipContainer@@UEAA?AVMManipData@@I@Z
?map@TapiEnumUI@@SA?AV?$QFlags@W4KeyboardModifier@Qt@@@@W4KeyboardModifiers@MExternalDropData@@@Z
?map@TapiEnumUI@@SA?AV?$QFlags@W4MouseButton@Qt@@@@W4MouseButtons@MExternalDropData@@@Z
?map@TapiEnumUI@@SA?AW4DisplayObjects@M3dView@@_K@Z
?map@TapiEnumUI@@SA?AW4DisplayStatus@M3dView@@G@Z
?map@TapiEnumUI@@SA?AW4DisplayStyle@M3dView@@W4TdisplayAppearance@@@Z
?map@TapiEnumUI@@SA?AW4FogMode@MPx3dModelView@@W4TfogMode@TglContext@@@Z
?map@TapiEnumUI@@SA?AW4FogSource@MPx3dModelView@@W4TfogSource@TglContext@@@Z
?map@TapiEnumUI@@SA?AW4KeyboardModifiers@MExternalDropData@@V?$QFlags@W4KeyboardModifier@Qt@@@@@Z
?map@TapiEnumUI@@SA?AW4LightingMode@M3dView@@W4TlightingMode@TinteractiveView@@@Z
?map@TapiEnumUI@@SA?AW4MExternalDropStatus@MExternalDropCallback@@W4TexternalDropStatus@TexternalDropCallback@@@Z
?map@TapiEnumUI@@SA?AW4MouseButtons@MExternalDropData@@V?$QFlags@W4MouseButton@Qt@@@@@Z
?map@TapiEnumUI@@SA?AW4TdisplayAppearance@@W4DisplayStyle@M3dView@@@Z
?map@TapiEnumUI@@SA?AW4TextPosition@M3dView@@W4TtextPos@T3dPort@@@Z
?map@TapiEnumUI@@SA?AW4TexternalDropStatus@TexternalDropCallback@@W4MExternalDropStatus@MExternalDropCallback@@@Z
?map@TapiEnumUI@@SA?AW4TfogMode@TglContext@@W4FogMode@MPx3dModelView@@@Z
?map@TapiEnumUI@@SA?AW4TfogSource@TglContext@@W4FogSource@MPx3dModelView@@@Z
?map@TapiEnumUI@@SA?AW4TlightingMode@TinteractiveView@@W4LightingMode@M3dView@@@Z
?map@TapiEnumUI@@SA?AW4TtextPos@T3dPort@@W4TextPosition@M3dView@@@Z
?map@TapiEnumUI@@SAGW4DisplayStatus@M3dView@@@Z
?map@TapiEnumUI@@SA_KW4DisplayObjects@M3dView@@@Z
?material@MDrawRequest@@QEBA?AVMMaterial@@XZ
?material@MPxSurfaceShapeUI@@QEBA?AVMMaterial@@AEAVMDagPath@@@Z
?material@TapiCastUI@@SA?AVMMaterial@@PEAVTmaterial@@@Z
?material@TapiCastUI@@SAPEAVTmaterial@@AEAVMMaterial@@@Z
?materialArray@TapiCastUI@@SA?AVMMaterialArray@@PEAVTvoidPtrArray@@@Z
?materialArray@TapiCastUI@@SAPEAVTvoidPtrArray@@AEAVMMaterialArray@@@Z
?materialIsTextured@MMaterial@@QEBA_NXZ
?materials@MPxSurfaceShapeUI@@QEBAXAEAVMDagPath@@AEAVMObjectArray@@AEAVMMaterialArray@@PEAV3@@Z
?matrix@MDrawRequest@@QEBAAEBVMMatrix@@XZ
?matrix@MPxLocatorNode@@2VMObject@@A
?maxAxis@MDeviceState@@QEBAHXZ
?maxStates@MFnStateManip@@QEBAIPEAVMStatus@@@Z
?modelView@MPxModelEditorCommand@@QEBAPEAVMPx3dModelView@@PEAVMStatus@@@Z
?modelViewMatrix@M3dView@@QEBA?AVMStatus@@AEAVMMatrix@@@Z
?modifiers@MEvent@@QEBA?AW4ModifierType@1@PEAVMStatus@@@Z
?mouseButton@MEvent@@QEBA?AW4MouseButtonType@1@PEAVMStatus@@@Z
?mouseButtons@MExternalDropData@@QEBAHXZ
?mouseDown@MPxManipulatorNode@@QEAA?AVMStatus@@AEAF0@Z
?mousePosition@MPxManipulatorNode@@QEAA?AVMStatus@@AEAF0@Z
?mouseRay@MPxManipulatorNode@@QEBA?AVMStatus@@AEAVMPoint@@AEAVMVector@@@Z
?mouseRayWorld@MPxManipulatorNode@@QEBA?AVMStatus@@AEAVMPoint@@AEAVMVector@@@Z
?mouseUp@MPxManipulatorNode@@QEAA?AVMStatus@@AEAF0@Z
?multiPath@MDrawInfo@@QEBA?BVMDagPath@@XZ
?multiPath@MDrawRequest@@QEBA?BVMDagPath@@XZ
?multipleDrawEnabled@M3dView@@QEBA_NXZ
?multipleDrawEnabled@MPx3dModelView@@QEBA_NXZ
?multipleDrawPassCount@M3dView@@QEAAIXZ
?multipleDrawPassCount@MPx3dModelView@@UEAAIXZ
?name@MDeviceChannel@@QEBA?AVMString@@XZ
?name@MFnToolContext@@QEBA?AVMString@@PEAVMStatus@@@Z
?name@MGraphEditorInfo@@QEBA?AVMString@@XZ
?name@MObjectListFilter@@QEBAAEBVMString@@XZ
?name@MPx3dModelView@@QEBA?AVMString@@PEAVMStatus@@@Z
?name@MPxFileDialog@@QEBA?AVMString@@XZ
?name@TpluginNavigator@@UEBAAEBVTstring@@XZ
?nameAxes@MPxMidiInputDevice@@UEAAXXZ
?nameButtons@MPxMidiInputDevice@@UEAAXXZ
?nameFilters@MPxFileDialog@@QEBA?AVQStringList@@XZ
?nativeWindow@MQtUtil@@SAPEAUHWND__@@PEBVQWidget@@@Z
?navigator@TpluginNavigator@@QEAAPEAVTHnavigator@@XZ
?navigatorList@TpluginNavigatorDBase@@SA_NAEAVTpluginNavigatorPtrArray@@@Z
?navigatorsByName@TpluginNavigatorDBase@@0PEAVTpluginNavigatorDBaseNameTable@@EA
?newManipulator@MPxManipContainer@@SAPEAV1@AEBVMString@@AEAVMObject@@PEAVMStatus@@@Z
?newManipulator@MPxManipulatorNode@@SAPEAV1@AEBVMString@@AEAVMObject@@PEAVMStatus@@@Z
?newToolCommand@MPxContext@@MEAAPEAVMPxToolCommand@@XZ
?newToolCommand@MPxSelectionContext@@MEAAPEAVMPxToolCommand@@XZ
?newToolCommand@MPxTexContext@@UEAAPEAVMPxToolCommand@@XZ
?nodeBoundingBox@MPxLocatorNode@@2VMObject@@A
?nodeBoundingBoxMax@MPxLocatorNode@@2VMObject@@A
?nodeBoundingBoxMaxX@MPxLocatorNode@@2VMObject@@A
?nodeBoundingBoxMaxY@MPxLocatorNode@@2VMObject@@A
?nodeBoundingBoxMaxZ@MPxLocatorNode@@2VMObject@@A
?nodeBoundingBoxMin@MPxLocatorNode@@2VMObject@@A
?nodeBoundingBoxMinX@MPxLocatorNode@@2VMObject@@A
?nodeBoundingBoxMinY@MPxLocatorNode@@2VMObject@@A
?nodeBoundingBoxMinZ@MPxLocatorNode@@2VMObject@@A
?nodeBoundingBoxSize@MPxLocatorNode@@2VMObject@@A
?nodeBoundingBoxSizeX@MPxLocatorNode@@2VMObject@@A
?nodeBoundingBoxSizeY@MPxLocatorNode@@2VMObject@@A
?nodeBoundingBoxSizeZ@MPxLocatorNode@@2VMObject@@A
?normalsPerVertex@MPxHwShaderNode@@UEAAHXZ
?numActiveColors@M3dView@@QEAAIPEAVMStatus@@@Z
?numActiveColors@MPx3dModelView@@QEAAIPEAVMStatus@@@Z
?numChildren@MDeviceChannel@@QEBAHXZ
?numDormantColors@M3dView@@QEAAIPEAVMStatus@@@Z
?numDormantColors@MPx3dModelView@@QEAAIPEAVMStatus@@@Z
?numUserDefinedColors@M3dView@@QEAAIPEAVMStatus@@@Z
?numUserDefinedColors@MPx3dModelView@@QEAAIPEAVMStatus@@@Z
?numberOf3dViews@M3dView@@SAIXZ
?numberOfColumns@MPxUITableControl@@QEBAIPEAVMStatus@@@Z
?numberOfItems@MDrawTraversal@@QEBAIXZ
?numberOfRows@MPxUITableControl@@QEAAIPEAVMStatus@@@Z
?objectColor@MPxLocatorNode@@2VMObject@@A
?objectDisplay@M3dView@@QEAAIPEAVMStatus@@@Z
?objectDisplay@MPx3dModelView@@QEAA_NW4DisplayObjects@M3dView@@PEAVMStatus@@@Z
?objectDisplayStatus@MDrawInfo@@QEBA_NW4DisplayObjects@M3dView@@@Z
?objectGroupColor@MPxLocatorNode@@2VMObject@@A
?objectGroupId@MPxLocatorNode@@2VMObject@@A
?objectGroups@MPxLocatorNode@@2VMObject@@A
?objectGrpCompList@MPxLocatorNode@@2VMObject@@A
?objectListFilterName@M3dView@@QEBA?AVMString@@PEAVMStatus@@@Z
?okForMultipleDraw@MPx3dModelView@@UEAA_NAEBVMDagPath@@@Z
?openDevice@MPxMidiInputDevice@@UEAA?AVMStatus@@XZ
?openFbo@MPxGlBuffer@@QEAA?AVMStatus@@FFAEAVM3dView@@@Z
?options@MPxFileDialog@@QEBA?AV?$QFlags@W4Option@QFileDialog@@@@XZ
?outColor@MPxHardwareShader@@2VMObject@@A
?outColor@MPxHwShaderNode@@2VMObject@@A
?outColorB@MPxHardwareShader@@2VMObject@@A
?outColorB@MPxHwShaderNode@@2VMObject@@A
?outColorG@MPxHardwareShader@@2VMObject@@A
?outColorG@MPxHwShaderNode@@2VMObject@@A
?outColorR@MPxHardwareShader@@2VMObject@@A
?outColorR@MPxHwShaderNode@@2VMObject@@A
?outGlowColor@MPxHwShaderNode@@2VMObject@@A
?outGlowColorB@MPxHwShaderNode@@2VMObject@@A
?outGlowColorG@MPxHwShaderNode@@2VMObject@@A
?outGlowColorR@MPxHwShaderNode@@2VMObject@@A
?outMatteOpacity@MPxHwShaderNode@@2VMObject@@A
?outMatteOpacityB@MPxHwShaderNode@@2VMObject@@A
?outMatteOpacityG@MPxHwShaderNode@@2VMObject@@A
?outMatteOpacityR@MPxHwShaderNode@@2VMObject@@A
?outTransparency@MPxHwShaderNode@@2VMObject@@A
?outTransparencyB@MPxHwShaderNode@@2VMObject@@A
?outTransparencyG@MPxHwShaderNode@@2VMObject@@A
?outTransparencyR@MPxHwShaderNode@@2VMObject@@A
?output@MPxThreadedDeviceNode@@2VMObject@@A
?paramIndex@MFnPointOnCurveManip@@QEBAIPEAVMStatus@@@Z
?paramIndex@MFnPointOnSurfaceManip@@QEBAIPEAVMStatus@@@Z
?parameter@MFnPointOnCurveManip@@QEBANPEAVMStatus@@@Z
?parent@MDeviceChannel@@QEBA?AV1@XZ
?parentInverseMatrix@MPxLocatorNode@@2VMObject@@A
?parentMatrix@MPxLocatorNode@@2VMObject@@A
?parser@MPxContextCommand@@IEBA?AVMArgParser@@PEAVMStatus@@@Z
?parser@MPxControlCommand@@IEBA?AVMArgParser@@PEAVMStatus@@@Z
?parser@MPxModelEditorCommand@@IEBA?AVMArgParser@@PEAVMStatus@@@Z
?pencilCursor@MCursor@@2V1@B
?playblastPortHeight@M3dView@@QEAAHPEAVMStatus@@@Z
?playblastPortWidth@M3dView@@QEAAHPEAVMStatus@@@Z
?plugToManipConversion@MPxManipContainer@@UEAA?AVMManipData@@I@Z
?pluginObjectDisplay@M3dView@@QEAA_NAEBVMString@@PEAVMStatus@@@Z
?pluginObjectDisplayStatus@MDrawInfo@@QEBA_NAEBVMString@@@Z
?pointIndex@MFnFreePointTriadManip@@QEBAIPEAVMStatus@@@Z
?popName@M3dView@@QEAAXXZ
?popThreadData@MPxThreadedDeviceNode@@QEAA?AVMStatus@@AEAVMCharBuffer@@@Z
?popViewport@M3dView@@QEAA?AVMStatus@@XZ
?populateRequirements@MPxHardwareShader@@UEAA?AVMStatus@@AEBUShaderContext@1@AEAVMGeometryRequirements@@@Z
?portHeight@M3dView@@QEAAHPEAVMStatus@@@Z
?portHeight@MPx3dModelView@@QEAAHPEAVMStatus@@@Z
?portSize@MPxTexContext@@QEBAXAEAN0@Z
?portToView@MPxTexContext@@QEBAXFFAEAN0@Z
?portWidth@M3dView@@QEAAHPEAVMStatus@@@Z
?portWidth@MPx3dModelView@@QEAAHPEAVMStatus@@@Z
?positionIndex@MFnStateManip@@QEBAIPEAVMStatus@@@Z
?postMultipleDraw@MPx3dModelView@@UEAAXXZ
?postMultipleDrawPass@MPx3dModelView@@UEAAXI@Z
?preDrawUI@MPxManipContainer@@UEAAXAEBVM3dView@@@Z
?preDrawUI@MPxManipulatorNode@@UEAAXAEBVM3dView@@@Z
?preMultipleDraw@MPx3dModelView@@UEAAXXZ
?preMultipleDrawPass@MPx3dModelView@@UEAAXI@Z
?prevColor@MPxManipulatorNode@@QEAAFXZ
?processDraw@MPx3dModelView@@UEAAXAEAVMDrawRequest@@@Z
?processNumericalInput@MPxContext@@UEAA_NAEBVMDoubleArray@@AEBVMIntArray@@_N@Z
?processNumericalInput@MPxSelectionContext@@UEAA_NAEBVMDoubleArray@@AEBVMIntArray@@_N@Z
?profile@MPxHardwareShader@@UEAAAEBVMRenderProfile@@XZ
?progress@MProgressWindow@@SAHPEAVMStatus@@@Z
?progressMax@MProgressWindow@@SAHPEAVMStatus@@@Z
?progressMin@MProgressWindow@@SAHPEAVMStatus@@@Z
?progressStatus@MProgressWindow@@SA?AVMString@@PEAVMStatus@@@Z
?projectionMatrix@M3dView@@QEBA?AVMStatus@@AEAVMMatrix@@@Z
?projectionMatrix@MDrawInfo@@QEBA?BVMMatrix@@XZ
?provideVertexIDs@MPxHwShaderNode@@UEAA_NXZ
?ptr@MCharBuffer@@QEAAPEADXZ
?pushName@M3dView@@QEAAXI@Z
?pushThreadData@MPxThreadedDeviceNode@@QEAA?AVMStatus@@AEAVMCharBuffer@@@Z
?pushViewport@M3dView@@QEAA?AVMStatus@@IIII@Z
?qControl@THcontrolCommand@@UEAAPEAVQWidget@@XZ
?readBufferTo2dTexture@M3dView@@QEAA?AVMStatus@@GGII@Z
?readColorBuffer@M3dView@@QEAA?AVMStatus@@AEAVMImage@@_N@Z
?readDepthMap@M3dView@@QEAA?AVMStatus@@GGIIPEAEW4DepthBufferFormat@1@@Z
?recreateInstance@THcontrolCommand@@UEAA_NXZ
?redrawCells@MPxUITableControl@@QEAA?AVMStatus@@XZ
?redrawLabels@MPxUITableControl@@QEAA?AVMStatus@@W4MLabelType@1@@Z
?referenceLayerColor@M3dView@@SA?AVMColor@@PEAVMStatus@@@Z
?refresh@M3dView@@QEAA?AVMStatus@@AEAVMPxGlBuffer@@@Z
?refresh@M3dView@@QEAA?AVMStatus@@AEAVMPxGlBuffer@@_N@Z
?refresh@M3dView@@QEAA?AVMStatus@@AEAVMPxGlBuffer@@_NAEBVMMatrix@@@Z
?refresh@M3dView@@QEAA?AVMStatus@@_N00@Z
?refresh@M3dView@@QEAA?AVMStatus@@_N0@Z
?refresh@MPx3dModelView@@QEAA?AVMStatus@@_N0@Z
?registerFileDialog@MPxFileDialog@@SA?AVMStatus@@AEAVMFnPlugin@@AEBVMString@@P6APEAXXZ@Z
?registerFilter@MObjectListFilter@@SA?AVMStatus@@AEBV1@@Z
?registerForMouseMove@MPxManipulatorNode@@QEAA?AVMStatus@@XZ
?registerUIType@MQtUtil@@SA_NAEBVMString@@P6APEAVQWidget@@PEAV3@AEBVQString@@@Z0@Z
?releaseDataStorage@MPxThreadedDeviceNode@@QEAA?AVMStatus@@AEAVMCharBuffer@@@Z
?releaseMarquee@MPxContext@@IEAA?AVMStatus@@AEAVMEvent@@AEAF111@Z
?remove@MDrawRequestQueue@@QEAA?AVMDrawRequest@@XZ
?remove@MMaterialArray@@QEAA?AVMStatus@@I@Z
?remove@TpluginFileDialogDBase@@SA_NPEAVTpluginObject@@@Z
?remove@TpluginNavigatorDBase@@SA_NPEAVTpluginObject@@@Z
?removeCallback@MExternalDropCallback@@SA?AVMStatus@@PEAV1@@Z
?removeFromManipConnectTable@MPxManipContainer@@SA?AVMStatus@@AEAVMTypeId@@@Z
?removeFromSelection@MPxUITableControl@@QEAA?AVMStatus@@II@Z
?removingCamera@MPx3dModelView@@UEAAXAEAVMDagPath@@@Z
?render@MPxHardwareShader@@UEAA?AVMStatus@@AEAVMGeometryList@@@Z
?renderImage@MPxHardwareShader@@UEAA?AVMStatus@@AEBUShaderContext@1@AEAVMUIDrawManager@MHWRender@@AEBVMString@@QEAY01$$CBMAEBURenderParameters@1@AEAH5@Z
?renderImage@MPxHardwareShader@@UEAA?AVMStatus@@AEBUShaderContext@1@AEBVMString@@QEAY01$$CBMAEAH3@Z
?renderImage@MPxHardwareShader@@UEAA?AVMStatus@@AEBUShaderContext@1@AEBVMString@@QEAY01$$CBMAEBURenderParameters@1@AEAH4@Z
?renderImage@MPxHwShaderNode@@UEAA?AVMStatus@@AEAVMUIDrawManager@MHWRender@@AEBVMString@@QEAY01$$CBMAEBURenderParameters@1@AEAH4@Z
?renderImage@MPxHwShaderNode@@UEAA?AVMStatus@@AEBVMString@@QEAY01$$CBMAEAH2@Z
?renderImage@MPxHwShaderNode@@UEAA?AVMStatus@@AEBVMString@@QEAY01$$CBMAEBURenderParameters@1@AEAH3@Z
?renderOverrideName@M3dView@@QEBA?AVMString@@PEAVMStatus@@@Z
?renderParallel@?$MPyMSwatchRenderBase_DirectorImpl@VMHWShaderSwatchGenerator@@@@UEAA_NXZ
?renderSwatchImage@MPxHardwareShader@@UEAA?AVMStatus@@AEAVMImage@@@Z
?renderSwatchImage@MPxHwShaderNode@@UEAA?AVMStatus@@AEAVMImage@@@Z
?rendererString@M3dView@@QEBA?AVMString@@PEAVMStatus@@@Z
?requestOkForDraw@MPx3dModelView@@UEAA_NAEBVMDrawRequest@@@Z
?reserve@MProgressWindow@@SA_NXZ
?reserved@MProgressWindow@@0_NA
?reset@MGraphEditorInfo@@QEAAXXZ
?reset@MPxFileDialog@@UEAAXXZ
?resetDirtyFlag@MToolsInfo@@SAXXZ
?resolveSymlinks@MPxFileDialog@@QEBA_NXZ
?rotateMode@MFnRotateManip@@QEBA?AW4RotateMode@1@XZ
?rotateXYZValue@MFnManip3D@@QEAA?AVMEulerRotation@@IPEAVMStatus@@@Z
?rotationCenterIndex@MFnRotateManip@@QEBAIPEAVMStatus@@@Z
?rotationIndex@MFnRotateManip@@QEBAIPEAVMStatus@@@Z
?sFileDialogsByName@TpluginFileDialogDBase@@0PEAVTpluginFileDialogDBaseNameTable@@EA
?scaleCenterIndex@MFnScaleManip@@QEBAIPEAVMStatus@@@Z
?scaleIndex@MFnScaleManip@@QEBAIPEAVMStatus@@@Z
?scalingFactor@MFnDistanceManip@@QEBANPEAVMStatus@@@Z
?scheduleRefresh@M3dView@@QEAA?AVMStatus@@XZ
?scheduleRefreshAllViews@M3dView@@SA?AVMStatus@@XZ
?select@MPxSurfaceShapeUI@@UEBA_NAEAVMSelectInfo@@AEAVMSelectionList@@AEAVMPointArray@@@Z
?select@MPyMPxSurfaceShapeUI_Director@@UEBA_NAEAVMSelectInfo@@AEAVMSelectionList@@AEAVMPointArray@@@Z
?selectClosest@MSelectInfo@@QEBA_NXZ
?selectFile@MPxFileDialog@@UEAAXAEBVQString@@@Z
?selectForHilite@MSelectInfo@@QEBA_NAEBVMSelectionMask@@@Z
?selectInfo@TapiCastUI@@SA?AVMSelectInfo@@AEAVTselectInfo@@@Z
?selectMode@M3dView@@QEBA_NXZ
?selectNameFilter@MPxFileDialog@@UEAAXAEBVQString@@@Z
?selectOnHilitedOnly@MSelectInfo@@QEBA_NXZ
?selectPath@MSelectInfo@@QEBA?AVMDagPath@@XZ
?selectRect@MSelectInfo@@QEBAXAEAI000@Z
?selectUV@MPxSurfaceShapeUI@@UEBA_NAEAVM3dView@@W4UVSelectionType@1@HHHH_NAEAVMSelectionList@@@Z
?selectUV@MPyMPxSurfaceShapeUI_Director@@UEBA_NAEAVM3dView@@W4UVSelectionType@MPxSurfaceShapeUI@@HHHH_NAEAVMSelectionList@@@Z
?selectable@MSelectInfo@@QEBA_NAEAVMSelectionMask@@@Z
?selectableComponent@MSelectInfo@@QEBA_N_NAEAVMSelectionMask@@@Z
?selectedColor@MPxManipulatorNode@@QEAAFXZ
?selectedFiles@MPxFileDialog@@UEBA?AVQStringList@@XZ
?selectedNameFilter@MPxFileDialog@@QEBA?AVQString@@XZ
?sendMessage@MPxMidiInputDevice@@UEAA?AVMStatus@@QEBD0@Z
?serverName@MPxClientDeviceNode@@2VMObject@@A
?set@MMaterialArray@@QEAA?AVMStatus@@AEBVMMaterial@@I@Z
?setAcceptMode@MPxFileDialog@@UEAAXW4AcceptMode@QFileDialog@@@Z
?setAngle@MFnCircleSweepManip@@QEAA?AVMStatus@@VMAngle@@@Z
?setAngle@MFnDiscManip@@QEAA?AVMStatus@@VMAngle@@@Z
?setBackfaceCulling@MPx3dModelView@@QEAA?AVMStatus@@_N@Z
?setBackgroundFogEnabled@MPx3dModelView@@QEAA?AVMStatus@@_N@Z
?setButtonState@MDeviceState@@QEAAX_NAEBVMString@@@Z
?setButtonState@MDeviceState@@QEAAX_NG@Z
?setCamera@M3dView@@QEAA?AVMStatus@@AEAVMDagPath@@@Z
?setCamera@MPx3dModelView@@QEAA?AVMStatus@@AEAVMDagPath@@@Z
?setCameraInDraw@MPx3dModelView@@QEAA?AVMStatus@@AEAVMDagPath@@@Z
?setCameraSet@MPx3dModelView@@QEAA?AVMStatus@@AEAVMObject@@@Z
?setCenterPoint@MFnCircleSweepManip@@QEAA?AVMStatus@@AEBVMPoint@@@Z
?setCenterPoint@MFnDiscManip@@QEAA?AVMStatus@@AEBVMPoint@@@Z
?setColor@MDrawRequest@@QEAAXAEBVMColor@@@Z
?setColor@MDrawRequest@@QEAAXHW4ColorTable@M3dView@@@Z
?setColorMask@M3dView@@QEAA?AVMStatus@@_N000@Z
?setComponent@MDrawRequest@@QEAAXAEAVMObject@@@Z
?setConfirmOverwrite@MPxFileDialog@@UEAAX_N@Z
?setCurrentCameraSetCamera@MPx3dModelView@@QEAA?AVMStatus@@AEBVMString@@@Z
?setCurrentPath@MPxHwShaderNode@@IEAAXPEBX@Z
?setCursor@MPxContext@@IEAA?AVMStatus@@AEBVMCursor@@@Z
?setCustomDrawEnable@MPx3dModelView@@QEAAX_N@Z
?setData@MPx3dModelView@@AEAAXPEAX@Z
?setData@MPxContext@@AEAAXPEAX@Z
?setData@MPxContextCommand@@AEAAXPEAX@Z
?setData@MPxControlCommand@@AEAAXPEAX@Z
?setData@MPxDragAndDropBehavior@@AEAAXPEAX@Z
?setData@MPxGlBuffer@@AEAAXPEAX@Z
?setData@MPxMidiInputDevice@@AEAAXPEAX@Z
?setData@MPxModelEditorCommand@@AEAAXPEAX@Z
?setDefaultSuffix@MPxFileDialog@@UEAAXAEBVQString@@@Z
?setDegreesOfFreedom@MPxMidiInputDevice@@IEAA?AVMStatus@@H@Z
?setDestroyOnPanelDestruction@MPx3dModelView@@QEAAX_N@Z
?setDevicePosition@MDeviceState@@QEAAXHAEBVMString@@@Z
?setDevicePosition@MDeviceState@@QEAAXHG@Z
?setDirection@MFnDirectionManip@@QEAA?AVMStatus@@AEAVMVector@@@Z
?setDirection@MFnDistanceManip@@QEAA?AVMStatus@@AEBVMVector@@@Z
?setDirection@MFnFreePointTriadManip@@QEAA?AVMStatus@@AEBVMVector@@@Z
?setDirection@MFnToggleManip@@QEAA?AVMStatus@@AEAVMVector@@@Z
?setDirectory@MPxFileDialog@@UEAAXAEBVQDir@@@Z
?setDirectory@MPxFileDialog@@UEAAXAEBVQString@@@Z
?setDirtyFlag@MToolsInfo@@SAXAEBVMPxContext@@@Z
?setDirtyMask@MPxHwShaderNode@@IEAAXI@Z
?setDisallowPolygonOffset@M3dView@@QEAA?AVMStatus@@_N@Z
?setDisplayAxis@MPx3dModelView@@QEAA?AVMStatus@@_N@Z
?setDisplayAxisAtOrigin@MPx3dModelView@@QEAA?AVMStatus@@_N@Z
?setDisplayCameraAnnotation@MPx3dModelView@@QEAA?AVMStatus@@_N@Z
?setDisplayCullOpposite@MDrawRequest@@QEAAX_N@Z
?setDisplayCulling@MDrawRequest@@QEAAX_N@Z
?setDisplayHUD@MPx3dModelView@@QEAA?AVMStatus@@_N@Z
?setDisplayStatus@MDrawRequest@@QEAAXW4DisplayStatus@M3dView@@@Z
?setDisplayStyle@M3dView@@QEAA?AVMStatus@@W4DisplayStyle@1@_N@Z
?setDisplayStyle@MDrawRequest@@QEAAXW4DisplayStyle@M3dView@@@Z
?setDisplayStyle@MPx3dModelView@@QEAA?AVMStatus@@W4DisplayStyle@M3dView@@_N@Z
?setDoUpdateOnMove@MPx3dModelView@@QEAA?AVMStatus@@_N@Z
?setDone@MPxThreadedDeviceNode@@QEAA?AVMStatus@@_N@Z
?setDoubleValue@MPxManipulatorNode@@QEAA?AVMStatus@@HN@Z
?setDrawAdornments@MPx3dModelView@@QEAA?AVMStatus@@_N@Z
?setDrawArrowHead@MFnFreePointTriadManip@@QEAA?AVMStatus@@_N@Z
?setDrawArrows@MFnPointOnSurfaceManip@@QEAA?AVMStatus@@_N@Z
?setDrawAsArc@MFnCircleSweepManip@@QEAA?AVMStatus@@_N@Z
?setDrawAxes@MFnFreePointTriadManip@@QEAA?AVMStatus@@_N@Z
?setDrawCameraOverride@MPx3dModelView@@QEAA?AVMStatus@@AEBVMMatrix@@0AEBVMPointArray@@@Z
?setDrawCameraOverride@MPx3dModelView@@QEAA?AVMStatus@@AEBVMMatrix@@0NNNNNN_N@Z
?setDrawColor@M3dView@@QEAA?AVMStatus@@AEBVMColor@@@Z
?setDrawColor@M3dView@@QEAA?AVMStatus@@IW4ColorTable@1@@Z
?setDrawColor@MPx3dModelView@@QEAA?AVMStatus@@AEBVMColor@@@Z
?setDrawColor@MPx3dModelView@@QEAA?AVMStatus@@IW4ColorTable@M3dView@@@Z
?setDrawColorAndAlpha@M3dView@@QEAA?AVMStatus@@AEBVMColor@@@Z
?setDrawCurve@MFnPointOnCurveManip@@QEAA?AVMStatus@@_N@Z
?setDrawData@MDrawRequest@@QEAAXAEAVMDrawData@@@Z
?setDrawInterrupt@MPx3dModelView@@QEAAX_N@Z
?setDrawLast@MDrawRequest@@QEAAX_N@Z
?setDrawLine@MFnDistanceManip@@QEAA?AVMStatus@@_N@Z
?setDrawPlaneHandles@MFnManip3D@@SAX_N@Z
?setDrawStart@MFnDirectionManip@@QEAA?AVMStatus@@_N@Z
?setDrawStart@MFnDistanceManip@@QEAA?AVMStatus@@_N@Z
?setDrawSurface@MFnPointOnSurfaceManip@@QEAA?AVMStatus@@_N@Z
?setDrawingFunction@MTextureEditorDrawInfo@@QEAAXW4DrawingFunction@1@@Z
?setEndParameter@MFnCurveSegmentManip@@QEAA?AVMStatus@@N@Z
?setEndPoint@MFnCircleSweepManip@@QEAA?AVMStatus@@AEBVMPoint@@@Z
?setFileMode@MPxFileDialog@@UEAAXW4FileMode@QFileDialog@@@Z
?setFilter@MPxFileDialog@@UEAAXV?$QFlags@W4Filter@QDir@@@@@Z
?setFilterType@MObjectListFilter@@QEAAXW4MFilterType@1@@Z
?setFogColor@MPx3dModelView@@QEAA?AVMStatus@@AEBVMColor@@@Z
?setFogDensity@MPx3dModelView@@QEAA?AVMStatus@@N@Z
?setFogEnabled@MPx3dModelView@@QEAA?AVMStatus@@_N@Z
?setFogEnd@MPx3dModelView@@QEAA?AVMStatus@@N@Z
?setFogMode@MPx3dModelView@@QEAA?AVMStatus@@W4FogMode@1@@Z
?setFogSource@MPx3dModelView@@QEAA?AVMStatus@@W4FogSource@1@@Z
?setFogStart@MPx3dModelView@@QEAA?AVMStatus@@N@Z
?setFormat@MFeedbackLine@@SA?AVMStatus@@AEBVMString@@@Z
?setFrustum@MDrawTraversal@@QEAA?AVMStatus@@AEBVMDagPath@@II@Z
?setFrustum@MDrawTraversal@@QEAA?AVMStatus@@AEBVMPoint@@0000000AEBVMMatrix@@@Z
?setFrustum@MDrawTraversal@@QEAA?AVMStatus@@NNNNNNAEBVMMatrix@@@Z
?setGlobalSize@MFnManip3D@@SAXM@Z
?setGlobalTriadPlane@MFnFreePointTriadManip@@QEAA?AVMStatus@@W4ManipPlane@1@@Z
?setHandleSize@MFnManip3D@@SAXM@Z
?setHelpString@MPxContext@@IEAA?AVMStatus@@AEBVMString@@@Z
?setHighestPriority@MSelectInfo@@QEAAXH@Z
?setHistory@MPxFileDialog@@UEAAXAEBVQStringList@@@Z
?setIconProvider@MPxFileDialog@@UEAAXPEAVQFileIconProvider@@@Z
?setImage@MPxContext@@QEAA?AVMStatus@@AEBVMString@@W4ImageIndex@1@@Z
?setImage@MPxSelectionContext@@QEAA?AVMStatus@@AEBVMString@@W4ImageIndex@MPxContext@@@Z
?setInStereoDrawMode@MPx3dModelView@@QEAA?AVMStatus@@_N@Z
?setIncludeInvisible@MPx3dModelView@@QEAAXPEAX_N@Z
?setInitialRotation@MFnRotateManip@@QEAA?AVMStatus@@AEBVMEulerRotation@@@Z
?setInitialScale@MFnScaleManip@@QEAA?AVMStatus@@AEBVMVector@@@Z
?setInitialState@MFnStateManip@@QEAA?AVMStatus@@I@Z
?setInstancePtr@MPxManipulatorNode@@QEAAXPEAX@Z
?setInterruptable@MProgressWindow@@SA?AVMStatus@@_N@Z
?setIsTransparent@MDrawRequest@@QEAAX_N@Z
?setItemDelegate@MPxFileDialog@@UEAAXPEAVQAbstractItemDelegate@@@Z
?setKeyframeAll@MFnFreePointTriadManip@@QEAA?AVMStatus@@_N@Z
?setLabelText@MPxFileDialog@@UEAAXW4DialogLabel@QFileDialog@@AEBVQString@@@Z
?setLeafLevelCulling@MDrawTraversal@@QEAAX_N@Z
?setLength@MFnToggleManip@@QEAA?AVMStatus@@N@Z
?setLength@MMaterialArray@@QEAA?AVMStatus@@I@Z
?setLightingMode@MPx3dModelView@@QEAA?AVMStatus@@W4LightingMode@1@@Z
?setLineSize@MFnManip3D@@SAXM@Z
?setManipScale@MFnManip3D@@QEAA?AVMStatus@@M@Z
?setMaterial@MDrawRequest@@QEAAXAEAVMMaterial@@@Z
?setMaterial@MMaterial@@QEAA?AVMStatus@@AEBVMDagPath@@_N@Z
?setMatrix@MDrawRequest@@QEAAXAEBVMMatrix@@@Z
?setMaxStates@MFnStateManip@@QEAA?AVMStatus@@I@Z
?setModifiers@MEvent@@QEAA?AVMStatus@@AEBW4ModifierType@1@@Z
?setMultiPath@MDrawInfo@@QEAAXAEBVMDagPath@@@Z
?setMultiPath@MDrawRequest@@QEAAXAEBVMDagPath@@@Z
?setMultipleDrawEnable@M3dView@@QEAAX_N@Z
?setMultipleDrawEnable@MPx3dModelView@@QEAAX_N@Z
?setMultipleDrawPassCount@M3dView@@QEAAXI@Z
?setNameFilter@MPxFileDialog@@UEAAXAEBVQString@@@Z
?setNameFilterDetailsVisible@MPxFileDialog@@UEAAX_N@Z
?setNameFilters@MPxFileDialog@@UEAAXAEBVQStringList@@@Z
?setNamedButton@MPxMidiInputDevice@@IEAA?AVMStatus@@AEBVMString@@G@Z
?setNormal@MFnCircleSweepManip@@QEAA?AVMStatus@@AEBVMVector@@@Z
?setNormal@MFnDiscManip@@QEAA?AVMStatus@@AEBVMVector@@@Z
?setNormalizeDirection@MFnDirectionManip@@QEAA?AVMStatus@@_N@Z
?setNumberOfButtons@MPxMidiInputDevice@@IEAA?AVMStatus@@H@Z
?setNumberOfColumns@MPxUITableControl@@QEAA?AVMStatus@@I@Z
?setNumberOfRows@MPxUITableControl@@QEAA?AVMStatus@@I@Z
?setObjectDisplay@M3dView@@QEAA?AVMStatus@@I@Z
?setObjectDisplay@MPx3dModelView@@QEAA?AVMStatus@@W4DisplayObjects@M3dView@@_N@Z
?setObjectListFilterName@M3dView@@QEAA?AVMStatus@@AEBVMString@@@Z
?setObjectsToView@MPx3dModelView@@QEAA?AVMStatus@@AEBVMSelectionList@@@Z
?setOptimizePlayback@MFnManip3D@@QEAA?AVMStatus@@_N@Z
?setOption@MPxFileDialog@@UEAAXW4Option@QFileDialog@@_N@Z
?setOptions@MPxFileDialog@@UEAAXV?$QFlags@W4Option@QFileDialog@@@@@Z
?setOrientation@MFnScaleManip@@QEAA?AVMStatus@@AEBVMEulerRotation@@@Z
?setOrientationMode@MFnScaleManip@@QEAA?AVMStatus@@W4ScaleOrientationMode@1@@Z
?setOrthoFrustum@MDrawTraversal@@QEAA?AVMStatus@@NNNNNNAEBVMMatrix@@@Z
?setParameter@MFnPointOnCurveManip@@QEAA?AVMStatus@@N@Z
?setParameters@MFnPointOnSurfaceManip@@QEAA?AVMStatus@@NN@Z
?setPerspFrustum@MDrawTraversal@@QEAA?AVMStatus@@NNNNAEBVMMatrix@@@Z
?setPluginObjectDisplay@M3dView@@QEAA?AVMStatus@@AEBVMString@@_N@Z
?setPoint@MFnFreePointTriadManip@@QEAA?AVMStatus@@AEBVMPoint@@@Z
?setPointValue@MPxManipulatorNode@@QEAA?AVMStatus@@HAEBVMPoint@@@Z
?setPosition@MEvent@@QEAA?AVMStatus@@FF@Z
?setProgress@MProgressWindow@@SA?AVMStatus@@H@Z
?setProgressMax@MProgressWindow@@SA?AVMStatus@@H@Z
?setProgressMin@MProgressWindow@@SA?AVMStatus@@H@Z
?setProgressRange@MProgressWindow@@SA?AVMStatus@@HH@Z
?setProgressStatus@MProgressWindow@@SA?AVMStatus@@AEBVMString@@@Z
?setPtr@MCharBuffer@@AEAAXPEAD@Z
?setQControl@THcontrolCommand@@QEAAXPEAVQWidget@@@Z
?setRadius@MFnCircleSweepManip@@QEAA?AVMStatus@@N@Z
?setRadius@MFnDiscManip@@QEAA?AVMStatus@@N@Z
?setReadOnly@MPxFileDialog@@UEAAX_N@Z
?setRefreshOutputAttributes@MPxThreadedDeviceNode@@QEAA?AVMStatus@@AEBVMObjectArray@@@Z
?setRenderOverrideName@M3dView@@QEAA?AVMStatus@@AEBVMString@@@Z
?setResolveSymlinks@MPxFileDialog@@UEAAX_N@Z
?setResult@MPxContextCommand@@QEAA?AVMStatus@@AEBVMString@@@Z
?setResult@MPxContextCommand@@QEAA?AVMStatus@@H@Z
?setResult@MPxContextCommand@@QEAA?AVMStatus@@N@Z
?setResult@MPxContextCommand@@QEAA?AVMStatus@@_N@Z
?setResult@MPxControlCommand@@QEAA?AVMStatus@@AEBVMIntArray@@@Z
?setResult@MPxControlCommand@@QEAA?AVMStatus@@AEBVMString@@@Z
?setResult@MPxControlCommand@@QEAA?AVMStatus@@AEBVMStringArray@@@Z
?setResult@MPxControlCommand@@QEAA?AVMStatus@@H@Z
?setResult@MPxControlCommand@@QEAA?AVMStatus@@N@Z
?setResult@MPxControlCommand@@QEAA?AVMStatus@@_N@Z
?setResult@MPxModelEditorCommand@@QEAA?AVMStatus@@AEBVMDoubleArray@@@Z
?setResult@MPxModelEditorCommand@@QEAA?AVMStatus@@AEBVMIntArray@@@Z
?setResult@MPxModelEditorCommand@@QEAA?AVMStatus@@AEBVMString@@@Z
?setResult@MPxModelEditorCommand@@QEAA?AVMStatus@@AEBVMStringArray@@@Z
?setResult@MPxModelEditorCommand@@QEAA?AVMStatus@@H@Z
?setResult@MPxModelEditorCommand@@QEAA?AVMStatus@@N@Z
?setResult@MPxModelEditorCommand@@QEAA?AVMStatus@@_N@Z
?setRotateMode@MFnRotateManip@@QEAA?AVMStatus@@W4RotateMode@1@@Z
?setRotationCenter@MFnRotateManip@@QEAA?AVMStatus@@AEBVMPoint@@@Z
?setScalingFactor@MFnDistanceManip@@QEAA?AVMStatus@@N@Z
?setSelection@MPxUITableControl@@QEAA?AVMStatus@@II@Z
?setSelection@MPxUITableControl@@QEAA?AVMStatus@@IIII@Z
?setShowFeedback@MFeedbackLine@@SAX_N@Z
?setShowObjectFilterNameInHUD@M3dView@@QEAA?AVMStatus@@_N@Z
?setShowViewSelectedChildren@M3dView@@QEAA?AVMStatus@@_N@Z
?setSize@MCharBuffer@@AEAAXJ@Z
?setSizeIncrement@MMaterialArray@@QEAAXI@Z
?setSnapIncrement@MFnRotateManip@@QEAA?AVMStatus@@N@Z
?setSnapIncrement@MFnScaleManip@@QEAA?AVMStatus@@N@Z
?setSnapMode@MFnFreePointTriadManip@@QEAA?AVMStatus@@_N@Z
?setSnapMode@MFnRotateManip@@QEAA?AVMStatus@@_N@Z
?setSnapMode@MFnScaleManip@@QEAA?AVMStatus@@_N@Z
?setSnapPoint@MSelectInfo@@QEAA_NAEBVMPoint@@@Z
?setStartParameter@MFnCurveSegmentManip@@QEAA?AVMStatus@@N@Z
?setStartPoint@MFnCircleSweepManip@@QEAA?AVMStatus@@AEBVMPoint@@@Z
?setStartPoint@MFnDirectionManip@@QEAA?AVMStatus@@AEAVMPoint@@@Z
?setStartPoint@MFnDistanceManip@@QEAA?AVMStatus@@AEBVMPoint@@@Z
?setStartPoint@MFnToggleManip@@QEAA?AVMStatus@@AEAVMPoint@@@Z
?setTextureDisplayEnabled@MPx3dModelView@@QEAA?AVMStatus@@_N@Z
?setTitle@MFeedbackLine@@SA?AVMStatus@@AEBVMString@@@Z
?setTitle@MProgressWindow@@SA?AVMStatus@@AEBVMString@@@Z
?setTitleString@MPxContext@@IEAA?AVMStatus@@AEBVMString@@@Z
?setToggle@MFnToggleManip@@QEAA?AVMStatus@@_N@Z
?setToken@MDrawRequest@@QEAAXH@Z
?setTwoSidedLighting@MPx3dModelView@@QEAA?AVMStatus@@_N@Z
?setUIName@MObjectListFilter@@QEAAXAEBVMString@@@Z
?setUVs@MPxPolyTweakUVInteractiveCommand@@QEAAXAEBVMObject@@AEAVMIntArray@@AEAVMFloatArray@@2PEBVMString@@@Z
?setUniformParameters@MPxHardwareShader@@QEAA?AVMStatus@@AEBVMUniformParameterList@@_NPEAVMDagModifier@@@Z
?setUserCmd@THcontrolCommand@@UEAAXPEAX@Z
?setUserDefinedColor@M3dView@@QEAA?AVMStatus@@IAEBVMColor@@@Z
?setUserDefinedColor@MPx3dModelView@@QEAA?AVMStatus@@IAEBVMColor@@@Z
?setValue@MFeedbackLine@@SA?AVMStatus@@FN@Z
?setVaryingParameters@MPxHardwareShader@@QEAA?AVMStatus@@AEBVMVaryingParameterList@@_NPEAVMDagModifier@@@Z
?setVectorValue@MPxManipulatorNode@@QEAA?AVMStatus@@HAEBVMVector@@@Z
?setView@MDrawRequest@@QEAAXAEAVM3dView@@@Z
?setViewMode@MPxFileDialog@@UEAAXW4ViewMode@QFileDialog@@@Z
?setViewSelected@MPx3dModelView@@QEAA?AVMStatus@@_N@Z
?setViewSelectedPrefix@M3dView@@QEAA?AVMStatus@@AEBVMString@@@Z
?setViewSelectedPrefix@MPx3dModelView@@QEAA?AVMStatus@@AEBVMString@@@Z
?setViewSelectedSet@MPx3dModelView@@QEAA?AVMStatus@@AEBVMObject@@@Z
?setViewportBounds@MGraphEditorInfo@@QEBA?AVMStatus@@AEBVMDoubleArray@@@Z
?setViewportBounds@MGraphEditorInfo@@QEBA?AVMStatus@@NNNN@Z
?setVisible@MFnManip3D@@QEAA?AVMStatus@@_N@Z
?setWireframeOnShaded@MPx3dModelView@@QEAA?AVMStatus@@_N@Z
?setXrayEnabled@MPx3dModelView@@QEAA?AVMStatus@@_N@Z
?shadingEngine@MMaterial@@QEAA?AVMObject@@XZ
?shouldBeUsedFor@MPxDragAndDropBehavior@@UEAA_NAEAVMObject@@0AEAVMPlug@@1@Z
?shouldBeUsedFor@THnavigator@@QEAA_NPEAVTdependNode@@0PEAVTplug@@1@Z
?shouldDrawHandleAsSelected@MPxManipulatorNode@@QEBA?AVMStatus@@IAEA_N@Z
?showFeedback@MFeedbackLine@@SA_NXZ
?showObjectFilterNameInHUD@M3dView@@QEBA_NPEAVMStatus@@@Z
?showViewSelectedChildren@M3dView@@QEBA_NPEAVMStatus@@@Z
?singleSelection@MSelectInfo@@QEBA_NXZ
?size@MCharBuffer@@QEAAJXZ
?sizeIncrement@MMaterialArray@@QEBAIXZ
?skipFlagForCreate@MPxControlCommand@@UEAA_NAEBVMString@@@Z
?skipFlagForCreate@MPxModelEditorCommand@@UEAA_NAEBVMString@@@Z
?skipFlagForCreateCmd@THcontrolCommand@@UEAA_NAEBVTflagSyntax@@@Z
?snap@MPxSurfaceShapeUI@@UEBA_NAEAVMSelectInfo@@@Z
?snap@MPyMPxSurfaceShapeUI_Director@@UEBA_NAEAVMSelectInfo@@@Z
?snapIncrement@MFnRotateManip@@QEBANXZ
?snapIncrement@MFnScaleManip@@QEBANXZ
?startCircleIndex@MFnCircleSweepManip@@QEBAIPEAVMStatus@@@Z
?startParamIndex@MFnCurveSegmentManip@@QEBAIPEAVMStatus@@@Z
?startParameter@MFnCurveSegmentManip@@QEBANPEAVMStatus@@@Z
?startPoint@MFnCircleSweepManip@@QEBA?AVMPoint@@PEAVMStatus@@@Z
?startPoint@MFnToggleManip@@QEBA?AVMPoint@@PEAVMStatus@@@Z
?startPoint@MPxSelectionContext@@IEAA?AVMPoint@@XZ
?startPointIndex@MFnDirectionManip@@QEBAIPEAVMStatus@@@Z
?startPointIndex@MFnDistanceManip@@QEBAIPEAVMStatus@@@Z
?startPointIndex@MFnToggleManip@@QEBAIPEAVMStatus@@@Z
?startProgress@MProgressWindow@@SA?AVMStatus@@XZ
?state@MFnStateManip@@QEBAIPEAVMStatus@@@Z
?stateIndex@MFnStateManip@@QEBAIPEAVMStatus@@@Z
?stringClassName@MPxContext@@UEBA?AVMString@@XZ
?supportsBatching@MPxHwShaderNode@@UEBA_NXZ
?surfaceIndex@MFnPointOnSurfaceManip@@QEBAIPEAVMStatus@@@Z
?surfaceShape@MPxSurfaceShapeUI@@QEBAPEAVMPxSurfaceShape@@XZ
?surfaceShapeUI@MPxSurfaceShapeUI@@SAPEAV1@AEBVMDagPath@@PEAVMStatus@@@Z
?suspendUpdates@MPxUITableControl@@QEAA_N_NPEAVMStatus@@@Z
?syntax@MPxContextCommand@@IEBA?AVMSyntax@@PEAVMStatus@@@Z
?syntax@MPxControlCommand@@IEBA?AVMSyntax@@PEAVMStatus@@@Z
?syntax@MPxModelEditorCommand@@IEBA?AVMSyntax@@PEAVMStatus@@@Z
?templateColor@M3dView@@SA?AVMColor@@PEAVMStatus@@@Z
?templateColor@MPx3dModelView@@QEAA?AVMColor@@PEAVMStatus@@@Z
?texCoordsPerVertex@MPxHwShaderNode@@UEAAHXZ
?text@MExternalDropData@@QEBA?AVMString@@XZ
?textureDrawInfo@TapiCastUI@@SA?AVMTextureEditorDrawInfo@@AEAVTtwDrawInfo@@@Z
?textureDrawInfo@TapiCastUI@@SA?BVMTextureEditorDrawInfo@@AEBVTtwDrawInfo@@@Z
?textureDrawInfo@TapiCastUI@@SAAEAVTtwDrawInfo@@AEAVMTextureEditorDrawInfo@@@Z
?textureImage@MMaterial@@QEAA?AVMStatus@@AEAVMImage@@AEAVMColor@@W4MtextureChannel@1@AEA_NAEAVMDagPath@@HH@Z
?textureMode@M3dView@@QEBA_NXZ
?theParent@THcontrolCommand@@QEAAPEAVQWidget@@XZ
?threadDataCount@MPxThreadedDeviceNode@@QEAAJXZ
?threadHandler@MPxClientDeviceNode@@UEAAXPEBD0@Z
?threadHandler@MPxThreadedDeviceNode@@UEAAXXZ
?threadShutdownHandler@MPxThreadedDeviceNode@@UEAAXXZ
?title@MFnToolContext@@QEBA?AVMString@@PEAVMStatus@@@Z
?title@MProgressWindow@@SA?AVMString@@PEAVMStatus@@@Z
?toMString@MQtUtil@@SA?AVMString@@AEBVQString@@@Z
?toQString@MQtUtil@@SA?AVQString@@AEBVMString@@@Z
?toggle@MFnToggleManip@@QEBA_NPEAVMStatus@@@Z
?toggleIndex@MFnToggleManip@@QEBAIPEAVMStatus@@@Z
?token@MDrawRequest@@QEBAHXZ
?toolOffCleanup@MPxContext@@UEAAXXZ
?toolOnSetup@MPxContext@@UEAAXAEAVMEvent@@@Z
?transparencyOptions@MPxHardwareShader@@UEAAIXZ
?transparencyOptions@MPxHwShaderNode@@UEAAIXZ
?traverse@MDrawTraversal@@UEAA?AVMStatus@@XZ
?twoSidedLighting@M3dView@@QEBA_NPEAVMStatus@@@Z
?type@MFnCircleSweepManip@@UEBA?AW4Type@MFn@@XZ
?type@MFnCurveSegmentManip@@UEBA?AW4Type@MFn@@XZ
?type@MFnDirectionManip@@UEBA?AW4Type@MFn@@XZ
?type@MFnDiscManip@@UEBA?AW4Type@MFn@@XZ
?type@MFnDistanceManip@@UEBA?AW4Type@MFn@@XZ
?type@MFnFreePointTriadManip@@UEBA?AW4Type@MFn@@XZ
?type@MFnManip3D@@UEBA?AW4Type@MFn@@XZ
?type@MFnPointOnCurveManip@@UEBA?AW4Type@MFn@@XZ
?type@MFnPointOnSurfaceManip@@UEBA?AW4Type@MFn@@XZ
?type@MFnRotateManip@@UEBA?AW4Type@MFn@@XZ
?type@MFnScaleManip@@UEBA?AW4Type@MFn@@XZ
?type@MFnStateManip@@UEBA?AW4Type@MFn@@XZ
?type@MFnToggleManip@@UEBA?AW4Type@MFn@@XZ
?type@MFnToolContext@@UEBA?AW4Type@MFn@@XZ
?type@MPxClientDeviceNode@@UEBA?AW4Type@MPxNode@@XZ
?type@MPxHardwareShader@@UEBA?AW4Type@MPxNode@@XZ
?type@MPxHwShaderNode@@UEBA?AW4Type@MPxNode@@XZ
?type@MPxLocatorNode@@UEBA?AW4Type@MPxNode@@XZ
?type@MPxManipContainer@@UEBA?AW4Type@MPxNode@@XZ
?type@MPxThreadedDeviceNode@@UEBA?AW4Type@MPxNode@@XZ
?typeObj@MPyM3dView_Type@@SAAEAU_typeobject@@XZ
?typeObj@MPyMDrawData_Type@@SAAEAU_typeobject@@XZ
?typeObj@MPyMDrawInfo_Type@@SAAEAU_typeobject@@XZ
?typeObj@MPyMDrawRequest_Type@@SAAEAU_typeobject@@XZ
?typeObj@MPyMFnCircleSweepManip_Type@@SAAEAU_typeobject@@XZ
?typeObj@MPyMFnCurveSegmentManip_Type@@SAAEAU_typeobject@@XZ
?typeObj@MPyMFnDirectionManip_Type@@SAAEAU_typeobject@@XZ
?typeObj@MPyMFnDiscManip_Type@@SAAEAU_typeobject@@XZ
?typeObj@MPyMFnDistanceManip_Type@@SAAEAU_typeobject@@XZ
?typeObj@MPyMFnFreePointTriadManip_Type@@SAAEAU_typeobject@@XZ
?typeObj@MPyMFnManip3D_Type@@SAAEAU_typeobject@@XZ
?typeObj@MPyMFnPointOnCurveManip_Type@@SAAEAU_typeobject@@XZ
?typeObj@MPyMFnPointOnSurfaceManip_Type@@SAAEAU_typeobject@@XZ
?typeObj@MPyMFnRotateManip_Type@@SAAEAU_typeobject@@XZ
?typeObj@MPyMFnScaleManip_Type@@SAAEAU_typeobject@@XZ
?typeObj@MPyMFnStateManip_Type@@SAAEAU_typeobject@@XZ
?typeObj@MPyMFnToggleManip_Type@@SAAEAU_typeobject@@XZ
?typeObj@MPyMHWShaderSwatchGenerator_Type@@SAAEAU_typeobject@@XZ
?typeObj@MPyMMaterialArray_Type@@SAAEAU_typeobject@@XZ
?typeObj@MPyMMaterial_Type@@SAAEAU_typeobject@@XZ
?typeObj@MPyMPxHwShaderNode_RenderParameters_Type@@SAAEAU_typeobject@@XZ
?typeObj@MPyMPxHwShaderNode_Type@@SAAEAU_typeobject@@XZ
?typeObj@MPyMPxLocatorNode_Type@@SAAEAU_typeobject@@XZ
?typeObj@MPyMPxSurfaceShapeUI_Type@@SAAEAU_typeobject@@XZ
?typeObj@MPyMSelectInfo_Type@@SAAEAU_typeobject@@XZ
?typeObj@MPyMTextureEditorDrawInfo_Type@@SAAEAU_typeobject@@XZ
?typeObj@MPyMUiMessage_Type@@SAAEAU_typeobject@@XZ
?unbind@MPxHwShaderNode@@UEAA?AVMStatus@@AEBVMDrawRequest@@AEAVM3dView@@@Z
?unbindFbo@MPxGlBuffer@@QEAA?AVMStatus@@XZ
?underWorldObject@MPxLocatorNode@@2VMObject@@A
?updateViewingParameters@M3dView@@QEAA?AVMStatus@@XZ
?updateViewingParameters@MPx3dModelView@@QEAA?AVMStatus@@XZ
?urls@MExternalDropData@@QEBA?AVMStringArray@@XZ
?useClosestPointForSelection@MPxLocatorNode@@UEBA_NXZ
?useObjectColor@MPxLocatorNode@@2VMObject@@A
?userChangingViewContext@MDrawInfo@@QEBA_NXZ
?userCmd@THcontrolCommand@@UEAAPEAXXZ
?userCmdValid@THcontrolCommand@@UEBA_NXZ
?userDefinedColorIndex@M3dView@@QEAAIIPEAVMStatus@@@Z
?userDefinedColorIndex@MPx3dModelView@@QEAAIIPEAVMStatus@@@Z
?usingDefaultMaterial@M3dView@@QEBA_NXZ
?usingMipmappedTextures@M3dView@@QEBA_NXZ
?view@MDrawInfo@@QEBA?AVM3dView@@XZ
?view@MDrawRequest@@QEBA?AVM3dView@@XZ
?view@MSelectInfo@@QEAA?AVM3dView@@XZ
?view@TapiCastUI@@SA?AVM3dView@@AEAVT3dView@@@Z
?view@TapiCastUI@@SAAEAVT3dView@@AEAVM3dView@@@Z
?view@TapiCastUI@@SAAEBVT3dView@@AEBVM3dView@@@Z
?view@TapiPackUI@@SA?AVM3dView@@PEAVT3dView@@@Z
?viewIsFiltered@MPx3dModelView@@QEBA_NPEAVMStatus@@@Z
?viewMode@MPxFileDialog@@QEBA?AW4ViewMode@QFileDialog@@XZ
?viewRect@MPxTexContext@@QEBAXAEAN000@Z
?viewSelected@MPx3dModelView@@QEBA_NPEAVMStatus@@@Z
?viewSelectedPrefix@M3dView@@QEBA?AVMString@@PEAVMStatus@@@Z
?viewSelectedPrefix@MPx3dModelView@@QEBA?AVMString@@PEAVMStatus@@@Z
?viewSelectedSet@MPx3dModelView@@QEBA?AVMObject@@PEAVMStatus@@@Z
?viewToObjectSpace@M3dView@@QEBA?AVMStatus@@FFAEBVMMatrix@@AEAVMPoint@@AEAVMVector@@@Z
?viewToObjectSpace@MPx3dModelView@@QEBA?AVMStatus@@FFAEBVMMatrix@@AEAVMPoint@@AEAVMVector@@@Z
?viewToPort@MPxTexContext@@QEBAXNNAEAF0@Z
?viewToWorld@M3dView@@QEBA?AVMStatus@@FFAEAVMPoint@@0@Z
?viewToWorld@M3dView@@QEBA?AVMStatus@@FFAEAVMPoint@@AEAVMVector@@@Z
?viewToWorld@MPx3dModelView@@QEBA?AVMStatus@@FFAEAVMPoint@@0@Z
?viewToWorld@MPx3dModelView@@QEBA?AVMStatus@@FFAEAVMPoint@@AEAVMVector@@@Z
?viewType@MPx3dModelView@@UEBA?AVMString@@XZ
?viewport@M3dView@@QEBA?AVMStatus@@AEAI000@Z
?visibility@MPxLocatorNode@@2VMObject@@A
?wantStereoGLBuffer@MPx3dModelView@@UEBA_NXZ
?widget@M3dView@@QEBAPEAVQWidget@@PEAVMStatus@@@Z
?window@M3dView@@QEAAPEAUHWND__@@PEAVMStatus@@@Z
?wireframeOnShaded@M3dView@@QEBA_NPEAVMStatus@@@Z
?wireframeOnlyInShadedMode@M3dView@@QEBA_NPEAVMStatus@@@Z
?worldInverseMatrix@MPxLocatorNode@@2VMObject@@A
?worldMatrix@MPxLocatorNode@@2VMObject@@A
?worldPosition@MPxLocatorNode@@2VMObject@@A
?worldPositionX@MPxLocatorNode@@2VMObject@@A
?worldPositionY@MPxLocatorNode@@2VMObject@@A
?worldPositionZ@MPxLocatorNode@@2VMObject@@A
?worldToView@M3dView@@QEBA_NAEBVMPoint@@AEAF1PEAVMStatus@@@Z
?worldToView@MPx3dModelView@@QEBA_NAEBVMPoint@@AEAF1PEAVMStatus@@@Z
?writeColorBuffer@M3dView@@QEBA?AVMStatus@@AEBVMImage@@FF@Z
?xColor@MPxManipulatorNode@@QEAAFXZ
?xray@M3dView@@QEBA_NPEAVMStatus@@@Z
?xrayJoints@M3dView@@QEBA_NPEAVMStatus@@@Z
?yColor@MPxManipulatorNode@@QEAAFXZ
?zColor@MPxManipulatorNode@@QEAAFXZ
