LIBRARY OPENMAYA
EXPORTS
??$checkType@$$CBVMColor@@@MPyUtil@@SA_NPEAU_object@@_N@Z
??$checkType@$$CBVMDagPath@@@MPyUtil@@SA_NPEAU_object@@_N@Z
??$checkType@$$CBVMMatrix@@@MPyUtil@@SA_NPEAU_object@@_N@Z
??$checkType@$$CBVMString@@@MPyUtil@@SA_NPEAU_object@@_N@Z
??$checkType@AEBVMColor@@@MPyUtil@@SA_NPEAU_object@@_N@Z
??$checkType@AEBVMDagPath@@@MPyUtil@@SA_NPEAU_object@@_N@Z
??$checkType@AEBVMMatrix@@@MPyUtil@@SA_NPEAU_object@@_N@Z
??$checkType@H@MPyUtil@@SA_NPEAU_object@@_N@Z
??$checkType@I@MPyUtil@@SA_NPEAU_object@@_N@Z
??$checkType@K@MPyUtil@@SA_NPEAU_object@@_N@Z
??$checkType@M@MPyUtil@@SA_NPEAU_object@@_N@Z
??$checkType@N@MPyUtil@@SA_NPEAU_object@@_N@Z
??$checkType@PEBD@MPyUtil@@SA_NPEAU_object@@_N@Z
??$checkType@VMArgParser@@@MPyUtil@@SA_NPEAU_object@@_N@Z
??$checkType@VMBoundingBox@@@MPyUtil@@SA_NPEAU_object@@_N@Z
??$checkType@VMColor@@@MPyUtil@@SA_NPEAU_object@@_N@Z
??$checkType@VMDagPath@@@MPyUtil@@SA_NPEAU_object@@_N@Z
??$checkType@VMEulerRotation@@@MPyUtil@@SA_NPEAU_object@@_N@Z
??$checkType@VMFileObject@@@MPyUtil@@SA_NPEAU_object@@_N@Z
??$checkType@VMFloatPoint@@@MPyUtil@@SA_NPEAU_object@@_N@Z
??$checkType@VMMatrix@@@MPyUtil@@SA_NPEAU_object@@_N@Z
??$checkType@VMObject@@@MPyUtil@@SA_NPEAU_object@@_N@Z
??$checkType@VMObjectArray@@@MPyUtil@@SA_NPEAU_object@@_N@Z
??$checkType@VMObjectHandle@@@MPyUtil@@SA_NPEAU_object@@_N@Z
??$checkType@VMPlane@@@MPyUtil@@SA_NPEAU_object@@_N@Z
??$checkType@VMPoint@@@MPyUtil@@SA_NPEAU_object@@_N@Z
??$checkType@VMPointArray@@@MPyUtil@@SA_NPEAU_object@@_N@Z
??$checkType@VMPxGeometryIterator@@@MPyUtil@@SA_NPEAU_object@@_N@Z
??$checkType@VMQuaternion@@@MPyUtil@@SA_NPEAU_object@@_N@Z
??$checkType@VMString@@@MPyUtil@@SA_NPEAU_object@@_N@Z
??$checkType@VMSyntax@@@MPyUtil@@SA_NPEAU_object@@_N@Z
??$checkType@VMTime@@@MPyUtil@@SA_NPEAU_object@@_N@Z
??$checkType@VMTransformationMatrix@@@MPyUtil@@SA_NPEAU_object@@_N@Z
??$checkType@VMTypeId@@@MPyUtil@@SA_NPEAU_object@@_N@Z
??$checkType@VMVector@@@MPyUtil@@SA_NPEAU_object@@_N@Z
??$checkType@W4BoundaryRule@MMeshSmoothOptions@@@MPyUtil@@SA_NPEAU_object@@_N@Z
??$checkType@W4DisconnectBehavior@MFnAttribute@@@MPyUtil@@SA_NPEAU_object@@_N@Z
??$checkType@W4DrawOverrideDisplayType@MDAGDrawOverrideInfo@@@MPyUtil@@SA_NPEAU_object@@_N@Z
??$checkType@W4DrawOverrideLOD@MDAGDrawOverrideInfo@@@MPyUtil@@SA_NPEAU_object@@_N@Z
??$checkType@W4FilmFit@MFnCamera@@@MPyUtil@@SA_NPEAU_object@@_N@Z
??$checkType@W4Form@MFnNurbsCurve@@@MPyUtil@@SA_NPEAU_object@@_N@Z
??$checkType@W4Form@MFnNurbsSurface@@@MPyUtil@@SA_NPEAU_object@@_N@Z
??$checkType@W4MArgType@MSyntax@@@MPyUtil@@SA_NPEAU_object@@_N@Z
??$checkType@W4MChildChanged@MPxSurfaceShape@@@MPyUtil@@SA_NPEAU_object@@_N@Z
??$checkType@W4MFileResolveMethod@MFileObject@@@MPyUtil@@SA_NPEAU_object@@_N@Z
??$checkType@W4MIndexType@MAttributeIndex@@@MPyUtil@@SA_NPEAU_object@@_N@Z
??$checkType@W4MObjectColorType@MFnDagNode@@@MPyUtil@@SA_NPEAU_object@@_N@Z
??$checkType@W4MObjectFormat@MSyntax@@@MPyUtil@@SA_NPEAU_object@@_N@Z
??$checkType@W4MSelectionMode@MGlobal@@@MPyUtil@@SA_NPEAU_object@@_N@Z
??$checkType@W4MVertexCachingMode@MPxSurfaceShape@@@MPyUtil@@SA_NPEAU_object@@_N@Z
??$checkType@W4MVertexOffsetMode@MPxSurfaceShape@@@MPyUtil@@SA_NPEAU_object@@_N@Z
??$checkType@W4MatchResult@MPxSurfaceShape@@@MPyUtil@@SA_NPEAU_object@@_N@Z
??$checkType@W4RollOrder@MFnCamera@@@MPyUtil@@SA_NPEAU_object@@_N@Z
??$checkType@W4RotationOrder@MTransformationMatrix@@@MPyUtil@@SA_NPEAU_object@@_N@Z
??$checkType@W4Space@MSpace@@@MPyUtil@@SA_NPEAU_object@@_N@Z
??$checkType@W4SubdivisionType@MMeshSmoothOptions@@@MPyUtil@@SA_NPEAU_object@@_N@Z
??$checkType@W4Type@MFn@@@MPyUtil@@SA_NPEAU_object@@_N@Z
??$checkType@W4Unit@MAngle@@@MPyUtil@@SA_NPEAU_object@@_N@Z
??$checkType@W4Unit@MDistance@@@MPyUtil@@SA_NPEAU_object@@_N@Z
??$checkType@W4Unit@MTime@@@MPyUtil@@SA_NPEAU_object@@_N@Z
??$checkType@_J@MPyUtil@@SA_NPEAU_object@@_N@Z
??$checkType@_K@MPyUtil@@SA_NPEAU_object@@_N@Z
??$checkType@_N@MPyUtil@@SA_NPEAU_object@@_N@Z
??$objectToValue@$$CBVMColor@@@MPyUtil@@SA?BVMColor@@PEAU_object@@_N@Z
??$objectToValue@$$CBVMDagPath@@@MPyUtil@@SA?BVMDagPath@@PEAU_object@@_N@Z
??$objectToValue@$$CBVMMatrix@@@MPyUtil@@SA?BVMMatrix@@PEAU_object@@_N@Z
??$objectToValue@$$CBVMString@@@MPyUtil@@SA?BVMString@@PEAU_object@@_N@Z
??$objectToValue@AEBVMColor@@@MPyUtil@@SAAEBVMColor@@PEAU_object@@_N@Z
??$objectToValue@AEBVMDagPath@@@MPyUtil@@SAAEBVMDagPath@@PEAU_object@@_N@Z
??$objectToValue@AEBVMMatrix@@@MPyUtil@@SAAEBVMMatrix@@PEAU_object@@_N@Z
??$objectToValue@H@MPyUtil@@SAHPEAU_object@@_N@Z
??$objectToValue@I@MPyUtil@@SAIPEAU_object@@_N@Z
??$objectToValue@K@MPyUtil@@SAKPEAU_object@@_N@Z
??$objectToValue@M@MPyUtil@@SAMPEAU_object@@_N@Z
??$objectToValue@N@MPyUtil@@SANPEAU_object@@_N@Z
??$objectToValue@PEBD@MPyUtil@@SAPEBDPEAU_object@@_N@Z
??$objectToValue@VMArgParser@@@MPyUtil@@SA?AVMArgParser@@PEAU_object@@_N@Z
??$objectToValue@VMAttributePattern@@@MPyUtil@@SA?AVMAttributePattern@@PEAU_object@@_N@Z
??$objectToValue@VMAttributeSpec@@@MPyUtil@@SA?AVMAttributeSpec@@PEAU_object@@_N@Z
??$objectToValue@VMAttributeSpecArray@@@MPyUtil@@SA?AVMAttributeSpecArray@@PEAU_object@@_N@Z
??$objectToValue@VMBoundingBox@@@MPyUtil@@SA?AVMBoundingBox@@PEAU_object@@_N@Z
??$objectToValue@VMCallbackIdArray@@@MPyUtil@@SA?AVMCallbackIdArray@@PEAU_object@@_N@Z
??$objectToValue@VMColor@@@MPyUtil@@SA?AVMColor@@PEAU_object@@_N@Z
??$objectToValue@VMDagPath@@@MPyUtil@@SA?AVMDagPath@@PEAU_object@@_N@Z
??$objectToValue@VMDagPathArray@@@MPyUtil@@SA?AVMDagPathArray@@PEAU_object@@_N@Z
??$objectToValue@VMDoubleArray@@@MPyUtil@@SA?AVMDoubleArray@@PEAU_object@@_N@Z
??$objectToValue@VMEulerRotation@@@MPyUtil@@SA?AVMEulerRotation@@PEAU_object@@_N@Z
??$objectToValue@VMFileObject@@@MPyUtil@@SA?AVMFileObject@@PEAU_object@@_N@Z
??$objectToValue@VMFloatArray@@@MPyUtil@@SA?AVMFloatArray@@PEAU_object@@_N@Z
??$objectToValue@VMFloatMatrix@@@MPyUtil@@SA?AVMFloatMatrix@@PEAU_object@@_N@Z
??$objectToValue@VMFloatPoint@@@MPyUtil@@SA?AVMFloatPoint@@PEAU_object@@_N@Z
??$objectToValue@VMFloatPointArray@@@MPyUtil@@SA?AVMFloatPointArray@@PEAU_object@@_N@Z
??$objectToValue@VMFloatVector@@@MPyUtil@@SA?AVMFloatVector@@PEAU_object@@_N@Z
??$objectToValue@VMImage@@@MPyUtil@@SA?AVMImage@@PEAU_object@@_N@Z
??$objectToValue@VMInt64Array@@@MPyUtil@@SA?AVMInt64Array@@PEAU_object@@_N@Z
??$objectToValue@VMIntArray@@@MPyUtil@@SA?AVMIntArray@@PEAU_object@@_N@Z
??$objectToValue@VMMatrix@@@MPyUtil@@SA?AVMMatrix@@PEAU_object@@_N@Z
??$objectToValue@VMMatrixArray@@@MPyUtil@@SA?AVMMatrixArray@@PEAU_object@@_N@Z
??$objectToValue@VMObject@@@MPyUtil@@SA?AVMObject@@PEAU_object@@_N@Z
??$objectToValue@VMObjectArray@@@MPyUtil@@SA?AVMObjectArray@@PEAU_object@@_N@Z
??$objectToValue@VMObjectHandle@@@MPyUtil@@SA?AVMObjectHandle@@PEAU_object@@_N@Z
??$objectToValue@VMPlane@@@MPyUtil@@SA?AVMPlane@@PEAU_object@@_N@Z
??$objectToValue@VMPlug@@@MPyUtil@@SA?AVMPlug@@PEAU_object@@_N@Z
??$objectToValue@VMPoint@@@MPyUtil@@SA?AVMPoint@@PEAU_object@@_N@Z
??$objectToValue@VMPointArray@@@MPyUtil@@SA?AVMPointArray@@PEAU_object@@_N@Z
??$objectToValue@VMPxGeometryIterator@@@MPyUtil@@SA?AVMPxGeometryIterator@@PEAU_object@@_N@Z
??$objectToValue@VMQuaternion@@@MPyUtil@@SA?AVMQuaternion@@PEAU_object@@_N@Z
??$objectToValue@VMRichSelection@@@MPyUtil@@SA?AVMRichSelection@@PEAU_object@@_N@Z
??$objectToValue@VMSelectionList@@@MPyUtil@@SA?AVMSelectionList@@PEAU_object@@_N@Z
??$objectToValue@VMString@@@MPyUtil@@SA?AVMString@@PEAU_object@@_N@Z
??$objectToValue@VMSyntax@@@MPyUtil@@SA?AVMSyntax@@PEAU_object@@_N@Z
??$objectToValue@VMTime@@@MPyUtil@@SA?AVMTime@@PEAU_object@@_N@Z
??$objectToValue@VMTimeArray@@@MPyUtil@@SA?AVMTimeArray@@PEAU_object@@_N@Z
??$objectToValue@VMTransformationMatrix@@@MPyUtil@@SA?AVMTransformationMatrix@@PEAU_object@@_N@Z
??$objectToValue@VMTypeId@@@MPyUtil@@SA?AVMTypeId@@PEAU_object@@_N@Z
??$objectToValue@VMUintArray@@@MPyUtil@@SA?AVMUintArray@@PEAU_object@@_N@Z
??$objectToValue@VMUuid@@@MPyUtil@@SA?AVMUuid@@PEAU_object@@_N@Z
??$objectToValue@VMVector@@@MPyUtil@@SA?AVMVector@@PEAU_object@@_N@Z
??$objectToValue@VMWeight@@@MPyUtil@@SA?AVMWeight@@PEAU_object@@_N@Z
??$objectToValue@W4BoundaryRule@MMeshSmoothOptions@@@MPyUtil@@SA?AW4BoundaryRule@MMeshSmoothOptions@@PEAU_object@@_N@Z
??$objectToValue@W4DisconnectBehavior@MFnAttribute@@@MPyUtil@@SA?AW4DisconnectBehavior@MFnAttribute@@PEAU_object@@_N@Z
??$objectToValue@W4DrawOverrideDisplayType@MDAGDrawOverrideInfo@@@MPyUtil@@SA?AW4DrawOverrideDisplayType@MDAGDrawOverrideInfo@@PEAU_object@@_N@Z
??$objectToValue@W4DrawOverrideLOD@MDAGDrawOverrideInfo@@@MPyUtil@@SA?AW4DrawOverrideLOD@MDAGDrawOverrideInfo@@PEAU_object@@_N@Z
??$objectToValue@W4FilmFit@MFnCamera@@@MPyUtil@@SA?AW4FilmFit@MFnCamera@@PEAU_object@@_N@Z
??$objectToValue@W4Form@MFnNurbsCurve@@@MPyUtil@@SA?AW4Form@MFnNurbsCurve@@PEAU_object@@_N@Z
??$objectToValue@W4Form@MFnNurbsSurface@@@MPyUtil@@SA?AW4Form@MFnNurbsSurface@@PEAU_object@@_N@Z
??$objectToValue@W4MArgType@MSyntax@@@MPyUtil@@SA?AW4MArgType@MSyntax@@PEAU_object@@_N@Z
??$objectToValue@W4MChildChanged@MPxSurfaceShape@@@MPyUtil@@SA?AW4MChildChanged@MPxSurfaceShape@@PEAU_object@@_N@Z
??$objectToValue@W4MFileResolveMethod@MFileObject@@@MPyUtil@@SA?AW4MFileResolveMethod@MFileObject@@PEAU_object@@_N@Z
??$objectToValue@W4MIndexType@MAttributeIndex@@@MPyUtil@@SA?AW4MIndexType@MAttributeIndex@@PEAU_object@@_N@Z
??$objectToValue@W4MObjectColorType@MFnDagNode@@@MPyUtil@@SA?AW4MObjectColorType@MFnDagNode@@PEAU_object@@_N@Z
??$objectToValue@W4MObjectFormat@MSyntax@@@MPyUtil@@SA?AW4MObjectFormat@MSyntax@@PEAU_object@@_N@Z
??$objectToValue@W4MSelectionMode@MGlobal@@@MPyUtil@@SA?AW4MSelectionMode@MGlobal@@PEAU_object@@_N@Z
??$objectToValue@W4MVertexCachingMode@MPxSurfaceShape@@@MPyUtil@@SA?AW4MVertexCachingMode@MPxSurfaceShape@@PEAU_object@@_N@Z
??$objectToValue@W4MVertexOffsetMode@MPxSurfaceShape@@@MPyUtil@@SA?AW4MVertexOffsetMode@MPxSurfaceShape@@PEAU_object@@_N@Z
??$objectToValue@W4MatchResult@MPxSurfaceShape@@@MPyUtil@@SA?AW4MatchResult@MPxSurfaceShape@@PEAU_object@@_N@Z
??$objectToValue@W4RollOrder@MFnCamera@@@MPyUtil@@SA?AW4RollOrder@MFnCamera@@PEAU_object@@_N@Z
??$objectToValue@W4RotationOrder@MTransformationMatrix@@@MPyUtil@@SA?AW4RotationOrder@MTransformationMatrix@@PEAU_object@@_N@Z
??$objectToValue@W4Space@MSpace@@@MPyUtil@@SA?AW4Space@MSpace@@PEAU_object@@_N@Z
??$objectToValue@W4SubdivisionType@MMeshSmoothOptions@@@MPyUtil@@SA?AW4SubdivisionType@MMeshSmoothOptions@@PEAU_object@@_N@Z
??$objectToValue@W4Type@MFn@@@MPyUtil@@SA?AW4Type@MFn@@PEAU_object@@_N@Z
??$objectToValue@W4Unit@MAngle@@@MPyUtil@@SA?AW4Unit@MAngle@@PEAU_object@@_N@Z
??$objectToValue@W4Unit@MDistance@@@MPyUtil@@SA?AW4Unit@MDistance@@PEAU_object@@_N@Z
??$objectToValue@W4Unit@MTime@@@MPyUtil@@SA?AW4Unit@MTime@@PEAU_object@@_N@Z
??$objectToValue@_J@MPyUtil@@SA_JPEAU_object@@_N@Z
??$objectToValue@_K@MPyUtil@@SA_KPEAU_object@@_N@Z
??$objectToValue@_N@MPyUtil@@SA_NPEAU_object@@_N@Z
??$valueToObject@D@MPyUtil@@SAPEAU_object@@D@Z
??$valueToObject@E@MPyUtil@@SAPEAU_object@@E@Z
??$valueToObject@F@MPyUtil@@SAPEAU_object@@F@Z
??$valueToObject@H@MPyUtil@@SAPEAU_object@@H@Z
??$valueToObject@I@MPyUtil@@SAPEAU_object@@I@Z
??$valueToObject@J@MPyUtil@@SAPEAU_object@@J@Z
??$valueToObject@K@MPyUtil@@SAPEAU_object@@K@Z
??$valueToObject@M@MPyUtil@@SAPEAU_object@@M@Z
??$valueToObject@N@MPyUtil@@SAPEAU_object@@N@Z
??$valueToObject@PEAX@MPyUtil@@SAPEAU_object@@PEAX@Z
??$valueToObject@PEBD@MPyUtil@@SAPEAU_object@@PEBD@Z
??$valueToObject@VMAngle@@@MPyUtil@@SAPEAU_object@@VMAngle@@@Z
??$valueToObject@VMArgParser@@@MPyUtil@@SAPEAU_object@@VMArgParser@@@Z
??$valueToObject@VMArrayDataBuilder@@@MPyUtil@@SAPEAU_object@@VMArrayDataBuilder@@@Z
??$valueToObject@VMArrayDataHandle@@@MPyUtil@@SAPEAU_object@@VMArrayDataHandle@@@Z
??$valueToObject@VMAttributeIndex@@@MPyUtil@@SAPEAU_object@@VMAttributeIndex@@@Z
??$valueToObject@VMAttributePattern@@@MPyUtil@@SAPEAU_object@@VMAttributePattern@@@Z
??$valueToObject@VMAttributeSpec@@@MPyUtil@@SAPEAU_object@@VMAttributeSpec@@@Z
??$valueToObject@VMAttributeSpecArray@@@MPyUtil@@SAPEAU_object@@VMAttributeSpecArray@@@Z
??$valueToObject@VMBoundingBox@@@MPyUtil@@SAPEAU_object@@VMBoundingBox@@@Z
??$valueToObject@VMCallbackIdArray@@@MPyUtil@@SAPEAU_object@@VMCallbackIdArray@@@Z
??$valueToObject@VMColor@@@MPyUtil@@SAPEAU_object@@VMColor@@@Z
??$valueToObject@VMDAGDrawOverrideInfo@@@MPyUtil@@SAPEAU_object@@VMDAGDrawOverrideInfo@@@Z
??$valueToObject@VMDGContext@@@MPyUtil@@SAPEAU_object@@VMDGContext@@@Z
??$valueToObject@VMDagPath@@@MPyUtil@@SAPEAU_object@@VMDagPath@@@Z
??$valueToObject@VMDagPathArray@@@MPyUtil@@SAPEAU_object@@VMDagPathArray@@@Z
??$valueToObject@VMDataHandle@@@MPyUtil@@SAPEAU_object@@VMDataHandle@@@Z
??$valueToObject@VMDistance@@@MPyUtil@@SAPEAU_object@@VMDistance@@@Z
??$valueToObject@VMDoubleArray@@@MPyUtil@@SAPEAU_object@@VMDoubleArray@@@Z
??$valueToObject@VMEulerRotation@@@MPyUtil@@SAPEAU_object@@VMEulerRotation@@@Z
??$valueToObject@VMFileObject@@@MPyUtil@@SAPEAU_object@@VMFileObject@@@Z
??$valueToObject@VMFloatArray@@@MPyUtil@@SAPEAU_object@@VMFloatArray@@@Z
??$valueToObject@VMFloatMatrix@@@MPyUtil@@SAPEAU_object@@VMFloatMatrix@@@Z
??$valueToObject@VMFloatPoint@@@MPyUtil@@SAPEAU_object@@VMFloatPoint@@@Z
??$valueToObject@VMFloatPointArray@@@MPyUtil@@SAPEAU_object@@VMFloatPointArray@@@Z
??$valueToObject@VMFloatVector@@@MPyUtil@@SAPEAU_object@@VMFloatVector@@@Z
??$valueToObject@VMImage@@@MPyUtil@@SAPEAU_object@@VMImage@@@Z
??$valueToObject@VMInt64Array@@@MPyUtil@@SAPEAU_object@@VMInt64Array@@@Z
??$valueToObject@VMIntArray@@@MPyUtil@@SAPEAU_object@@VMIntArray@@@Z
??$valueToObject@VMMatrix@@@MPyUtil@@SAPEAU_object@@VMMatrix@@@Z
??$valueToObject@VMMatrixArray@@@MPyUtil@@SAPEAU_object@@VMMatrixArray@@@Z
??$valueToObject@VMObject@@@MPyUtil@@SAPEAU_object@@VMObject@@@Z
??$valueToObject@VMObjectArray@@@MPyUtil@@SAPEAU_object@@VMObjectArray@@@Z
??$valueToObject@VMObjectHandle@@@MPyUtil@@SAPEAU_object@@VMObjectHandle@@@Z
??$valueToObject@VMPlane@@@MPyUtil@@SAPEAU_object@@VMPlane@@@Z
??$valueToObject@VMPlug@@@MPyUtil@@SAPEAU_object@@VMPlug@@@Z
??$valueToObject@VMPoint@@@MPyUtil@@SAPEAU_object@@VMPoint@@@Z
??$valueToObject@VMPointArray@@@MPyUtil@@SAPEAU_object@@VMPointArray@@@Z
??$valueToObject@VMPxGeometryIterator@@@MPyUtil@@SAPEAU_object@@VMPxGeometryIterator@@@Z
??$valueToObject@VMQuaternion@@@MPyUtil@@SAPEAU_object@@VMQuaternion@@@Z
??$valueToObject@VMRichSelection@@@MPyUtil@@SAPEAU_object@@VMRichSelection@@@Z
??$valueToObject@VMSelectionList@@@MPyUtil@@SAPEAU_object@@VMSelectionList@@@Z
??$valueToObject@VMSelectionMask@@@MPyUtil@@SAPEAU_object@@VMSelectionMask@@@Z
??$valueToObject@VMString@@@MPyUtil@@SAPEAU_object@@VMString@@@Z
??$valueToObject@VMStringArray@@@MPyUtil@@SAPEAU_object@@VMStringArray@@@Z
??$valueToObject@VMSyntax@@@MPyUtil@@SAPEAU_object@@VMSyntax@@@Z
??$valueToObject@VMTime@@@MPyUtil@@SAPEAU_object@@VMTime@@@Z
??$valueToObject@VMTimeArray@@@MPyUtil@@SAPEAU_object@@VMTimeArray@@@Z
??$valueToObject@VMTransformationMatrix@@@MPyUtil@@SAPEAU_object@@VMTransformationMatrix@@@Z
??$valueToObject@VMTypeId@@@MPyUtil@@SAPEAU_object@@VMTypeId@@@Z
??$valueToObject@VMUintArray@@@MPyUtil@@SAPEAU_object@@VMUintArray@@@Z
??$valueToObject@VMUuid@@@MPyUtil@@SAPEAU_object@@VMUuid@@@Z
??$valueToObject@VMVector@@@MPyUtil@@SAPEAU_object@@VMVector@@@Z
??$valueToObject@VMWeight@@@MPyUtil@@SAPEAU_object@@VMWeight@@@Z
??$valueToObject@W4BoundaryRule@MMeshSmoothOptions@@@MPyUtil@@SAPEAU_object@@W4BoundaryRule@MMeshSmoothOptions@@@Z
??$valueToObject@W4DisconnectBehavior@MFnAttribute@@@MPyUtil@@SAPEAU_object@@W4DisconnectBehavior@MFnAttribute@@@Z
??$valueToObject@W4DrawOverrideDisplayType@MDAGDrawOverrideInfo@@@MPyUtil@@SAPEAU_object@@W4DrawOverrideDisplayType@MDAGDrawOverrideInfo@@@Z
??$valueToObject@W4DrawOverrideLOD@MDAGDrawOverrideInfo@@@MPyUtil@@SAPEAU_object@@W4DrawOverrideLOD@MDAGDrawOverrideInfo@@@Z
??$valueToObject@W4FilmFit@MFnCamera@@@MPyUtil@@SAPEAU_object@@W4FilmFit@MFnCamera@@@Z
??$valueToObject@W4Form@MFnNurbsCurve@@@MPyUtil@@SAPEAU_object@@W4Form@MFnNurbsCurve@@@Z
??$valueToObject@W4Form@MFnNurbsSurface@@@MPyUtil@@SAPEAU_object@@W4Form@MFnNurbsSurface@@@Z
??$valueToObject@W4MArgType@MSyntax@@@MPyUtil@@SAPEAU_object@@W4MArgType@MSyntax@@@Z
??$valueToObject@W4MChildChanged@MPxSurfaceShape@@@MPyUtil@@SAPEAU_object@@W4MChildChanged@MPxSurfaceShape@@@Z
??$valueToObject@W4MFileResolveMethod@MFileObject@@@MPyUtil@@SAPEAU_object@@W4MFileResolveMethod@MFileObject@@@Z
??$valueToObject@W4MIndexType@MAttributeIndex@@@MPyUtil@@SAPEAU_object@@W4MIndexType@MAttributeIndex@@@Z
??$valueToObject@W4MObjectColorType@MFnDagNode@@@MPyUtil@@SAPEAU_object@@W4MObjectColorType@MFnDagNode@@@Z
??$valueToObject@W4MObjectFormat@MSyntax@@@MPyUtil@@SAPEAU_object@@W4MObjectFormat@MSyntax@@@Z
??$valueToObject@W4MSelectionMode@MGlobal@@@MPyUtil@@SAPEAU_object@@W4MSelectionMode@MGlobal@@@Z
??$valueToObject@W4MVertexCachingMode@MPxSurfaceShape@@@MPyUtil@@SAPEAU_object@@W4MVertexCachingMode@MPxSurfaceShape@@@Z
??$valueToObject@W4MVertexOffsetMode@MPxSurfaceShape@@@MPyUtil@@SAPEAU_object@@W4MVertexOffsetMode@MPxSurfaceShape@@@Z
??$valueToObject@W4MatchResult@MPxSurfaceShape@@@MPyUtil@@SAPEAU_object@@W4MatchResult@MPxSurfaceShape@@@Z
??$valueToObject@W4RollOrder@MFnCamera@@@MPyUtil@@SAPEAU_object@@W4RollOrder@MFnCamera@@@Z
??$valueToObject@W4RotationOrder@MTransformationMatrix@@@MPyUtil@@SAPEAU_object@@W4RotationOrder@MTransformationMatrix@@@Z
??$valueToObject@W4Space@MSpace@@@MPyUtil@@SAPEAU_object@@W4Space@MSpace@@@Z
??$valueToObject@W4SubdivisionType@MMeshSmoothOptions@@@MPyUtil@@SAPEAU_object@@W4SubdivisionType@MMeshSmoothOptions@@@Z
??$valueToObject@W4Type@MFn@@@MPyUtil@@SAPEAU_object@@W4Type@MFn@@@Z
??$valueToObject@W4Type@MFnData@@@MPyUtil@@SAPEAU_object@@W4Type@MFnData@@@Z
??$valueToObject@W4Type@MFnNumericData@@@MPyUtil@@SAPEAU_object@@W4Type@MFnNumericData@@@Z
??$valueToObject@W4Unit@MAngle@@@MPyUtil@@SAPEAU_object@@W4Unit@MAngle@@@Z
??$valueToObject@W4Unit@MDistance@@@MPyUtil@@SAPEAU_object@@W4Unit@MDistance@@@Z
??$valueToObject@W4Unit@MTime@@@MPyUtil@@SAPEAU_object@@W4Unit@MTime@@@Z
??$valueToObject@W4selItemType@MItSelectionList@@@MPyUtil@@SAPEAU_object@@W4selItemType@MItSelectionList@@@Z
??$valueToObject@_J@MPyUtil@@SAPEAU_object@@_J@Z
??$valueToObject@_K@MPyUtil@@SAPEAU_object@@_K@Z
??$valueToObject@_N@MPyUtil@@SAPEAU_object@@_N@Z
??0Iterator@TanimCallbackTable@@QEAA@AEAV1@@Z
??0Iterator@TanimCallbackTable@@QEAA@AEBV01@@Z
??0MAddRemoveAttrEdit@@AEAA@PEBXH_N@Z
??0MAddRemoveAttrEdit@@QEAA@AEBV0@@Z
??0MAngle@@QEAA@AEBV0@@Z
??0MAngle@@QEAA@NW4Unit@0@@Z
??0MAngle@@QEAA@XZ
??0MArgDatabase@@QEAA@AEBV0@@Z
??0MArgDatabase@@QEAA@AEBVMSyntax@@AEBVMArgList@@PEAVMStatus@@@Z
??0MArgDatabase@@QEAA@XZ
??0MArgList@@AEAA@PEBXI@Z
??0MArgList@@QEAA@AEBV0@@Z
??0MArgList@@QEAA@XZ
??0MArgParser@@AEAA@PEAX@Z
??0MArgParser@@QEAA@AEBV0@@Z
??0MArgParser@@QEAA@AEBVMSyntax@@AEBVMArgList@@PEAVMStatus@@@Z
??0MArgParser@@QEAA@XZ
??0MArrayDataBuilder@@AEAA@PEAX@Z
??0MArrayDataBuilder@@AEAA@XZ
??0MArrayDataBuilder@@QEAA@AEBV0@@Z
??0MArrayDataBuilder@@QEAA@AEBVMObject@@IPEAVMStatus@@@Z
??0MArrayDataBuilder@@QEAA@PEAVMDataBlock@@AEBVMObject@@IPEAVMStatus@@@Z
??0MArrayDataHandle@@AEAA@PEAX@Z
??0MArrayDataHandle@@AEAA@XZ
??0MArrayDataHandle@@QEAA@AEBV0@@Z
??0MArrayDataHandle@@QEAA@AEBVMDataHandle@@PEAVMStatus@@@Z
??0MAttributeIndex@@AEAA@PEAX@Z
??0MAttributeIndex@@QEAA@AEBV0@@Z
??0MAttributeIndex@@QEAA@H@Z
??0MAttributeIndex@@QEAA@N@Z
??0MAttributeIndex@@QEAA@XZ
??0MAttributePattern@@IEAA@PEAX@Z
??0MAttributePattern@@QEAA@AEBV0@@Z
??0MAttributePattern@@QEAA@AEBVMString@@@Z
??0MAttributePattern@@QEAA@XZ
??0MAttributePatternArray@@AEAA@PEAX@Z
??0MAttributePatternArray@@QEAA@AEBV0@@Z
??0MAttributePatternArray@@QEAA@IAEBVMAttributePattern@@@Z
??0MAttributePatternArray@@QEAA@XZ
??0MAttributeSpec@@AEAA@PEAX@Z
??0MAttributeSpec@@QEAA@AEBV0@@Z
??0MAttributeSpec@@QEAA@AEBVMString@@@Z
??0MAttributeSpec@@QEAA@PEBD@Z
??0MAttributeSpec@@QEAA@XZ
??0MAttributeSpecArray@@AEAA@PEAX@Z
??0MAttributeSpecArray@@QEAA@AEBV0@@Z
??0MAttributeSpecArray@@QEAA@IAEBVMAttributeSpec@@@Z
??0MAttributeSpecArray@@QEAA@XZ
??0MAutoCLEvent@@QEAA@AEBV0@@Z
??0MAutoCLEvent@@QEAA@PEAU_cl_event@@VNoRef@0@@Z
??0MAutoCLEvent@@QEAA@XZ
??0MAutoCLKernel@@QEAA@AEBV0@@Z
??0MAutoCLKernel@@QEAA@PEAU_cl_kernel@@VNoRef@0@@Z
??0MAutoCLKernel@@QEAA@XZ
??0MAutoCLMem@@QEAA@AEBV0@@Z
??0MAutoCLMem@@QEAA@PEAU_cl_mem@@VNoRef@0@@Z
??0MAutoCLMem@@QEAA@XZ
??0MBoundingBox@@QEAA@AEBV0@@Z
??0MBoundingBox@@QEAA@AEBVMPoint@@0@Z
??0MBoundingBox@@QEAA@XZ
??0MCacheFormatDescription@@AEAA@XZ
??0MCacheFormatDescription@@QEAA@AEBV0@@Z
??0MCallbackIdArray@@AEAA@PEAX@Z
??0MCallbackIdArray@@QEAA@AEBV0@@Z
??0MCallbackIdArray@@QEAA@I_K@Z
??0MCallbackIdArray@@QEAA@QEB_KI@Z
??0MCallbackIdArray@@QEAA@XZ
??0MColor@@QEAA@AEBV0@@Z
??0MColor@@QEAA@M@Z
??0MColor@@QEAA@MMMM@Z
??0MColor@@QEAA@QEBM@Z
??0MColor@@QEAA@W4MColorType@0@EEEE@Z
??0MColor@@QEAA@W4MColorType@0@GGGG@Z
??0MColor@@QEAA@W4MColorType@0@MMMM@Z
??0MColor@@QEAA@W4MColorType@0@NNNN@Z
??0MColor@@QEAA@XZ
??0MColorArray@@AEAA@PEAX@Z
??0MColorArray@@QEAA@AEBV0@@Z
??0MColorArray@@QEAA@IAEBVMColor@@@Z
??0MColorArray@@QEAA@QEAY03$$CBMI@Z
??0MColorArray@@QEAA@QEAY03$$CBNI@Z
??0MColorArray@@QEAA@QEBVMColor@@I@Z
??0MColorArray@@QEAA@XZ
??0MCommandResult@@QEAA@AEBV0@@Z
??0MCommandResult@@QEAA@PEAVMStatus@@@Z
??0MComputation@@QEAA@AEBV0@@Z
??0MComputation@@QEAA@XZ
??0MConnectDisconnectAttrEdit@@AEAA@PEBXH_N@Z
??0MConnectDisconnectAttrEdit@@QEAA@AEBV0@@Z
??0MCurveAttribute@@QEAA@AEBV0@@Z
??0MCurveAttribute@@QEAA@AEBVMObject@@0PEAVMStatus@@@Z
??0MCurveAttribute@@QEAA@AEBVMPlug@@PEAVMStatus@@@Z
??0MCurveAttribute@@QEAA@XZ
??0MDAGDrawOverrideInfo@@QEAA@XZ
??0MDGContext@@AEAA@PEBX@Z
??0MDGContext@@QEAA@AEBV0@@Z
??0MDGContext@@QEAA@AEBVMTime@@@Z
??0MDGContext@@QEAA@XZ
??0MDGModifier@@IEAA@AEBV0@@Z
??0MDGModifier@@IEAA@PEAX@Z
??0MDGModifier@@QEAA@XZ
??0MDagModifier@@IEAA@AEBV0@@Z
??0MDagModifier@@IEAA@PEAX@Z
??0MDagModifier@@QEAA@XZ
??0MDagPath@@QEAA@AEBV0@@Z
??0MDagPath@@QEAA@XZ
??0MDagPathArray@@AEAA@PEAX@Z
??0MDagPathArray@@QEAA@AEBV0@@Z
??0MDagPathArray@@QEAA@IAEBVMDagPath@@@Z
??0MDagPathArray@@QEAA@XZ
??0MDataBlock@@AEAA@PEAX@Z
??0MDataBlock@@QEAA@AEBV0@@Z
??0MDataHandle@@AEAA@PEAX@Z
??0MDataHandle@@QEAA@AEBV0@@Z
??0MDataHandle@@QEAA@XZ
??0MDistance@@QEAA@AEBV0@@Z
??0MDistance@@QEAA@NW4Unit@0@@Z
??0MDistance@@QEAA@XZ
??0MDoubleArray@@AEAA@PEAX@Z
??0MDoubleArray@@QEAA@AEBV0@@Z
??0MDoubleArray@@QEAA@IN@Z
??0MDoubleArray@@QEAA@QEBMI@Z
??0MDoubleArray@@QEAA@QEBNI@Z
??0MDoubleArray@@QEAA@XZ
??0MEdit@@IEAA@PEBXH@Z
??0MEdit@@QEAA@AEBV0@@Z
??0MEulerRotation@@QEAA@AEBV0@@Z
??0MEulerRotation@@QEAA@AEBVMVector@@W4RotationOrder@0@@Z
??0MEulerRotation@@QEAA@NNNW4RotationOrder@0@@Z
??0MEulerRotation@@QEAA@XZ
??0MEvaluationManager@@AEAA@XZ
??0MEvaluationNode@@AEAA@PEBX@Z
??0MEvaluationNode@@AEAA@XZ
??0MEvaluationNodeIterator@@AEAA@PEBX@Z
??0MEvaluationNodeIterator@@AEAA@XZ
??0MEvaluationNodeIterator@@QEAA@AEBV0@@Z
??0MEvaluationNodeIterator@@QEAA@AEBVMEvaluationNode@@PEAVMStatus@@@Z
??0MExternalContentInfoTable@@AEAA@PEAX@Z
??0MExternalContentInfoTable@@QEAA@XZ
??0MExternalContentLocationTable@@AEAA@QEBX@Z
??0MExternalContentLocationTable@@QEAA@XZ
??0MFcurveEdit@@AEAA@PEBX_N@Z
??0MFcurveEdit@@QEAA@AEBV0@@Z
??0MFileIO@@QEAA@AEBV0@@Z
??0MFileIO@@QEAA@AEBVMString@@@Z
??0MFileIO@@QEAA@XZ
??0MFileObject@@QEAA@AEBV0@@Z
??0MFileObject@@QEAA@XZ
??0MFloatArray@@AEAA@PEAX@Z
??0MFloatArray@@QEAA@AEBV0@@Z
??0MFloatArray@@QEAA@IM@Z
??0MFloatArray@@QEAA@QEBMI@Z
??0MFloatArray@@QEAA@QEBNI@Z
??0MFloatArray@@QEAA@XZ
??0MFloatMatrix@@QEAA@AEBV0@@Z
??0MFloatMatrix@@QEAA@QEAY03$$CBM@Z
??0MFloatMatrix@@QEAA@QEAY03$$CBN@Z
??0MFloatMatrix@@QEAA@XZ
??0MFloatPoint@@QEAA@AEBV0@@Z
??0MFloatPoint@@QEAA@AEBVMFloatVector@@@Z
??0MFloatPoint@@QEAA@AEBVMPoint@@@Z
??0MFloatPoint@@QEAA@AEBVMVector@@@Z
??0MFloatPoint@@QEAA@MMMM@Z
??0MFloatPoint@@QEAA@QEBM@Z
??0MFloatPoint@@QEAA@QEBN@Z
??0MFloatPoint@@QEAA@XZ
??0MFloatPointArray@@AEAA@PEAX@Z
??0MFloatPointArray@@QEAA@AEBV0@@Z
??0MFloatPointArray@@QEAA@IAEBVMFloatPoint@@@Z
??0MFloatPointArray@@QEAA@QEAY03$$CBMI@Z
??0MFloatPointArray@@QEAA@QEAY03$$CBNI@Z
??0MFloatPointArray@@QEAA@QEBVMFloatPoint@@I@Z
??0MFloatPointArray@@QEAA@XZ
??0MFloatVector@@QEAA@AEBV0@@Z
??0MFloatVector@@QEAA@AEBVMFloatPoint@@@Z
??0MFloatVector@@QEAA@AEBVMPoint@@@Z
??0MFloatVector@@QEAA@AEBVMVector@@@Z
??0MFloatVector@@QEAA@MMM@Z
??0MFloatVector@@QEAA@QEBM@Z
??0MFloatVector@@QEAA@QEBN@Z
??0MFloatVector@@QEAA@XZ
??0MFloatVectorArray@@AEAA@PEAX@Z
??0MFloatVectorArray@@QEAA@AEBV0@@Z
??0MFloatVectorArray@@QEAA@IAEBVMFloatVector@@@Z
??0MFloatVectorArray@@QEAA@QEAY02$$CBMI@Z
??0MFloatVectorArray@@QEAA@QEAY02$$CBNI@Z
??0MFloatVectorArray@@QEAA@QEBVMFloatVector@@I@Z
??0MFloatVectorArray@@QEAA@XZ
??0MFnAmbientLight@@QEAA@AEAVMObject@@PEAVMStatus@@@Z
??0MFnAmbientLight@@QEAA@AEBVMDagPath@@PEAVMStatus@@@Z
??0MFnAmbientLight@@QEAA@AEBVMObject@@PEAVMStatus@@@Z
??0MFnAmbientLight@@QEAA@XZ
??0MFnAnisotropyShader@@QEAA@AEAVMObject@@PEAVMStatus@@@Z
??0MFnAnisotropyShader@@QEAA@AEBVMObject@@PEAVMStatus@@@Z
??0MFnAnisotropyShader@@QEAA@XZ
??0MFnAreaLight@@QEAA@AEAVMObject@@PEAVMStatus@@@Z
??0MFnAreaLight@@QEAA@AEBVMDagPath@@PEAVMStatus@@@Z
??0MFnAreaLight@@QEAA@AEBVMObject@@PEAVMStatus@@@Z
??0MFnAreaLight@@QEAA@XZ
??0MFnArrayAttrsData@@QEAA@AEAVMObject@@PEAVMStatus@@@Z
??0MFnArrayAttrsData@@QEAA@AEBVMObject@@PEAVMStatus@@@Z
??0MFnArrayAttrsData@@QEAA@XZ
??0MFnAssembly@@QEAA@AEAVMObject@@PEAVMStatus@@@Z
??0MFnAssembly@@QEAA@AEBVMDagPath@@PEAVMStatus@@@Z
??0MFnAssembly@@QEAA@AEBVMObject@@PEAVMStatus@@@Z
??0MFnAssembly@@QEAA@XZ
??0MFnAttribute@@QEAA@AEAVMObject@@PEAVMStatus@@@Z
??0MFnAttribute@@QEAA@AEBVMObject@@PEAVMStatus@@@Z
??0MFnAttribute@@QEAA@XZ
??0MFnBase@@IEAA@XZ
??0MFnBlinnShader@@QEAA@AEAVMObject@@PEAVMStatus@@@Z
??0MFnBlinnShader@@QEAA@AEBVMObject@@PEAVMStatus@@@Z
??0MFnBlinnShader@@QEAA@XZ
??0MFnCamera@@QEAA@AEAVMObject@@PEAVMStatus@@@Z
??0MFnCamera@@QEAA@AEBVMDagPath@@PEAVMStatus@@@Z
??0MFnCamera@@QEAA@AEBVMObject@@PEAVMStatus@@@Z
??0MFnCamera@@QEAA@XZ
??0MFnCameraSet@@QEAA@AEAVMObject@@PEAVMStatus@@@Z
??0MFnCameraSet@@QEAA@AEBVMObject@@PEAVMStatus@@@Z
??0MFnCameraSet@@QEAA@XZ
??0MFnComponent@@QEAA@AEAVMObject@@PEAVMStatus@@@Z
??0MFnComponent@@QEAA@AEBVMObject@@PEAVMStatus@@@Z
??0MFnComponent@@QEAA@XZ
??0MFnComponentListData@@QEAA@AEAVMObject@@PEAVMStatus@@@Z
??0MFnComponentListData@@QEAA@AEBVMObject@@PEAVMStatus@@@Z
??0MFnComponentListData@@QEAA@XZ
??0MFnCompoundAttribute@@QEAA@AEAVMObject@@PEAVMStatus@@@Z
??0MFnCompoundAttribute@@QEAA@AEBVMObject@@PEAVMStatus@@@Z
??0MFnCompoundAttribute@@QEAA@XZ
??0MFnContainerNode@@QEAA@AEAVMObject@@PEAVMStatus@@@Z
??0MFnContainerNode@@QEAA@AEBVMObject@@PEAVMStatus@@@Z
??0MFnContainerNode@@QEAA@XZ
??0MFnDagNode@@QEAA@AEAVMObject@@PEAVMStatus@@@Z
??0MFnDagNode@@QEAA@AEBVMDagPath@@PEAVMStatus@@@Z
??0MFnDagNode@@QEAA@AEBVMObject@@PEAVMStatus@@@Z
??0MFnDagNode@@QEAA@XZ
??0MFnData@@QEAA@AEAVMObject@@PEAVMStatus@@@Z
??0MFnData@@QEAA@AEBVMObject@@PEAVMStatus@@@Z
??0MFnData@@QEAA@XZ
??0MFnDependencyNode@@QEAA@AEAVMObject@@PEAVMStatus@@@Z
??0MFnDependencyNode@@QEAA@AEBVMObject@@PEAVMStatus@@@Z
??0MFnDependencyNode@@QEAA@XZ
??0MFnDirectionalLight@@QEAA@AEAVMObject@@PEAVMStatus@@@Z
??0MFnDirectionalLight@@QEAA@AEBVMDagPath@@PEAVMStatus@@@Z
??0MFnDirectionalLight@@QEAA@AEBVMObject@@PEAVMStatus@@@Z
??0MFnDirectionalLight@@QEAA@XZ
??0MFnDoubleArrayData@@QEAA@AEAVMObject@@PEAVMStatus@@@Z
??0MFnDoubleArrayData@@QEAA@AEBVMObject@@PEAVMStatus@@@Z
??0MFnDoubleArrayData@@QEAA@XZ
??0MFnDoubleIndexedComponent@@QEAA@AEAVMObject@@PEAVMStatus@@@Z
??0MFnDoubleIndexedComponent@@QEAA@AEBVMObject@@PEAVMStatus@@@Z
??0MFnDoubleIndexedComponent@@QEAA@XZ
??0MFnEnumAttribute@@QEAA@AEAVMObject@@PEAVMStatus@@@Z
??0MFnEnumAttribute@@QEAA@AEBVMObject@@PEAVMStatus@@@Z
??0MFnEnumAttribute@@QEAA@XZ
??0MFnExpression@@QEAA@AEAVMObject@@PEAVMStatus@@@Z
??0MFnExpression@@QEAA@AEBVMObject@@PEAVMStatus@@@Z
??0MFnExpression@@QEAA@XZ
??0MFnFloatArrayData@@QEAA@AEAVMObject@@PEAVMStatus@@@Z
??0MFnFloatArrayData@@QEAA@AEBVMObject@@PEAVMStatus@@@Z
??0MFnFloatArrayData@@QEAA@XZ
??0MFnGenericAttribute@@QEAA@AEAVMObject@@PEAVMStatus@@@Z
??0MFnGenericAttribute@@QEAA@AEBVMObject@@PEAVMStatus@@@Z
??0MFnGenericAttribute@@QEAA@XZ
??0MFnGeometryData@@QEAA@AEAVMObject@@PEAVMStatus@@@Z
??0MFnGeometryData@@QEAA@AEBVMObject@@PEAVMStatus@@@Z
??0MFnGeometryData@@QEAA@XZ
??0MFnIntArrayData@@QEAA@AEAVMObject@@PEAVMStatus@@@Z
??0MFnIntArrayData@@QEAA@AEBVMObject@@PEAVMStatus@@@Z
??0MFnIntArrayData@@QEAA@XZ
??0MFnLambertShader@@QEAA@AEAVMObject@@PEAVMStatus@@@Z
??0MFnLambertShader@@QEAA@AEBVMObject@@PEAVMStatus@@@Z
??0MFnLambertShader@@QEAA@XZ
??0MFnLatticeData@@QEAA@AEAVMObject@@PEAVMStatus@@@Z
??0MFnLatticeData@@QEAA@AEBVMObject@@PEAVMStatus@@@Z
??0MFnLatticeData@@QEAA@XZ
??0MFnLayeredShader@@QEAA@AEAVMObject@@PEAVMStatus@@@Z
??0MFnLayeredShader@@QEAA@AEBVMObject@@PEAVMStatus@@@Z
??0MFnLayeredShader@@QEAA@XZ
??0MFnLight@@QEAA@AEAVMObject@@PEAVMStatus@@@Z
??0MFnLight@@QEAA@AEBVMDagPath@@PEAVMStatus@@@Z
??0MFnLight@@QEAA@AEBVMObject@@PEAVMStatus@@@Z
??0MFnLight@@QEAA@XZ
??0MFnLightDataAttribute@@QEAA@AEAVMObject@@PEAVMStatus@@@Z
??0MFnLightDataAttribute@@QEAA@AEBVMObject@@PEAVMStatus@@@Z
??0MFnLightDataAttribute@@QEAA@XZ
??0MFnMatrixArrayData@@QEAA@AEAVMObject@@PEAVMStatus@@@Z
??0MFnMatrixArrayData@@QEAA@AEBVMObject@@PEAVMStatus@@@Z
??0MFnMatrixArrayData@@QEAA@XZ
??0MFnMatrixAttribute@@QEAA@AEAVMObject@@PEAVMStatus@@@Z
??0MFnMatrixAttribute@@QEAA@AEBVMObject@@PEAVMStatus@@@Z
??0MFnMatrixAttribute@@QEAA@XZ
??0MFnMatrixData@@QEAA@AEAVMObject@@PEAVMStatus@@@Z
??0MFnMatrixData@@QEAA@AEBVMObject@@PEAVMStatus@@@Z
??0MFnMatrixData@@QEAA@XZ
??0MFnMesh@@QEAA@AEAVMObject@@PEAVMStatus@@@Z
??0MFnMesh@@QEAA@AEBVMDagPath@@PEAVMStatus@@@Z
??0MFnMesh@@QEAA@AEBVMObject@@PEAVMStatus@@@Z
??0MFnMesh@@QEAA@XZ
??0MFnMeshData@@QEAA@AEAVMObject@@PEAVMStatus@@@Z
??0MFnMeshData@@QEAA@AEBVMObject@@PEAVMStatus@@@Z
??0MFnMeshData@@QEAA@XZ
??0MFnMessageAttribute@@QEAA@AEAVMObject@@PEAVMStatus@@@Z
??0MFnMessageAttribute@@QEAA@AEBVMObject@@PEAVMStatus@@@Z
??0MFnMessageAttribute@@QEAA@XZ
??0MFnNonAmbientLight@@QEAA@AEAVMObject@@PEAVMStatus@@@Z
??0MFnNonAmbientLight@@QEAA@AEBVMDagPath@@PEAVMStatus@@@Z
??0MFnNonAmbientLight@@QEAA@AEBVMObject@@PEAVMStatus@@@Z
??0MFnNonAmbientLight@@QEAA@XZ
??0MFnNonExtendedLight@@QEAA@AEAVMObject@@PEAVMStatus@@@Z
??0MFnNonExtendedLight@@QEAA@AEBVMDagPath@@PEAVMStatus@@@Z
??0MFnNonExtendedLight@@QEAA@AEBVMObject@@PEAVMStatus@@@Z
??0MFnNonExtendedLight@@QEAA@XZ
??0MFnNumericAttribute@@QEAA@AEAVMObject@@PEAVMStatus@@@Z
??0MFnNumericAttribute@@QEAA@AEBVMObject@@PEAVMStatus@@@Z
??0MFnNumericAttribute@@QEAA@XZ
??0MFnNumericData@@QEAA@AEAVMObject@@PEAVMStatus@@@Z
??0MFnNumericData@@QEAA@AEBVMObject@@PEAVMStatus@@@Z
??0MFnNumericData@@QEAA@XZ
??0MFnNurbsCurve@@QEAA@AEAVMObject@@PEAVMStatus@@@Z
??0MFnNurbsCurve@@QEAA@AEBVMDagPath@@PEAVMStatus@@@Z
??0MFnNurbsCurve@@QEAA@AEBVMObject@@PEAVMStatus@@@Z
??0MFnNurbsCurve@@QEAA@XZ
??0MFnNurbsCurveData@@QEAA@AEAVMObject@@PEAVMStatus@@@Z
??0MFnNurbsCurveData@@QEAA@AEBVMObject@@PEAVMStatus@@@Z
??0MFnNurbsCurveData@@QEAA@XZ
??0MFnNurbsSurface@@QEAA@AEAVMObject@@PEAVMStatus@@@Z
??0MFnNurbsSurface@@QEAA@AEBVMDagPath@@PEAVMStatus@@@Z
??0MFnNurbsSurface@@QEAA@AEBVMObject@@PEAVMStatus@@@Z
??0MFnNurbsSurface@@QEAA@XZ
??0MFnNurbsSurfaceData@@QEAA@AEAVMObject@@PEAVMStatus@@@Z
??0MFnNurbsSurfaceData@@QEAA@AEBVMObject@@PEAVMStatus@@@Z
??0MFnNurbsSurfaceData@@QEAA@XZ
??0MFnPartition@@QEAA@AEAVMObject@@PEAVMStatus@@@Z
??0MFnPartition@@QEAA@AEBVMObject@@PEAVMStatus@@@Z
??0MFnPartition@@QEAA@XZ
??0MFnPhongEShader@@QEAA@AEAVMObject@@PEAVMStatus@@@Z
??0MFnPhongEShader@@QEAA@AEBVMObject@@PEAVMStatus@@@Z
??0MFnPhongEShader@@QEAA@XZ
??0MFnPhongShader@@QEAA@AEAVMObject@@PEAVMStatus@@@Z
??0MFnPhongShader@@QEAA@AEBVMObject@@PEAVMStatus@@@Z
??0MFnPhongShader@@QEAA@XZ
??0MFnPlugin@@AEAA@AEBVMObject@@PEBD11PEAVMStatus@@@Z
??0MFnPlugin@@QEAA@AEAVMObject@@PEBD11PEAVMStatus@@@Z
??0MFnPlugin@@QEAA@XZ
??0MFnPluginData@@QEAA@AEAVMObject@@PEAVMStatus@@@Z
??0MFnPluginData@@QEAA@AEBVMObject@@PEAVMStatus@@@Z
??0MFnPluginData@@QEAA@XZ
??0MFnPointArrayData@@QEAA@AEAVMObject@@PEAVMStatus@@@Z
??0MFnPointArrayData@@QEAA@AEBVMObject@@PEAVMStatus@@@Z
??0MFnPointArrayData@@QEAA@XZ
??0MFnPointLight@@QEAA@AEAVMObject@@PEAVMStatus@@@Z
??0MFnPointLight@@QEAA@AEBVMDagPath@@PEAVMStatus@@@Z
??0MFnPointLight@@QEAA@AEBVMObject@@PEAVMStatus@@@Z
??0MFnPointLight@@QEAA@XZ
??0MFnReference@@QEAA@AEAVMObject@@PEAVMStatus@@@Z
??0MFnReference@@QEAA@AEBVMObject@@PEAVMStatus@@@Z
??0MFnReference@@QEAA@XZ
??0MFnReflectShader@@QEAA@AEAVMObject@@PEAVMStatus@@@Z
??0MFnReflectShader@@QEAA@AEBVMObject@@PEAVMStatus@@@Z
??0MFnReflectShader@@QEAA@XZ
??0MFnScPlugin@@QEAA@AEAVMObject@@PEBD11PEAVMStatus@@@Z
??0MFnScPlugin@@QEAA@XZ
??0MFnSet@@QEAA@AEAVMObject@@PEAVMStatus@@@Z
??0MFnSet@@QEAA@AEBVMObject@@PEAVMStatus@@@Z
??0MFnSet@@QEAA@XZ
??0MFnSingleIndexedComponent@@QEAA@AEAVMObject@@PEAVMStatus@@@Z
??0MFnSingleIndexedComponent@@QEAA@AEBVMObject@@PEAVMStatus@@@Z
??0MFnSingleIndexedComponent@@QEAA@XZ
??0MFnSphereData@@QEAA@AEAVMObject@@PEAVMStatus@@@Z
??0MFnSphereData@@QEAA@AEBVMObject@@PEAVMStatus@@@Z
??0MFnSphereData@@QEAA@XZ
??0MFnSpotLight@@QEAA@AEAVMObject@@PEAVMStatus@@@Z
??0MFnSpotLight@@QEAA@AEBVMDagPath@@PEAVMStatus@@@Z
??0MFnSpotLight@@QEAA@AEBVMObject@@PEAVMStatus@@@Z
??0MFnSpotLight@@QEAA@XZ
??0MFnStringArrayData@@QEAA@AEAVMObject@@PEAVMStatus@@@Z
??0MFnStringArrayData@@QEAA@AEBVMObject@@PEAVMStatus@@@Z
??0MFnStringArrayData@@QEAA@XZ
??0MFnStringData@@QEAA@AEAVMObject@@PEAVMStatus@@@Z
??0MFnStringData@@QEAA@AEBVMObject@@PEAVMStatus@@@Z
??0MFnStringData@@QEAA@XZ
??0MFnSubd@@QEAA@AEAVMObject@@PEAVMStatus@@@Z
??0MFnSubd@@QEAA@AEBVMDagPath@@PEAVMStatus@@@Z
??0MFnSubd@@QEAA@AEBVMObject@@PEAVMStatus@@@Z
??0MFnSubd@@QEAA@XZ
??0MFnSubdData@@QEAA@AEAVMObject@@PEAVMStatus@@@Z
??0MFnSubdData@@QEAA@AEBVMObject@@PEAVMStatus@@@Z
??0MFnSubdData@@QEAA@XZ
??0MFnSubdNames@@QEAA@XZ
??0MFnTransform@@QEAA@AEAVMObject@@PEAVMStatus@@@Z
??0MFnTransform@@QEAA@AEBVMDagPath@@PEAVMStatus@@@Z
??0MFnTransform@@QEAA@AEBVMObject@@PEAVMStatus@@@Z
??0MFnTransform@@QEAA@XZ
??0MFnTripleIndexedComponent@@QEAA@AEAVMObject@@PEAVMStatus@@@Z
??0MFnTripleIndexedComponent@@QEAA@AEBVMObject@@PEAVMStatus@@@Z
??0MFnTripleIndexedComponent@@QEAA@XZ
??0MFnTypedAttribute@@QEAA@AEAVMObject@@PEAVMStatus@@@Z
??0MFnTypedAttribute@@QEAA@AEBVMObject@@PEAVMStatus@@@Z
??0MFnTypedAttribute@@QEAA@XZ
??0MFnUInt64ArrayData@@QEAA@AEAVMObject@@PEAVMStatus@@@Z
??0MFnUInt64ArrayData@@QEAA@AEBVMObject@@PEAVMStatus@@@Z
??0MFnUInt64ArrayData@@QEAA@XZ
??0MFnUint64SingleIndexedComponent@@QEAA@AEAVMObject@@PEAVMStatus@@@Z
??0MFnUint64SingleIndexedComponent@@QEAA@AEBVMObject@@PEAVMStatus@@@Z
??0MFnUint64SingleIndexedComponent@@QEAA@XZ
??0MFnUnitAttribute@@QEAA@AEAVMObject@@PEAVMStatus@@@Z
??0MFnUnitAttribute@@QEAA@AEBVMObject@@PEAVMStatus@@@Z
??0MFnUnitAttribute@@QEAA@XZ
??0MFnVectorArrayData@@QEAA@AEAVMObject@@PEAVMStatus@@@Z
??0MFnVectorArrayData@@QEAA@AEBVMObject@@PEAVMStatus@@@Z
??0MFnVectorArrayData@@QEAA@XZ
??0MFnVolumeLight@@QEAA@AEAVMObject@@PEAVMStatus@@@Z
??0MFnVolumeLight@@QEAA@AEBVMDagPath@@PEAVMStatus@@@Z
??0MFnVolumeLight@@QEAA@AEBVMObject@@PEAVMStatus@@@Z
??0MFnVolumeLight@@QEAA@XZ
??0MIffFile@@QEAA@AEBV0@@Z
??0MIffFile@@QEAA@AEBVMString@@@Z
??0MIffFile@@QEAA@XZ
??0MIffTag@@QEAA@EEEE@Z
??0MIffTag@@QEAA@I@Z
??0MIffTag@@QEAA@XZ
??0MImage@@QEAA@XZ
??0MImageFileInfo@@QEAA@XZ
??0MInt64Array@@AEAA@PEAX@Z
??0MInt64Array@@QEAA@AEBV0@@Z
??0MInt64Array@@QEAA@I_J@Z
??0MInt64Array@@QEAA@QEB_JI@Z
??0MInt64Array@@QEAA@XZ
??0MIntArray@@AEAA@PEAX@Z
??0MIntArray@@QEAA@AEBV0@@Z
??0MIntArray@@QEAA@IH@Z
??0MIntArray@@QEAA@QEBHI@Z
??0MIntArray@@QEAA@XZ
??0MItCurveCV@@QEAA@AEAVMObject@@PEAVMStatus@@@Z
??0MItCurveCV@@QEAA@AEBV0@@Z
??0MItCurveCV@@QEAA@AEBVMDagPath@@AEAVMObject@@PEAVMStatus@@@Z
??0MItDag@@QEAA@AEAVMIteratorType@@W4TraversalType@0@PEAVMStatus@@@Z
??0MItDag@@QEAA@AEBV0@@Z
??0MItDag@@QEAA@W4TraversalType@0@W4Type@MFn@@PEAVMStatus@@@Z
??0MItDependencyGraph@@QEAA@AEAVMObject@@AEAVMPlug@@AEAVMIteratorType@@W4Direction@0@W4Traversal@0@W4Level@0@PEAVMStatus@@@Z
??0MItDependencyGraph@@QEAA@AEAVMObject@@W4Type@MFn@@W4Direction@0@W4Traversal@0@W4Level@0@PEAVMStatus@@@Z
??0MItDependencyGraph@@QEAA@AEAVMPlug@@W4Type@MFn@@W4Direction@0@W4Traversal@0@W4Level@0@PEAVMStatus@@@Z
??0MItDependencyGraph@@QEAA@AEBV0@@Z
??0MItDependencyNodes@@QEAA@AEAVMIteratorType@@PEAVMStatus@@@Z
??0MItDependencyNodes@@QEAA@AEBV0@@Z
??0MItDependencyNodes@@QEAA@W4Type@MFn@@PEAVMStatus@@@Z
??0MItEdits@@QEAA@AEAVMObject@@0W4EditStatus@0@W4Direction@0@PEAVMStatus@@@Z
??0MItEdits@@QEAA@AEAVMObject@@AEBVMString@@W4EditStatus@0@W4Direction@0@PEAVMStatus@@@Z
??0MItEdits@@QEAA@AEBV0@@Z
??0MItGeometry@@AEAA@PEAX@Z
??0MItGeometry@@QEAA@AEAVMDataHandle@@I_NPEAVMStatus@@@Z
??0MItGeometry@@QEAA@AEAVMDataHandle@@_NPEAVMStatus@@@Z
??0MItGeometry@@QEAA@AEAVMObject@@PEAVMStatus@@@Z
??0MItGeometry@@QEAA@AEBV0@@Z
??0MItGeometry@@QEAA@AEBVMDagPath@@AEAVMObject@@PEAVMStatus@@@Z
??0MItGeometry@@QEAA@AEBVMDagPath@@PEAVMStatus@@@Z
??0MItInstancer@@QEAA@AEBV0@@Z
??0MItInstancer@@QEAA@XZ
??0MItMeshEdge@@QEAA@AEAVMObject@@0PEAVMStatus@@@Z
??0MItMeshEdge@@QEAA@AEAVMObject@@PEAVMStatus@@@Z
??0MItMeshEdge@@QEAA@AEBV0@@Z
??0MItMeshEdge@@QEAA@AEBVMDagPath@@AEAVMObject@@PEAVMStatus@@@Z
??0MItMeshFaceVertex@@QEAA@AEBV0@@Z
??0MItMeshFaceVertex@@QEAA@AEBVMDagPath@@AEAVMObject@@PEAVMStatus@@@Z
??0MItMeshFaceVertex@@QEAA@AEBVMObject@@PEAVMStatus@@@Z
??0MItMeshPolygon@@QEAA@AEBV0@@Z
??0MItMeshPolygon@@QEAA@AEBVMDagPath@@AEAVMObject@@PEAVMStatus@@@Z
??0MItMeshPolygon@@QEAA@AEBVMObject@@PEAVMStatus@@@Z
??0MItMeshVertex@@QEAA@AEAVMObject@@PEAVMStatus@@@Z
??0MItMeshVertex@@QEAA@AEBV0@@Z
??0MItMeshVertex@@QEAA@AEBVMDagPath@@AEAVMObject@@PEAVMStatus@@@Z
??0MItSelectionList@@QEAA@AEBV0@@Z
??0MItSelectionList@@QEAA@AEBVMSelectionList@@W4Type@MFn@@PEAVMStatus@@@Z
??0MItSubdEdge@@QEAA@AEAVMObject@@PEAVMStatus@@@Z
??0MItSubdEdge@@QEAA@AEBV0@@Z
??0MItSubdFace@@QEAA@AEAVMObject@@PEAVMStatus@@@Z
??0MItSubdFace@@QEAA@AEBV0@@Z
??0MItSubdVertex@@QEAA@AEAVMObject@@PEAVMStatus@@@Z
??0MItSubdVertex@@QEAA@AEBV0@@Z
??0MItSurfaceCV@@QEAA@AEBV0@@Z
??0MItSurfaceCV@@QEAA@AEBVMDagPath@@AEBVMObject@@_NPEAVMStatus@@@Z
??0MItSurfaceCV@@QEAA@AEBVMObject@@_NPEAVMStatus@@@Z
??0MIteratorType@@QEAA@AEBV0@PEAVMStatus@@@Z
??0MIteratorType@@QEAA@PEAVMStatus@@@Z
??0MLibrary@@QEAA@AEBV0@@Z
??0MLibrary@@QEAA@XZ
??0MMatrix@@QEAA@AEBV0@@Z
??0MMatrix@@QEAA@QEAY03$$CBM@Z
??0MMatrix@@QEAA@QEAY03$$CBN@Z
??0MMatrix@@QEAA@XZ
??0MMatrixArray@@AEAA@PEAX@Z
??0MMatrixArray@@QEAA@AEBV0@@Z
??0MMatrixArray@@QEAA@I@Z
??0MMatrixArray@@QEAA@XZ
??0MMeshIntersector@@QEAA@AEBV0@@Z
??0MMeshIntersector@@QEAA@XZ
??0MMeshIsectAccelParams@@QEAA@XZ
??0MMeshSmoothOptions@@QEAA@AEBV0@@Z
??0MMeshSmoothOptions@@QEAA@XZ
??0MMessageNode@@QEAA@XZ
??0MMutexLock@@AEAA@AEBV0@@Z
??0MMutexLock@@QEAA@XZ
??0MNodeClass@@QEAA@AEBV0@@Z
??0MNodeClass@@QEAA@AEBVMString@@@Z
??0MNodeClass@@QEAA@AEBVMTypeId@@@Z
??0MNurbsIntersector@@QEAA@AEBV0@@Z
??0MNurbsIntersector@@QEAA@XZ
??0MObjectArray@@QEAA@AEBV0@@Z
??0MObjectArray@@QEAA@IAEBVMObject@@@Z
??0MObjectArray@@QEAA@QEBVMObject@@I@Z
??0MObjectArray@@QEAA@XZ
??0MObjectHandle@@QEAA@AEBV0@@Z
??0MObjectHandle@@QEAA@AEBVMObject@@@Z
??0MObjectHandle@@QEAA@XZ
??0MParentingEdit@@AEAA@PEBXH@Z
??0MParentingEdit@@QEAA@AEBV0@@Z
??0MPlane@@QEAA@AEBV0@@Z
??0MPlane@@QEAA@XZ
??0MPlug@@AEAA@PEBX_N@Z
??0MPlug@@QEAA@AEBV0@@Z
??0MPlug@@QEAA@AEBVMObject@@0@Z
??0MPlug@@QEAA@XZ
??0MPlugArray@@AEAA@PEAX@Z
??0MPlugArray@@QEAA@AEBV0@@Z
??0MPlugArray@@QEAA@IAEBVMPlug@@@Z
??0MPlugArray@@QEAA@QEBVMPlug@@I@Z
??0MPlugArray@@QEAA@XZ
??0MPoint@@QEAA@AEBV0@@Z
??0MPoint@@QEAA@AEBVMFloatPoint@@@Z
??0MPoint@@QEAA@AEBVMFloatVector@@@Z
??0MPoint@@QEAA@AEBVMVector@@@Z
??0MPoint@@QEAA@NNNN@Z
??0MPoint@@QEAA@QEBM@Z
??0MPoint@@QEAA@QEBN@Z
??0MPoint@@QEAA@XZ
??0MPointArray@@AEAA@PEAX@Z
??0MPointArray@@QEAA@AEBV0@@Z
??0MPointArray@@QEAA@IAEBVMPoint@@@Z
??0MPointArray@@QEAA@QEAY03$$CBMI@Z
??0MPointArray@@QEAA@QEAY03$$CBNI@Z
??0MPointArray@@QEAA@QEBVMPoint@@I@Z
??0MPointArray@@QEAA@XZ
??0MPointOnMesh@@QEAA@AEBV0@@Z
??0MPointOnMesh@@QEAA@XZ
??0MPointOnNurbs@@QEAA@AEBV0@@Z
??0MPointOnNurbs@@QEAA@XZ
??0MProfiler@@AEAA@XZ
??0MProfilingScope@@QEAA@HW4ProfilingColor@MProfiler@@PEBD1AEBVMObject@@PEAVMStatus@@@Z
??0MPxAssembly@@QEAA@AEBV0@@Z
??0MPxAssembly@@QEAA@XZ
??0MPxAttributePatternFactory@@QEAA@AEBV0@@Z
??0MPxAttributePatternFactory@@QEAA@XZ
??0MPxBakeEngine@@QEAA@AEBV0@@Z
??0MPxBakeEngine@@QEAA@XZ
??0MPxCacheFormat@@QEAA@AEBV0@@Z
??0MPxCacheFormat@@QEAA@XZ
??0MPxCameraSet@@QEAA@AEBV0@@Z
??0MPxCameraSet@@QEAA@XZ
??0MPxCommand@@QEAA@AEBV0@@Z
??0MPxCommand@@QEAA@XZ
??0MPxComponentShape@@QEAA@AEBV0@@Z
??0MPxComponentShape@@QEAA@XZ
??0MPxData@@QEAA@AEBV0@@Z
??0MPxData@@QEAA@XZ
??0MPxFileResolver@@QEAA@AEBV0@@Z
??0MPxFileResolver@@QEAA@XZ
??0MPxFileTranslator@@QEAA@AEBV0@@Z
??0MPxFileTranslator@@QEAA@XZ
??0MPxGeometryData@@QEAA@AEBV0@@Z
??0MPxGeometryData@@QEAA@XZ
??0MPxGeometryIterator@@QEAA@AEBV0@@Z
??0MPxGeometryIterator@@QEAA@PEAXAEAVMObject@@@Z
??0MPxGeometryIterator@@QEAA@PEAXAEAVMObjectArray@@@Z
??0MPxImageFile@@QEAA@AEBV0@@Z
??0MPxImageFile@@QEAA@XZ
??0MPxImagePlane@@QEAA@AEBV0@@Z
??0MPxImagePlane@@QEAA@XZ
??0MPxMaterialInformation@@IEAA@XZ
??0MPxMaterialInformation@@QEAA@AEAVMObject@@@Z
??0MPxMaterialInformation@@QEAA@AEBV0@@Z
??0MPxMayaAsciiFilter@@QEAA@AEBV0@@Z
??0MPxMayaAsciiFilter@@QEAA@XZ
??0MPxMayaAsciiFilterOutput@@QEAA@PEAX@Z
??0MPxNode@@QEAA@AEBV0@@Z
??0MPxNode@@QEAA@XZ
??0MPxObjectSet@@QEAA@AEBV0@@Z
??0MPxObjectSet@@QEAA@XZ
??0MPxPolyTrg@@QEAA@AEBV0@@Z
??0MPxPolyTrg@@QEAA@XZ
??0MPxPolyTweakUVCommand@@QEAA@AEBV0@@Z
??0MPxPolyTweakUVCommand@@QEAA@XZ
??0MPxRenderPassImpl@@QEAA@AEBV0@@Z
??0MPxRenderPassImpl@@QEAA@XZ
??0MPxRepresentation@@IEAA@PEAVMPxAssembly@@AEBVMString@@@Z
??0MPxRepresentation@@QEAA@AEBV0@@Z
??0MPxSurfaceShape@@QEAA@AEBV0@@Z
??0MPxSurfaceShape@@QEAA@XZ
??0MPxTransform@@QEAA@AEBV0@@Z
??0MPxTransform@@QEAA@PEAVMPxTransformationMatrix@@@Z
??0MPxTransform@@QEAA@XZ
??0MPxTransformationMatrix@@QEAA@AEBV0@@Z
??0MPxTransformationMatrix@@QEAA@AEBVMMatrix@@@Z
??0MPxTransformationMatrix@@QEAA@AEBVMTransformationMatrix@@@Z
??0MPxTransformationMatrix@@QEAA@XZ
??0MPyAttributeRegistry@@QEAA@I@Z
??0MPyDirector@@QEAA@AEBV0@@Z
??0MPyDirector@@QEAA@PEAU_object@@@Z
??0MPyMArgList@@QEAA@XZ
??0MPyMArrayDataHandle@@QEAA@XZ
??0MPyMPxAttributePatternFactory_Director@@QEAA@AEBV0@@Z
??0MPyMPxAttributePatternFactory_Director@@QEAA@PEAU_object@@@Z
??0MPyMPxCommand_Director@@QEAA@AEBV0@@Z
??0MPyMPxCommand_Director@@QEAA@PEAU_object@@@Z
??0MPyMPxData_DirectorBase@@QEAA@AEBV0@@Z
??0MPyMPxData_DirectorBase@@QEAA@PEAU_object@@@Z
??0MPyMPxGeometryIterator_Director@@QEAA@AEBV0@@Z
??0MPyMPxGeometryIterator_Director@@QEAA@PEAU_object@@0AEAVMObject@@@Z
??0MPyMPxGeometryIterator_Director@@QEAA@PEAU_object@@0AEAVMObjectArray@@@Z
??0MPyMPxNode_DirectorBase@@QEAA@AEBV0@@Z
??0MPyMPxNode_DirectorBase@@QEAA@PEAU_object@@@Z
??0MPyMUserData_Director@@QEAA@AEBV0@@Z
??0MPyMUserData_Director@@QEAA@PEAU_object@@_N@Z
??0MQuaternion@@QEAA@AEBV0@@Z
??0MQuaternion@@QEAA@AEBVMVector@@0@Z
??0MQuaternion@@QEAA@AEBVMVector@@0N@Z
??0MQuaternion@@QEAA@NAEBVMVector@@@Z
??0MQuaternion@@QEAA@NNNN@Z
??0MQuaternion@@QEAA@QEBN@Z
??0MQuaternion@@QEAA@XZ
??0MRampAttribute@@QEAA@AEBV0@@Z
??0MRampAttribute@@QEAA@AEBVMObject@@0PEAVMStatus@@@Z
??0MRampAttribute@@QEAA@AEBVMPlug@@PEAVMStatus@@@Z
??0MRampAttribute@@QEAA@XZ
??0MRenderPassDef@@AEAA@XZ
??0MRenderPassDef@@QEAA@AEBV0@@Z
??0MRenderPassRegistry@@AEAA@XZ
??0MRichSelection@@AEAA@PEAX@Z
??0MRichSelection@@QEAA@AEBV0@@Z
??0MRichSelection@@QEAA@XZ
??0MScriptUtil@@QEAA@AEBV0@@Z
??0MScriptUtil@@QEAA@AEBVMDoubleArray@@@Z
??0MScriptUtil@@QEAA@AEBVMIntArray@@@Z
??0MScriptUtil@@QEAA@AEBVMUint64Array@@@Z
??0MScriptUtil@@QEAA@AEBVMUintArray@@@Z
??0MScriptUtil@@QEAA@F@Z
??0MScriptUtil@@QEAA@H@Z
??0MScriptUtil@@QEAA@I@Z
??0MScriptUtil@@QEAA@M@Z
??0MScriptUtil@@QEAA@N@Z
??0MScriptUtil@@QEAA@PEBF@Z
??0MScriptUtil@@QEAA@PEBH@Z
??0MScriptUtil@@QEAA@PEBI@Z
??0MScriptUtil@@QEAA@PEBM@Z
??0MScriptUtil@@QEAA@PEBN@Z
??0MScriptUtil@@QEAA@PEB_N@Z
??0MScriptUtil@@QEAA@XZ
??0MScriptUtil@@QEAA@_N@Z
??0MSelectionList@@AEAA@PEAX@Z
??0MSelectionList@@QEAA@AEBV0@@Z
??0MSelectionList@@QEAA@XZ
??0MSelectionMask@@AEAA@PEBX_N@Z
??0MSelectionMask@@QEAA@AEBV0@@Z
??0MSelectionMask@@QEAA@AEBVMString@@@Z
??0MSelectionMask@@QEAA@W4SelectionType@0@@Z
??0MSelectionMask@@QEAA@XZ
??0MSetAttrEdit@@AEAA@PEBXH@Z
??0MSetAttrEdit@@QEAA@AEBV0@@Z
??0MSpinLock@@AEAA@AEBV0@@Z
??0MSpinLock@@QEAA@XZ
??0MStatus@@QEAA@AEBV0@@Z
??0MStatus@@QEAA@W4MStatusCode@0@@Z
??0MStatus@@QEAA@XZ
??0MString@@QEAA@AEBV0@@Z
??0MString@@QEAA@PEBD@Z
??0MString@@QEAA@PEBDH@Z
??0MString@@QEAA@PEB_W@Z
??0MString@@QEAA@PEB_WH@Z
??0MString@@QEAA@XZ
??0MStringArray@@AEAA@PEAX@Z
??0MStringArray@@QEAA@AEBV0@@Z
??0MStringArray@@QEAA@IAEBVMString@@@Z
??0MStringArray@@QEAA@QEAPEBDI@Z
??0MStringArray@@QEAA@QEBVMString@@I@Z
??0MStringArray@@QEAA@XZ
??0MStringResource@@QEAA@XZ
??0MStringResourceId@@QEAA@AEBV0@@Z
??0MStringResourceId@@QEAA@PEBD0AEBVMString@@@Z
??0MStringResourceId@@QEAA@XZ
??0MSyntax@@AEAA@PEAX@Z
??0MSyntax@@AEAA@PEBX@Z
??0MSyntax@@QEAA@AEBV0@@Z
??0MSyntax@@QEAA@XZ
??0MTesselationParams@@QEAA@AEBV0@@Z
??0MTesselationParams@@QEAA@W4TessFormat@0@W4PolyType@0@@Z
??0MThreadAsync@@AEAA@AEBV0@@Z
??0MThreadAsync@@AEAA@XZ
??0MThreadPool@@AEAA@AEBV0@@Z
??0MThreadPool@@AEAA@XZ
??0MTime@@AEAA@H@Z
??0MTime@@QEAA@AEBV0@@Z
??0MTime@@QEAA@NW4Unit@0@@Z
??0MTime@@QEAA@XZ
??0MTimeArray@@QEAA@AEBV0@@Z
??0MTimeArray@@QEAA@IAEBVMTime@@@Z
??0MTimeArray@@QEAA@QEBVMTime@@I@Z
??0MTimeArray@@QEAA@XZ
??0MTimer@@QEAA@AEBV0@@Z
??0MTimer@@QEAA@XZ
??0MTransformationMatrix@@AEAA@PEBX@Z
??0MTransformationMatrix@@QEAA@AEBV0@@Z
??0MTransformationMatrix@@QEAA@AEBVMMatrix@@@Z
??0MTransformationMatrix@@QEAA@XZ
??0MTrimBoundaryArray@@QEAA@AEBV0@@Z
??0MTrimBoundaryArray@@QEAA@XZ
??0MTypeId@@QEAA@AEBV0@@Z
??0MTypeId@@QEAA@I@Z
??0MTypeId@@QEAA@II@Z
??0MTypeId@@QEAA@XZ
??0MURI@@QEAA@AEBV0@@Z
??0MURI@@QEAA@AEBVMString@@@Z
??0MURI@@QEAA@XZ
??0MUint64Array@@AEAA@PEAX@Z
??0MUint64Array@@QEAA@AEBV0@@Z
??0MUint64Array@@QEAA@I_K@Z
??0MUint64Array@@QEAA@QEB_KI@Z
??0MUint64Array@@QEAA@XZ
??0MUintArray@@AEAA@PEAX@Z
??0MUintArray@@QEAA@AEBV0@@Z
??0MUintArray@@QEAA@II@Z
??0MUintArray@@QEAA@QEBII@Z
??0MUintArray@@QEAA@XZ
??0MUserData@@QEAA@AEBV0@@Z
??0MUserData@@QEAA@_N@Z
??0MUuid@@QEAA@AEBV0@@Z
??0MUuid@@QEAA@AEBVMString@@PEAVMStatus@@@Z
??0MUuid@@QEAA@PEBE@Z
??0MUuid@@QEAA@PEBI@Z
??0MUuid@@QEAA@XZ
??0MVector@@QEAA@AEBV0@@Z
??0MVector@@QEAA@AEBVMFloatPoint@@@Z
??0MVector@@QEAA@AEBVMFloatVector@@@Z
??0MVector@@QEAA@AEBVMPoint@@@Z
??0MVector@@QEAA@NNN@Z
??0MVector@@QEAA@QEBM@Z
??0MVector@@QEAA@QEBN@Z
??0MVector@@QEAA@XZ
??0MVectorArray@@AEAA@PEAX@Z
??0MVectorArray@@QEAA@AEBV0@@Z
??0MVectorArray@@QEAA@IAEBVMVector@@@Z
??0MVectorArray@@QEAA@QEAY02$$CBMI@Z
??0MVectorArray@@QEAA@QEAY02$$CBNI@Z
??0MVectorArray@@QEAA@QEBVMVector@@I@Z
??0MVectorArray@@QEAA@XZ
??0MWeight@@IEAA@MM@Z
??0MWeight@@QEAA@AEBV0@@Z
??0MWeight@@QEAA@XZ
??0THapiNodeFlags@@AEAA@XZ
??0THattributePatternFactory@@QEAA@AEBV0@@Z
??0THattributePatternFactory@@QEAA@PEAVMPxAttributePatternFactory@@PEAVTpluginAttributePatternFactory@@@Z
??0THattributePatternFactory@@QEAA@XZ
??0THclient@@QEAA@AEBV0@@Z
??0THclient@@QEAA@XZ
??0THcommandObject@@QEAA@AEBV0@@Z
??0THcommandObject@@QEAA@PEAVTpluginCmd@@_N@Z
??0THdependNode@@QEAA@PEAVTpluginNode@@@Z
??0THdependNode@@QEAA@XZ
??0THrenderPassImpl@@QEAA@AEBV0@@Z
??0THrenderPassImpl@@QEAA@PEAVMPxRenderPassImpl@@PEAVTpluginRenderPassImpl@@@Z
??0THsurfaceShape@@QEAA@PEAVTpluginNode@@@Z
??0THsurfaceShape@@QEAA@XZ
??0THsurfaceShapeSnap@@QEAA@AEBV0@@Z
??0THsurfaceShapeSnap@@QEAA@XZ
??0THxformMatrix@@QEAA@AEBV0@@Z
??0THxformMatrix@@QEAA@AEBVTxformMatrix@@@Z
??0THxformMatrix@@QEAA@XZ
??0TanimCallbackTable@@QEAA@AEBV0@@Z
??0TanimCallbackTable@@QEAA@II@Z
??0TanimDeltaMsgSwitch@@AEAA@XZ
??0TanimDeltaMsgSwitch@@QEAA@AEBV0@@Z
??0TapiFileObject@@QEAA@AEBV0@@Z
??0TapiFileObject@@QEAA@XZ
??0TapiMAttributePatternArray@@QEAA@I@Z
??0TapiMDagPathArray@@QEAA@I@Z
??0TapiMObjectArray@@QEAA@I@Z
??0TapiMPlugArray@@QEAA@I@Z
??0TapiMTimeArray@@QEAA@I@Z
??0TnormalMapConverter@@QEAA@XZ
??0Tplugin@@AEAA@AEBVTstring@@AEBVTfilePath@@W4Type@0@@Z
??0TpluginCmd@@AEAA@AEBVTstring@@PEAVTplugin@@PEBVTapiFileObject@@P6APEAXXZP6A?AVMSyntax@@XZ@Z
??0TpluginCmd@@QEAA@AEBV0@@Z
??0TpluginMaya@@QEAA@AEAVMObject@@PEBD11PEAVMStatus@@@Z
??0TpluginNode@@AEAA@AEBVTstring@@AEBVTiffTag@@W4Type@MPxNode@@PEAVTplugin@@IP6APEAXPEAVTmetaclass@@@ZPEAPEAV6@PEAVTdependNodeVS@@P6APEAXXZP6A?AVMStatus@@XZI@Z
??0TpluginNode@@AEAA@AEBVTstring@@AEBVTiffTag@@W4Type@MPxNode@@PEAVTplugin@@IP6APEAXPEAVTmetaclass@@@ZPEAPEAV6@PEAVTdependNodeVS@@P6APEAXXZP6A?AVMStatus@@XZPEBV6@@Z
??0TpluginObject@@IEAA@PEAVTplugin@@P6APEAXXZP6A?AVMSyntax@@XZ@Z
??0TpluginObject@@QEAA@AEBV0@@Z
??0TpluginObjectHanger@@QEAA@AEBV0@@Z
??0TpluginObjectHanger@@QEAA@XZ
??0TpluginPref@@QEAA@AEBV0@@Z
??0TpluginPref@@QEAA@XZ
??0TpluginPrefMgr@@AEAA@XZ
??0TpluginPrefMgr@@QEAA@AEBV0@@Z
??1Iterator@TanimCallbackTable@@UEAA@XZ
??1MAddRemoveAttrEdit@@UEAA@XZ
??1MAngle@@QEAA@XZ
??1MArgDatabase@@UEAA@XZ
??1MArgList@@QEAA@XZ
??1MArgParser@@UEAA@XZ
??1MArrayDataBuilder@@QEAA@XZ
??1MAttributeIndex@@QEAA@XZ
??1MAttributePattern@@QEAA@XZ
??1MAttributePatternArray@@QEAA@XZ
??1MAttributeSpec@@QEAA@XZ
??1MAttributeSpecArray@@QEAA@XZ
??1MAutoCLEvent@@QEAA@XZ
??1MAutoCLKernel@@QEAA@XZ
??1MAutoCLMem@@QEAA@XZ
??1MBoundingBox@@QEAA@XZ
??1MCacheFormatDescription@@EEAA@XZ
??1MCallbackIdArray@@QEAA@XZ
??1MColor@@QEAA@XZ
??1MColorArray@@QEAA@XZ
??1MCommandResult@@UEAA@XZ
??1MComputation@@UEAA@XZ
??1MConnectDisconnectAttrEdit@@UEAA@XZ
??1MCurveAttribute@@QEAA@XZ
??1MDGContext@@QEAA@XZ
??1MDGModifier@@UEAA@XZ
??1MDagModifier@@UEAA@XZ
??1MDagPath@@UEAA@XZ
??1MDagPathArray@@QEAA@XZ
??1MDataBlock@@UEAA@XZ
??1MDistance@@QEAA@XZ
??1MDoubleArray@@QEAA@XZ
??1MEdit@@UEAA@XZ
??1MEulerRotation@@QEAA@XZ
??1MEvaluationManager@@AEAA@XZ
??1MEvaluationNode@@QEAA@XZ
??1MEvaluationNodeIterator@@QEAA@XZ
??1MExternalContentInfoTable@@QEAA@XZ
??1MExternalContentLocationTable@@QEAA@XZ
??1MFcurveEdit@@UEAA@XZ
??1MFileIO@@UEAA@XZ
??1MFileObject@@UEAA@XZ
??1MFloatArray@@QEAA@XZ
??1MFloatMatrix@@QEAA@XZ
??1MFloatPoint@@QEAA@XZ
??1MFloatPointArray@@QEAA@XZ
??1MFloatVector@@QEAA@XZ
??1MFloatVectorArray@@QEAA@XZ
??1MFnAmbientLight@@UEAA@XZ
??1MFnAnisotropyShader@@UEAA@XZ
??1MFnAreaLight@@UEAA@XZ
??1MFnArrayAttrsData@@UEAA@XZ
??1MFnAssembly@@UEAA@XZ
??1MFnAttribute@@UEAA@XZ
??1MFnBase@@UEAA@XZ
??1MFnBlinnShader@@UEAA@XZ
??1MFnCamera@@UEAA@XZ
??1MFnCameraSet@@UEAA@XZ
??1MFnComponent@@UEAA@XZ
??1MFnComponentListData@@UEAA@XZ
??1MFnCompoundAttribute@@UEAA@XZ
??1MFnContainerNode@@UEAA@XZ
??1MFnDagNode@@UEAA@XZ
??1MFnData@@UEAA@XZ
??1MFnDependencyNode@@UEAA@XZ
??1MFnDirectionalLight@@UEAA@XZ
??1MFnDoubleArrayData@@UEAA@XZ
??1MFnDoubleIndexedComponent@@UEAA@XZ
??1MFnEnumAttribute@@UEAA@XZ
??1MFnExpression@@UEAA@XZ
??1MFnFloatArrayData@@UEAA@XZ
??1MFnGenericAttribute@@UEAA@XZ
??1MFnGeometryData@@UEAA@XZ
??1MFnIntArrayData@@UEAA@XZ
??1MFnLambertShader@@UEAA@XZ
??1MFnLatticeData@@UEAA@XZ
??1MFnLayeredShader@@UEAA@XZ
??1MFnLight@@UEAA@XZ
??1MFnLightDataAttribute@@UEAA@XZ
??1MFnMatrixArrayData@@UEAA@XZ
??1MFnMatrixAttribute@@UEAA@XZ
??1MFnMatrixData@@UEAA@XZ
??1MFnMesh@@UEAA@XZ
??1MFnMeshData@@UEAA@XZ
??1MFnMessageAttribute@@UEAA@XZ
??1MFnNonAmbientLight@@UEAA@XZ
??1MFnNonExtendedLight@@UEAA@XZ
??1MFnNumericAttribute@@UEAA@XZ
??1MFnNumericData@@UEAA@XZ
??1MFnNurbsCurve@@UEAA@XZ
??1MFnNurbsCurveData@@UEAA@XZ
??1MFnNurbsSurface@@UEAA@XZ
??1MFnNurbsSurfaceData@@UEAA@XZ
??1MFnPartition@@UEAA@XZ
??1MFnPhongEShader@@UEAA@XZ
??1MFnPhongShader@@UEAA@XZ
??1MFnPlugin@@UEAA@XZ
??1MFnPluginData@@UEAA@XZ
??1MFnPointArrayData@@UEAA@XZ
??1MFnPointLight@@UEAA@XZ
??1MFnReference@@UEAA@XZ
??1MFnReflectShader@@UEAA@XZ
??1MFnScPlugin@@UEAA@XZ
??1MFnSet@@UEAA@XZ
??1MFnSingleIndexedComponent@@UEAA@XZ
??1MFnSphereData@@UEAA@XZ
??1MFnSpotLight@@UEAA@XZ
??1MFnStringArrayData@@UEAA@XZ
??1MFnStringData@@UEAA@XZ
??1MFnSubd@@UEAA@XZ
??1MFnSubdData@@UEAA@XZ
??1MFnSubdNames@@QEAA@XZ
??1MFnTransform@@UEAA@XZ
??1MFnTripleIndexedComponent@@UEAA@XZ
??1MFnTypedAttribute@@UEAA@XZ
??1MFnUInt64ArrayData@@UEAA@XZ
??1MFnUint64SingleIndexedComponent@@UEAA@XZ
??1MFnUnitAttribute@@UEAA@XZ
??1MFnVectorArrayData@@UEAA@XZ
??1MFnVolumeLight@@UEAA@XZ
??1MGlobal@@AEAA@XZ
??1MIffFile@@UEAA@XZ
??1MIffTag@@QEAA@XZ
??1MImage@@QEAA@XZ
??1MInt64Array@@QEAA@XZ
??1MIntArray@@QEAA@XZ
??1MItCurveCV@@UEAA@XZ
??1MItDag@@UEAA@XZ
??1MItDependencyGraph@@QEAA@XZ
??1MItDependencyNodes@@UEAA@XZ
??1MItEdits@@UEAA@XZ
??1MItGeometry@@UEAA@XZ
??1MItInstancer@@UEAA@XZ
??1MItMeshEdge@@UEAA@XZ
??1MItMeshFaceVertex@@UEAA@XZ
??1MItMeshPolygon@@UEAA@XZ
??1MItMeshVertex@@UEAA@XZ
??1MItSelectionList@@UEAA@XZ
??1MItSubdEdge@@UEAA@XZ
??1MItSubdFace@@UEAA@XZ
??1MItSubdVertex@@UEAA@XZ
??1MItSurfaceCV@@UEAA@XZ
??1MIteratorType@@QEAA@XZ
??1MLibrary@@UEAA@XZ
??1MMatrix@@QEAA@XZ
??1MMatrixArray@@QEAA@XZ
??1MMeshIntersector@@UEAA@XZ
??1MMeshSmoothOptions@@UEAA@XZ
??1MMutexLock@@QEAA@XZ
??1MNodeClass@@QEAA@XZ
??1MNurbsIntersector@@UEAA@XZ
??1MObjectArray@@QEAA@XZ
??1MObjectHandle@@QEAA@XZ
??1MParentingEdit@@UEAA@XZ
??1MPlug@@UEAA@XZ
??1MPlugArray@@QEAA@XZ
??1MPoint@@QEAA@XZ
??1MPointArray@@QEAA@XZ
??1MPointOnMesh@@QEAA@XZ
??1MPointOnNurbs@@QEAA@XZ
??1MProfiler@@AEAA@XZ
??1MProfilingScope@@QEAA@XZ
??1MPxAssembly@@UEAA@XZ
??1MPxAttributePatternFactory@@UEAA@XZ
??1MPxBakeEngine@@UEAA@XZ
??1MPxCacheFormat@@UEAA@XZ
??1MPxCameraSet@@UEAA@XZ
??1MPxCommand@@UEAA@XZ
??1MPxComponentShape@@UEAA@XZ
??1MPxData@@UEAA@XZ
??1MPxFileResolver@@UEAA@XZ
??1MPxFileTranslator@@UEAA@XZ
??1MPxGeometryData@@UEAA@XZ
??1MPxGeometryIterator@@UEAA@XZ
??1MPxImageFile@@UEAA@XZ
??1MPxImagePlane@@UEAA@XZ
??1MPxMaterialInformation@@UEAA@XZ
??1MPxMayaAsciiFilter@@UEAA@XZ
??1MPxNode@@UEAA@XZ
??1MPxObjectSet@@UEAA@XZ
??1MPxPolyTrg@@UEAA@XZ
??1MPxPolyTweakUVCommand@@UEAA@XZ
??1MPxRenderPassImpl@@UEAA@XZ
??1MPxRepresentation@@UEAA@XZ
??1MPxSurfaceShape@@UEAA@XZ
??1MPxTransform@@UEAA@XZ
??1MPxTransformationMatrix@@UEAA@XZ
??1MPyDirector@@UEAA@XZ
??1MPyMPxAttributePatternFactory_Director@@UEAA@XZ
??1MPyMPxCommand_Director@@UEAA@XZ
??1MPyMPxData_DirectorBase@@UEAA@XZ
??1MPyMPxGeometryIterator_Director@@UEAA@XZ
??1MPyMPxNode_DirectorBase@@UEAA@XZ
??1MPyMUserData_Director@@UEAA@XZ
??1MQuaternion@@QEAA@XZ
??1MRampAttribute@@QEAA@XZ
??1MRenderPassDef@@UEAA@XZ
??1MRenderPassRegistry@@AEAA@XZ
??1MRichSelection@@UEAA@XZ
??1MScriptUtil@@QEAA@XZ
??1MSelectionList@@UEAA@XZ
??1MSelectionMask@@UEAA@XZ
??1MSetAttrEdit@@UEAA@XZ
??1MSpinLock@@QEAA@XZ
??1MString@@QEAA@XZ
??1MStringArray@@QEAA@XZ
??1MStringResource@@QEAA@XZ
??1MStringResourceId@@QEAA@XZ
??1MSyntax@@UEAA@XZ
??1MTesselationParams@@QEAA@XZ
??1MThreadAsync@@AEAA@XZ
??1MThreadPool@@AEAA@XZ
??1MTime@@QEAA@XZ
??1MTimeArray@@QEAA@XZ
??1MTimer@@QEAA@XZ
??1MTransformationMatrix@@QEAA@XZ
??1MTrimBoundaryArray@@QEAA@XZ
??1MTypeId@@QEAA@XZ
??1MURI@@QEAA@XZ
??1MUint64Array@@QEAA@XZ
??1MUintArray@@QEAA@XZ
??1MUserData@@UEAA@XZ
??1MUuid@@QEAA@XZ
??1MVector@@QEAA@XZ
??1MVectorArray@@QEAA@XZ
??1MWeight@@QEAA@XZ
??1THattributePatternFactory@@UEAA@XZ
??1THclient@@UEAA@XZ
??1THcommandObject@@UEAA@XZ
??1THdependNode@@UEAA@XZ
??1THrenderPassImpl@@UEAA@XZ
??1THsurfaceShape@@UEAA@XZ
??1THsurfaceShapeSnap@@UEAA@XZ
??1THxformMatrix@@UEAA@XZ
??1TanimCallbackTable@@UEAA@XZ
??1TanimDeltaMsgSwitch@@UEAA@XZ
??1TapiFileObject@@UEAA@XZ
??1TapiMAttributePatternArray@@UEAA@XZ
??1TapiMDagPathArray@@UEAA@XZ
??1TapiMObjectArray@@UEAA@XZ
??1TapiMPlugArray@@UEAA@XZ
??1TapiMTimeArray@@UEAA@XZ
??1TnormalMapConverter@@QEAA@XZ
??1Tplugin@@UEAA@XZ
??1TpluginCmd@@UEAA@XZ
??1TpluginMaya@@UEAA@XZ
??1TpluginNode@@UEAA@XZ
??1TpluginObject@@UEAA@XZ
??1TpluginObjectHanger@@UEAA@XZ
??1TpluginPref@@UEAA@XZ
??1TpluginPrefMgr@@UEAA@XZ
??4?$MPyMArray_Type_Base@VMAttributeSpecArray@@VMAttributeSpec@@@@QEAAAEAV0@AEBV0@@Z
??4?$MPyMArray_Type_Base@VMCallbackIdArray@@_K@@QEAAAEAV0@AEBV0@@Z
??4?$MPyMArray_Type_Base@VMColorArray@@VMColor@@@@QEAAAEAV0@AEBV0@@Z
??4?$MPyMArray_Type_Base@VMDagPathArray@@VMDagPath@@@@QEAAAEAV0@AEBV0@@Z
??4?$MPyMArray_Type_Base@VMDoubleArray@@N@@QEAAAEAV0@AEBV0@@Z
??4?$MPyMArray_Type_Base@VMFloatArray@@M@@QEAAAEAV0@AEBV0@@Z
??4?$MPyMArray_Type_Base@VMFloatPointArray@@VMFloatPoint@@@@QEAAAEAV0@AEBV0@@Z
??4?$MPyMArray_Type_Base@VMFloatVectorArray@@VMFloatVector@@@@QEAAAEAV0@AEBV0@@Z
??4?$MPyMArray_Type_Base@VMInt64Array@@_J@@QEAAAEAV0@AEBV0@@Z
??4?$MPyMArray_Type_Base@VMIntArray@@H@@QEAAAEAV0@AEBV0@@Z
??4?$MPyMArray_Type_Base@VMMatrixArray@@VMMatrix@@@@QEAAAEAV0@AEBV0@@Z
??4?$MPyMArray_Type_Base@VMObjectArray@@VMObject@@@@QEAAAEAV0@AEBV0@@Z
??4?$MPyMArray_Type_Base@VMPlugArray@@VMPlug@@@@QEAAAEAV0@AEBV0@@Z
??4?$MPyMArray_Type_Base@VMPointArray@@VMPoint@@@@QEAAAEAV0@AEBV0@@Z
??4?$MPyMArray_Type_Base@VMTimeArray@@VMTime@@@@QEAAAEAV0@AEBV0@@Z
??4?$MPyMArray_Type_Base@VMUint64Array@@_K@@QEAAAEAV0@AEBV0@@Z
??4?$MPyMArray_Type_Base@VMUintArray@@I@@QEAAAEAV0@AEBV0@@Z
??4?$MPyMArray_Type_Base@VMVectorArray@@VMVector@@@@QEAAAEAV0@AEBV0@@Z
??4?$MPyObject@VMArgList@@@@QEAAAEAV0@AEBV0@@Z
??4?$MPyObject@VMArrayDataHandle@@@@QEAAAEAV0@AEBV0@@Z
??4?$MPyTypeObject@VMAttributeSpecArray@@@@QEAAAEAV0@AEBV0@@Z
??4?$MPyTypeObject@VMCallbackIdArray@@@@QEAAAEAV0@AEBV0@@Z
??4?$MPyTypeObject@VMColorArray@@@@QEAAAEAV0@AEBV0@@Z
??4?$MPyTypeObject@VMDagPathArray@@@@QEAAAEAV0@AEBV0@@Z
??4?$MPyTypeObject@VMDoubleArray@@@@QEAAAEAV0@AEBV0@@Z
??4?$MPyTypeObject@VMFloatArray@@@@QEAAAEAV0@AEBV0@@Z
??4?$MPyTypeObject@VMFloatPointArray@@@@QEAAAEAV0@AEBV0@@Z
??4?$MPyTypeObject@VMFloatVectorArray@@@@QEAAAEAV0@AEBV0@@Z
??4?$MPyTypeObject@VMInt64Array@@@@QEAAAEAV0@AEBV0@@Z
??4?$MPyTypeObject@VMIntArray@@@@QEAAAEAV0@AEBV0@@Z
??4?$MPyTypeObject@VMMatrixArray@@@@QEAAAEAV0@AEBV0@@Z
??4?$MPyTypeObject@VMObjectArray@@@@QEAAAEAV0@AEBV0@@Z
??4?$MPyTypeObject@VMPlugArray@@@@QEAAAEAV0@AEBV0@@Z
??4?$MPyTypeObject@VMPointArray@@@@QEAAAEAV0@AEBV0@@Z
??4?$MPyTypeObject@VMTimeArray@@@@QEAAAEAV0@AEBV0@@Z
??4?$MPyTypeObject@VMUint64Array@@@@QEAAAEAV0@AEBV0@@Z
??4?$MPyTypeObject@VMUintArray@@@@QEAAAEAV0@AEBV0@@Z
??4?$MPyTypeObject@VMVectorArray@@@@QEAAAEAV0@AEBV0@@Z
??4?$MPyTypeObjectStatic@VMAttributeSpecArray@@@@QEAAAEAV0@AEBV0@@Z
??4?$MPyTypeObjectStatic@VMCallbackIdArray@@@@QEAAAEAV0@AEBV0@@Z
??4?$MPyTypeObjectStatic@VMColorArray@@@@QEAAAEAV0@AEBV0@@Z
??4?$MPyTypeObjectStatic@VMDagPathArray@@@@QEAAAEAV0@AEBV0@@Z
??4?$MPyTypeObjectStatic@VMDoubleArray@@@@QEAAAEAV0@AEBV0@@Z
??4?$MPyTypeObjectStatic@VMFloatArray@@@@QEAAAEAV0@AEBV0@@Z
??4?$MPyTypeObjectStatic@VMFloatPointArray@@@@QEAAAEAV0@AEBV0@@Z
??4?$MPyTypeObjectStatic@VMFloatVectorArray@@@@QEAAAEAV0@AEBV0@@Z
??4?$MPyTypeObjectStatic@VMInt64Array@@@@QEAAAEAV0@AEBV0@@Z
??4?$MPyTypeObjectStatic@VMIntArray@@@@QEAAAEAV0@AEBV0@@Z
??4?$MPyTypeObjectStatic@VMMatrixArray@@@@QEAAAEAV0@AEBV0@@Z
??4?$MPyTypeObjectStatic@VMObjectArray@@@@QEAAAEAV0@AEBV0@@Z
??4?$MPyTypeObjectStatic@VMPlugArray@@@@QEAAAEAV0@AEBV0@@Z
??4?$MPyTypeObjectStatic@VMPointArray@@@@QEAAAEAV0@AEBV0@@Z
??4?$MPyTypeObjectStatic@VMTimeArray@@@@QEAAAEAV0@AEBV0@@Z
??4?$MPyTypeObjectStatic@VMUint64Array@@@@QEAAAEAV0@AEBV0@@Z
??4?$MPyTypeObjectStatic@VMUintArray@@@@QEAAAEAV0@AEBV0@@Z
??4?$MPyTypeObjectStatic@VMVectorArray@@@@QEAAAEAV0@AEBV0@@Z
??4?$TiteratorWrapperBase@UConstIteratorDescriptor@TmultiIndexDependNodeSet@@@@QEAAAEAV0@AEBV0@@Z
??4?$TiteratorWrapperBase@UConstIteratorDescriptor@TscenePartitions@@@@QEAAAEAV0@AEBV0@@Z
??4?$TiteratorWrapperBase@UNodesFromUuidConstIteratorDescriptor@TmultiIndexDependNodeSet@@@@QEAAAEAV0@AEBV0@@Z
??4?$TiteratorWrapperBase@UNodesOfBaseNameConstIteratorDescriptor@TmultiIndexDependNodeSet@@@@QEAAAEAV0@AEBV0@@Z
??4?$TiteratorWrapperBase@UNodesOfTypeConstIteratorDescriptor@TmultiIndexDependNodeSet@@@@QEAAAEAV0@AEBV0@@Z
??4?$TiteratorWrapperBidir@UConstIteratorDescriptor@TmultiIndexDependNodeSet@@V?$TiteratorWrapper@UConstIteratorDescriptor@TmultiIndexDependNodeSet@@@@@@QEAAAEAV0@AEBV0@@Z
??4?$TiteratorWrapperBidir@UConstIteratorDescriptor@TscenePartitions@@V?$TiteratorWrapper@UConstIteratorDescriptor@TscenePartitions@@@@@@QEAAAEAV0@AEBV0@@Z
??4?$TiteratorWrapperBidir@UNodesOfTypeConstIteratorDescriptor@TmultiIndexDependNodeSet@@V?$TiteratorWrapper@UNodesOfTypeConstIteratorDescriptor@TmultiIndexDependNodeSet@@@@@@QEAAAEAV0@AEBV0@@Z
??4?$TiteratorWrapperFwd@UConstIteratorDescriptor@TmultiIndexDependNodeSet@@V?$TiteratorWrapper@UConstIteratorDescriptor@TmultiIndexDependNodeSet@@@@@@QEAAAEAV0@AEBV0@@Z
??4?$TiteratorWrapperFwd@UConstIteratorDescriptor@TscenePartitions@@V?$TiteratorWrapper@UConstIteratorDescriptor@TscenePartitions@@@@@@QEAAAEAV0@AEBV0@@Z
??4?$TiteratorWrapperFwd@UNodesFromUuidConstIteratorDescriptor@TmultiIndexDependNodeSet@@V?$TiteratorWrapper@UNodesFromUuidConstIteratorDescriptor@TmultiIndexDependNodeSet@@@@@@QEAAAEAV0@AEBV0@@Z
??4?$TiteratorWrapperFwd@UNodesOfBaseNameConstIteratorDescriptor@TmultiIndexDependNodeSet@@V?$TiteratorWrapper@UNodesOfBaseNameConstIteratorDescriptor@TmultiIndexDependNodeSet@@@@@@QEAAAEAV0@AEBV0@@Z
??4?$TiteratorWrapperFwd@UNodesOfTypeConstIteratorDescriptor@TmultiIndexDependNodeSet@@V?$TiteratorWrapper@UNodesOfTypeConstIteratorDescriptor@TmultiIndexDependNodeSet@@@@@@QEAAAEAV0@AEBV0@@Z
??4MAddRemoveAttrEdit@@QEAAAEAV0@AEBV0@@Z
??4MAngle@@QEAAAEAV0@AEBV0@@Z
??4MArgDatabase@@QEAAAEAV0@AEBV0@@Z
??4MArgList@@QEAAAEAV0@AEBV0@@Z
??4MArgParser@@QEAAAEAV0@AEBV0@@Z
??4MArrayDataBuilder@@QEAAAEAV0@AEBV0@@Z
??4MArrayDataHandle@@QEAAAEAV0@AEBV0@@Z
??4MAtomic@@QEAAAEAV0@AEBV0@@Z
??4MAttributeIndex@@QEAAAEAV0@AEBV0@@Z
??4MAttributePattern@@QEAAAEAV0@AEBV0@@Z
??4MAttributePatternArray@@QEAAAEAV0@AEBV0@@Z
??4MAttributeSpec@@QEAAAEAV0@AEBV0@@Z
??4MAttributeSpecArray@@QEAAAEAV0@AEBV0@@Z
??4MAutoCLEvent@@QEAAAEAV0@AEBV0@@Z
??4MAutoCLKernel@@QEAAAEAV0@AEBV0@@Z
??4MAutoCLMem@@QEAAAEAV0@AEBV0@@Z
??4MBoundingBox@@QEAAAEAV0@AEBV0@@Z
??4MCacheFormatDescription@@QEAAAEAV0@AEBV0@@Z
??4MCallbackIdArray@@QEAAAEAV0@AEBV0@@Z
??4MCameraSetMessage@@QEAAAEAV0@AEBV0@@Z
??4MColor@@QEAAAEAV0@AEBV0@@Z
??4MColorArray@@QEAAAEAV0@AEBV0@@Z
??4MCommandMessage@@QEAAAEAV0@AEBV0@@Z
??4MCommandResult@@QEAAAEAV0@AEBV0@@Z
??4MCommonSystemUtils@@QEAAAEAV0@AEBV0@@Z
??4MComputation@@QEAAAEAV0@AEBV0@@Z
??4MConditionMessage@@QEAAAEAV0@AEBV0@@Z
??4MConnectDisconnectAttrEdit@@QEAAAEAV0@AEBV0@@Z
??4MContainerMessage@@QEAAAEAV0@AEBV0@@Z
??4MCurveAttribute@@QEAAAEAV0@AEBV0@@Z
??4MDAGDrawOverrideInfo@@QEAAAEAV0@AEBV0@@Z
??4MDGContext@@QEAAAEAV0@AEBV0@@Z
??4MDGMessage@@QEAAAEAV0@AEBV0@@Z
??4MDGModifier@@IEAAAEAV0@AEBV0@@Z
??4MDagMessage@@QEAAAEAV0@AEBV0@@Z
??4MDagModifier@@IEAAAEAV0@AEBV0@@Z
??4MDagPath@@QEAAAEAV0@AEBV0@@Z
??4MDagPathArray@@QEAAAEAV0@AEBV0@@Z
??4MDataBlock@@QEAAAEAV0@AEBV0@@Z
??4MDataHandle@@QEAAAEAV0@AEBV0@@Z
??4MDistance@@QEAAAEAV0@AEBV0@@Z
??4MDoubleArray@@QEAAAEAV0@AEBV0@@Z
??4MEdit@@QEAAAEAV0@AEBV0@@Z
??4MEulerRotation@@QEAAAEAV0@AEBV0@@Z
??4MEulerRotation@@QEAAAEAV0@AEBVMMatrix@@@Z
??4MEulerRotation@@QEAAAEAV0@AEBVMQuaternion@@@Z
??4MEulerRotation@@QEAAAEAV0@AEBVMVector@@@Z
??4MEvaluationManager@@QEAAAEAV0@AEBV0@@Z
??4MEvaluationNode@@QEAAAEAV0@AEBV0@@Z
??4MEvaluationNodeIterator@@QEAAAEAV0@AEAV0@@Z
??4MEventMessage@@QEAAAEAV0@AEBV0@@Z
??4MFcurveEdit@@QEAAAEAV0@AEBV0@@Z
??4MFileIO@@QEAAAEAV0@AEBV0@@Z
??4MFileObject@@QEAAAEAV0@AEBV0@@Z
??4MFloatArray@@QEAAAEAV0@AEBV0@@Z
??4MFloatMatrix@@QEAAAEAV0@AEBV0@@Z
??4MFloatPoint@@QEAAAEAV0@AEBV0@@Z
??4MFloatPointArray@@QEAAAEAV0@AEBV0@@Z
??4MFloatVector@@QEAAAEAV0@AEBV0@@Z
??4MFloatVectorArray@@QEAAAEAV0@AEBV0@@Z
??4MFnAmbientLight@@AEAAAEAV0@AEBV0@@Z
??4MFnAnisotropyShader@@AEAAAEAV0@AEBV0@@Z
??4MFnAreaLight@@AEAAAEAV0@AEBV0@@Z
??4MFnArrayAttrsData@@AEAAAEAV0@AEBV0@@Z
??4MFnAssembly@@AEAAAEAV0@AEBV0@@Z
??4MFnAttribute@@AEAAAEAV0@AEBV0@@Z
??4MFnBase@@AEAAAEAV0@AEBV0@@Z
??4MFnBlinnShader@@AEAAAEAV0@AEBV0@@Z
??4MFnCamera@@AEAAAEAV0@AEBV0@@Z
??4MFnCameraSet@@AEAAAEAV0@AEBV0@@Z
??4MFnComponent@@AEAAAEAV0@AEBV0@@Z
??4MFnComponentListData@@AEAAAEAV0@AEBV0@@Z
??4MFnCompoundAttribute@@AEAAAEAV0@AEBV0@@Z
??4MFnContainerNode@@AEAAAEAV0@AEBV0@@Z
??4MFnDagNode@@AEAAAEAV0@AEBV0@@Z
??4MFnData@@AEAAAEAV0@AEBV0@@Z
??4MFnDependencyNode@@AEAAAEAV0@AEBV0@@Z
??4MFnDirectionalLight@@AEAAAEAV0@AEBV0@@Z
??4MFnDoubleArrayData@@AEAAAEAV0@AEBV0@@Z
??4MFnDoubleIndexedComponent@@AEAAAEAV0@AEBV0@@Z
??4MFnEnumAttribute@@AEAAAEAV0@AEBV0@@Z
??4MFnExpression@@AEAAAEAV0@AEBV0@@Z
??4MFnFloatArrayData@@AEAAAEAV0@AEBV0@@Z
??4MFnGenericAttribute@@AEAAAEAV0@AEBV0@@Z
??4MFnGeometryData@@AEAAAEAV0@AEBV0@@Z
??4MFnIntArrayData@@AEAAAEAV0@AEBV0@@Z
??4MFnLambertShader@@AEAAAEAV0@AEBV0@@Z
??4MFnLatticeData@@AEAAAEAV0@AEBV0@@Z
??4MFnLayeredShader@@AEAAAEAV0@AEBV0@@Z
??4MFnLight@@AEAAAEAV0@AEBV0@@Z
??4MFnLightDataAttribute@@AEAAAEAV0@AEBV0@@Z
??4MFnMatrixArrayData@@AEAAAEAV0@AEBV0@@Z
??4MFnMatrixAttribute@@AEAAAEAV0@AEBV0@@Z
??4MFnMatrixData@@AEAAAEAV0@AEBV0@@Z
??4MFnMesh@@AEAAAEAV0@AEBV0@@Z
??4MFnMeshData@@AEAAAEAV0@AEBV0@@Z
??4MFnMessageAttribute@@AEAAAEAV0@AEBV0@@Z
??4MFnNonAmbientLight@@AEAAAEAV0@AEBV0@@Z
??4MFnNonExtendedLight@@AEAAAEAV0@AEBV0@@Z
??4MFnNumericAttribute@@AEAAAEAV0@AEBV0@@Z
??4MFnNumericData@@AEAAAEAV0@AEBV0@@Z
??4MFnNurbsCurve@@AEAAAEAV0@AEBV0@@Z
??4MFnNurbsCurveData@@AEAAAEAV0@AEBV0@@Z
??4MFnNurbsSurface@@AEAAAEAV0@AEBV0@@Z
??4MFnNurbsSurfaceData@@AEAAAEAV0@AEBV0@@Z
??4MFnPartition@@AEAAAEAV0@AEBV0@@Z
??4MFnPhongEShader@@AEAAAEAV0@AEBV0@@Z
??4MFnPhongShader@@AEAAAEAV0@AEBV0@@Z
??4MFnPlugin@@AEAAAEAV0@AEBV0@@Z
??4MFnPluginData@@AEAAAEAV0@AEBV0@@Z
??4MFnPointArrayData@@AEAAAEAV0@AEBV0@@Z
??4MFnPointLight@@AEAAAEAV0@AEBV0@@Z
??4MFnReference@@AEAAAEAV0@AEBV0@@Z
??4MFnReflectShader@@AEAAAEAV0@AEBV0@@Z
??4MFnSet@@AEAAAEAV0@AEBV0@@Z
??4MFnSingleIndexedComponent@@AEAAAEAV0@AEBV0@@Z
??4MFnSphereData@@AEAAAEAV0@AEBV0@@Z
??4MFnSpotLight@@AEAAAEAV0@AEBV0@@Z
??4MFnStringArrayData@@AEAAAEAV0@AEBV0@@Z
??4MFnStringData@@AEAAAEAV0@AEBV0@@Z
??4MFnSubd@@AEAAAEAV0@AEBV0@@Z
??4MFnSubdData@@AEAAAEAV0@AEBV0@@Z
??4MFnSubdNames@@QEAAAEAV0@AEBV0@@Z
??4MFnTransform@@AEAAAEAV0@AEBV0@@Z
??4MFnTripleIndexedComponent@@AEAAAEAV0@AEBV0@@Z
??4MFnTypedAttribute@@AEAAAEAV0@AEBV0@@Z
??4MFnUInt64ArrayData@@AEAAAEAV0@AEBV0@@Z
??4MFnUint64SingleIndexedComponent@@AEAAAEAV0@AEBV0@@Z
??4MFnUnitAttribute@@AEAAAEAV0@AEBV0@@Z
??4MFnVectorArrayData@@AEAAAEAV0@AEBV0@@Z
??4MFnVolumeLight@@AEAAAEAV0@AEBV0@@Z
??4MGlobal@@QEAAAEAV0@AEBV0@@Z
??4MIffFile@@QEAAAEAV0@AEBV0@@Z
??4MIffTag@@QEAAAEAV0@AEBV0@@Z
??4MImage@@QEAAAEAV0@AEBV0@@Z
??4MImageFileInfo@@QEAAAEAV0@AEBV0@@Z
??4MInt64Array@@QEAAAEAV0@AEBV0@@Z
??4MIntArray@@QEAAAEAV0@AEBV0@@Z
??4MItCurveCV@@QEAAAEAV0@AEBV0@@Z
??4MItDag@@QEAAAEAV0@AEBV0@@Z
??4MItDependencyGraph@@QEAAAEAV0@AEBV0@@Z
??4MItDependencyNodes@@QEAAAEAV0@AEBV0@@Z
??4MItEdits@@QEAAAEAV0@AEBV0@@Z
??4MItGeometry@@QEAAAEAV0@AEBV0@@Z
??4MItInstancer@@QEAAAEAV0@AEBV0@@Z
??4MItMeshEdge@@QEAAAEAV0@AEBV0@@Z
??4MItMeshFaceVertex@@QEAAAEAV0@AEBV0@@Z
??4MItMeshPolygon@@QEAAAEAV0@AEBV0@@Z
??4MItMeshVertex@@QEAAAEAV0@AEBV0@@Z
??4MItSelectionList@@QEAAAEAV0@AEBV0@@Z
??4MItSubdEdge@@QEAAAEAV0@AEBV0@@Z
??4MItSubdFace@@QEAAAEAV0@AEBV0@@Z
??4MItSubdVertex@@QEAAAEAV0@AEBV0@@Z
??4MItSurfaceCV@@QEAAAEAV0@AEBV0@@Z
??4MIteratorType@@QEAAAEAV0@AEBV0@@Z
??4MLibrary@@QEAAAEAV0@AEBV0@@Z
??4MLockMessage@@QEAAAEAV0@AEBV0@@Z
??4MMatrix@@QEAAAEAV0@AEBV0@@Z
??4MMatrixArray@@QEAAAEAV0@AEBV0@@Z
??4MMelNativeInterface@@QEAAAEAV0@AEBV0@@Z
??4MMeshIntersector@@QEAAAEAV0@AEBV0@@Z
??4MMeshIsectAccelParams@@QEAAAEAV0@AEBV0@@Z
??4MMeshSmoothOptions@@QEAAAEAV0@AEBV0@@Z
??4MMessage@@QEAAAEAV0@AEBV0@@Z
??4MMessageNode@@QEAAAEAU0@AEBU0@@Z
??4MModelMessage@@QEAAAEAV0@AEBV0@@Z
??4MNamespace@@QEAAAEAV0@AEBV0@@Z
??4MNodeClass@@QEAAAEAV0@AEBV0@@Z
??4MNodeMessage@@QEAAAEAV0@AEBV0@@Z
??4MNurbsIntersector@@QEAAAEAV0@AEBV0@@Z
??4MObjectArray@@QEAAAEAV0@AEBV0@@Z
??4MObjectHandle@@QEAAAEAV0@AEBV0@@Z
??4MObjectHandle@@QEAAAEAV0@AEBVMObject@@@Z
??4MObjectSetMessage@@QEAAAEAV0@AEBV0@@Z
??4MOpenCLInfo@@QEAAAEAV0@AEBV0@@Z
??4MParentingEdit@@QEAAAEAV0@AEBV0@@Z
??4MPlane@@QEAAAEAV0@AEBV0@@Z
??4MPlug@@QEAAAEAV0@AEBV0@@Z
??4MPlugArray@@QEAAAEAV0@AEBV0@@Z
??4MPoint@@QEAAAEAV0@AEBV0@@Z
??4MPointArray@@QEAAAEAV0@AEBV0@@Z
??4MPointOnMesh@@QEAAAEAV0@AEBV0@@Z
??4MPointOnNurbs@@QEAAAEAV0@AEBV0@@Z
??4MPolyMessage@@QEAAAEAV0@AEBV0@@Z
??4MProfiler@@QEAAAEAV0@AEBV0@@Z
??4MProfilingScope@@QEAAAEAV0@AEBV0@@Z
??4MPxAssembly@@QEAAAEAV0@AEBV0@@Z
??4MPxAttributePatternFactory@@QEAAAEAV0@AEBV0@@Z
??4MPxBakeEngine@@QEAAAEAV0@AEBV0@@Z
??4MPxCacheFormat@@QEAAAEAV0@AEBV0@@Z
??4MPxCameraSet@@QEAAAEAV0@AEBV0@@Z
??4MPxCommand@@QEAAAEAV0@AEBV0@@Z
??4MPxComponentShape@@QEAAAEAV0@AEBV0@@Z
??4MPxData@@QEAAAEAV0@AEBV0@@Z
??4MPxFileResolver@@QEAAAEAV0@AEBV0@@Z
??4MPxFileTranslator@@QEAAAEAV0@AEBV0@@Z
??4MPxGeometryData@@QEAAAEAV0@AEBV0@@Z
??4MPxGeometryIterator@@QEAAAEAV0@AEBV0@@Z
??4MPxImageFile@@QEAAAEAV0@AEBV0@@Z
??4MPxImagePlane@@QEAAAEAV0@AEBV0@@Z
??4MPxMaterialInformation@@QEAAAEAV0@AEBV0@@Z
??4MPxMayaAsciiFilter@@QEAAAEAV0@AEBV0@@Z
??4MPxMayaAsciiFilterOutput@@QEAAAEAV0@AEBV0@@Z
??4MPxNode@@QEAAAEAV0@AEBV0@@Z
??4MPxObjectSet@@QEAAAEAV0@AEBV0@@Z
??4MPxPolyTrg@@QEAAAEAV0@AEBV0@@Z
??4MPxPolyTweakUVCommand@@QEAAAEAV0@AEBV0@@Z
??4MPxRenderPassImpl@@QEAAAEAV0@AEBV0@@Z
??4MPxSurfaceShape@@QEAAAEAV0@AEBV0@@Z
??4MPxTransform@@QEAAAEAV0@AEBV0@@Z
??4MPxTransformationMatrix@@QEAAAEAV0@AEBV0@@Z
??4MPxTransformationMatrix@@QEAAAEAV0@AEBVMMatrix@@@Z
??4MPxTransformationMatrix@@QEAAAEAV0@AEBVMTransformationMatrix@@@Z
??4MPyAttributeRegistry@@QEAAAEAV0@AEBV0@@Z
??4MPyDirector@@QEAAAEAV0@AEBV0@@Z
??4MPyMAngle_Type@@QEAAAEAV0@AEBV0@@Z
??4MPyMArgDatabase_Type@@QEAAAEAV0@AEBV0@@Z
??4MPyMArgList@@QEAAAEAV0@AEBV0@@Z
??4MPyMArgList_Type@@QEAAAEAV0@AEBV0@@Z
??4MPyMArgParser_Type@@QEAAAEAV0@AEBV0@@Z
??4MPyMArrayDataBuilder_Type@@QEAAAEAV0@AEBV0@@Z
??4MPyMArrayDataHandle@@QEAAAEAV0@AEBV0@@Z
??4MPyMArrayDataHandle_Type@@QEAAAEAV0@AEBV0@@Z
??4MPyMAttributeIndex_Type@@QEAAAEAV0@AEBV0@@Z
??4MPyMAttributePattern_Type@@QEAAAEAV0@AEBV0@@Z
??4MPyMAttributeSpecArray_Type@@QEAAAEAV0@AEBV0@@Z
??4MPyMAttributeSpec_Type@@QEAAAEAV0@AEBV0@@Z
??4MPyMBoundingBox_Type@@QEAAAEAV0@AEBV0@@Z
??4MPyMCallbackIdArray_Type@@QEAAAEAV0@AEBV0@@Z
??4MPyMColorArray_Type@@QEAAAEAV0@AEBV0@@Z
??4MPyMColor_Type@@QEAAAEAV0@AEBV0@@Z
??4MPyMCommandMessage_Type@@QEAAAEAV0@AEBV0@@Z
??4MPyMConditionMessage_Type@@QEAAAEAV0@AEBV0@@Z
??4MPyMContainerMessage_Type@@QEAAAEAV0@AEBV0@@Z
??4MPyMDAGDrawOverrideInfo_Type@@QEAAAEAV0@AEBV0@@Z
??4MPyMDGContext_Type@@QEAAAEAV0@AEBV0@@Z
??4MPyMDGMessage_Type@@QEAAAEAV0@AEBV0@@Z
??4MPyMDGModifier_Type@@QEAAAEAV0@AEBV0@@Z
??4MPyMDagMessage_Type@@QEAAAEAV0@AEBV0@@Z
??4MPyMDagModifier_Type@@QEAAAEAV0@AEBV0@@Z
??4MPyMDagPathArray_Type@@QEAAAEAV0@AEBV0@@Z
??4MPyMDagPath_Type@@QEAAAEAV0@AEBV0@@Z
??4MPyMDataBlock_Type@@QEAAAEAV0@AEBV0@@Z
??4MPyMDataHandle_Type@@QEAAAEAV0@AEBV0@@Z
??4MPyMDistance_Type@@QEAAAEAV0@AEBV0@@Z
??4MPyMDoubleArray_Type@@QEAAAEAV0@AEBV0@@Z
??4MPyMEulerRotation_Type@@QEAAAEAV0@AEBV0@@Z
??4MPyMEventMessage_Type@@QEAAAEAV0@AEBV0@@Z
??4MPyMExternalContentInfoTable_Type@@QEAAAEAV0@AEBV0@@Z
??4MPyMExternalContentLocationTable_Type@@QEAAAEAV0@AEBV0@@Z
??4MPyMFileObject_Type@@QEAAAEAV0@AEBV0@@Z
??4MPyMFloatArray_Type@@QEAAAEAV0@AEBV0@@Z
??4MPyMFloatMatrix_Type@@QEAAAEAV0@AEBV0@@Z
??4MPyMFloatPointArray_Type@@QEAAAEAV0@AEBV0@@Z
??4MPyMFloatPoint_Type@@QEAAAEAV0@AEBV0@@Z
??4MPyMFloatVectorArray_Type@@QEAAAEAV0@AEBV0@@Z
??4MPyMFloatVector_Type@@QEAAAEAV0@AEBV0@@Z
??4MPyMFnAttribute_Type@@QEAAAEAV0@AEBV0@@Z
??4MPyMFnBase_Type@@QEAAAEAV0@AEBV0@@Z
??4MPyMFnCamera_Type@@QEAAAEAV0@AEBV0@@Z
??4MPyMFnComponentListData_Type@@QEAAAEAV0@AEBV0@@Z
??4MPyMFnComponent_Type@@QEAAAEAV0@AEBV0@@Z
??4MPyMFnCompoundAttribute_Type@@QEAAAEAV0@AEBV0@@Z
??4MPyMFnDagNode_Type@@QEAAAEAV0@AEBV0@@Z
??4MPyMFnData_Type@@QEAAAEAV0@AEBV0@@Z
??4MPyMFnDependencyNode_Type@@QEAAAEAV0@AEBV0@@Z
??4MPyMFnDoubleArrayData_Type@@QEAAAEAV0@AEBV0@@Z
??4MPyMFnDoubleIndexedComponent_Type@@QEAAAEAV0@AEBV0@@Z
??4MPyMFnEnumAttribute_Type@@QEAAAEAV0@AEBV0@@Z
??4MPyMFnFloatArrayData_Type@@QEAAAEAV0@AEBV0@@Z
??4MPyMFnGenericAttribute_Type@@QEAAAEAV0@AEBV0@@Z
??4MPyMFnGeometryData_Type@@QEAAAEAV0@AEBV0@@Z
??4MPyMFnIntArrayData_Type@@QEAAAEAV0@AEBV0@@Z
??4MPyMFnLightDataAttribute_Type@@QEAAAEAV0@AEBV0@@Z
??4MPyMFnMatrixArrayData_Type@@QEAAAEAV0@AEBV0@@Z
??4MPyMFnMatrixAttribute_Type@@QEAAAEAV0@AEBV0@@Z
??4MPyMFnMatrixData_Type@@QEAAAEAV0@AEBV0@@Z
??4MPyMFnMeshData_Type@@QEAAAEAV0@AEBV0@@Z
??4MPyMFnMesh_Type@@QEAAAEAV0@AEBV0@@Z
??4MPyMFnMessageAttribute_Type@@QEAAAEAV0@AEBV0@@Z
??4MPyMFnNumericAttribute_Type@@QEAAAEAV0@AEBV0@@Z
??4MPyMFnNumericData_Type@@QEAAAEAV0@AEBV0@@Z
??4MPyMFnNurbsCurveData_Type@@QEAAAEAV0@AEBV0@@Z
??4MPyMFnNurbsCurve_Type@@QEAAAEAV0@AEBV0@@Z
??4MPyMFnNurbsSurfaceData_Type@@QEAAAEAV0@AEBV0@@Z
??4MPyMFnNurbsSurface_Type@@QEAAAEAV0@AEBV0@@Z
??4MPyMFnPluginData_Type@@QEAAAEAV0@AEBV0@@Z
??4MPyMFnPlugin_Type@@QEAAAEAV0@AEBV0@@Z
??4MPyMFnPointArrayData_Type@@QEAAAEAV0@AEBV0@@Z
??4MPyMFnSingleIndexedComponent_Type@@QEAAAEAV0@AEBV0@@Z
??4MPyMFnStringArrayData_Type@@QEAAAEAV0@AEBV0@@Z
??4MPyMFnStringData_Type@@QEAAAEAV0@AEBV0@@Z
??4MPyMFnTransform_Type@@QEAAAEAV0@AEBV0@@Z
??4MPyMFnTripleIndexedComponent_Type@@QEAAAEAV0@AEBV0@@Z
??4MPyMFnTypedAttribute_Type@@QEAAAEAV0@AEBV0@@Z
??4MPyMFnUInt64ArrayData_Type@@QEAAAEAV0@AEBV0@@Z
??4MPyMFnUnitAttribute_Type@@QEAAAEAV0@AEBV0@@Z
??4MPyMFnVectorArrayData_Type@@QEAAAEAV0@AEBV0@@Z
??4MPyMFn_Type@@QEAAAEAV0@AEBV0@@Z
??4MPyMGlobal_Type@@QEAAAEAV0@AEBV0@@Z
??4MPyMImage_Type@@QEAAAEAV0@AEBV0@@Z
??4MPyMInt64Array_Type@@QEAAAEAV0@AEBV0@@Z
??4MPyMIntArray_Type@@QEAAAEAV0@AEBV0@@Z
??4MPyMItMeshEdge_Type@@QEAAAEAV0@AEBV0@@Z
??4MPyMItMeshFaceVertex_Type@@QEAAAEAV0@AEBV0@@Z
??4MPyMItMeshPolygon_Type@@QEAAAEAV0@AEBV0@@Z
??4MPyMItMeshVertex_Type@@QEAAAEAV0@AEBV0@@Z
??4MPyMItSelectionList_Type@@QEAAAEAV0@AEBV0@@Z
??4MPyMItSurfaceCV_Type@@QEAAAEAV0@AEBV0@@Z
??4MPyMLockMessage_Type@@QEAAAEAV0@AEBV0@@Z
??4MPyMMatrixArray_Type@@QEAAAEAV0@AEBV0@@Z
??4MPyMMatrix_Type@@QEAAAEAV0@AEBV0@@Z
??4MPyMMeshIntersector_Type@@QEAAAEAV0@AEBV0@@Z
??4MPyMMeshIsectAccelParams_Type@@QEAAAEAV0@AEBV0@@Z
??4MPyMMeshSmoothOptions_Type@@QEAAAEAV0@AEBV0@@Z
??4MPyMMessage_Type@@QEAAAEAV0@AEBV0@@Z
??4MPyMModelMessage_Type@@QEAAAEAV0@AEBV0@@Z
??4MPyMNodeClass_Type@@QEAAAEAV0@AEBV0@@Z
??4MPyMNodeMessage_Type@@QEAAAEAV0@AEBV0@@Z
??4MPyMObjectArray_Type@@QEAAAEAV0@AEBV0@@Z
??4MPyMObjectHandle_Type@@QEAAAEAV0@AEBV0@@Z
??4MPyMObjectSetMessage_Type@@QEAAAEAV0@AEBV0@@Z
??4MPyMObject_Type@@QEAAAEAV0@AEBV0@@Z
??4MPyMPlane_Type@@QEAAAEAV0@AEBV0@@Z
??4MPyMPlugArray_Type@@QEAAAEAV0@AEBV0@@Z
??4MPyMPlug_Type@@QEAAAEAV0@AEBV0@@Z
??4MPyMPointArray_Type@@QEAAAEAV0@AEBV0@@Z
??4MPyMPointOnMesh_Type@@QEAAAEAV0@AEBV0@@Z
??4MPyMPoint_Type@@QEAAAEAV0@AEBV0@@Z
??4MPyMPolyMessage_Type@@QEAAAEAV0@AEBV0@@Z
??4MPyMPxAttributePatternFactory_Director@@QEAAAEAV0@AEBV0@@Z
??4MPyMPxAttributePatternFactory_Type@@QEAAAEAV0@AEBV0@@Z
??4MPyMPxCommand_Director@@QEAAAEAV0@AEBV0@@Z
??4MPyMPxCommand_Type@@QEAAAEAV0@AEBV0@@Z
??4MPyMPxData_DirectorBase@@QEAAAEAV0@AEBV0@@Z
??4MPyMPxData_Type@@QEAAAEAV0@AEBV0@@Z
??4MPyMPxGeometryData_Type@@QEAAAEAV0@AEBV0@@Z
??4MPyMPxGeometryIterator_Director@@QEAAAEAV0@AEBV0@@Z
??4MPyMPxGeometryIterator_Type@@QEAAAEAV0@AEBV0@@Z
??4MPyMPxNode_DirectorBase@@QEAAAEAV0@AEBV0@@Z
??4MPyMPxNode_Type@@QEAAAEAV0@AEBV0@@Z
??4MPyMPxSurfaceShape_Type@@QEAAAEAV0@AEBV0@@Z
??4MPyMQuaternion_Type@@QEAAAEAV0@AEBV0@@Z
??4MPyMRampAttribute_Type@@QEAAAEAV0@AEBV0@@Z
??4MPyMRichSelection_Type@@QEAAAEAV0@AEBV0@@Z
??4MPyMSceneMessage_Type@@QEAAAEAV0@AEBV0@@Z
??4MPyMSelectionList_Type@@QEAAAEAV0@AEBV0@@Z
??4MPyMSelectionMask_Type@@QEAAAEAV0@AEBV0@@Z
??4MPyMSpace_Type@@QEAAAEAV0@AEBV0@@Z
??4MPyMSyntax_Type@@QEAAAEAV0@AEBV0@@Z
??4MPyMTimeArray_Type@@QEAAAEAV0@AEBV0@@Z
??4MPyMTime_Type@@QEAAAEAV0@AEBV0@@Z
??4MPyMTimerMessage_Type@@QEAAAEAV0@AEBV0@@Z
??4MPyMTransformationMatrix_Type@@QEAAAEAV0@AEBV0@@Z
??4MPyMTypeId_Type@@QEAAAEAV0@AEBV0@@Z
??4MPyMUint64Array_Type@@QEAAAEAV0@AEBV0@@Z
??4MPyMUintArray_Type@@QEAAAEAV0@AEBV0@@Z
??4MPyMUserData_Director@@QEAAAEAV0@AEBV0@@Z
??4MPyMUserData_Type@@QEAAAEAV0@AEBV0@@Z
??4MPyMUserEventMessage_Type@@QEAAAEAV0@AEBV0@@Z
??4MPyMUuid_Type@@QEAAAEAV0@AEBV0@@Z
??4MPyMVectorArray_Type@@QEAAAEAV0@AEBV0@@Z
??4MPyMVector_Type@@QEAAAEAV0@AEBV0@@Z
??4MPyMWeight_Type@@QEAAAEAV0@AEBV0@@Z
??4MPyTypeObjectHelper@@QEAAAEAV0@AEBV0@@Z
??4MPyUtil@@QEAAAEAV0@AEBV0@@Z
??4MQuaternion@@QEAAAEAV0@AEBV0@@Z
??4MQuaternion@@QEAAAEAV0@AEBVMEulerRotation@@@Z
??4MQuaternion@@QEAAAEAV0@AEBVMMatrix@@@Z
??4MRampAttribute@@QEAAAEAV0@AEBV0@@Z
??4MRenderPassDef@@QEAAAEAV0@AEBV0@@Z
??4MRenderPassRegistry@@QEAAAEAV0@AEBV0@@Z
??4MRichSelection@@QEAAAEAV0@AEBV0@@Z
??4MSceneMessage@@QEAAAEAV0@AEBV0@@Z
??4MScriptUtil@@QEAAAEAV0@AEBV0@@Z
??4MSelectionList@@QEAAAEAV0@AEBV0@@Z
??4MSelectionMask@@QEAAAEAV0@AEBV0@@Z
??4MSetAttrEdit@@QEAAAEAV0@AEBV0@@Z
??4MStatus@@QEAAAEAV0@AEBV0@@Z
??4MStreamUtils@@QEAAAEAV0@AEBV0@@Z
??4MString@@QEAAAEAV0@AEBV0@@Z
??4MString@@QEAAAEAV0@N@Z
??4MString@@QEAAAEAV0@PEBD@Z
??4MStringArray@@QEAAAEAV0@AEBV0@@Z
??4MStringResource@@QEAAAEAV0@AEBV0@@Z
??4MStringResourceId@@QEAAAEAV0@AEBV0@@Z
??4MSyntax@@QEAAAEAV0@AEBV0@@Z
??4MTesselationParams@@QEAAAEAV0@AEBV0@@Z
??4MThreadAsync@@QEAAAEAV0@AEBV0@@Z
??4MThreadPool@@QEAAAEAV0@AEBV0@@Z
??4MThreadUtils@@QEAAAEAV0@AEBV0@@Z
??4MTime@@QEAAAEAV0@AEBV0@@Z
??4MTimeArray@@QEAAAEAV0@AEBV0@@Z
??4MTimer@@QEAAAEAV0@AEBV0@@Z
??4MTimerMessage@@QEAAAEAV0@AEBV0@@Z
??4MTransformationMatrix@@QEAAAEAV0@AEBV0@@Z
??4MTransformationMatrix@@QEAAAEAV0@AEBVMMatrix@@@Z
??4MTrimBoundaryArray@@AEAAAEAV0@AEBV0@@Z
??4MTypeId@@QEAAAEAV0@AEBV0@@Z
??4MURI@@QEAAAEAV0@AEBV0@@Z
??4MURI@@QEAAAEAV0@AEBVMString@@@Z
??4MUint64Array@@QEAAAEAV0@AEBV0@@Z
??4MUintArray@@QEAAAEAV0@AEBV0@@Z
??4MUserData@@QEAAAEAV0@AEBV0@@Z
??4MUserEventMessage@@QEAAAEAV0@AEBV0@@Z
??4MUuid@@QEAAAEAV0@AEBV0@@Z
??4MVector@@QEAAAEAV0@AEBV0@@Z
??4MVectorArray@@QEAAAEAV0@AEBV0@@Z
??4MWeight@@QEAAAEAV0@AEBV0@@Z
??4THapiNodeFlags@@QEAAAEAV0@AEBV0@@Z
??4THattributePatternFactory@@QEAAAEAV0@AEBV0@@Z
??4THcallbackId@@QEAAAEAV0@AEBV0@@Z
??4THclient@@QEAAAEAV0@AEBV0@@Z
??4THrenderPassImpl@@QEAAAEAV0@AEBV0@@Z
??4THsurfaceShapeSnap@@QEAAAEAV0@AEBV0@@Z
??4THxformMatrix@@QEAAAEAV0@AEBV0@@Z
??4THxformMatrix@@UEAAAEAVTxformMatrix@@AEBV1@@Z
??4TanimCallbackTable@@QEAAAEAV0@AEBV0@@Z
??4TanimDeltaMsgSwitch@@QEAAAEAV0@AEBV0@@Z
??4TapiArrayTester@@QEAAAEAV0@AEBV0@@Z
??4TapiCast@@QEAAAEAV0@AEBV0@@Z
??4TapiEnum@@QEAAAEAV0@AEBV0@@Z
??4TapiError@@QEAAAEAV0@AEBV0@@Z
??4TapiErrorLogEntry@@QEAAAEAV0@AEBV0@@Z
??4TapiFileObject@@QEAAAEAV0@AEBV0@@Z
??4TapiPack@@QEAAAEAV0@AEBV0@@Z
??4TapiScriptConverterCallbacks@@QEAAAEAV0@AEBV0@@Z
??4TnormalMapConverter@@QEAAAEAV0@AEBV0@@Z
??4TpluginAttributePatternFactoryDBase@@QEAAAEAV0@AEBV0@@Z
??4TpluginCmd@@QEAAAEAV0@AEBV0@@Z
??4TpluginCmdDBase@@QEAAAEAV0@AEBV0@@Z
??4TpluginConstraintCmdInfo@@QEAAAEAV0@AEBV0@@Z
??4TpluginDBase@@QEAAAEAV0@AEBV0@@Z
??4TpluginDataInfo@@QEAAAEAV0@AEBV0@@Z
??4TpluginFileResolverDBase@@QEAAAEAV0@AEBV0@@Z
??4TpluginGeometryCacheDBase@@QEAAAEAV0@AEBV0@@Z
??4TpluginImageFormatDBase@@QEAAAEAV0@AEBV0@@Z
??4TpluginModelEditorCmdInfo@@QEAAAEAV0@AEBV0@@Z
??4TpluginNodeInfo@@QEAAAEAV0@AEBV0@@Z
??4TpluginObject@@QEAAAEAV0@AEBV0@@Z
??4TpluginObjectHanger@@QEAAAEAV0@AEBV0@@Z
??4TpluginPref@@QEAAAEAV0@AEBV0@@Z
??4TpluginPrefMgr@@QEAAAEAV0@AEBV0@@Z
??4TpluginRegistryInfo@@QEAAAEAV0@AEBV0@@Z
??4TpluginRenderPassImplDBase@@QEAAAEAV0@AEBV0@@Z
??6@YAAEAV?$basic_ostream@DU?$char_traits@D@std@@@std@@AEAV01@AEAVMStatus@@@Z
??6@YAAEAV?$basic_ostream@DU?$char_traits@D@std@@@std@@AEAV01@AEBVMArgList@@@Z
??6@YAAEAV?$basic_ostream@DU?$char_traits@D@std@@@std@@AEAV01@AEBVMAttributePatternArray@@@Z
??6@YAAEAV?$basic_ostream@DU?$char_traits@D@std@@@std@@AEAV01@AEBVMCallbackIdArray@@@Z
??6@YAAEAV?$basic_ostream@DU?$char_traits@D@std@@@std@@AEAV01@AEBVMColor@@@Z
??6@YAAEAV?$basic_ostream@DU?$char_traits@D@std@@@std@@AEAV01@AEBVMColorArray@@@Z
??6@YAAEAV?$basic_ostream@DU?$char_traits@D@std@@@std@@AEAV01@AEBVMDagPathArray@@@Z
??6@YAAEAV?$basic_ostream@DU?$char_traits@D@std@@@std@@AEAV01@AEBVMDoubleArray@@@Z
??6@YAAEAV?$basic_ostream@DU?$char_traits@D@std@@@std@@AEAV01@AEBVMEulerRotation@@@Z
??6@YAAEAV?$basic_ostream@DU?$char_traits@D@std@@@std@@AEAV01@AEBVMFloatArray@@@Z
??6@YAAEAV?$basic_ostream@DU?$char_traits@D@std@@@std@@AEAV01@AEBVMFloatMatrix@@@Z
??6@YAAEAV?$basic_ostream@DU?$char_traits@D@std@@@std@@AEAV01@AEBVMFloatPoint@@@Z
??6@YAAEAV?$basic_ostream@DU?$char_traits@D@std@@@std@@AEAV01@AEBVMFloatPointArray@@@Z
??6@YAAEAV?$basic_ostream@DU?$char_traits@D@std@@@std@@AEAV01@AEBVMFloatVector@@@Z
??6@YAAEAV?$basic_ostream@DU?$char_traits@D@std@@@std@@AEAV01@AEBVMFloatVectorArray@@@Z
??6@YAAEAV?$basic_ostream@DU?$char_traits@D@std@@@std@@AEAV01@AEBVMInt64Array@@@Z
??6@YAAEAV?$basic_ostream@DU?$char_traits@D@std@@@std@@AEAV01@AEBVMIntArray@@@Z
??6@YAAEAV?$basic_ostream@DU?$char_traits@D@std@@@std@@AEAV01@AEBVMMatrix@@@Z
??6@YAAEAV?$basic_ostream@DU?$char_traits@D@std@@@std@@AEAV01@AEBVMMatrixArray@@@Z
??6@YAAEAV?$basic_ostream@DU?$char_traits@D@std@@@std@@AEAV01@AEBVMPoint@@@Z
??6@YAAEAV?$basic_ostream@DU?$char_traits@D@std@@@std@@AEAV01@AEBVMPointArray@@@Z
??6@YAAEAV?$basic_ostream@DU?$char_traits@D@std@@@std@@AEAV01@AEBVMQuaternion@@@Z
??6@YAAEAV?$basic_ostream@DU?$char_traits@D@std@@@std@@AEAV01@AEBVMString@@@Z
??6@YAAEAV?$basic_ostream@DU?$char_traits@D@std@@@std@@AEAV01@AEBVMStringArray@@@Z
??6@YAAEAV?$basic_ostream@DU?$char_traits@D@std@@@std@@AEAV01@AEBVMTime@@@Z
??6@YAAEAV?$basic_ostream@DU?$char_traits@D@std@@@std@@AEAV01@AEBVMTimeArray@@@Z
??6@YAAEAV?$basic_ostream@DU?$char_traits@D@std@@@std@@AEAV01@AEBVMUint64Array@@@Z
??6@YAAEAV?$basic_ostream@DU?$char_traits@D@std@@@std@@AEAV01@AEBVMUintArray@@@Z
??6@YAAEAV?$basic_ostream@DU?$char_traits@D@std@@@std@@AEAV01@AEBVMVector@@@Z
??6@YAAEAV?$basic_ostream@DU?$char_traits@D@std@@@std@@AEAV01@AEBVMVectorArray@@@Z
??6MPxMayaAsciiFilterOutput@@QEAAAEAV0@PEBD@Z
??7MAutoCLEvent@@QEBA_NXZ
??7MAutoCLKernel@@QEBA_NXZ
??7MAutoCLMem@@QEBA_NXZ
??7MPlug@@QEBA_NXZ
??8@YA_NW4MStatusCode@MStatus@@AEBV1@@Z
??8MAttributeIndex@@QEBA_NAEBV0@@Z
??8MAttributePattern@@QEBA_NAEBV0@@Z
??8MAttributeSpec@@QEBA_NAEBV0@@Z
??8MAutoCLEvent@@QEBA_NAEBV0@@Z
??8MAutoCLEvent@@QEBA_NPEAU_cl_event@@@Z
??8MAutoCLKernel@@QEBA_NAEBV0@@Z
??8MAutoCLKernel@@QEBA_NPEAU_cl_kernel@@@Z
??8MAutoCLMem@@QEBA_NAEBV0@@Z
??8MAutoCLMem@@QEBA_NPEAU_cl_mem@@@Z
??8MColor@@QEBA_NAEBV0@@Z
??8MDagPath@@QEBA_NAEBV0@@Z
??8MEulerRotation@@QEBA_NAEBV0@@Z
??8MFloatMatrix@@QEBA_NAEBV0@@Z
??8MFloatPoint@@QEBA_NAEBV0@@Z
??8MFloatVector@@QEBA_NAEBV0@@Z
??8MIffTag@@QEBA_NAEBV0@@Z
??8MMatrix@@QEBA_NAEBV0@@Z
??8MObjectHandle@@QEBA_NAEBV0@@Z
??8MObjectHandle@@QEBA_NAEBVMObject@@@Z
??8MPlug@@QEBA_NAEBV0@@Z
??8MPlug@@QEBA_NAEBVMObject@@@Z
??8MPoint@@QEBA_NAEBV0@@Z
??8MPxTransformationMatrix@@QEAA_NAEBV0@@Z
??8MPxTransformationMatrix@@QEAA_NAEBVMMatrix@@@Z
??8MPxTransformationMatrix@@QEAA_NAEBVMTransformationMatrix@@@Z
??8MQuaternion@@QEBA_NAEBV0@@Z
??8MStatus@@QEBA_NAEBV0@@Z
??8MStatus@@QEBA_NW4MStatusCode@0@@Z
??8MString@@QEBA_NAEBV0@@Z
??8MString@@QEBA_NPEBD@Z
??8MStringResourceId@@QEBA_NAEBV0@@Z
??8MTime@@QEBA_NAEBV0@@Z
??8MTimer@@QEBA_NAEBV0@@Z
??8MTransformationMatrix@@QEBA_NAEBV0@@Z
??8MTypeId@@QEBA_NAEBV0@@Z
??8MURI@@QEBA_NAEBV0@@Z
??8MUuid@@QEBA_NAEBV0@@Z
??8MVector@@QEBA_NAEBV0@@Z
??8THxformMatrix@@QEBA_NAEBVTxformMatrix@@@Z
??8TapiFileObject@@QEBA_NAEBV0@@Z
??9@YA_NW4MStatusCode@MStatus@@AEBV1@@Z
??9MAttributeIndex@@QEBA_NAEBV0@@Z
??9MColor@@QEBA_NAEBV0@@Z
??9MEulerRotation@@QEBA_NAEBV0@@Z
??9MFloatMatrix@@QEBA_NAEBV0@@Z
??9MFloatPoint@@QEBA_NAEBV0@@Z
??9MFloatVector@@QEBA_NAEBV0@@Z
??9MMatrix@@QEBA_NAEBV0@@Z
??9MObjectHandle@@QEBA_NAEBV0@@Z
??9MObjectHandle@@QEBA_NAEBVMObject@@@Z
??9MPlug@@QEBA_NAEBV0@@Z
??9MPlug@@QEBA_NAEBVMObject@@@Z
??9MPoint@@QEBA_NAEBV0@@Z
??9MPxTransformationMatrix@@QEAA_NAEBV0@@Z
??9MPxTransformationMatrix@@QEAA_NAEBVMMatrix@@@Z
??9MPxTransformationMatrix@@QEAA_NAEBVMTransformationMatrix@@@Z
??9MQuaternion@@QEBA_NAEBV0@@Z
??9MStatus@@QEBA_NAEBV0@@Z
??9MStatus@@QEBA_NW4MStatusCode@0@@Z
??9MString@@QEBA_NAEBV0@@Z
??9MString@@QEBA_NPEBD@Z
??9MStringResourceId@@QEBA_NAEBV0@@Z
??9MTime@@QEBA_NAEBV0@@Z
??9MTimer@@QEBA_NAEBV0@@Z
??9MTransformationMatrix@@QEBA_NAEBV0@@Z
??9MTypeId@@QEBA_NAEBV0@@Z
??9MURI@@QEBA_NAEBV0@@Z
??9MUuid@@QEBA_NAEBV0@@Z
??9MVector@@QEBA_NAEBV0@@Z
??9THxformMatrix@@QEBA_NAEBVTxformMatrix@@@Z
??AMAttributePatternArray@@QEAAAEAVMAttributePattern@@I@Z
??AMAttributePatternArray@@QEBAAEBVMAttributePattern@@I@Z
??AMAttributeSpec@@QEAA?AVMAttributeIndex@@H@Z
??AMAttributeSpec@@QEBA?BVMAttributeIndex@@H@Z
??AMAttributeSpecArray@@QEBA?AVMAttributeSpec@@I@Z
??AMCallbackIdArray@@QEAAAEA_KI@Z
??AMCallbackIdArray@@QEBA_KI@Z
??AMColor@@QEAAAEAMI@Z
??AMColor@@QEBAMI@Z
??AMColorArray@@QEAAAEAVMColor@@I@Z
??AMColorArray@@QEBAAEBVMColor@@I@Z
??AMDagPathArray@@QEAAAEAVMDagPath@@I@Z
??AMDagPathArray@@QEBAAEBVMDagPath@@I@Z
??AMDoubleArray@@QEAAAEANI@Z
??AMDoubleArray@@QEBANI@Z
??AMEulerRotation@@QEAAAEANI@Z
??AMEulerRotation@@QEBANI@Z
??AMFloatArray@@QEAAAEAMI@Z
??AMFloatArray@@QEBAMI@Z
??AMFloatMatrix@@QEAAPEAMI@Z
??AMFloatMatrix@@QEBAPEBMI@Z
??AMFloatPoint@@QEAAAEAMI@Z
??AMFloatPoint@@QEBAMI@Z
??AMFloatPointArray@@QEAAAEAVMFloatPoint@@I@Z
??AMFloatPointArray@@QEBAAEBVMFloatPoint@@I@Z
??AMFloatVector@@QEAAAEAMI@Z
??AMFloatVector@@QEBAMI@Z
??AMFloatVectorArray@@QEAAAEAVMFloatVector@@I@Z
??AMFloatVectorArray@@QEBAAEBVMFloatVector@@I@Z
??AMFnComponentListData@@QEBA?AVMObject@@I@Z
??AMFnDoubleArrayData@@QEAAAEANI@Z
??AMFnDoubleArrayData@@QEBANI@Z
??AMFnFloatArrayData@@QEAAAEAMI@Z
??AMFnFloatArrayData@@QEBAMI@Z
??AMFnIntArrayData@@QEAAAEAHI@Z
??AMFnIntArrayData@@QEBAHI@Z
??AMFnMatrixArrayData@@QEAAAEAVMMatrix@@I@Z
??AMFnMatrixArrayData@@QEBAAEBVMMatrix@@I@Z
??AMFnPointArrayData@@QEAAAEAVMPoint@@I@Z
??AMFnPointArrayData@@QEBAAEBVMPoint@@I@Z
??AMFnStringArrayData@@QEAAAEAVMString@@I@Z
??AMFnStringArrayData@@QEBAAEBVMString@@I@Z
??AMFnUInt64ArrayData@@QEAAAEA_KI@Z
??AMFnUInt64ArrayData@@QEBA_KI@Z
??AMFnVectorArrayData@@QEAAAEAVMVector@@I@Z
??AMFnVectorArrayData@@QEBAAEBVMVector@@I@Z
??AMInt64Array@@QEAAAEA_JI@Z
??AMInt64Array@@QEBA_JI@Z
??AMIntArray@@QEAAAEAHI@Z
??AMIntArray@@QEBAHI@Z
??AMMatrix@@QEAAPEANI@Z
??AMMatrix@@QEBAPEBNI@Z
??AMMatrixArray@@QEAAAEAVMMatrix@@I@Z
??AMMatrixArray@@QEBAAEBVMMatrix@@I@Z
??AMObjectArray@@QEAAAEAVMObject@@I@Z
??AMObjectArray@@QEBAAEBVMObject@@I@Z
??AMPlug@@QEBA?AV0@AEAVMObject@@@Z
??AMPlug@@QEBA?AV0@I@Z
??AMPlugArray@@QEAAAEAVMPlug@@I@Z
??AMPlugArray@@QEBAAEBVMPlug@@I@Z
??AMPoint@@QEAAAEANI@Z
??AMPoint@@QEBANI@Z
??AMPointArray@@QEAAAEAVMPoint@@I@Z
??AMPointArray@@QEBAAEBVMPoint@@I@Z
??AMQuaternion@@QEAAAEANI@Z
??AMQuaternion@@QEBANI@Z
??AMStringArray@@QEAAAEAVMString@@I@Z
??AMStringArray@@QEBA?AVMString@@I@Z
??AMTimeArray@@QEAAAEAVMTime@@I@Z
??AMTimeArray@@QEBAAEBVMTime@@I@Z
??AMTrimBoundaryArray@@QEBAAEBVMObjectArray@@I@Z
??AMUint64Array@@QEAAAEA_KI@Z
??AMUint64Array@@QEBA_KI@Z
??AMUintArray@@QEAAAEAII@Z
??AMUintArray@@QEBAII@Z
??AMVector@@QEAAAEANI@Z
??AMVector@@QEBANI@Z
??AMVectorArray@@QEAAAEAVMVector@@I@Z
??AMVectorArray@@QEBAAEBVMVector@@I@Z
??ATapiMAttributePatternArray@@QEAAAEAVMAttributePattern@@I@Z
??ATapiMAttributePatternArray@@QEBAAEBVMAttributePattern@@I@Z
??ATapiMDagPathArray@@QEAAAEAVMDagPath@@I@Z
??ATapiMDagPathArray@@QEBAAEBVMDagPath@@I@Z
??ATapiMObjectArray@@QEAAAEAVMObject@@I@Z
??ATapiMObjectArray@@QEBAAEBVMObject@@I@Z
??ATapiMPlugArray@@QEAAAEAVMPlug@@I@Z
??ATapiMPlugArray@@QEBAAEBVMPlug@@I@Z
??ATapiMTimeArray@@QEAAAEAVMTime@@I@Z
??ATapiMTimeArray@@QEBAAEBVMTime@@I@Z
??BMPlug@@QEBA?AVMObject@@XZ
??BMQuaternion@@QEBA?AVMMatrix@@XZ
??BMStatus@@QEBA_NXZ
??BMUuid@@QEBA?AVMString@@XZ
??D@YA?AVMColor@@MAEBV0@@Z
??D@YA?AVMEulerRotation@@NAEBV0@@Z
??D@YA?AVMFloatMatrix@@MAEBV0@@Z
??D@YA?AVMFloatPoint@@AEBVMFloatMatrix@@AEBV0@@Z
??D@YA?AVMFloatPoint@@MAEBV0@@Z
??D@YA?AVMFloatVector@@AEBVMFloatMatrix@@AEBV0@@Z
??D@YA?AVMFloatVector@@FAEBV0@@Z
??D@YA?AVMFloatVector@@GAEBV0@@Z
??D@YA?AVMFloatVector@@HAEBV0@@Z
??D@YA?AVMFloatVector@@IAEBV0@@Z
??D@YA?AVMFloatVector@@MAEBV0@@Z
??D@YA?AVMFloatVector@@NAEBV0@@Z
??D@YA?AVMMatrix@@NAEBV0@@Z
??D@YA?AVMPoint@@AEBVMMatrix@@AEBV0@@Z
??D@YA?AVMPoint@@NAEBV0@@Z
??D@YA?AVMQuaternion@@NAEBV0@@Z
??D@YA?AVMVector@@AEBVMMatrix@@AEBV0@@Z
??D@YA?AVMVector@@FAEBV0@@Z
??D@YA?AVMVector@@GAEBV0@@Z
??D@YA?AVMVector@@HAEBV0@@Z
??D@YA?AVMVector@@IAEBV0@@Z
??D@YA?AVMVector@@MAEBV0@@Z
??D@YA?AVMVector@@NAEBV0@@Z
??DMColor@@QEBA?AV0@AEBV0@@Z
??DMColor@@QEBA?AV0@M@Z
??DMEulerRotation@@QEBA?AV0@AEBV0@@Z
??DMEulerRotation@@QEBA?AV0@AEBVMQuaternion@@@Z
??DMEulerRotation@@QEBA?AV0@N@Z
??DMFloatMatrix@@QEBA?AV0@AEBV0@@Z
??DMFloatMatrix@@QEBA?AV0@M@Z
??DMFloatPoint@@QEBA?AV0@AEBVMFloatMatrix@@@Z
??DMFloatPoint@@QEBA?AV0@M@Z
??DMFloatVector@@QEBA?AV0@AEBVMFloatMatrix@@@Z
??DMFloatVector@@QEBA?AV0@M@Z
??DMFloatVector@@QEBAMAEBV0@@Z
??DMMatrix@@QEBA?AV0@AEBV0@@Z
??DMMatrix@@QEBA?AV0@N@Z
??DMPoint@@QEBA?AV0@AEBVMMatrix@@@Z
??DMPoint@@QEBA?AV0@N@Z
??DMQuaternion@@QEBA?AV0@AEBV0@@Z
??DMTime@@QEBA?AV0@N@Z
??DMVector@@QEBA?AV0@AEBVMMatrix@@@Z
??DMVector@@QEBA?AV0@N@Z
??DMVector@@QEBANAEBV0@@Z
??E?$TiteratorWrapperFwd@UConstIteratorDescriptor@TmultiIndexDependNodeSet@@V?$TiteratorWrapper@UConstIteratorDescriptor@TmultiIndexDependNodeSet@@@@@@QEAAAEAV?$TiteratorWrapper@UConstIteratorDescriptor@TmultiIndexDependNodeSet@@@@XZ
??E?$TiteratorWrapperFwd@UConstIteratorDescriptor@TscenePartitions@@V?$TiteratorWrapper@UConstIteratorDescriptor@TscenePartitions@@@@@@QEAAAEAV?$TiteratorWrapper@UConstIteratorDescriptor@TscenePartitions@@@@XZ
??E?$TiteratorWrapperFwd@UNodesFromUuidConstIteratorDescriptor@TmultiIndexDependNodeSet@@V?$TiteratorWrapper@UNodesFromUuidConstIteratorDescriptor@TmultiIndexDependNodeSet@@@@@@QEAAAEAV?$TiteratorWrapper@UNodesFromUuidConstIteratorDescriptor@TmultiIndexDependNodeSet@@@@XZ
??EMTime@@QEAAAEAV0@H@Z
??EMTime@@QEAAAEAV0@XZ
??FMTime@@QEAAAEAV0@H@Z
??FMTime@@QEAAAEAV0@XZ
??GMColor@@QEBA?AV0@AEBV0@@Z
??GMColor@@QEBA?AV0@XZ
??GMEulerRotation@@QEBA?AV0@AEBV0@@Z
??GMEulerRotation@@QEBA?AV0@XZ
??GMFloatMatrix@@QEBA?AV0@AEBV0@@Z
??GMFloatPoint@@QEBA?AV0@AEBVMFloatVector@@@Z
??GMFloatPoint@@QEBA?AVMFloatVector@@AEBV0@@Z
??GMFloatVector@@QEBA?AV0@AEBV0@@Z
??GMFloatVector@@QEBA?AV0@XZ
??GMMatrix@@QEBA?AV0@AEBV0@@Z
??GMPoint@@QEBA?AV0@AEBVMVector@@@Z
??GMPoint@@QEBA?AVMVector@@AEBV0@@Z
??GMQuaternion@@QEBA?AV0@AEBV0@@Z
??GMQuaternion@@QEBA?AV0@XZ
??GMTime@@QEBA?AV0@AEBV0@@Z
??GMTime@@QEBA?AV0@N@Z
??GMVector@@QEBA?AV0@AEBV0@@Z
??GMVector@@QEBA?AV0@XZ
??H@YA?AVMString@@PEBDAEBV0@@Z
??HMColor@@QEBA?AV0@AEBV0@@Z
??HMEulerRotation@@QEBA?AV0@AEBV0@@Z
??HMFloatMatrix@@QEBA?AV0@AEBV0@@Z
??HMFloatPoint@@QEBA?AV0@AEBVMFloatVector@@@Z
??HMFloatVector@@QEBA?AV0@AEBV0@@Z
??HMMatrix@@QEBA?AV0@AEBV0@@Z
??HMPoint@@QEBA?AV0@AEBVMVector@@@Z
??HMQuaternion@@QEBA?AV0@AEBV0@@Z
??HMString@@QEBA?AV0@AEBV0@@Z
??HMString@@QEBA?AV0@N@Z
??HMString@@QEBA?AV0@PEBD@Z
??HMTime@@QEBA?AV0@AEBV0@@Z
??HMTime@@QEBA?AV0@N@Z
??HMVector@@QEBA?AV0@AEBV0@@Z
??IMFnAmbientLight@@AEBAPEAV0@XZ
??IMFnAnisotropyShader@@AEBAPEAV0@XZ
??IMFnAreaLight@@AEBAPEAV0@XZ
??IMFnArrayAttrsData@@AEBAPEAV0@XZ
??IMFnAssembly@@AEBAPEAV0@XZ
??IMFnAttribute@@AEBAPEAV0@XZ
??IMFnBase@@AEBAPEAV0@XZ
??IMFnBlinnShader@@AEBAPEAV0@XZ
??IMFnCamera@@AEBAPEAV0@XZ
??IMFnCameraSet@@AEBAPEAV0@XZ
??IMFnComponent@@AEBAPEAV0@XZ
??IMFnComponentListData@@AEBAPEAV0@XZ
??IMFnCompoundAttribute@@AEBAPEAV0@XZ
??IMFnContainerNode@@AEBAPEAV0@XZ
??IMFnDagNode@@AEBAPEAV0@XZ
??IMFnData@@AEBAPEAV0@XZ
??IMFnDependencyNode@@AEBAPEAV0@XZ
??IMFnDirectionalLight@@AEBAPEAV0@XZ
??IMFnDoubleArrayData@@AEBAPEAV0@XZ
??IMFnDoubleIndexedComponent@@AEBAPEAV0@XZ
??IMFnEnumAttribute@@AEBAPEAV0@XZ
??IMFnExpression@@AEBAPEAV0@XZ
??IMFnFloatArrayData@@AEBAPEAV0@XZ
??IMFnGenericAttribute@@AEBAPEAV0@XZ
??IMFnGeometryData@@AEBAPEAV0@XZ
??IMFnIntArrayData@@AEBAPEAV0@XZ
??IMFnLambertShader@@AEBAPEAV0@XZ
??IMFnLatticeData@@AEBAPEAV0@XZ
??IMFnLayeredShader@@AEBAPEAV0@XZ
??IMFnLight@@AEBAPEAV0@XZ
??IMFnLightDataAttribute@@AEBAPEAV0@XZ
??IMFnMatrixArrayData@@AEBAPEAV0@XZ
??IMFnMatrixAttribute@@AEBAPEAV0@XZ
??IMFnMatrixData@@AEBAPEAV0@XZ
??IMFnMesh@@AEBAPEAV0@XZ
??IMFnMeshData@@AEBAPEAV0@XZ
??IMFnMessageAttribute@@AEBAPEAV0@XZ
??IMFnNonAmbientLight@@AEBAPEAV0@XZ
??IMFnNonExtendedLight@@AEBAPEAV0@XZ
??IMFnNumericAttribute@@AEBAPEAV0@XZ
??IMFnNumericData@@AEBAPEAV0@XZ
??IMFnNurbsCurve@@AEBAPEAV0@XZ
??IMFnNurbsCurveData@@AEBAPEAV0@XZ
??IMFnNurbsSurface@@AEBAPEAV0@XZ
??IMFnNurbsSurfaceData@@AEBAPEAV0@XZ
??IMFnPartition@@AEBAPEAV0@XZ
??IMFnPhongEShader@@AEBAPEAV0@XZ
??IMFnPhongShader@@AEBAPEAV0@XZ
??IMFnPlugin@@AEAAPEAV0@XZ
??IMFnPlugin@@AEBAPEAV0@XZ
??IMFnPluginData@@AEBAPEAV0@XZ
??IMFnPointArrayData@@AEBAPEAV0@XZ
??IMFnPointLight@@AEBAPEAV0@XZ
??IMFnReference@@AEBAPEAV0@XZ
??IMFnReflectShader@@AEBAPEAV0@XZ
??IMFnSet@@AEBAPEAV0@XZ
??IMFnSingleIndexedComponent@@AEBAPEAV0@XZ
??IMFnSphereData@@AEBAPEAV0@XZ
??IMFnSpotLight@@AEBAPEAV0@XZ
??IMFnStringArrayData@@AEBAPEAV0@XZ
??IMFnStringData@@AEBAPEAV0@XZ
??IMFnSubd@@AEBAPEAV0@XZ
??IMFnSubdData@@AEBAPEAV0@XZ
??IMFnTransform@@AEBAPEAV0@XZ
??IMFnTripleIndexedComponent@@AEBAPEAV0@XZ
??IMFnTypedAttribute@@AEBAPEAV0@XZ
??IMFnUInt64ArrayData@@AEBAPEAV0@XZ
??IMFnUint64SingleIndexedComponent@@AEBAPEAV0@XZ
??IMFnUnitAttribute@@AEBAPEAV0@XZ
??IMFnVectorArrayData@@AEBAPEAV0@XZ
??IMFnVolumeLight@@AEBAPEAV0@XZ
??KMColor@@QEBA?AV0@M@Z
??KMFloatPoint@@QEBA?AV0@M@Z
??KMFloatVector@@QEBA?AV0@M@Z
??KMPoint@@QEBA?AV0@N@Z
??KMTime@@QEBA?AV0@N@Z
??KMVector@@QEBA?AV0@N@Z
??MMAutoCLEvent@@QEBA_NAEBV0@@Z
??MMAutoCLKernel@@QEBA_NAEBV0@@Z
??MMAutoCLMem@@QEBA_NAEBV0@@Z
??MMTime@@QEBA_NAEBV0@@Z
??NMTime@@QEBA_NAEBV0@@Z
??OMTime@@QEBA_NAEBV0@@Z
??PMTime@@QEBA_NAEBV0@@Z
??RMColor@@QEAAAEAMI@Z
??RMColor@@QEBAMI@Z
??RMFloatMatrix@@QEAAAEAMII@Z
??RMFloatMatrix@@QEBAMII@Z
??RMFloatPoint@@QEAAAEAMI@Z
??RMFloatPoint@@QEBAMI@Z
??RMFloatVector@@QEAAAEAMI@Z
??RMFloatVector@@QEBAMI@Z
??RMMatrix@@QEAAAEANII@Z
??RMMatrix@@QEBANII@Z
??RMPoint@@QEAAAEANI@Z
??RMPoint@@QEBANI@Z
??RMVector@@QEAAAEANI@Z
??RMVector@@QEBANI@Z
??TMFloatVector@@QEBA?AV0@AEBV0@@Z
??TMVector@@QEBA?AV0@AEBV0@@Z
??UMSelectionMask@@QEAA?AV0@AEAV0@@Z
??UMSelectionMask@@QEAA?AV0@W4SelectionType@0@@Z
??XMColor@@QEAAAEAV0@AEBV0@@Z
??XMColor@@QEAAAEAV0@M@Z
??XMEulerRotation@@QEAAAEAV0@AEBV0@@Z
??XMEulerRotation@@QEAAAEAV0@AEBVMQuaternion@@@Z
??XMEulerRotation@@QEAAAEAV0@N@Z
??XMFloatMatrix@@QEAAAEAV0@AEBV0@@Z
??XMFloatMatrix@@QEAAAEAV0@M@Z
??XMFloatPoint@@QEAAAEAV0@AEBVMFloatMatrix@@@Z
??XMFloatVector@@QEAAAEAV0@AEBVMFloatMatrix@@@Z
??XMFloatVector@@QEAAAEAV0@M@Z
??XMMatrix@@QEAAAEAV0@AEBV0@@Z
??XMMatrix@@QEAAAEAV0@N@Z
??XMPoint@@QEAAAEAV0@AEBVMMatrix@@@Z
??XMQuaternion@@QEAAAEAV0@AEBV0@@Z
??XMTime@@QEAAAEAV0@N@Z
??XMVector@@QEAAAEAV0@AEBVMMatrix@@@Z
??XMVector@@QEAAAEAV0@N@Z
??YMColor@@QEAAAEAV0@AEBV0@@Z
??YMEulerRotation@@QEAAAEAV0@AEBV0@@Z
??YMFloatMatrix@@QEAAAEAV0@AEBV0@@Z
??YMFloatPoint@@QEAAAEAV0@AEBVMFloatVector@@@Z
??YMFloatVector@@QEAAAEAV0@AEBV0@@Z
??YMMatrix@@QEAAAEAV0@AEBV0@@Z
??YMPoint@@QEAAAEAV0@AEBVMVector@@@Z
??YMString@@QEAAAEAV0@AEBV0@@Z
??YMString@@QEAAAEAV0@H@Z
??YMString@@QEAAAEAV0@I@Z
??YMString@@QEAAAEAV0@M@Z
??YMString@@QEAAAEAV0@N@Z
??YMString@@QEAAAEAV0@PEBD@Z
??YMTime@@QEAAAEAV0@AEBV0@@Z
??YMTime@@QEAAAEAV0@N@Z
??YMVector@@QEAAAEAV0@AEBV0@@Z
??ZMEulerRotation@@QEAAAEAV0@AEBV0@@Z
??ZMFloatMatrix@@QEAAAEAV0@AEBV0@@Z
??ZMFloatPoint@@QEAAAEAV0@AEBVMFloatVector@@@Z
??ZMFloatVector@@QEAAAEAV0@AEBV0@@Z
??ZMMatrix@@QEAAAEAV0@AEBV0@@Z
??ZMPoint@@QEAAAEAV0@AEBVMVector@@@Z
??ZMTime@@QEAAAEAV0@AEBV0@@Z
??ZMTime@@QEAAAEAV0@N@Z
??ZMVector@@QEAAAEAV0@AEBV0@@Z
??_0MColor@@QEAAAEAV0@M@Z
??_0MFloatVector@@QEAAAEAV0@M@Z
??_0MTime@@QEAAAEAV0@N@Z
??_0MVector@@QEAAAEAV0@N@Z
??_7Iterator@TanimCallbackTable@@6B@
??_7MAddRemoveAttrEdit@@6B@
??_7MArgDatabase@@6B@
??_7MArgParser@@6B@
??_7MCacheFormatDescription@@6B@
??_7MCommandResult@@6B@
??_7MComputation@@6B@
??_7MConnectDisconnectAttrEdit@@6B@
??_7MDGModifier@@6B@
??_7MDagModifier@@6B@
??_7MDagPath@@6B@
??_7MDataBlock@@6B@
??_7MEdit@@6B@
??_7MFcurveEdit@@6B@
??_7MFileIO@@6B@
??_7MFileObject@@6B@
??_7MFnAmbientLight@@6B@
??_7MFnAnisotropyShader@@6B@
??_7MFnAreaLight@@6B@
??_7MFnArrayAttrsData@@6B@
??_7MFnAssembly@@6B@
??_7MFnAttribute@@6B@
??_7MFnBase@@6B@
??_7MFnBlinnShader@@6B@
??_7MFnCamera@@6B@
??_7MFnCameraSet@@6B@
??_7MFnComponent@@6B@
??_7MFnComponentListData@@6B@
??_7MFnCompoundAttribute@@6B@
??_7MFnContainerNode@@6B@
??_7MFnDagNode@@6B@
??_7MFnData@@6B@
??_7MFnDependencyNode@@6B@
??_7MFnDirectionalLight@@6B@
??_7MFnDoubleArrayData@@6B@
??_7MFnDoubleIndexedComponent@@6B@
??_7MFnEnumAttribute@@6B@
??_7MFnExpression@@6B@
??_7MFnFloatArrayData@@6B@
??_7MFnGenericAttribute@@6B@
??_7MFnGeometryData@@6B@
??_7MFnIntArrayData@@6B@
??_7MFnLambertShader@@6B@
??_7MFnLatticeData@@6B@
??_7MFnLayeredShader@@6B@
??_7MFnLight@@6B@
??_7MFnLightDataAttribute@@6B@
??_7MFnMatrixArrayData@@6B@
??_7MFnMatrixAttribute@@6B@
??_7MFnMatrixData@@6B@
??_7MFnMesh@@6B@
??_7MFnMeshData@@6B@
??_7MFnMessageAttribute@@6B@
??_7MFnNonAmbientLight@@6B@
??_7MFnNonExtendedLight@@6B@
??_7MFnNumericAttribute@@6B@
??_7MFnNumericData@@6B@
??_7MFnNurbsCurve@@6B@
??_7MFnNurbsCurveData@@6B@
??_7MFnNurbsSurface@@6B@
??_7MFnNurbsSurfaceData@@6B@
??_7MFnPartition@@6B@
??_7MFnPhongEShader@@6B@
??_7MFnPhongShader@@6B@
??_7MFnPlugin@@6B@
??_7MFnPluginData@@6B@
??_7MFnPointArrayData@@6B@
??_7MFnPointLight@@6B@
??_7MFnReference@@6B@
??_7MFnReflectShader@@6B@
??_7MFnScPlugin@@6B@
??_7MFnSet@@6B@
??_7MFnSingleIndexedComponent@@6B@
??_7MFnSphereData@@6B@
??_7MFnSpotLight@@6B@
??_7MFnStringArrayData@@6B@
??_7MFnStringData@@6B@
??_7MFnSubd@@6B@
??_7MFnSubdData@@6B@
??_7MFnTransform@@6B@
??_7MFnTripleIndexedComponent@@6B@
??_7MFnTypedAttribute@@6B@
??_7MFnUInt64ArrayData@@6B@
??_7MFnUint64SingleIndexedComponent@@6B@
??_7MFnUnitAttribute@@6B@
??_7MFnVectorArrayData@@6B@
??_7MFnVolumeLight@@6B@
??_7MIffFile@@6B@
??_7MItCurveCV@@6B@
??_7MItDag@@6B@
??_7MItDependencyNodes@@6B@
??_7MItEdits@@6B@
??_7MItGeometry@@6B@
??_7MItInstancer@@6B@
??_7MItMeshEdge@@6B@
??_7MItMeshFaceVertex@@6B@
??_7MItMeshPolygon@@6B@
??_7MItMeshVertex@@6B@
??_7MItSelectionList@@6B@
??_7MItSubdEdge@@6B@
??_7MItSubdFace@@6B@
??_7MItSubdVertex@@6B@
??_7MItSurfaceCV@@6B@
??_7MLibrary@@6B@
??_7MMeshIntersector@@6B@
??_7MMeshSmoothOptions@@6B@
??_7MNurbsIntersector@@6B@
??_7MParentingEdit@@6B@
??_7MPlug@@6B@
??_7MPxAssembly@@6B@
??_7MPxAttributePatternFactory@@6B@
??_7MPxBakeEngine@@6B@
??_7MPxCacheFormat@@6B@
??_7MPxCameraSet@@6B@
??_7MPxCommand@@6B@
??_7MPxComponentShape@@6B@
??_7MPxData@@6B@
??_7MPxFileResolver@@6B@
??_7MPxFileTranslator@@6B@
??_7MPxGeometryData@@6B@
??_7MPxGeometryIterator@@6B@
??_7MPxImageFile@@6B@
??_7MPxImagePlane@@6B@
??_7MPxMaterialInformation@@6B@
??_7MPxMayaAsciiFilter@@6B@
??_7MPxNode@@6B@
??_7MPxObjectSet@@6B@
??_7MPxPolyTrg@@6B@
??_7MPxPolyTweakUVCommand@@6B@
??_7MPxRenderPassImpl@@6B@
??_7MPxRepresentation@@6B@
??_7MPxSurfaceShape@@6B@
??_7MPxTransform@@6B@
??_7MPxTransformationMatrix@@6B@
??_7MPyDirector@@6B@
??_7MPyMPxAttributePatternFactory_Director@@6BMPxAttributePatternFactory@@@
??_7MPyMPxAttributePatternFactory_Director@@6BMPyDirector@@@
??_7MPyMPxCommand_Director@@6BMPxCommand@@@
??_7MPyMPxCommand_Director@@6BMPyDirector@@@
??_7MPyMPxData_DirectorBase@@6B@
??_7MPyMPxGeometryIterator_Director@@6BMPxGeometryIterator@@@
??_7MPyMPxGeometryIterator_Director@@6BMPyDirector@@@
??_7MPyMPxNode_DirectorBase@@6B@
??_7MPyMUserData_Director@@6BMPyDirector@@@
??_7MPyMUserData_Director@@6BMUserData@@@
??_7MRenderPassDef@@6B@
??_7MRichSelection@@6B@
??_7MSelectionList@@6B@
??_7MSelectionMask@@6B@
??_7MSetAttrEdit@@6B@
??_7MSyntax@@6B@
??_7MUserData@@6B@
??_7THattributePatternFactory@@6B@
??_7THclient@@6B@
??_7THcommandObject@@6B@
??_7THdependNode@@6BAttach@Data@adsk@@@
??_7THdependNode@@6BTclient@@@
??_7THdependNode@@6BTdelayedClientServer@@@
??_7THdependNode@@6BTnameObject@@@
??_7THdependNode@@6BTscenePartitionNode@@@
??_7THrenderPassImpl@@6B@
??_7THsurfaceShape@@6BAttach@Data@adsk@@@
??_7THsurfaceShape@@6BTclient@@@
??_7THsurfaceShape@@6BTdelayedClientServer@@@
??_7THsurfaceShape@@6BTnameObject@@@
??_7THsurfaceShape@@6BTscenePartitionNode@@@
??_7THsurfaceShapeSnap@@6B@
??_7THxformMatrix@@6B@
??_7TanimCallbackTable@@6B@
??_7TanimDeltaMsgSwitch@@6B@
??_7TapiFileObject@@6B@
??_7TapiMAttributePatternArray@@6B@
??_7TapiMDagPathArray@@6B@
??_7TapiMObjectArray@@6B@
??_7TapiMPlugArray@@6B@
??_7TapiMTimeArray@@6B@
??_7Tplugin@@6B@
??_7TpluginCmd@@6B@
??_7TpluginMaya@@6B@
??_7TpluginNode@@6BTmetaNodeClass@@@
??_7TpluginNode@@6BTpluginObject@@@
??_7TpluginObject@@6B@
??_7TpluginObjectHanger@@6B@
??_7TpluginPref@@6B@
??_7TpluginPrefMgr@@6B@
??_B?1??appendToStr@?$MPyMArray_Type_Base@VMAttributeSpecArray@@VMAttributeSpec@@@@SAXAEBVMAttributeSpecArray@@PEAPEAU_object@@@Z@51
??_B?1??appendToStr@?$MPyMArray_Type_Base@VMCallbackIdArray@@_K@@SAXAEBVMCallbackIdArray@@PEAPEAU_object@@@Z@51
??_B?1??appendToStr@?$MPyMArray_Type_Base@VMColorArray@@VMColor@@@@SAXAEBVMColorArray@@PEAPEAU_object@@@Z@51
??_B?1??appendToStr@?$MPyMArray_Type_Base@VMDagPathArray@@VMDagPath@@@@SAXAEBVMDagPathArray@@PEAPEAU_object@@@Z@51
??_B?1??appendToStr@?$MPyMArray_Type_Base@VMDoubleArray@@N@@SAXAEBVMDoubleArray@@PEAPEAU_object@@@Z@51
??_B?1??appendToStr@?$MPyMArray_Type_Base@VMFloatArray@@M@@SAXAEBVMFloatArray@@PEAPEAU_object@@@Z@51
??_B?1??appendToStr@?$MPyMArray_Type_Base@VMFloatPointArray@@VMFloatPoint@@@@SAXAEBVMFloatPointArray@@PEAPEAU_object@@@Z@51
??_B?1??appendToStr@?$MPyMArray_Type_Base@VMFloatVectorArray@@VMFloatVector@@@@SAXAEBVMFloatVectorArray@@PEAPEAU_object@@@Z@51
??_B?1??appendToStr@?$MPyMArray_Type_Base@VMInt64Array@@_J@@SAXAEBVMInt64Array@@PEAPEAU_object@@@Z@51
??_B?1??appendToStr@?$MPyMArray_Type_Base@VMIntArray@@H@@SAXAEBVMIntArray@@PEAPEAU_object@@@Z@51
??_B?1??appendToStr@?$MPyMArray_Type_Base@VMMatrixArray@@VMMatrix@@@@SAXAEBVMMatrixArray@@PEAPEAU_object@@@Z@51
??_B?1??appendToStr@?$MPyMArray_Type_Base@VMObjectArray@@VMObject@@@@SAXAEBVMObjectArray@@PEAPEAU_object@@@Z@51
??_B?1??appendToStr@?$MPyMArray_Type_Base@VMPlugArray@@VMPlug@@@@SAXAEBVMPlugArray@@PEAPEAU_object@@@Z@51
??_B?1??appendToStr@?$MPyMArray_Type_Base@VMPointArray@@VMPoint@@@@SAXAEBVMPointArray@@PEAPEAU_object@@@Z@51
??_B?1??appendToStr@?$MPyMArray_Type_Base@VMTimeArray@@VMTime@@@@SAXAEBVMTimeArray@@PEAPEAU_object@@@Z@51
??_B?1??appendToStr@?$MPyMArray_Type_Base@VMUint64Array@@_K@@SAXAEBVMUint64Array@@PEAPEAU_object@@@Z@51
??_B?1??appendToStr@?$MPyMArray_Type_Base@VMUintArray@@I@@SAXAEBVMUintArray@@PEAPEAU_object@@@Z@51
??_B?1??appendToStr@?$MPyMArray_Type_Base@VMVectorArray@@VMVector@@@@SAXAEBVMVectorArray@@PEAPEAU_object@@@Z@51
??_B?1??copySequenceToArray@?$MPyMArray_Type_Base@VMAttributeSpecArray@@VMAttributeSpec@@@@SA_NPEAU_object@@AEAVMAttributeSpecArray@@_N@Z@51
??_B?1??copySequenceToArray@?$MPyMArray_Type_Base@VMCallbackIdArray@@_K@@SA_NPEAU_object@@AEAVMCallbackIdArray@@_N@Z@51
??_B?1??copySequenceToArray@?$MPyMArray_Type_Base@VMColorArray@@VMColor@@@@SA_NPEAU_object@@AEAVMColorArray@@_N@Z@51
??_B?1??copySequenceToArray@?$MPyMArray_Type_Base@VMDagPathArray@@VMDagPath@@@@SA_NPEAU_object@@AEAVMDagPathArray@@_N@Z@51
??_B?1??copySequenceToArray@?$MPyMArray_Type_Base@VMDoubleArray@@N@@SA_NPEAU_object@@AEAVMDoubleArray@@_N@Z@51
??_B?1??copySequenceToArray@?$MPyMArray_Type_Base@VMFloatArray@@M@@SA_NPEAU_object@@AEAVMFloatArray@@_N@Z@51
??_B?1??copySequenceToArray@?$MPyMArray_Type_Base@VMFloatPointArray@@VMFloatPoint@@@@SA_NPEAU_object@@AEAVMFloatPointArray@@_N@Z@51
??_B?1??copySequenceToArray@?$MPyMArray_Type_Base@VMFloatVectorArray@@VMFloatVector@@@@SA_NPEAU_object@@AEAVMFloatVectorArray@@_N@Z@51
??_B?1??copySequenceToArray@?$MPyMArray_Type_Base@VMInt64Array@@_J@@SA_NPEAU_object@@AEAVMInt64Array@@_N@Z@51
??_B?1??copySequenceToArray@?$MPyMArray_Type_Base@VMIntArray@@H@@SA_NPEAU_object@@AEAVMIntArray@@_N@Z@51
??_B?1??copySequenceToArray@?$MPyMArray_Type_Base@VMMatrixArray@@VMMatrix@@@@SA_NPEAU_object@@AEAVMMatrixArray@@_N@Z@51
??_B?1??copySequenceToArray@?$MPyMArray_Type_Base@VMObjectArray@@VMObject@@@@SA_NPEAU_object@@AEAVMObjectArray@@_N@Z@51
??_B?1??copySequenceToArray@?$MPyMArray_Type_Base@VMPlugArray@@VMPlug@@@@SA_NPEAU_object@@AEAVMPlugArray@@_N@Z@51
??_B?1??copySequenceToArray@?$MPyMArray_Type_Base@VMPointArray@@VMPoint@@@@SA_NPEAU_object@@AEAVMPointArray@@_N@Z@51
??_B?1??copySequenceToArray@?$MPyMArray_Type_Base@VMTimeArray@@VMTime@@@@SA_NPEAU_object@@AEAVMTimeArray@@_N@Z@51
??_B?1??copySequenceToArray@?$MPyMArray_Type_Base@VMUint64Array@@_K@@SA_NPEAU_object@@AEAVMUint64Array@@_N@Z@51
??_B?1??copySequenceToArray@?$MPyMArray_Type_Base@VMUintArray@@I@@SA_NPEAU_object@@AEAVMUintArray@@_N@Z@51
??_B?1??copySequenceToArray@?$MPyMArray_Type_Base@VMVectorArray@@VMVector@@@@SA_NPEAU_object@@AEAVMVectorArray@@_N@Z@51
??_FMCommandResult@@QEAAXXZ
??_FMItDag@@QEAAXXZ
??_FMItDependencyNodes@@QEAAXXZ
??_FMIteratorType@@QEAAXXZ
??_FMPyAttributeRegistry@@QEAAXXZ
??_FMTesselationParams@@QEAAXXZ
??_FTanimCallbackTable@@QEAAXXZ
??_FTapiMAttributePatternArray@@QEAAXXZ
??_FTapiMDagPathArray@@QEAAXXZ
??_FTapiMObjectArray@@QEAAXXZ
??_FTapiMPlugArray@@QEAAXXZ
??_FTapiMTimeArray@@QEAAXXZ
??_OMIteratorType@@QEAAXAEAV0@@Z
?DGcommand@TapiCast@@SA?AVMDGModifier@@AEAVTDGcommand@@@Z
?DGcommand@TapiCast@@SAAEAVTDGcommand@@AEAVMDGModifier@@@Z
?DGcommand@TapiCast@@SAAEBVTDGcommand@@AEBVMDGModifier@@@Z
?DNSetMembers@MPxObjectSet@@2VMObject@@A
?THattrWatcherTmeta@@3PEAVTmetaclass@@EA
?THclientTmeta@@3PEAVTmetaclass@@EA
?THdependNodeTmeta@@3PEAVTmetaclass@@EA
?THpolyClientTmeta@@3PEAVTmetaclass@@EA
?THrenderPassImplTmeta@@3PEAVTmetaclass@@EA
?THsurfaceShapeTmeta@@3PEAVTmetaclass@@EA
?TpluginConstraintCmdInfoArray@@3PAVTpluginConstraintCmdInfo@@A
?TpluginDataInfoArray@@3PAVTpluginDataInfo@@A
?TpluginModelEditorCmdInfoArray@@3PAVTpluginModelEditorCmdInfo@@A
?TpluginNodeInfoArray@@3PAVTpluginNodeInfo@@A
?TpluginNodeTmeta@@3PEAVTmetaclass@@EA
?URI@TapiCast@@CAXAEAVMURI@@AEBVTfileURI@@@Z
?URI@TapiCast@@SA?AVMURI@@AEAVTfileURI@@@Z
?URI@TapiCast@@SA?AVMURI@@AEBVTfileURI@@@Z
?URI@TapiCast@@SAAEAVTfileURI@@AEAVMURI@@@Z
?URI@TapiCast@@SAAEBVTfileURI@@AEBVMURI@@@Z
?URI@TapiCast@@SAPEBVTfileURI@@PEBVMURI@@@Z
?_dirtyMatrix@MPxTransform@@QEAA?AVMStatus@@XZ
?_dirtyRotateOrientation@MPxTransform@@QEAA?AVMStatus@@AEBVMEulerRotation@@@Z
?_dirtyRotatePivot@MPxTransform@@QEAA?AVMStatus@@AEBVMPoint@@@Z
?_dirtyRotatePivotTranslation@MPxTransform@@QEAA?AVMStatus@@AEBVMVector@@@Z
?_dirtyRotation@MPxTransform@@QEAA?AVMStatus@@AEBVMEulerRotation@@@Z
?_dirtyScale@MPxTransform@@QEAA?AVMStatus@@AEBVMVector@@@Z
?_dirtyScalePivot@MPxTransform@@QEAA?AVMStatus@@AEBVMPoint@@@Z
?_dirtyScalePivotTranslation@MPxTransform@@QEAA?AVMStatus@@AEBVMVector@@@Z
?_dirtyShear@MPxTransform@@QEAA?AVMStatus@@AEBVMVector@@@Z
?_dirtyTranslation@MPxTransform@@QEAA?AVMStatus@@AEBVMVector@@@Z
?_doNotWrite@MPxNode@@QEAA_NXZ
?_forceCache@MPxNode@@QEAA?AVMDataBlock@@AEAVMDGContext@@@Z
?_getAssembly@MPxRepresentation@@QEBAPEAVMPxAssembly@@XZ
?_setDoNotWrite@MPxNode@@QEAAX_N@Z
?_setMPSafe@MPxNode@@QEAAX_N@Z
?acceptedTypeIds@MDataHandle@@QEBA?AVMStatus@@AEAVMUintArray@@@Z
?accepts@MFnAttribute@@QEBA_NAEBVMTypeId@@PEAVMStatus@@@Z
?accepts@MFnAttribute@@QEBA_NW4Type@MFnData@@PEAVMStatus@@@Z
?acceptsGeometryIterator@MPxSurfaceShape@@UEAA_NAEAVMObject@@_N1@Z
?acceptsGeometryIterator@MPxSurfaceShape@@UEAA_N_N@Z
?acceptsGeometryIterator@THsurfaceShape@@UEAA_NPEBVTcomponent@@_N1@Z
?acceptsGeometryIterator@THsurfaceShape@@UEAA_N_N@Z
?activate@MFnAssembly@@QEAA?AVMStatus@@AEBVMString@@@Z
?activate@MPxAssembly@@UEAA_NAEBVMString@@@Z
?activateNonRecursive@MFnAssembly@@QEAA?AVMStatus@@AEBVMString@@@Z
?activating@MPxAssembly@@QEBA_NXZ
?active@MPxCameraSet@@2VMObject@@A
?activeColor@MFnDagNode@@QEBA?AVMColor@@PEAVMStatus@@@Z
?activeComponents@MPxSurfaceShape@@QEBA?AVMObjectArray@@XZ
?activeComponents@THsurfaceShape@@UEBAPEBVTcomponentList@@XZ
?add@MFnComponentListData@@QEAA?AVMStatus@@AEAVMObject@@@Z
?add@MSelectionList@@QEAA?AVMStatus@@AEBVMDagPath@@AEBVMObject@@_N@Z
?add@MSelectionList@@QEAA?AVMStatus@@AEBVMObject@@_N@Z
?add@MSelectionList@@QEAA?AVMStatus@@AEBVMPlug@@_N@Z
?add@MSelectionList@@QEAA?AVMStatus@@AEBVMString@@_N@Z
?add@MSelectionList@@QEAA?AVMStatus@@AEBVMUuid@@_N@Z
?add@TanimDeltaMsgSwitch@@QEAAX_K@Z
?add@TpluginAttributePatternFactoryDBase@@SAPEAVTpluginObject@@AEBVTstring@@PEAVTplugin@@P6APEAXXZ@Z
?add@TpluginCmdDBase@@SAPEAVTpluginCmd@@AEBVTstring@@PEAVTplugin@@PEBVTapiFileObject@@P6APEAXXZP6A?AVMSyntax@@XZ@Z
?add@TpluginDBase@@SAPEAVTplugin@@AEBVTstring@@AEBVTfilePath@@W4Type@2@_N@Z
?add@TpluginFileResolverDBase@@SAPEAVTpluginFileResolver@@AEBVTstring@@0PEAVTplugin@@P6APEAXXZ@Z
?add@TpluginGeometryCacheDBase@@SAPEAVTpluginObject@@AEBVTstring@@PEAVTplugin@@P6APEAXXZ@Z
?add@TpluginImageFormatDBase@@SAPEAVTpluginObject@@AEBVTstring@@PEAVTplugin@@P6APEAXXZ@Z
?add@TpluginRegistryInfo@@QEBAPEAVTpluginObject@@AEBVTstring@@IIPEAVTplugin@@P6APEAXXZ@Z
?add@TpluginRegistryInfo@@QEBAPEAVTpluginObject@@AEBVTstring@@PEAVTplugin@@P6APEAXPEAX@ZP6APEAXXZ4@Z
?add@TpluginRegistryInfo@@QEBAPEAVTpluginObject@@AEBVTstring@@PEAVTplugin@@P6APEAXXZ@Z
?add@TpluginRenderPassImplDBase@@SAPEAVTpluginObject@@AEBVTstring@@PEAVTplugin@@P6APEAXXZ@Z
?addAccept@MFnGenericAttribute@@QEAA?AVMStatus@@AEBVMTypeId@@@Z
?addAccept@MFnGenericAttribute@@QEAA?AVMStatus@@W4Type@MFnData@@@Z
?addAccept@MFnGenericAttribute@@QEAA?AVMStatus@@W4Type@MFnNumericData@@@Z
?addAddAttrEdit@MPxAssembly@@QEAA?AVMStatus@@AEBVMString@@0000PEAVMPxEditData@@@Z
?addAfterDuplicateCallback@MModelMessage@@SA_KP6AXPEAX@Z0PEAVMStatus@@@Z
?addAllDagChangesCallback@MDagMessage@@CA_KPEAVMDagPath@@P6AXW4DagMessage@1@AEAV2@2PEAX@Z3PEAVMStatus@@@Z
?addAllDagChangesCallback@MDagMessage@@SA_KAEAVMDagPath@@P6AXW4DagMessage@1@00PEAX@Z2PEAVMStatus@@@Z
?addAllDagChangesCallback@MDagMessage@@SA_KP6AXW4DagMessage@1@AEAVMDagPath@@1PEAX@Z2PEAVMStatus@@@Z
?addAllDagChangesDagPathCallback@MDagMessage@@SA_KAEAVMDagPath@@P6AXW4DagMessage@1@00PEAX@Z2PEAVMStatus@@@Z
?addArg@MArgList@@QEAA?AVMStatus@@AEBVMAngle@@@Z
?addArg@MArgList@@QEAA?AVMStatus@@AEBVMDistance@@@Z
?addArg@MArgList@@QEAA?AVMStatus@@AEBVMPoint@@@Z
?addArg@MArgList@@QEAA?AVMStatus@@AEBVMString@@@Z
?addArg@MArgList@@QEAA?AVMStatus@@AEBVMTime@@@Z
?addArg@MArgList@@QEAA?AVMStatus@@AEBVMVector@@@Z
?addArg@MArgList@@QEAA?AVMStatus@@H@Z
?addArg@MArgList@@QEAA?AVMStatus@@N@Z
?addArg@MArgList@@QEAA?AVMStatus@@_N@Z
?addArg@MSyntax@@QEAA?AVMStatus@@W4MArgType@1@@Z
?addAttribute@MDGModifier@@QEAA?AVMStatus@@AEBVMObject@@0@Z
?addAttribute@MDGModifier@@QEAA?AVMStatus@@AEBVMObject@@0W4MAttrClass@MFnDependencyNode@@@Z
?addAttribute@MFnDependencyNode@@QEAA?AVMStatus@@AEBVMObject@@@Z
?addAttribute@MFnDependencyNode@@QEAA?AVMStatus@@AEBVMObject@@W4MAttrClass@1@@Z
?addAttribute@MPxNode@@SA?AVMStatus@@AEBVMObject@@@Z
?addAttributeAddedOrRemovedCallback@MNodeMessage@@SA_KAEAVMObject@@P6AXW4AttributeMessage@1@AEAVMPlug@@PEAX@Z3PEAVMStatus@@@Z
?addAttributeChangedCallback@MNodeMessage@@SA_KAEAVMObject@@P6AXW4AttributeMessage@1@AEAVMPlug@@2PEAX@Z3PEAVMStatus@@@Z
?addAttributePatternFactoryReference@Tplugin@@QEAA_NPEAVTpluginObject@@@Z
?addAttributeReference@Tplugin@@QEAA_NAEAVTattribute@@@Z
?addBeforeDuplicateCallback@MModelMessage@@SA_KP6AXPEAX@Z0PEAVMStatus@@@Z
?addBoundAttrCallback@MContainerMessage@@SA_KP6AXAEAVMObject@@AEBVMString@@_NPEAX@Z3PEAVMStatus@@@Z
?addCallback@MModelMessage@@SA_KW4Message@1@P6AXPEAX@Z1PEAVMStatus@@@Z
?addCallback@MSceneMessage@@SA_KW4Message@1@P6AXAEBVMStringArray@@PEAX@Z2PEAVMStatus@@@Z
?addCallback@MSceneMessage@@SA_KW4Message@1@P6AXPEAX@Z1PEAVMStatus@@@Z
?addCallback@MSceneMessage@@SA_KW4Message@1@P6AXPEA_NAEAVMFileObject@@PEAX@Z3PEAVMStatus@@@Z
?addCallback@MSceneMessage@@SA_KW4Message@1@P6AXPEA_NPEAX@Z2PEAVMStatus@@@Z
?addCameraChangedCallback@MCameraSetMessage@@SA_KP6AXAEAVMObject@@I00PEAX@Z1PEAVMStatus@@@Z
?addCameraLayerCallback@MCameraSetMessage@@SA_KP6AXAEAVMObject@@I_NPEAX@Z2PEAVMStatus@@@Z
?addCategory@MProfiler@@SAHPEBD@Z
?addChangedCallback@TpluginDBase@@SAXAEBVTscriptAction@@@Z
?addChannel@MCacheFormatDescription@@QEAAIAEBVMString@@0W4CacheDataType@1@W4CacheSamplingType@1@AEBVMTime@@33PEAVMStatus@@@Z
?addCheckCallback@MSceneMessage@@SA_KW4Message@1@P6AXPEA_NPEAX@Z2PEAVMStatus@@@Z
?addCheckFileCallback@MSceneMessage@@SA_KW4Message@1@P6AXPEA_NAEAVMFileObject@@PEAX@Z3PEAVMStatus@@@Z
?addCheckReferenceCallback@MSceneMessage@@SA_KW4Message@1@P6AXPEA_NAEBVMObject@@AEAVMFileObject@@PEAX@Z4PEAVMStatus@@@Z
?addChild@MFnCompoundAttribute@@QEAA?AVMStatus@@AEBVMObject@@@Z
?addChild@MFnDagNode@@QEAA?AVMStatus@@AEAVMObject@@I_N@Z
?addChildAddedCallback@MDagMessage@@SA_KAEAVMDagPath@@P6AX00PEAX@Z1PEAVMStatus@@@Z
?addChildAddedCallback@MDagMessage@@SA_KP6AXAEAVMDagPath@@0PEAX@Z1PEAVMStatus@@@Z
?addChildAddedDagPathCallback@MDagMessage@@SA_KAEAVMDagPath@@P6AX00PEAX@Z1PEAVMStatus@@@Z
?addChildRemovedCallback@MDagMessage@@SA_KAEAVMDagPath@@P6AX00PEAX@Z1PEAVMStatus@@@Z
?addChildRemovedCallback@MDagMessage@@SA_KP6AXAEAVMDagPath@@0PEAX@Z1PEAVMStatus@@@Z
?addChildRemovedDagPathCallback@MDagMessage@@SA_KAEAVMDagPath@@P6AX00PEAX@Z1PEAVMStatus@@@Z
?addChildReorderedCallback@MDagMessage@@SA_KAEAVMDagPath@@P6AX00PEAX@Z1PEAVMStatus@@@Z
?addChildReorderedCallback@MDagMessage@@SA_KP6AXAEAVMDagPath@@0PEAX@Z1PEAVMStatus@@@Z
?addChildReorderedDagPathCallback@MDagMessage@@SA_KAEAVMDagPath@@P6AX00PEAX@Z1PEAVMStatus@@@Z
?addCmdReference@Tplugin@@QEAA_NPEAVTpluginObject@@@Z
?addCommandCallback@MCommandMessage@@SA_KP6AXAEBVMString@@PEAX@Z1PEAVMStatus@@@Z
?addCommandOutputCallback@MCommandMessage@@SA_KP6AXAEBVMString@@W4MessageType@1@PEAX@Z2PEAVMStatus@@@Z
?addCommandOutputFilterCallback@MCommandMessage@@SA_KP6AXAEBVMString@@W4MessageType@1@AEA_NPEAX@Z3PEAVMStatus@@@Z
?addConditionCallback@MConditionMessage@@SA_KAEBVMString@@P6AX_NPEAX@Z2PEAVMStatus@@@Z
?addConnectAttrEdit@MPxAssembly@@QEAA?AVMStatus@@AEBVMString@@00PEAVMPxEditData@@@Z
?addConnectionCallback@MDGMessage@@SA_KP6AXAEAVMPlug@@0_NPEAX@Z2PEAVMStatus@@@Z
?addConnectionFailedCallback@MSceneMessage@@SA_KP6AXAEAVMPlug@@0AEBVMString@@1PEAX@Z2PEAVMStatus@@@Z
?addConstraintCmdReference@Tplugin@@QEAA_NPEAVTpluginObject@@@Z
?addControlCommandReference@Tplugin@@QEAA_NPEAVTpluginObject@@@Z
?addControlReference@Tplugin@@QEAA_NPEAVTpluginObject@@@Z
?addCtxCmdReference@Tplugin@@QEAA_NPEAVTpluginObject@@@Z
?addCurveInterpReference@Tplugin@@QEAA_NPEAVTpluginObject@@@Z
?addDagCallback@MDagMessage@@CA_KPEAVMDagPath@@P6AXAEAVMObject@@AEAW4MatrixModifiedFlags@1@PEAX@Z3PEAVMStatus@@@Z
?addDagCallback@MDagMessage@@CA_KPEAVMDagPath@@W4DagMessage@1@P6AX1AEAV2@2PEAX@Z3PEAVMStatus@@@Z
?addDagCallback@MDagMessage@@CA_KPEAVMDagPath@@W4DagMessage@1@P6AXAEAV2@2PEAX@Z3PEAVMStatus@@@Z
?addDagCallback@MDagMessage@@SA_KAEAVMDagPath@@W4DagMessage@1@P6AX00PEAX@Z2PEAVMStatus@@@Z
?addDagCallback@MDagMessage@@SA_KAEAVMDagPath@@W4DagMessage@1@P6AX100PEAX@Z2PEAVMStatus@@@Z
?addDagCallback@MDagMessage@@SA_KW4DagMessage@1@P6AX0AEAVMDagPath@@1PEAX@Z2PEAVMStatus@@@Z
?addDagCallback@MDagMessage@@SA_KW4DagMessage@1@P6AXAEAVMDagPath@@1PEAX@Z2PEAVMStatus@@@Z
?addDagDagPathCallback@MDagMessage@@SA_KAEAVMDagPath@@W4DagMessage@1@P6AX100PEAX@Z2PEAVMStatus@@@Z
?addDataAccept@MFnGenericAttribute@@QEAA?AVMStatus@@W4Type@MFnData@@@Z
?addDataReference@Tplugin@@QEAA_NPEAVTpluginObject@@@Z
?addDelayedTimeChangeCallback@MDGMessage@@SA_KP6AXAEAVMTime@@PEAX@Z1PEAVMStatus@@@Z
?addDelayedTimeChangeRunupCallback@MDGMessage@@SA_KP6AXAEAVMTime@@PEAX@Z1PEAVMStatus@@@Z
?addDeleteAttrEdit@MPxAssembly@@QEAA?AVMStatus@@AEBVMString@@00PEAVMPxEditData@@@Z
?addDescriptionInfo@MCacheFormatDescription@@QEAAXAEBVMString@@@Z
?addDeviceReference@Tplugin@@QEAA_NPEAVTpluginObject@@@Z
?addDisconnectAttrEdit@MPxAssembly@@QEAA?AVMStatus@@AEBVMString@@00PEAVMPxEditData@@@Z
?addDoubleParameter@MRenderPassDef@@QEAA?AVMStatus@@AEBVMString@@00AEBN11@Z
?addEdits@MPxAssembly@@UEAA?AVMStatus@@XZ
?addElement@MArrayDataBuilder@@QEAA?AVMDataHandle@@IPEAVMStatus@@@Z
?addElement@MFnDoubleIndexedComponent@@QEAA?AVMStatus@@HH@Z
?addElement@MFnSingleIndexedComponent@@QEAA?AVMStatus@@H@Z
?addElement@MFnTripleIndexedComponent@@QEAA?AVMStatus@@HHH@Z
?addElement@MFnUint64SingleIndexedComponent@@QEAA?AVMStatus@@_K@Z
?addElementArray@MArrayDataBuilder@@QEAA?AVMArrayDataHandle@@IPEAVMStatus@@@Z
?addElements@MFnDoubleIndexedComponent@@QEAA?AVMStatus@@AEBVMIntArray@@0@Z
?addElements@MFnSingleIndexedComponent@@QEAA?AVMStatus@@AEAVMIntArray@@@Z
?addElements@MFnTripleIndexedComponent@@QEAA?AVMStatus@@AEBVMIntArray@@00@Z
?addElements@MFnUint64SingleIndexedComponent@@QEAA?AVMStatus@@AEBVMUint64Array@@@Z
?addEntries@MCurveAttribute@@QEAAXAEAVMFloatArray@@0PEAVMStatus@@@Z
?addEntries@MRampAttribute@@QEAAXAEAVMFloatArray@@0AEAVMIntArray@@PEAVMStatus@@@Z
?addEntries@MRampAttribute@@QEAAXAEAVMFloatArray@@AEAVMColorArray@@AEAVMIntArray@@PEAVMStatus@@@Z
?addEntry@MExternalContentLocationTable@@QEAA?AVMStatus@@AEBVMString@@0@Z
?addEntry@MPyAttributeRegistry@@QEAAXPEBDP6APEAU_object@@PEAU2@PEAX@ZP6AH112@Z02@Z
?addEventCallback@MEventMessage@@SA_KAEBVMString@@P6AXPEAX@Z1PEAVMStatus@@@Z
?addExtensionAttribute@MDGModifier@@QEAA?AVMStatus@@AEBVMNodeClass@@AEBVMObject@@@Z
?addExtensionAttribute@MNodeClass@@QEBA?AVMStatus@@AEBVMObject@@@Z
?addExternalContentForFileAttr@MFnDependencyNode@@QEBA?AVMStatus@@AEAVMExternalContentInfoTable@@AEBVMObject@@@Z
?addExternalContentForFileAttr@MPxNode@@QEBA_NAEAVMExternalContentInfoTable@@AEBVMObject@@@Z
?addField@MFnEnumAttribute@@QEAA?AVMStatus@@AEBVMString@@F@Z
?addFileDialogReference@Tplugin@@QEAA_NPEAVTpluginObject@@@Z
?addFileResolverReference@Tplugin@@QEAA_NPEAVTpluginObject@@@Z
?addFlag@MSyntax@@QEAA?AVMStatus@@PEBD0W4MArgType@1@11111@Z
?addFloatParameter@MRenderPassDef@@QEAA?AVMStatus@@AEBVMString@@00AEBM11@Z
?addForceUpdateCallback@MDGMessage@@SA_KP6AXAEAVMTime@@PEAX@Z1PEAVMStatus@@@Z
?addGeometryCacheReference@Tplugin@@QEAA_NPEAVTpluginObject@@@Z
?addHoles@MFnMesh@@QEAA?AVMStatus@@HAEBVMPointArray@@AEBVMIntArray@@_NN@Z
?addIkSolverReference@Tplugin@@QEAA_NPEAVTpluginObject@@@Z
?addImageFormatReference@Tplugin@@QEAA_NPEAVTpluginObject@@@Z
?addInstanceAddedCallback@MDagMessage@@SA_KAEAVMDagPath@@P6AX00PEAX@Z1PEAVMStatus@@@Z
?addInstanceAddedCallback@MDagMessage@@SA_KP6AXAEAVMDagPath@@0PEAX@Z1PEAVMStatus@@@Z
?addInstanceAddedDagPathCallback@MDagMessage@@SA_KAEAVMDagPath@@P6AX00PEAX@Z1PEAVMStatus@@@Z
?addInstanceRemovedCallback@MDagMessage@@SA_KAEAVMDagPath@@P6AX00PEAX@Z1PEAVMStatus@@@Z
?addInstanceRemovedCallback@MDagMessage@@SA_KP6AXAEAVMDagPath@@0PEAX@Z1PEAVMStatus@@@Z
?addInstanceRemovedDagPathCallback@MDagMessage@@SA_KAEAVMDagPath@@P6AX00PEAX@Z1PEAVMStatus@@@Z
?addIntParameter@MRenderPassDef@@QEAA?AVMStatus@@AEBVMString@@00AEBH11@Z
?addKeyableChangeOverride@MNodeMessage@@SA_KAEAVMPlug@@P6AX0PEAXW4KeyableChangeMsg@1@AEA_N@Z1PEAVMStatus@@@Z
?addLast@MArrayDataBuilder@@QEAA?AVMDataHandle@@PEAVMStatus@@@Z
?addLast@TapiMAttributePatternArray@@QEAAXAEBVMAttributePattern@@@Z
?addLast@TapiMAttributePatternArray@@QEAAXQEBVMAttributePattern@@I@Z
?addLast@TapiMDagPathArray@@QEAAXAEBVMDagPath@@@Z
?addLast@TapiMDagPathArray@@QEAAXQEBVMDagPath@@I@Z
?addLast@TapiMObjectArray@@QEAAXAEBVMObject@@@Z
?addLast@TapiMObjectArray@@QEAAXQEBVMObject@@I@Z
?addLast@TapiMPlugArray@@QEAAXAEBVMPlug@@@Z
?addLast@TapiMPlugArray@@QEAAXQEBVMPlug@@I@Z
?addLast@TapiMTimeArray@@QEAAXAEBVMTime@@@Z
?addLast@TapiMTimeArray@@QEAAXQEBVMTime@@I@Z
?addLastArray@MArrayDataBuilder@@QEAA?AVMArrayDataHandle@@PEAVMStatus@@@Z
?addMask@MSelectionMask@@QEAA?AVMStatus@@W4SelectionType@1@@Z
?addMember@MFnPartition@@QEAA?AVMStatus@@AEBVMObject@@@Z
?addMember@MFnSet@@QEAA?AVMStatus@@AEBVMDagPath@@AEBVMObject@@@Z
?addMember@MFnSet@@QEAA?AVMStatus@@AEBVMObject@@@Z
?addMember@MFnSet@@QEAA?AVMStatus@@AEBVMPlug@@@Z
?addMembers@MFnSet@@QEAA?AVMStatus@@AEBVMSelectionList@@@Z
?addMenuItem@MFnPlugin@@QEAA?AVMStringArray@@AEBVMString@@000_NPEBV3@PEAVMStatus@@@Z
?addModelEditorCmdReference@Tplugin@@QEAA_NPEAVTpluginObject@@@Z
?addNameChangedCallback@MNodeMessage@@SA_KAEAVMObject@@P6AX0AEBVMString@@PEAX@Z2PEAVMStatus@@@Z
?addNameChangedCallback@MNodeMessage@@SA_KAEAVMObject@@P6AX0PEAX@Z1PEAVMStatus@@@Z
?addNamespace@MNamespace@@SA?AVMStatus@@AEBVMString@@PEBV3@@Z
?addNamespaceRenamedCallback@MSceneMessage@@SA_KP6AXAEBVMString@@0PEAX@Z1PEAVMStatus@@@Z
?addNavigatorReference@Tplugin@@QEAA_NPEAVTpluginObject@@@Z
?addNode@MMessage@@KAXPEAUMMessageNode@@@Z
?addNodeAboutToDeleteCallback@MNodeMessage@@SA_KAEAVMObject@@P6AX0AEAVMDGModifier@@PEAX@Z2PEAVMStatus@@@Z
?addNodeAboutToDeleteCallback@MNodeMessage@@SA_KAEAVMObject@@P6AXAEAVMDGModifier@@PEAX@Z2PEAVMStatus@@@Z
?addNodeAddedCallback@MDGMessage@@SA_KP6AXAEAVMObject@@PEAX@ZAEBVMString@@1PEAVMStatus@@@Z
?addNodeAddedToModelCallback@MModelMessage@@SA_KAEBVMObject@@P6AXAEAV2@PEAX@Z2PEAVMStatus@@@Z
?addNodeChangeUuidCheckCallback@MDGMessage@@SA_KP6A?AW4Action@MMessage@@_NAEAVMObject@@AEAVMUuid@@PEAX@Z3PEAVMStatus@@@Z
?addNodeDestroyedCallback@MNodeMessage@@SA_KAEAVMObject@@P6AXPEAX@Z1PEAVMStatus@@@Z
?addNodeDirtyCallback@MNodeMessage@@SA_KAEAVMObject@@P6AX0AEAVMPlug@@PEAX@Z2PEAVMStatus@@@Z
?addNodeDirtyCallback@MNodeMessage@@SA_KAEAVMObject@@P6AX0PEAX@Z1PEAVMStatus@@@Z
?addNodeDirtyCallback@MNodeMessage@@SA_KAEAVMObject@@P6AXPEAX@Z1PEAVMStatus@@@Z
?addNodeDirtyPlugCallback@MNodeMessage@@SA_KAEAVMObject@@P6AX0AEAVMPlug@@PEAX@Z2PEAVMStatus@@@Z
?addNodePreRemovalCallback@MNodeMessage@@SA_KAEAVMObject@@P6AX0PEAX@Z1PEAVMStatus@@@Z
?addNodeReference@Tplugin@@QEAA_NPEAVTpluginObject@@@Z
?addNodeRemovedCallback@MDGMessage@@SA_KP6AXAEAVMObject@@PEAX@ZAEBVMString@@1PEAVMStatus@@@Z
?addNodeRemovedFromModelCallback@MModelMessage@@SA_KAEBVMObject@@P6AXAEAV2@PEAX@Z2PEAVMStatus@@@Z
?addNumericDataAccept@MFnGenericAttribute@@QEAA?AVMStatus@@W4Type@MFnNumericData@@@Z
?addObjectGroup@MFnGeometryData@@QEAA?AVMStatus@@I@Z
?addObjectGroupComponent@MFnGeometryData@@QEAA?AVMStatus@@IAEAVMObject@@@Z
?addParentAddedCallback@MDagMessage@@SA_KAEAVMDagPath@@P6AX00PEAX@Z1PEAVMStatus@@@Z
?addParentAddedCallback@MDagMessage@@SA_KP6AXAEAVMDagPath@@0PEAX@Z1PEAVMStatus@@@Z
?addParentAddedDagPathCallback@MDagMessage@@SA_KAEAVMDagPath@@P6AX00PEAX@Z1PEAVMStatus@@@Z
?addParentEdit@MPxAssembly@@QEAA?AVMStatus@@AEBVMString@@000PEAVMPxEditData@@@Z
?addParentRemovedCallback@MDagMessage@@SA_KAEAVMDagPath@@P6AX00PEAX@Z1PEAVMStatus@@@Z
?addParentRemovedCallback@MDagMessage@@SA_KP6AXAEAVMDagPath@@0PEAX@Z1PEAVMStatus@@@Z
?addParentRemovedDagPathCallback@MDagMessage@@SA_KAEAVMDagPath@@P6AX00PEAX@Z1PEAVMStatus@@@Z
?addPolyComponentIdChangedCallback@MPolyMessage@@SA_KAEAVMObject@@QEA_NIP6AXQEAVMUintArray@@IPEAX@Z3PEAVMStatus@@@Z
?addPolyTopologyChangedCallback@MPolyMessage@@SA_KAEAVMObject@@P6AX0PEAX@Z1PEAVMStatus@@@Z
?addPolygon@MFnMesh@@QEAA?AVMObject@@AEAVMPointArray@@N_NN1V2@PEAVMStatus@@@Z
?addPolygon@MFnMesh@@QEAA?AVMObject@@AEBVMPointArray@@AEAH_NNV2@PEAVMStatus@@@Z
?addPolygon@MFnMesh@@QEAA?AVMObject@@AEBVMPointArray@@AEBVMIntArray@@AEAH_NNV2@PEAVMStatus@@@Z
?addPolygon@MFnMesh@@QEAA?AVMObject@@AEBVMPointArray@@_NNV2@PEAVMStatus@@@Z
?addPreConnectionCallback@MDGMessage@@SA_KP6AXAEAVMPlug@@0_NPEAX@Z2PEAVMStatus@@@Z
?addProcCallback@MCommandMessage@@SA_KP6AXAEBVMString@@I_NIPEAX@Z2PEAVMStatus@@@Z
?addPublishAttrCallback@MContainerMessage@@SA_KP6AXAEAVMObject@@AEBVMString@@_NPEAX@Z3PEAVMStatus@@@Z
?addQtUICallback@MMessage@@KAXPEAVQObject@@@Z
?addQueryItem@MURI@@QEAA?AVMStatus@@AEBVMString@@0@Z
?addReferenceCallback@MSceneMessage@@SA_KW4Message@1@P6AXAEBVMObject@@AEBVMFileObject@@PEAX@Z3PEAVMStatus@@@Z
?addRemoveAttrEdit@MItEdits@@QEBA?AVMAddRemoveAttrEdit@@PEAVMStatus@@@Z
?addRendererReference@Tplugin@@QEAA_NPEAVTpluginObject@@@Z
?addResolvedEntry@MExternalContentInfoTable@@QEAA?AVMStatus@@AEBVMString@@000AEBVMStringArray@@@Z
?addResolvedEntry@MExternalContentInfoTable@@QEAA?AVMStatus@@AEBVMString@@00AEBVMStringArray@@@Z
?addRootAttr@MAttributePattern@@QEAA?AVMStatus@@AEBVMObject@@@Z
?addRotation@MTransformationMatrix@@QEAA?AVMStatus@@QEBNW4RotationOrder@1@W4Space@MSpace@@@Z
?addRotationQuaternion@MTransformationMatrix@@QEAA?AVMStatus@@NNNNW4Space@MSpace@@@Z
?addScale@MTransformationMatrix@@QEAA?AVMStatus@@QEBNW4Space@MSpace@@@Z
?addSetAttrEdit@MPxAssembly@@QEAA?AVMStatus@@AEBVMString@@00PEAVMPxEditData@@@Z
?addSetMembersModifiedCallback@MObjectSetMessage@@SA_KAEAVMObject@@P6AX0PEAX@Z1PEAVMStatus@@@Z
?addShear@MTransformationMatrix@@QEAA?AVMStatus@@QEBNW4Space@MSpace@@@Z
?addStringArrayCallback@MSceneMessage@@SA_KW4Message@1@P6AXAEBVMStringArray@@PEAX@Z2PEAVMStatus@@@Z
?addTimeChangeCallback@MDGMessage@@SA_KP6AXAEAVMTime@@PEAX@Z1PEAVMStatus@@@Z
?addTimerCallback@MTimerMessage@@SA_KMP6AXMMPEAX@Z0PEAVMStatus@@@Z
?addToCategory@MFnAttribute@@QEAA?AVMStatus@@AEBVMString@@@Z
?addToClassification@MNodeClass@@QEAA?AVMStatus@@AEBVMString@@@Z
?addToModel@MGlobal@@SA?AVMStatus@@AEAVMObject@@0@Z
?addToModelAt@MGlobal@@SA?AVMStatus@@AEAVMObject@@AEBVMVector@@QEBN2W4RotationOrder@MTransformationMatrix@@@Z
?addToModule@?$MPyMArray_Type_Base@VMAttributeSpecArray@@VMAttributeSpec@@@@SA_NPEAU_object@@PEBD@Z
?addToModule@?$MPyMArray_Type_Base@VMCallbackIdArray@@_K@@SA_NPEAU_object@@PEBD@Z
?addToModule@?$MPyMArray_Type_Base@VMColorArray@@VMColor@@@@SA_NPEAU_object@@PEBD@Z
?addToModule@?$MPyMArray_Type_Base@VMDagPathArray@@VMDagPath@@@@SA_NPEAU_object@@PEBD@Z
?addToModule@?$MPyMArray_Type_Base@VMDoubleArray@@N@@SA_NPEAU_object@@PEBD@Z
?addToModule@?$MPyMArray_Type_Base@VMFloatArray@@M@@SA_NPEAU_object@@PEBD@Z
?addToModule@?$MPyMArray_Type_Base@VMFloatPointArray@@VMFloatPoint@@@@SA_NPEAU_object@@PEBD@Z
?addToModule@?$MPyMArray_Type_Base@VMFloatVectorArray@@VMFloatVector@@@@SA_NPEAU_object@@PEBD@Z
?addToModule@?$MPyMArray_Type_Base@VMInt64Array@@_J@@SA_NPEAU_object@@PEBD@Z
?addToModule@?$MPyMArray_Type_Base@VMIntArray@@H@@SA_NPEAU_object@@PEBD@Z
?addToModule@?$MPyMArray_Type_Base@VMMatrixArray@@VMMatrix@@@@SA_NPEAU_object@@PEBD@Z
?addToModule@?$MPyMArray_Type_Base@VMObjectArray@@VMObject@@@@SA_NPEAU_object@@PEBD@Z
?addToModule@?$MPyMArray_Type_Base@VMPlugArray@@VMPlug@@@@SA_NPEAU_object@@PEBD@Z
?addToModule@?$MPyMArray_Type_Base@VMPointArray@@VMPoint@@@@SA_NPEAU_object@@PEBD@Z
?addToModule@?$MPyMArray_Type_Base@VMTimeArray@@VMTime@@@@SA_NPEAU_object@@PEBD@Z
?addToModule@?$MPyMArray_Type_Base@VMUint64Array@@_K@@SA_NPEAU_object@@PEBD@Z
?addToModule@?$MPyMArray_Type_Base@VMUintArray@@I@@SA_NPEAU_object@@PEBD@Z
?addToModule@?$MPyMArray_Type_Base@VMVectorArray@@VMVector@@@@SA_NPEAU_object@@PEBD@Z
?addToModule@MPyMAngle_Type@@SA_NPEAU_object@@@Z
?addToModule@MPyMArgDatabase_Type@@SA_NPEAU_object@@@Z
?addToModule@MPyMArgList_Type@@SA_NPEAU_object@@@Z
?addToModule@MPyMArgParser_Type@@SA_NPEAU_object@@@Z
?addToModule@MPyMArrayDataBuilder_Type@@SA_NPEAU_object@@@Z
?addToModule@MPyMArrayDataHandle_Type@@SA_NPEAU_object@@@Z
?addToModule@MPyMAttributeIndex_Type@@SA_NPEAU_object@@@Z
?addToModule@MPyMAttributePattern_Type@@SA_NPEAU_object@@@Z
?addToModule@MPyMAttributeSpecArray_Type@@SA_NPEAU_object@@@Z
?addToModule@MPyMAttributeSpec_Type@@SA_NPEAU_object@@@Z
?addToModule@MPyMBoundingBox_Type@@SA_NPEAU_object@@@Z
?addToModule@MPyMCallbackIdArray_Type@@SA_NPEAU_object@@@Z
?addToModule@MPyMColorArray_Type@@SA_NPEAU_object@@@Z
?addToModule@MPyMColor_Type@@SA_NPEAU_object@@@Z
?addToModule@MPyMCommandMessage_Type@@SA_NPEAU_object@@@Z
?addToModule@MPyMConditionMessage_Type@@SA_NPEAU_object@@@Z
?addToModule@MPyMContainerMessage_Type@@SA_NPEAU_object@@@Z
?addToModule@MPyMDAGDrawOverrideInfo_Type@@SA_NPEAU_object@@@Z
?addToModule@MPyMDGContext_Type@@SA_NPEAU_object@@@Z
?addToModule@MPyMDGMessage_Type@@SA_NPEAU_object@@@Z
?addToModule@MPyMDGModifier_Type@@SA_NPEAU_object@@@Z
?addToModule@MPyMDagMessage_Type@@SA_NPEAU_object@@@Z
?addToModule@MPyMDagModifier_Type@@SA_NPEAU_object@@@Z
?addToModule@MPyMDagPathArray_Type@@SA_NPEAU_object@@@Z
?addToModule@MPyMDagPath_Type@@SA_NPEAU_object@@@Z
?addToModule@MPyMDataBlock_Type@@SA_NPEAU_object@@@Z
?addToModule@MPyMDataHandle_Type@@SA_NPEAU_object@@@Z
?addToModule@MPyMDistance_Type@@SA_NPEAU_object@@@Z
?addToModule@MPyMDoubleArray_Type@@SA_NPEAU_object@@@Z
?addToModule@MPyMEulerRotation_Type@@SA_NPEAU_object@@@Z
?addToModule@MPyMEventMessage_Type@@SA_NPEAU_object@@@Z
?addToModule@MPyMExternalContentInfoTable_Type@@SA_NPEAU_object@@@Z
?addToModule@MPyMExternalContentLocationTable_Type@@SA_NPEAU_object@@@Z
?addToModule@MPyMFileObject_Type@@SA_NPEAU_object@@@Z
?addToModule@MPyMFloatArray_Type@@SA_NPEAU_object@@@Z
?addToModule@MPyMFloatMatrix_Type@@SA_NPEAU_object@@@Z
?addToModule@MPyMFloatPointArray_Type@@SA_NPEAU_object@@@Z
?addToModule@MPyMFloatPoint_Type@@SA_NPEAU_object@@@Z
?addToModule@MPyMFloatVectorArray_Type@@SA_NPEAU_object@@@Z
?addToModule@MPyMFloatVector_Type@@SA_NPEAU_object@@@Z
?addToModule@MPyMFnAttribute_Type@@SA_NPEAU_object@@@Z
?addToModule@MPyMFnBase_Type@@SA_NPEAU_object@@@Z
?addToModule@MPyMFnCamera_Type@@SA_NPEAU_object@@@Z
?addToModule@MPyMFnComponentListData_Type@@SA_NPEAU_object@@@Z
?addToModule@MPyMFnComponent_Type@@SA_NPEAU_object@@@Z
?addToModule@MPyMFnCompoundAttribute_Type@@SA_NPEAU_object@@@Z
?addToModule@MPyMFnDagNode_Type@@SA_NPEAU_object@@@Z
?addToModule@MPyMFnData_Type@@SA_NPEAU_object@@@Z
?addToModule@MPyMFnDependencyNode_Type@@SA_NPEAU_object@@@Z
?addToModule@MPyMFnDoubleArrayData_Type@@SA_NPEAU_object@@@Z
?addToModule@MPyMFnDoubleIndexedComponent_Type@@SA_NPEAU_object@@@Z
?addToModule@MPyMFnEnumAttribute_Type@@SA_NPEAU_object@@@Z
?addToModule@MPyMFnFloatArrayData_Type@@SA_NPEAU_object@@@Z
?addToModule@MPyMFnGenericAttribute_Type@@SA_NPEAU_object@@@Z
?addToModule@MPyMFnGeometryData_Type@@SA_NPEAU_object@@@Z
?addToModule@MPyMFnIntArrayData_Type@@SA_NPEAU_object@@@Z
?addToModule@MPyMFnLightDataAttribute_Type@@SA_NPEAU_object@@@Z
?addToModule@MPyMFnMatrixArrayData_Type@@SA_NPEAU_object@@@Z
?addToModule@MPyMFnMatrixAttribute_Type@@SA_NPEAU_object@@@Z
?addToModule@MPyMFnMatrixData_Type@@SA_NPEAU_object@@@Z
?addToModule@MPyMFnMeshData_Type@@SA_NPEAU_object@@@Z
?addToModule@MPyMFnMesh_Type@@SA_NPEAU_object@@@Z
?addToModule@MPyMFnMessageAttribute_Type@@SA_NPEAU_object@@@Z
?addToModule@MPyMFnNumericAttribute_Type@@SA_NPEAU_object@@@Z
?addToModule@MPyMFnNumericData_Type@@SA_NPEAU_object@@@Z
?addToModule@MPyMFnNurbsCurveData_Type@@SA_NPEAU_object@@@Z
?addToModule@MPyMFnNurbsCurve_Type@@SA_NPEAU_object@@@Z
?addToModule@MPyMFnNurbsSurfaceData_Type@@SA_NPEAU_object@@@Z
?addToModule@MPyMFnNurbsSurface_Type@@SA_NPEAU_object@@@Z
?addToModule@MPyMFnPluginData_Type@@SA_NPEAU_object@@@Z
?addToModule@MPyMFnPlugin_Type@@SA_NPEAU_object@@@Z
?addToModule@MPyMFnPointArrayData_Type@@SA_NPEAU_object@@@Z
?addToModule@MPyMFnSingleIndexedComponent_Type@@SA_NPEAU_object@@@Z
?addToModule@MPyMFnStringArrayData_Type@@SA_NPEAU_object@@@Z
?addToModule@MPyMFnStringData_Type@@SA_NPEAU_object@@@Z
?addToModule@MPyMFnTransform_Type@@SA_NPEAU_object@@@Z
?addToModule@MPyMFnTripleIndexedComponent_Type@@SA_NPEAU_object@@@Z
?addToModule@MPyMFnTypedAttribute_Type@@SA_NPEAU_object@@@Z
?addToModule@MPyMFnUInt64ArrayData_Type@@SA_NPEAU_object@@@Z
?addToModule@MPyMFnUnitAttribute_Type@@SA_NPEAU_object@@@Z
?addToModule@MPyMFnVectorArrayData_Type@@SA_NPEAU_object@@@Z
?addToModule@MPyMFn_Type@@SA_NPEAU_object@@@Z
?addToModule@MPyMGlobal_Type@@SA_NPEAU_object@@@Z
?addToModule@MPyMImage_Type@@SA_NPEAU_object@@@Z
?addToModule@MPyMInt64Array_Type@@SA_NPEAU_object@@@Z
?addToModule@MPyMIntArray_Type@@SA_NPEAU_object@@@Z
?addToModule@MPyMItMeshEdge_Type@@SA_NPEAU_object@@@Z
?addToModule@MPyMItMeshFaceVertex_Type@@SA_NPEAU_object@@@Z
?addToModule@MPyMItMeshPolygon_Type@@SA_NPEAU_object@@@Z
?addToModule@MPyMItMeshVertex_Type@@SA_NPEAU_object@@@Z
?addToModule@MPyMItSelectionList_Type@@SA_NPEAU_object@@@Z
?addToModule@MPyMItSurfaceCV_Type@@SA_NPEAU_object@@@Z
?addToModule@MPyMLockMessage_Type@@SA_NPEAU_object@@@Z
?addToModule@MPyMMatrixArray_Type@@SA_NPEAU_object@@@Z
?addToModule@MPyMMatrix_Type@@SA_NPEAU_object@@@Z
?addToModule@MPyMMeshIntersector_Type@@SA_NPEAU_object@@@Z
?addToModule@MPyMMeshIsectAccelParams_Type@@SA_NPEAU_object@@@Z
?addToModule@MPyMMeshSmoothOptions_Type@@SA_NPEAU_object@@@Z
?addToModule@MPyMMessage_Type@@SA_NPEAU_object@@@Z
?addToModule@MPyMModelMessage_Type@@SA_NPEAU_object@@@Z
?addToModule@MPyMNodeClass_Type@@SA_NPEAU_object@@@Z
?addToModule@MPyMNodeMessage_Type@@SA_NPEAU_object@@@Z
?addToModule@MPyMObjectArray_Type@@SA_NPEAU_object@@@Z
?addToModule@MPyMObjectHandle_Type@@SA_NPEAU_object@@@Z
?addToModule@MPyMObjectSetMessage_Type@@SA_NPEAU_object@@@Z
?addToModule@MPyMObject_Type@@SA_NPEAU_object@@@Z
?addToModule@MPyMPlane_Type@@SA_NPEAU_object@@@Z
?addToModule@MPyMPlugArray_Type@@SA_NPEAU_object@@@Z
?addToModule@MPyMPlug_Type@@SA_NPEAU_object@@@Z
?addToModule@MPyMPointArray_Type@@SA_NPEAU_object@@@Z
?addToModule@MPyMPointOnMesh_Type@@SA_NPEAU_object@@@Z
?addToModule@MPyMPoint_Type@@SA_NPEAU_object@@@Z
?addToModule@MPyMPolyMessage_Type@@SA_NPEAU_object@@@Z
?addToModule@MPyMPxAttributePatternFactory_Type@@SA_NPEAU_object@@@Z
?addToModule@MPyMPxCommand_Type@@SA_NPEAU_object@@@Z
?addToModule@MPyMPxData_Type@@SA_NPEAU_object@@@Z
?addToModule@MPyMPxGeometryData_Type@@SA_NPEAU_object@@@Z
?addToModule@MPyMPxGeometryIterator_Type@@SA_NPEAU_object@@@Z
?addToModule@MPyMPxNode_Type@@SA_NPEAU_object@@@Z
?addToModule@MPyMPxSurfaceShape_Type@@SA_NPEAU_object@@@Z
?addToModule@MPyMQuaternion_Type@@SA_NPEAU_object@@@Z
?addToModule@MPyMRampAttribute_Type@@SA_NPEAU_object@@@Z
?addToModule@MPyMRichSelection_Type@@SA_NPEAU_object@@@Z
?addToModule@MPyMSceneMessage_Type@@SA_NPEAU_object@@@Z
?addToModule@MPyMSelectionList_Type@@SA_NPEAU_object@@@Z
?addToModule@MPyMSelectionMask_Type@@SA_NPEAU_object@@@Z
?addToModule@MPyMSpace_Type@@SA_NPEAU_object@@@Z
?addToModule@MPyMSyntax_Type@@SA_NPEAU_object@@@Z
?addToModule@MPyMTimeArray_Type@@SA_NPEAU_object@@@Z
?addToModule@MPyMTime_Type@@SA_NPEAU_object@@@Z
?addToModule@MPyMTimerMessage_Type@@SA_NPEAU_object@@@Z
?addToModule@MPyMTransformationMatrix_Type@@SA_NPEAU_object@@@Z
?addToModule@MPyMTypeId_Type@@SA_NPEAU_object@@@Z
?addToModule@MPyMUint64Array_Type@@SA_NPEAU_object@@@Z
?addToModule@MPyMUintArray_Type@@SA_NPEAU_object@@@Z
?addToModule@MPyMUserData_Type@@SA_NPEAU_object@@@Z
?addToModule@MPyMUserEventMessage_Type@@SA_NPEAU_object@@@Z
?addToModule@MPyMUuid_Type@@SA_NPEAU_object@@@Z
?addToModule@MPyMVectorArray_Type@@SA_NPEAU_object@@@Z
?addToModule@MPyMVector_Type@@SA_NPEAU_object@@@Z
?addToModule@MPyMWeight_Type@@SA_NPEAU_object@@@Z
?addTransReference@Tplugin@@QEAA_NPEAVTpluginObject@@@Z
?addTranslation@MTransformationMatrix@@QEAA?AVMStatus@@AEBVMVector@@W4Space@MSpace@@@Z
?addUVSetChangedCallback@MPolyMessage@@SA_KAEAVMObject@@P6AX0AEBVMString@@W4MessageType@1@PEAX@Z3PEAVMStatus@@@Z
?addUnresolvedEntry@MExternalContentInfoTable@@QEAA?AVMStatus@@AEBVMString@@00AEBVMStringArray@@@Z
?addUnresolvedEntry@MExternalContentInfoTable@@QEAA?AVMStatus@@AEBVMString@@0AEBVMStringArray@@@Z
?addUserEventCallback@MUserEventMessage@@SA_KAEBVMString@@P6AXPEAX@Z1PEAVMStatus@@@Z
?addUuidChangedCallback@MNodeMessage@@SA_KAEAVMObject@@P6AX0AEBVMUuid@@PEAX@Z2PEAVMStatus@@@Z
?addWorldMatrixModifiedCallback@MDagMessage@@SA_KAEAVMDagPath@@P6AXAEAVMObject@@AEAW4MatrixModifiedFlags@1@PEAX@Z3PEAVMStatus@@@Z
?adjoint@MFloatMatrix@@QEBA?AV1@XZ
?adjoint@MMatrix@@QEBA?AV1@XZ
?affectsAppearance@MFnAttribute@@QEBA_NPEAVMStatus@@@Z
?alAudioInit@@YA?AVMStatus@@W4MProductID@@@Z
?allIntersections@MFnMesh@@QEAA_NAEBVMFloatPoint@@AEBVMFloatVector@@PEBVMIntArray@@2_NW4Space@MSpace@@M3PEAVMMeshIsectAccelParams@@3AEAVMFloatPointArray@@PEAVMFloatArray@@PEAV4@877MPEAVMStatus@@@Z
?allPositions@MItGeometry@@QEBA?AVMStatus@@AEAVMPointArray@@W4Space@MSpace@@@Z
?allocateFlag@MFnDependencyNode@@SAIVMString@@PEAVMStatus@@@Z
?allocateFlag@THapiNodeFlags@@SAIVTstring@@PEAVMStatus@@@Z
?allowChildParentMessage@THclient@@IEAA_NPEAVTchildParentMsg@@@Z
?allowMessageOnNode@THclient@@IEAA_NPEAVTdependNode@@@Z
?allowMultipleFileOptimization@MPxFileTranslator@@UEBA_NXZ
?alphaGain@MPxImagePlane@@2VMObject@@A
?alreadyPremult@MPxImagePlane@@2VMObject@@A
?alternateSolution@MEulerRotation@@QEBA?AV1@XZ
?alternateSolution@MEulerRotation@@SA?AV1@AEBV1@@Z
?ambientColor@MFnLambertShader@@QEBA?AVMColor@@PEAVMStatus@@@Z
?ambientShade@MFnAmbientLight@@QEBAMPEAVMStatus@@@Z
?angle@MFloatVector@@QEBAMAEBV1@@Z
?angle@MVector@@QEBANAEBV1@@Z
?angle@TapiCast@@SA?AVMAngle@@AEBVTangle@@@Z
?angle@TapiPack@@SA?AVMAngle@@AEBVTangle@@@Z
?angle@TapiPack@@SA?AVTangle@@AEBVMAngle@@@Z
?animSelectionMask@MGlobal@@SA?AVMSelectionMask@@PEAVMStatus@@@Z
?anisotropicReflectivity@MFnAnisotropyShader@@QEBA_NPEAVMStatus@@@Z
?annotation@MFnSet@@QEBA?AVMString@@PEAVMStatus@@@Z
?annotation@MPxObjectSet@@2VMObject@@A
?anyIntersection@MFnMesh@@QEAA_NAEBVMFloatPoint@@AEBVMFloatVector@@PEBVMIntArray@@2_NW4Space@MSpace@@M3PEAVMMeshIsectAccelParams@@AEAV2@PEAMPEAH877MPEAVMStatus@@@Z
?apiGetAttrValue@@YA?AVMStatus@@AEBVMObject@@AEAVMDataBlock@@AEAF@Z
?apiGetAttrValue@@YA?AVMStatus@@AEBVMObject@@AEAVMDataBlock@@AEAH@Z
?apiGetAttrValue@@YA?AVMStatus@@AEBVMObject@@AEAVMDataBlock@@AEAN@Z
?apiGetAttrValue@@YA?AVMStatus@@AEBVMObject@@AEAVMDataBlock@@AEAVMColor@@@Z
?apiGetAttrValue@@YA?AVMStatus@@AEBVMObject@@AEAVMDataBlock@@AEAVMTime@@@Z
?apiGetAttrValue@@YA?AVMStatus@@AEBVMObject@@AEAVMDataBlock@@AEAY02H@Z
?apiGetAttrValue@@YA?AVMStatus@@AEBVMObject@@AEAVMDataBlock@@AEAY02M@Z
?apiGetAttrValue@@YA?AVMStatus@@AEBVMObject@@AEAVMDataBlock@@AEA_N@Z
?apiGetMultiAttrValue@@YA?AVMStatus@@AEBVMObject@@HAEAVMDataBlock@@AEAF@Z
?apiGetMultiAttrValue@@YA?AVMStatus@@AEBVMObject@@HAEAVMDataBlock@@AEAH@Z
?apiGetMultiAttrValue@@YA?AVMStatus@@AEBVMObject@@HAEAVMDataBlock@@AEAN@Z
?apiGetMultiAttrValue@@YA?AVMStatus@@AEBVMObject@@HAEAVMDataBlock@@AEAVMColor@@@Z
?apiGetMultiAttrValue@@YA?AVMStatus@@AEBVMObject@@HAEAVMDataBlock@@AEAVMTime@@@Z
?apiGetMultiAttrValue@@YA?AVMStatus@@AEBVMObject@@HAEAVMDataBlock@@AEAY02H@Z
?apiGetMultiAttrValue@@YA?AVMStatus@@AEBVMObject@@HAEAVMDataBlock@@AEAY02M@Z
?apiGetMultiAttrValue@@YA?AVMStatus@@AEBVMObject@@HAEAVMDataBlock@@AEA_N@Z
?apiSetAttrValue@@YA?AVMStatus@@AEBVMObject@@HAEAVMDataBlock@@AEAY02H@Z
?apiSetMultiAttrValue@@YA?AVMStatus@@AEBVMObject@@HAEAVMDataBlock@@AEAY02H@Z
?apiType@MDagPath@@QEBA?AW4Type@MFn@@PEAVMStatus@@@Z
?apiType@THdependNode@@UEBA?AVMFn@@XZ
?apiType@THsurfaceShape@@UEBA?AVMFn@@XZ
?apiType@Tplugin@@UEBA?AVMFn@@XZ
?apiTypeString@THdependNode@@UEBAPEBDXZ
?apiTypeString@THsurfaceShape@@UEBAPEBDXZ
?apiTypeString@Tplugin@@UEBAPEBDXZ
?apiUserObject@THdependNode@@UEBAPEAXXZ
?apiUserObject@THsurfaceShape@@UEBAPEAXXZ
?apiVersion@MFnPlugin@@QEBA?AVMString@@PEAVMStatus@@@Z
?apiVersion@MGlobal@@SAHXZ
?apiVersion@Tplugin@@QEBAAEBVTstring@@XZ
?apiVersion@TpluginObject@@QEBAAEBVTstring@@XZ
?append@?$MPyMArray_Type_Base@VMAttributeSpecArray@@VMAttributeSpec@@@@SAPEAU_object@@PEAV?$MPyObject@VMAttributeSpecArray@@@@PEAU2@@Z
?append@?$MPyMArray_Type_Base@VMCallbackIdArray@@_K@@SAPEAU_object@@PEAV?$MPyObject@VMCallbackIdArray@@@@PEAU2@@Z
?append@?$MPyMArray_Type_Base@VMColorArray@@VMColor@@@@SAPEAU_object@@PEAV?$MPyObject@VMColorArray@@@@PEAU2@@Z
?append@?$MPyMArray_Type_Base@VMDagPathArray@@VMDagPath@@@@SAPEAU_object@@PEAV?$MPyObject@VMDagPathArray@@@@PEAU2@@Z
?append@?$MPyMArray_Type_Base@VMDoubleArray@@N@@SAPEAU_object@@PEAV?$MPyObject@VMDoubleArray@@@@PEAU2@@Z
?append@?$MPyMArray_Type_Base@VMFloatArray@@M@@SAPEAU_object@@PEAV?$MPyObject@VMFloatArray@@@@PEAU2@@Z
?append@?$MPyMArray_Type_Base@VMFloatPointArray@@VMFloatPoint@@@@SAPEAU_object@@PEAV?$MPyObject@VMFloatPointArray@@@@PEAU2@@Z
?append@?$MPyMArray_Type_Base@VMFloatVectorArray@@VMFloatVector@@@@SAPEAU_object@@PEAV?$MPyObject@VMFloatVectorArray@@@@PEAU2@@Z
?append@?$MPyMArray_Type_Base@VMInt64Array@@_J@@SAPEAU_object@@PEAV?$MPyObject@VMInt64Array@@@@PEAU2@@Z
?append@?$MPyMArray_Type_Base@VMIntArray@@H@@SAPEAU_object@@PEAV?$MPyObject@VMIntArray@@@@PEAU2@@Z
?append@?$MPyMArray_Type_Base@VMMatrixArray@@VMMatrix@@@@SAPEAU_object@@PEAV?$MPyObject@VMMatrixArray@@@@PEAU2@@Z
?append@?$MPyMArray_Type_Base@VMObjectArray@@VMObject@@@@SAPEAU_object@@PEAV?$MPyObject@VMObjectArray@@@@PEAU2@@Z
?append@?$MPyMArray_Type_Base@VMPlugArray@@VMPlug@@@@SAPEAU_object@@PEAV?$MPyObject@VMPlugArray@@@@PEAU2@@Z
?append@?$MPyMArray_Type_Base@VMPointArray@@VMPoint@@@@SAPEAU_object@@PEAV?$MPyObject@VMPointArray@@@@PEAU2@@Z
?append@?$MPyMArray_Type_Base@VMTimeArray@@VMTime@@@@SAPEAU_object@@PEAV?$MPyObject@VMTimeArray@@@@PEAU2@@Z
?append@?$MPyMArray_Type_Base@VMUint64Array@@_K@@SAPEAU_object@@PEAV?$MPyObject@VMUint64Array@@@@PEAU2@@Z
?append@?$MPyMArray_Type_Base@VMUintArray@@I@@SAPEAU_object@@PEAV?$MPyObject@VMUintArray@@@@PEAU2@@Z
?append@?$MPyMArray_Type_Base@VMVectorArray@@VMVector@@@@SAPEAU_object@@PEAV?$MPyObject@VMVectorArray@@@@PEAU2@@Z
?append@MAttributePatternArray@@QEAA?AVMStatus@@AEBVMAttributePattern@@@Z
?append@MAttributeSpecArray@@QEAA?AVMStatus@@AEBVMAttributeSpec@@@Z
?append@MCallbackIdArray@@QEAA?AVMStatus@@_K@Z
?append@MColorArray@@QEAA?AVMStatus@@AEBVMColor@@@Z
?append@MColorArray@@QEAA?AVMStatus@@MMMM@Z
?append@MDagPathArray@@QEAA?AVMStatus@@AEBVMDagPath@@@Z
?append@MDoubleArray@@QEAA?AVMStatus@@N@Z
?append@MFloatArray@@QEAA?AVMStatus@@M@Z
?append@MFloatPointArray@@QEAA?AVMStatus@@AEBVMFloatPoint@@@Z
?append@MFloatPointArray@@QEAA?AVMStatus@@MMMM@Z
?append@MFloatVectorArray@@QEAA?AVMStatus@@AEBVMFloatVector@@@Z
?append@MInt64Array@@QEAA?AVMStatus@@_J@Z
?append@MIntArray@@QEAA?AVMStatus@@H@Z
?append@MMatrixArray@@QEAA?AVMStatus@@AEBVMMatrix@@@Z
?append@MObjectArray@@QEAA?AVMStatus@@AEBVMObject@@@Z
?append@MPlugArray@@QEAA?AVMStatus@@AEBVMPlug@@@Z
?append@MPointArray@@QEAA?AVMStatus@@AEBVMPoint@@@Z
?append@MPointArray@@QEAA?AVMStatus@@NNNN@Z
?append@MStringArray@@QEAA?AVMStatus@@AEBVMString@@@Z
?append@MTimeArray@@QEAA?AVMStatus@@AEBVMTime@@@Z
?append@MTrimBoundaryArray@@QEAA?AVMStatus@@AEBVMObjectArray@@@Z
?append@MUint64Array@@QEAA?AVMStatus@@_K@Z
?append@MUintArray@@QEAA?AVMStatus@@I@Z
?append@MVectorArray@@QEAA?AVMStatus@@AEBVMVector@@@Z
?appendLayer@MFnCameraSet@@QEAA?AVMStatus@@AEBVMDagPath@@@Z
?appendLayer@MFnCameraSet@@QEAA?AVMStatus@@AEBVMDagPath@@AEBVMObject@@@Z
?appendMessage@MOpenCLInfo@@SAXPEAVMStringArray@@PEBDZZ
?appendToResult@MPxCommand@@SAXAEBVMString@@@Z
?appendToResult@MPxCommand@@SAXAEBVMStringArray@@@Z
?appendToResult@MPxCommand@@SAXH@Z
?appendToResult@MPxCommand@@SAXN@Z
?appendToResult@MPxCommand@@SAXPEBD@Z
?appendToResult@MPxCommand@@SAX_N@Z
?appendToStr@?$MPyMArray_Type_Base@VMAttributeSpecArray@@VMAttributeSpec@@@@SAXAEBVMAttributeSpecArray@@PEAPEAU_object@@@Z
?appendToStr@?$MPyMArray_Type_Base@VMCallbackIdArray@@_K@@SAXAEBVMCallbackIdArray@@PEAPEAU_object@@@Z
?appendToStr@?$MPyMArray_Type_Base@VMColorArray@@VMColor@@@@SAXAEBVMColorArray@@PEAPEAU_object@@@Z
?appendToStr@?$MPyMArray_Type_Base@VMDagPathArray@@VMDagPath@@@@SAXAEBVMDagPathArray@@PEAPEAU_object@@@Z
?appendToStr@?$MPyMArray_Type_Base@VMDoubleArray@@N@@SAXAEBVMDoubleArray@@PEAPEAU_object@@@Z
?appendToStr@?$MPyMArray_Type_Base@VMFloatArray@@M@@SAXAEBVMFloatArray@@PEAPEAU_object@@@Z
?appendToStr@?$MPyMArray_Type_Base@VMFloatPointArray@@VMFloatPoint@@@@SAXAEBVMFloatPointArray@@PEAPEAU_object@@@Z
?appendToStr@?$MPyMArray_Type_Base@VMFloatVectorArray@@VMFloatVector@@@@SAXAEBVMFloatVectorArray@@PEAPEAU_object@@@Z
?appendToStr@?$MPyMArray_Type_Base@VMInt64Array@@_J@@SAXAEBVMInt64Array@@PEAPEAU_object@@@Z
?appendToStr@?$MPyMArray_Type_Base@VMIntArray@@H@@SAXAEBVMIntArray@@PEAPEAU_object@@@Z
?appendToStr@?$MPyMArray_Type_Base@VMMatrixArray@@VMMatrix@@@@SAXAEBVMMatrixArray@@PEAPEAU_object@@@Z
?appendToStr@?$MPyMArray_Type_Base@VMObjectArray@@VMObject@@@@SAXAEBVMObjectArray@@PEAPEAU_object@@@Z
?appendToStr@?$MPyMArray_Type_Base@VMPlugArray@@VMPlug@@@@SAXAEBVMPlugArray@@PEAPEAU_object@@@Z
?appendToStr@?$MPyMArray_Type_Base@VMPointArray@@VMPoint@@@@SAXAEBVMPointArray@@PEAPEAU_object@@@Z
?appendToStr@?$MPyMArray_Type_Base@VMTimeArray@@VMTime@@@@SAXAEBVMTimeArray@@PEAPEAU_object@@@Z
?appendToStr@?$MPyMArray_Type_Base@VMUint64Array@@_K@@SAXAEBVMUint64Array@@PEAPEAU_object@@@Z
?appendToStr@?$MPyMArray_Type_Base@VMUintArray@@I@@SAXAEBVMUintArray@@PEAPEAU_object@@@Z
?appendToStr@?$MPyMArray_Type_Base@VMVectorArray@@VMVector@@@@SAXAEBVMVectorArray@@PEAPEAU_object@@@Z
?applyRotateOrientationLocks@MPxTransform@@MEAA?AVMEulerRotation@@AEBV2@0PEAVMStatus@@@Z
?applyRotatePivotLocks@MPxTransform@@MEAA?AVMVector@@AEBVMPoint@@0PEAVMStatus@@@Z
?applyRotatePivotLocksTranslate@MPxTransform@@MEAA?AVMVector@@AEBV2@0PEAVMStatus@@@Z
?applyRotationLimits@MPxTransform@@MEAA?AVMEulerRotation@@AEBV2@AEAVMDataBlock@@PEAVMStatus@@@Z
?applyRotationLocks@MPxTransform@@MEAA?AVMEulerRotation@@AEBV2@0PEAVMStatus@@@Z
?applyScaleLimits@MPxTransform@@MEAA?AVMVector@@AEBV2@AEAVMDataBlock@@PEAVMStatus@@@Z
?applyScaleLocks@MPxTransform@@MEAA?AVMVector@@AEBV2@0PEAVMStatus@@@Z
?applyScaleLocksPivot@MPxTransform@@MEAA?AVMVector@@AEBVMPoint@@0PEAVMStatus@@@Z
?applyScaleLocksPivotTranslate@MPxTransform@@MEAA?AVMVector@@AEBV2@0PEAVMStatus@@@Z
?applyShearLocks@MPxTransform@@MEAA?AVMVector@@AEBV2@0PEAVMStatus@@@Z
?applyTranslationLimits@MPxTransform@@MEAA?AVMVector@@AEBV2@AEAVMDataBlock@@PEAVMStatus@@@Z
?applyTranslationLocks@MPxTransform@@MEAA?AVMVector@@AEBV2@0PEAVMStatus@@@Z
?arc@MFnVolumeLight@@QEBAMPEAVMStatus@@@Z
?area@MFnNurbsCurve@@QEBANNPEAVMStatus@@@Z
?area@MFnNurbsSurface@@QEBANNPEAVMStatus@@@Z
?area@MFnNurbsSurface@@QEBANW4Space@MSpace@@NPEAVMStatus@@@Z
?argList@TapiCast@@SAAEAVTappArgList@@AEAVMArgList@@@Z
?argList@TapiPack@@SA?AVMArgList@@PEBVTappArgList@@I@Z
?argParser@TapiCast@@SA?AVMArgParser@@AEAVTargParser@@@Z
?argUnused@MString@@0V1@B
?argumentMismatchExceptionOccurred@MPyDirector@@QEAA_NPEBD@Z
?array@MFnDoubleArrayData@@QEAA?AVMDoubleArray@@PEAVMStatus@@@Z
?array@MFnFloatArrayData@@QEAA?AVMFloatArray@@PEAVMStatus@@@Z
?array@MFnIntArrayData@@QEAA?AVMIntArray@@PEAVMStatus@@@Z
?array@MFnMatrixArrayData@@QEAA?AVMMatrixArray@@PEAVMStatus@@@Z
?array@MFnPointArrayData@@QEAA?AVMPointArray@@PEAVMStatus@@@Z
?array@MFnStringArrayData@@QEAA?AVMStringArray@@PEAVMStatus@@@Z
?array@MFnUInt64ArrayData@@QEAA?AVMUint64Array@@PEAVMStatus@@@Z
?array@MFnVectorArrayData@@QEAA?AVMVectorArray@@PEAVMStatus@@@Z
?array@MPlug@@QEBA?AV1@PEAVMStatus@@@Z
?as@MAngle@@QEBANW4Unit@1@PEAVMStatus@@@Z
?as@MDistance@@QEBANW4Unit@1@PEAVMStatus@@@Z
?as@MTime@@QEBANW4Unit@1@@Z
?asAddr@MDataHandle@@QEBAAEAPEAXXZ
?asAngMinutes@MAngle@@QEBANXZ
?asAngSeconds@MAngle@@QEBANXZ
?asAngle@MArgList@@QEBA?AVMAngle@@IPEAVMStatus@@@Z
?asAngle@MDataHandle@@QEBA?AVMAngle@@XZ
?asBool@MArgList@@QEBA_NIPEAVMStatus@@@Z
?asBool@MDataHandle@@QEBAAEA_NXZ
?asBool@MPlug@@QEBA_NAEAVMDGContext@@PEAVMStatus@@@Z
?asBool@MScriptUtil@@QEAA_NXZ
?asBoolPtr@MScriptUtil@@QEAAPEA_NXZ
?asBoolean@MPyUtil@@SA_NPEAU_object@@AEA_N_N@Z
?asCentimeters@MDistance@@QEBANXZ
?asChar@MDataHandle@@QEBAAEADXZ
?asChar@MPlug@@QEBADAEAVMDGContext@@PEAVMStatus@@@Z
?asChar@MPyUtil@@SA_NPEAU_object@@AEAD_N@Z
?asChar@MString@@QEBAPEBDAEAH@Z
?asChar@MString@@QEBAPEBDXZ
?asCharPtr@MScriptUtil@@QEAAPEADXZ
?asDegrees@MAngle@@QEBANXZ
?asDistance@MArgList@@QEBA?AVMDistance@@IPEAVMStatus@@@Z
?asDistance@MDataHandle@@QEBA?AVMDistance@@XZ
?asDouble2@MDataHandle@@QEBAAEAY01NXZ
?asDouble2Ptr@MScriptUtil@@QEAAPEAY01NXZ
?asDouble3@MDataHandle@@QEBAAEAY02NXZ
?asDouble3Ptr@MScriptUtil@@QEAAPEAY02NXZ
?asDouble4Ptr@MScriptUtil@@QEAAPEAY03NXZ
?asDouble@MArgList@@QEBANIPEAVMStatus@@@Z
?asDouble@MDataHandle@@QEBAAEANXZ
?asDouble@MPlug@@QEBANAEAVMDGContext@@PEAVMStatus@@@Z
?asDouble@MPyUtil@@SA_NPEAU_object@@AEAN_N@Z
?asDouble@MScriptUtil@@QEAANXZ
?asDouble@MString@@QEBANXZ
?asDoubleArray@MArgList@@QEBA?AVMDoubleArray@@AEAIPEAVMStatus@@@Z
?asDoublePtr@MScriptUtil@@QEAAPEANXZ
?asEulerRotation@MQuaternion@@QEBA?AVMEulerRotation@@XZ
?asFeet@MDistance@@QEBANXZ
?asFloat2@MDataHandle@@QEBAAEAY01MXZ
?asFloat2Ptr@MScriptUtil@@QEAAPEAY01MXZ
?asFloat3@MDataHandle@@QEBAAEAY02MXZ
?asFloat3Ptr@MScriptUtil@@QEAAPEAY02MXZ
?asFloat4Ptr@MScriptUtil@@QEAAPEAY03MXZ
?asFloat@MDataHandle@@QEBAAEAMXZ
?asFloat@MPlug@@QEBAMAEAVMDGContext@@PEAVMStatus@@@Z
?asFloat@MPyUtil@@SA_NPEAU_object@@AEAM_N@Z
?asFloat@MScriptUtil@@QEAAMXZ
?asFloat@MString@@QEBAMXZ
?asFloatArray@MPyUtil@@SA_NPEAU_object@@PEAMI_N@Z
?asFloatMatrix@MDataHandle@@QEBAAEAVMFloatMatrix@@XZ
?asFloatPtr@MScriptUtil@@QEAAPEAMXZ
?asFloatVector@MDataHandle@@QEBAAEAVMFloatVector@@XZ
?asGenericBool@MDataHandle@@QEBA_NXZ
?asGenericChar@MDataHandle@@QEBAEXZ
?asGenericDouble@MDataHandle@@QEBANXZ
?asGenericFloat@MDataHandle@@QEBAMXZ
?asGenericInt64@MDataHandle@@QEBA_JXZ
?asGenericInt@MDataHandle@@QEBAHXZ
?asGenericShort@MDataHandle@@QEBAFXZ
?asInches@MDistance@@QEBANXZ
?asInt2@MDataHandle@@QEBAAEAY01HXZ
?asInt2Ptr@MScriptUtil@@QEAAPEAY01HXZ
?asInt3@MDataHandle@@QEBAAEAY02HXZ
?asInt3Ptr@MScriptUtil@@QEAAPEAY02HXZ
?asInt4Ptr@MScriptUtil@@QEAAPEAY03HXZ
?asInt64@MDataHandle@@QEBAAEA_JXZ
?asInt64@MPlug@@QEBA_JAEAVMDGContext@@PEAVMStatus@@@Z
?asInt@MArgList@@QEBAHIPEAVMStatus@@@Z
?asInt@MDataHandle@@QEBAAEAHXZ
?asInt@MPlug@@QEBAHAEAVMDGContext@@PEAVMStatus@@@Z
?asInt@MScriptUtil@@QEAAHXZ
?asInt@MString@@QEBAHXZ
?asIntArray@MArgList@@QEBA?AVMIntArray@@AEAIPEAVMStatus@@@Z
?asIntArray@MPyUtil@@SA_NPEAU_object@@PEAHI_N@Z
?asIntPtr@MScriptUtil@@QEAAPEAHXZ
?asInteger64@MPyUtil@@SA_NPEAU_object@@AEA_J_N@Z
?asInteger@MPyUtil@@SA_NPEAU_object@@AEAH_N@Z
?asInterpolationMatrix@MPxTransformationMatrix@@UEBA?AVMMatrix@@AEBVMTransformationMatrix@@N_NH@Z
?asKilometers@MDistance@@QEBANXZ
?asLong2@MDataHandle@@QEBAAEAY01HXZ
?asLong3@MDataHandle@@QEBAAEAY02HXZ
?asLong@MDataHandle@@QEBAAEAHXZ
?asMAngle@MPlug@@QEBA?AVMAngle@@AEAVMDGContext@@PEAVMStatus@@@Z
?asMDataHandle@MPlug@@QEBA?AVMDataHandle@@AEAVMDGContext@@PEAVMStatus@@@Z
?asMDistance@MPlug@@QEBA?AVMDistance@@AEAVMDGContext@@PEAVMStatus@@@Z
?asMObject@MPlug@@QEBA?AVMObject@@AEAVMDGContext@@PEAVMStatus@@@Z
?asMTime@MPlug@@QEBA?AVMTime@@AEAVMDGContext@@PEAVMStatus@@@Z
?asMatrix@MArgList@@QEBA?AVMMatrix@@AEAIPEAVMStatus@@@Z
?asMatrix@MDataHandle@@QEBAAEAVMMatrix@@XZ
?asMatrix@MEulerRotation@@QEBA?AVMMatrix@@XZ
?asMatrix@MPxTransformationMatrix@@UEBA?AVMMatrix@@N@Z
?asMatrix@MPxTransformationMatrix@@UEBA?AVMMatrix@@XZ
?asMatrix@MQuaternion@@QEBA?AVMMatrix@@XZ
?asMatrix@MTransformationMatrix@@QEBA?AVMMatrix@@N@Z
?asMatrix@MTransformationMatrix@@QEBA?AVMMatrix@@XZ
?asMatrixInverse@MPxTransformationMatrix@@UEBA?AVMMatrix@@XZ
?asMatrixInverse@MTransformationMatrix@@QEBA?AVMMatrix@@XZ
?asMesh@MDataHandle@@QEBA?AVMObject@@XZ
?asMeshTransformed@MDataHandle@@QEBA?AVMObject@@XZ
?asMeters@MDistance@@QEBANXZ
?asMiles@MDistance@@QEBANXZ
?asMillimeters@MDistance@@QEBANXZ
?asNurbsCurve@MDataHandle@@QEBA?AVMObject@@XZ
?asNurbsCurveTransformed@MDataHandle@@QEBA?AVMObject@@XZ
?asNurbsSurface@MDataHandle@@QEBA?AVMObject@@XZ
?asNurbsSurfaceTransformed@MDataHandle@@QEBA?AVMObject@@XZ
?asPluginData@MDataHandle@@QEBAPEAVMPxData@@XZ
?asPoint@MArgList@@QEBA?AVMPoint@@AEAIIPEAVMStatus@@@Z
?asQuaternion@MEulerRotation@@QEBA?AVMQuaternion@@XZ
?asRadians@MAngle@@QEBANXZ
?asRotateMatrix@MPxTransformationMatrix@@UEBA?AVMMatrix@@XZ
?asRotateMatrix@MTransformationMatrix@@QEBA?AVMMatrix@@XZ
?asRotateMatrixInverse@MPxTransformationMatrix@@UEBA?AVMMatrix@@XZ
?asScaleMatrix@MPxTransformationMatrix@@UEBA?AVMMatrix@@XZ
?asScaleMatrix@MTransformationMatrix@@QEBA?AVMMatrix@@XZ
?asScaleMatrixInverse@MPxTransformationMatrix@@UEBA?AVMMatrix@@XZ
?asShort2@MDataHandle@@QEBAAEAY01FXZ
?asShort2Ptr@MScriptUtil@@QEAAPEAY01FXZ
?asShort3@MDataHandle@@QEBAAEAY02FXZ
?asShort3Ptr@MScriptUtil@@QEAAPEAY02FXZ
?asShort4Ptr@MScriptUtil@@QEAAPEAY03FXZ
?asShort@MDataHandle@@QEBAAEAFXZ
?asShort@MPlug@@QEBAFAEAVMDGContext@@PEAVMStatus@@@Z
?asShort@MScriptUtil@@QEAAFXZ
?asShort@MString@@QEBAFXZ
?asShortPtr@MScriptUtil@@QEAAPEAFXZ
?asString@MArgList@@QEBA?AVMString@@IPEAVMStatus@@@Z
?asString@MDataHandle@@QEBAAEAVMString@@XZ
?asString@MPlug@@QEBA?AVMString@@AEAVMDGContext@@PEAVMStatus@@@Z
?asString@MURI@@QEBA?AVMString@@XZ
?asString@MUuid@@QEBA?AVMString@@XZ
?asStringArray@MArgList@@QEBA?BVMStringArray@@AEAIPEAVMStatus@@@Z
?asSubdSurface@MDataHandle@@QEBA?AVMObject@@XZ
?asSubdSurfaceTransformed@MDataHandle@@QEBA?AVMObject@@XZ
?asTime@MArgList@@QEBA?AVMTime@@IPEAVMStatus@@@Z
?asTime@MDataHandle@@QEBA?AVMTime@@XZ
?asTransformationMatrix@MPxTransformationMatrix@@UEBA?AVMTransformationMatrix@@XZ
?asUChar@MDataHandle@@QEBAAEAEXZ
?asUInteger64@MPyUtil@@SA_NPEAU_object@@AEA_K_N@Z
?asUInteger@MPyUtil@@SA_NPEAU_object@@AEAI_N@Z
?asUTF8@MString@@QEBAPEBDAEAH@Z
?asUTF8@MString@@QEBAPEBDXZ
?asUcharPtr@MScriptUtil@@QEAAPEAEXZ
?asUint2Ptr@MScriptUtil@@QEAAPEAY01IXZ
?asUint3Ptr@MScriptUtil@@QEAAPEAY02IXZ
?asUint4Ptr@MScriptUtil@@QEAAPEAY03IXZ
?asUint@MScriptUtil@@QEAAIXZ
?asUintPtr@MScriptUtil@@QEAAPEAIXZ
?asUnits@MAngle@@QEBANW4Unit@1@PEAVMStatus@@@Z
?asUnits@MDistance@@QEBANW4Unit@1@PEAVMStatus@@@Z
?asUnits@MTime@@QEBANW4Unit@1@@Z
?asUnsigned@MString@@QEBAIXZ
?asUshortPtr@MScriptUtil@@QEAAPEAGXZ
?asVector@MArgList@@QEBA?AVMVector@@AEAIIPEAVMStatus@@@Z
?asVector@MDataHandle@@QEBAAEAVMVector@@XZ
?asVector@MEulerRotation@@QEBA?AVMVector@@XZ
?asVoidPtr@MPyUtil@@SA_NPEAU_object@@AEAPEAX_N2@Z
?asWChar@MString@@QEBAPEB_WAEAH@Z
?asWChar@MString@@QEBAPEB_WXZ
?asYards@MDistance@@QEBANXZ
?aspectRatio@MFnCamera@@QEBANPEAVMStatus@@@Z
?assembly@Tplugin@@QEBAPEAXXZ
?assignColor@MFnMesh@@QEAA?AVMStatus@@HHHPEBVMString@@@Z
?assignColors@MFnMesh@@QEAA?AVMStatus@@AEBVMIntArray@@PEBVMString@@@Z
?assignUV@MFnMesh@@QEAA?AVMStatus@@HHHPEBVMString@@@Z
?assignUV@MFnNurbsSurface@@QEAA?AVMStatus@@HHH@Z
?assignUVs@MFnMesh@@QEAA?AVMStatus@@AEBVMIntArray@@0PEBVMString@@@Z
?assignUVs@MFnNurbsSurface@@QEAA?AVMStatus@@AEBVMIntArray@@0@Z
?associatedNamespace@MFnReference@@QEBA?AVMString@@_NPEAVMStatus@@@Z
?atNodeLevel@MItDependencyGraph@@QEAA_NPEAVMStatus@@@Z
?attach@MAutoCLEvent@@QEAAXPEAU_cl_event@@@Z
?attach@MAutoCLKernel@@QEAAXPEAU_cl_kernel@@@Z
?attach@MAutoCLMem@@QEAAXPEAU_cl_mem@@@Z
?attrExistsAtNode@MDGModifier@@IEAA_NPEAVTdependNode@@PEAVTattribute@@@Z
?attrPattern@MAttributePattern@@SAPEAV1@I@Z
?attrPatternCount@MAttributePattern@@SAIXZ
?attrType@MFnTypedAttribute@@QEBA?AW4Type@MFnData@@PEAVMStatus@@@Z
?attribute@MFnDependencyNode@@QEBA?AVMObject@@AEBVMString@@PEAVMStatus@@@Z
?attribute@MFnDependencyNode@@QEBA?AVMObject@@IPEAVMStatus@@@Z
?attribute@MNodeClass@@QEBA?AVMObject@@AEBVMString@@PEAVMStatus@@@Z
?attribute@MNodeClass@@QEBA?AVMObject@@IPEAVMStatus@@@Z
?attribute@MPlug@@QEBA?AVMObject@@PEAVMStatus@@@Z
?attribute@TapiCast@@SAPEAVTattribute@@AEBVMObject@@@Z
?attributeAffects@MPxNode@@SA?AVMStatus@@AEBVMObject@@0@Z
?attributeClass@MFnDependencyNode@@QEBA?AW4MAttrClass@1@AEBVMObject@@PEAVMStatus@@@Z
?attributeCount@MFnDependencyNode@@QEBAIPEAVMStatus@@@Z
?attributeCount@MNodeClass@@QEBAIPEAVMStatus@@@Z
?attributeIndex@TapiCast@@SAAEAVTattributeIndex@@AEBVMAttributeIndex@@@Z
?attributeName@MAddRemoveAttrEdit@@QEBA?AVMString@@PEAVMStatus@@@Z
?attributePattern@TapiCast@@SA?AVMAttributePattern@@AEAVTattributePattern@@@Z
?attributePattern@TapiCast@@SAPEAVTattributePattern@@AEAVMAttributePattern@@@Z
?attributePatternArray@TapiCast@@SA?AVMAttributePatternArray@@AEAVTattributePatternArray@@@Z
?attributePatternArray@TapiCast@@SA?BVMAttributePatternArray@@AEBVTattributePatternArray@@@Z
?attributePatternArray@TapiCast@@SAAEAVTattributePatternArray@@AEAVMAttributePatternArray@@@Z
?attributePatternArray@TapiCast@@SAAEBVTattributePatternArray@@AEBVMAttributePatternArray@@@Z
?attributePatternFactories@Tplugin@@QEBAAEBVTpluginAttributePatternFactoryPtrs@@XZ
?attributePatternFactoriesByName@TpluginAttributePatternFactoryDBase@@0PEAVTpluginAttributePatternFactoryDBaseNameTable@@EA
?attributeSpec@TapiCast@@SA?AVMAttributeSpec@@AEAVTattributeSpec@@@Z
?attributeSpec@TapiCast@@SAAEAVTattributeSpec@@AEBVMAttributeSpec@@@Z
?attributeSpecArray@TapiCast@@SAAEAVTattributeSpecArray@@AEBVMAttributeSpecArray@@@Z
?attributes@Tplugin@@QEBAAEBVTpluginAttributePtrs@@XZ
?autoCLEvent@TapiCast@@SA?AVMAutoCLEvent@@AEBV?$AutoCLObject@PEAU_cl_event@@@@@Z
?autoCLEvent@TapiCast@@SAPEAV?$AutoCLObject@PEAU_cl_event@@@@AEBVMAutoCLEvent@@@Z
?autoCLKernel@TapiCast@@SA?AVMAutoCLKernel@@AEBV?$AutoCLObject@PEAU_cl_kernel@@@@@Z
?autoCLKernel@TapiCast@@SAPEAV?$AutoCLObject@PEAU_cl_kernel@@@@AEBVMAutoCLKernel@@@Z
?autoCLMem@TapiCast@@SA?AVMAutoCLMem@@AEBV?$AutoCLObject@PEAU_cl_mem@@@@@Z
?autoCLMem@TapiCast@@SAPEAV?$AutoCLObject@PEAU_cl_mem@@@@AEBVMAutoCLMem@@@Z
?autoUniformGridParams@MFnMesh@@SA?AVMMeshIsectAccelParams@@XZ
?barnDoorAngle@MFnSpotLight@@QEBANW4MBarnDoor@1@PEAVMStatus@@@Z
?barnDoors@MFnSpotLight@@QEBA_NPEAVMStatus@@@Z
?base@MFnSubdNames@@SAH_K@Z
?baseDagObjectUICreator@THsurfaceShape@@SAP6APEAVTbaseDagObjectUI@@AEAVTdagObject@@@ZXZ
?baseFaceId@MFnSubdNames@@SA_K_K@Z
?baseFaceIdFromIndex@MFnSubdNames@@SA_KI@Z
?baseFaceIdFromLong@MFnSubdNames@@SA_KJ@Z
?baseFaceIndex@MFnSubdNames@@SAJ_K@Z
?baseFaceIndexFromId@MFnSubdNames@@SAI_K@Z
?baseObjectName@THsurfaceShape@@UEBA?AVTstring@@XZ
?baseTransformationMatrixId@MPxTransformationMatrix@@2VMTypeId@@A
?beforeExportFilename@MFileIO@@SA?AVMString@@PEAVMStatus@@@Z
?beforeExportUserFileTranslator@MFileIO@@SAPEAVMPxFileTranslator@@PEAVMStatus@@@Z
?beforeImportFilename@MFileIO@@SA?AVMString@@PEAVMStatus@@@Z
?beforeImportUserFileTranslator@MFileIO@@SAPEAVMPxFileTranslator@@PEAVMStatus@@@Z
?beforeOpenFilename@MFileIO@@SA?AVMString@@PEAVMStatus@@@Z
?beforeOpenUserFileTranslator@MFileIO@@SAPEAVMPxFileTranslator@@PEAVMStatus@@@Z
?beforeReferenceFilename@MFileIO@@SA?AVMString@@PEAVMStatus@@@Z
?beforeReferenceUserFileTranslator@MFileIO@@SAPEAVMPxFileTranslator@@PEAVMStatus@@@Z
?beforeSave@MPxAssembly@@UEAAXXZ
?beforeSaveFilename@MFileIO@@SA?AVMString@@PEAVMStatus@@@Z
?beforeSaveUserFileTranslator@MFileIO@@SAPEAVMPxFileTranslator@@PEAVMStatus@@@Z
?beginComputation@MComputation@@QEAAX_N00@Z
?beginGet@MIffFile@@QEAA?AVMStatus@@AEAVMIffTag@@PEAI@Z
?beginReadChunk@MPxCacheFormat@@UEAA?AVMStatus@@XZ
?beginReadGroup@MIffFile@@QEAA?AVMStatus@@AEAVMIffTag@@0@Z
?beginTimer@MTimer@@QEAAXXZ
?beginWriteChunk@MPxCacheFormat@@UEAAXXZ
?binaryBlindDataComponentId@MFnMesh@@QEBA?AVMString@@HW4Type@MFn@@HV2@PEAVMStatus@@@Z
?booleanOp@MFnMesh@@QEAA?AVMStatus@@W4BoolOperation@1@AEAV1@1@Z
?booleanOps@MFnMesh@@QEAA?AVMStatus@@W4BoolOperation@1@AEBVMObjectArray@@_N@Z
?bound@MEulerRotation@@QEBA?AV1@XZ
?bound@MEulerRotation@@SA?AV1@AEBV1@@Z
?boundIt@MEulerRotation@@QEAAAEAV1@AEBV1@@Z
?boundIt@MEulerRotation@@QEAAAEAV1@XZ
?boundaryRule@MMeshSmoothOptions@@QEBA?AW4BoundaryRule@1@PEAVMStatus@@@Z
?boundaryType@MFnNurbsSurface@@QEAA?AW4BoundaryType@1@IIPEAVMStatus@@@Z
?boundingBox@MFnDagNode@@QEBA?AVMBoundingBox@@PEAVMStatus@@@Z
?boundingBox@MPxSurfaceShape@@UEBA?AVMBoundingBox@@XZ
?boundingBox@MPxTransform@@UEBA?AVMBoundingBox@@XZ
?boundingBox@THsurfaceShape@@UEBA?AVTboundingBox@@XZ
?boundingBox@TapiCast@@SAAEAVMBoundingBox@@AEAVTboundingBox@@@Z
?boundingBox@TapiCast@@SAAEAVTboundingBox@@AEAVMBoundingBox@@@Z
?boundingBox@TapiCast@@SAAEBVMBoundingBox@@AEBVTboundingBox@@@Z
?boundingBox@TapiCast@@SAAEBVTboundingBox@@AEBVMBoundingBox@@@Z
?boundingBoxCenterX@MPxSurfaceShape@@2VMObject@@A
?boundingBoxCenterX@MPxTransform@@2VMObject@@A
?boundingBoxCenterY@MPxSurfaceShape@@2VMObject@@A
?boundingBoxCenterY@MPxTransform@@2VMObject@@A
?boundingBoxCenterZ@MPxSurfaceShape@@2VMObject@@A
?boundingBoxCenterZ@MPxTransform@@2VMObject@@A
?builder@MArrayDataHandle@@QEAA?AVMArrayDataBuilder@@PEAVMStatus@@@Z
?cachedChildCount@THdependNode@@UEBAIAEBVTplug@@AEBVTdgContext@@@Z
?cachedChildCount@THsurfaceShape@@UEBAIAEBVTplug@@AEBVTdgContext@@@Z
?cachedIntersectionAcceleratorInfo@MFnMesh@@QEAA?AVMString@@PEAVMStatus@@@Z
?cachedShapeAttr@MPxSurfaceShape@@UEBA?AVMObject@@XZ
?caching@MPxNode@@2VMObject@@A
?callMethod@MPyDirector@@QEBAPEAU_object@@PEBDPEAU2@11111@Z
?callMethod_noArgs_boolResult@MPyDirector@@QEBA_NPEBD@Z
?callMethod_noArgs_doubleResult@MPyDirector@@QEBANPEBD@Z
?callMethod_noArgs_intResult@MPyDirector@@QEBAHPEBD@Z
?callMethod_noArgs_noResult@MPyDirector@@QEBA?AVMStatus@@PEBD@Z
?callMethod_noArgs_stringResult@MPyDirector@@QEBA?AVMString@@PEBD@Z
?callbackInScript@THclient@@IEBA_NXZ
?callbackInScriptNewAPI@THclient@@IEBA_NXZ
?camera@MPxCameraSet@@2VMObject@@A
?cameraLayer@MPxCameraSet@@2VMObject@@A
?cameraScale@MFnCamera@@QEBANPEAVMStatus@@@Z
?canActivate@MFnAssembly@@QEBA_NPEAVMStatus@@@Z
?canApplyEdits@MPxRepresentation@@UEBA_NXZ
?canBeDeleted@MPxObjectSet@@UEAA_N_N@Z
?canBeOpened@MPxFileTranslator@@UEBA_NXZ
?canBeWritten@MFnDependencyNode@@QEBA_NPEAVMStatus@@@Z
?canEdit@MSyntax@@QEBA_NXZ
?canMakeLive@MPxSurfaceShape@@UEBA_NXZ
?canMakeLive@THsurfaceShape@@UEBA_NXZ
?canQuery@MSyntax@@QEBA_NXZ
?canRepApplyEdits@MFnAssembly@@QEBA_NAEBVMString@@PEAVMStatus@@@Z
?canRepApplyEdits@MPxAssembly@@UEBA_NAEBVMString@@@Z
?cartesianize@MFloatPoint@@QEAAAEAV1@XZ
?cartesianize@MPoint@@QEAAAEAV1@XZ
?cast@THclient@@UEAAPEAXPEAVTmetaclass@@@Z
?cast@THdependNode@@UEAAPEAXPEAVTmetaclass@@@Z
?cast@THrenderPassImpl@@UEAAPEAXPEAVTmetaclass@@@Z
?cast@THsurfaceShape@@UEAAPEAXPEAVTmetaclass@@@Z
?cast@TpluginNode@@UEAAPEAXPEAVTmetaclass@@@Z
?castSoftShadows@MFnAmbientLight@@QEBA_NPEAVMStatus@@@Z
?castSoftShadows@MFnNonExtendedLight@@QEBA_NPEAVMStatus@@@Z
?categoryRecording@MProfiler@@SA_NH@Z
?categoryRecording@MProfiler@@SA_NPEBD@Z
?catenate@TapiMAttributePatternArray@@QEAAXAEBV1@@Z
?catenate@TapiMDagPathArray@@QEAAXAEBV1@@Z
?catenate@TapiMObjectArray@@QEAAXAEBV1@@Z
?catenate@TapiMPlugArray@@QEAAXAEBV1@@Z
?catenate@TapiMTimeArray@@QEAAXAEBV1@@Z
?center@MBoundingBox@@QEBA?AVMPoint@@XZ
?center@MItMeshEdge@@QEAA?AVMPoint@@W4Space@MSpace@@PEAVMStatus@@@Z
?center@MItMeshPolygon@@QEAA?AVMPoint@@W4Space@MSpace@@PEAVMStatus@@@Z
?center@MPxImagePlane@@2VMObject@@A
?center@MPxSurfaceShape@@2VMObject@@A
?center@MPxTransform@@2VMObject@@A
?centerOfIllumination@MFnLight@@QEBANPEAVMStatus@@@Z
?centerOfInterest@MFnCamera@@QEBANPEAVMStatus@@@Z
?centerOfInterestPoint@MFnCamera@@QEBA?AVMPoint@@W4Space@MSpace@@PEAVMStatus@@@Z
?centerX@MPxImagePlane@@2VMObject@@A
?centerY@MPxImagePlane@@2VMObject@@A
?centerZ@MPxImagePlane@@2VMObject@@A
?changeName@TpluginDBase@@SA_NPEAVTplugin@@AEBVTstring@@_N@Z
?changeObjectGroupId@MFnGeometryData@@QEAA?AVMStatus@@II@Z
?channels@MImageFileInfo@@QEAAXI@Z
?channels@MImageFileInfo@@QEBAIXZ
?checkAndReturnNone@MPyUtil@@SAPEAU_object@@AEBVMStatus@@@Z
?checkAndReturnObj@MPyUtil@@SAPEAU_object@@PEAU2@AEBVMStatus@@@Z
?checkAndReturnSelf@MPyUtil@@SAPEAU_object@@PEAXAEBVMStatus@@@Z
?checkAndReturnTuple@MPyUtil@@SAPEAU_object@@PEAU2@0AEBVMStatus@@@Z
?checkAndSetRotateOrientation@MPxTransform@@MEAA?AVMStatus@@AEAVMDataBlock@@AEBVMPlug@@AEBVMEulerRotation@@W4Space@MSpace@@_N@Z
?checkAndSetRotatePivot@MPxTransform@@MEAA?AVMStatus@@AEAVMDataBlock@@AEBVMPlug@@AEBVMPoint@@W4Space@MSpace@@_N@Z
?checkAndSetRotatePivotTranslation@MPxTransform@@MEAA?AVMStatus@@AEAVMDataBlock@@AEBVMPlug@@AEBVMVector@@W4Space@MSpace@@@Z
?checkAndSetRotation@MPxTransform@@MEAA?AVMStatus@@AEAVMDataBlock@@AEBVMPlug@@AEBVMEulerRotation@@W4Space@MSpace@@@Z
?checkAndSetScale@MPxTransform@@MEAA?AVMStatus@@AEAVMDataBlock@@AEBVMPlug@@AEBVMVector@@W4Space@MSpace@@@Z
?checkAndSetScalePivot@MPxTransform@@MEAA?AVMStatus@@AEAVMDataBlock@@AEBVMPlug@@AEBVMPoint@@W4Space@MSpace@@_N@Z
?checkAndSetScalePivotTranslation@MPxTransform@@MEAA?AVMStatus@@AEAVMDataBlock@@AEBVMPlug@@AEBVMVector@@W4Space@MSpace@@@Z
?checkAndSetShear@MPxTransform@@MEAA?AVMStatus@@AEAVMDataBlock@@AEBVMPlug@@AEBVMVector@@W4Space@MSpace@@@Z
?checkAndSetTranslation@MPxTransform@@MEAA?AVMStatus@@AEAVMDataBlock@@AEBVMPlug@@AEBVMVector@@W4Space@MSpace@@@Z
?checkArrayExist@MFnArrayAttrsData@@QEAA_NVMString@@AEAW4Type@1@PEAVMStatus@@@Z
?checkCLErrorStatus@MOpenCLInfo@@SAXH@Z
?checkCompoundAttrs@MDGModifier@@IEAA_NAEBVTattributeList@@AEBVTstring@@1@Z
?checkIsSelf@MPyDirector@@QEBA_NPEAU_object@@@Z
?checkMessageAllowed@THclient@@IEAA_NXZ
?checkStatus@MPyUtil@@SA_NAEBVMStatus@@@Z
?child@MDagPath@@QEBA?AVMObject@@IPEAVMStatus@@@Z
?child@MDataHandle@@QEAA?AV1@AEBVMObject@@@Z
?child@MDataHandle@@QEAA?AV1@AEBVMPlug@@@Z
?child@MFnCompoundAttribute@@QEBA?AVMObject@@IPEAVMStatus@@@Z
?child@MFnDagNode@@QEBA?AVMObject@@IPEAVMStatus@@@Z
?child@MFnLightDataAttribute@@QEAA?AVMObject@@IPEAVMStatus@@@Z
?child@MFnNumericAttribute@@QEBA?AVMObject@@IPEAVMStatus@@@Z
?child@MPlug@@QEBA?AV1@AEAVMObject@@PEAVMStatus@@@Z
?child@MPlug@@QEBA?AV1@IPEAVMStatus@@@Z
?childChanged@MPxSurfaceShape@@QEAAXW4MChildChanged@1@@Z
?childCount@MDagPath@@QEBAIPEAVMStatus@@@Z
?childCount@MFnDagNode@@QEBAIPEAVMStatus@@@Z
?childParentCallback@THclient@@IEAAXPEAVTchildParentMsg@@AEAVMDagPath@@1@Z
?classAttributes@THsurfaceShape@@UEAAAEAVTattributeArray@@XZ
?className@MAddRemoveAttrEdit@@SAPEBDXZ
?className@MAngle@@SAPEBDXZ
?className@MArgDatabase@@SAPEBDXZ
?className@MArgList@@SAPEBDXZ
?className@MArgParser@@SAPEBDXZ
?className@MArrayDataBuilder@@SAPEBDXZ
?className@MArrayDataHandle@@SAPEBDXZ
?className@MAttributeIndex@@SAPEBDXZ
?className@MAttributePattern@@SAPEBDXZ
?className@MAttributePatternArray@@SAPEBDXZ
?className@MAttributeSpec@@SAPEBDXZ
?className@MAttributeSpecArray@@SAPEBDXZ
?className@MCacheFormatDescription@@SAPEBDXZ
?className@MCallbackIdArray@@SAPEBDXZ
?className@MCameraSetMessage@@SAPEBDXZ
?className@MColorArray@@SAPEBDXZ
?className@MCommandMessage@@SAPEBDXZ
?className@MCommandResult@@SAPEBDXZ
?className@MCommonSystemUtils@@SAPEBDXZ
?className@MComputation@@SAPEBDXZ
?className@MConditionMessage@@SAPEBDXZ
?className@MConnectDisconnectAttrEdit@@SAPEBDXZ
?className@MContainerMessage@@SAPEBDXZ
?className@MCurveAttribute@@SAPEBDXZ
?className@MDGContext@@SAPEBDXZ
?className@MDGMessage@@CAPEBDXZ
?className@MDGModifier@@SAPEBDXZ
?className@MDagMessage@@SAPEBDXZ
?className@MDagModifier@@SAPEBDXZ
?className@MDagPath@@SAPEBDXZ
?className@MDagPathArray@@SAPEBDXZ
?className@MDataBlock@@SAPEBDXZ
?className@MDataHandle@@SAPEBDXZ
?className@MDistance@@SAPEBDXZ
?className@MDoubleArray@@SAPEBDXZ
?className@MEdit@@SAPEBDXZ
?className@MEvaluationManager@@SAPEBDXZ
?className@MEvaluationNode@@SAPEBDXZ
?className@MEvaluationNodeIterator@@SAPEBDXZ
?className@MEventMessage@@SAPEBDXZ
?className@MFcurveEdit@@SAPEBDXZ
?className@MFileIO@@SAPEBDXZ
?className@MFloatArray@@SAPEBDXZ
?className@MFloatMatrix@@SAPEBDXZ
?className@MFloatPoint@@SAPEBDXZ
?className@MFloatPointArray@@SAPEBDXZ
?className@MFloatVectorArray@@SAPEBDXZ
?className@MFnAmbientLight@@SAPEBDXZ
?className@MFnAnisotropyShader@@SAPEBDXZ
?className@MFnAreaLight@@SAPEBDXZ
?className@MFnArrayAttrsData@@SAPEBDXZ
?className@MFnAssembly@@SAPEBDXZ
?className@MFnAttribute@@SAPEBDXZ
?className@MFnBase@@SAPEBDXZ
?className@MFnBlinnShader@@SAPEBDXZ
?className@MFnCamera@@SAPEBDXZ
?className@MFnCameraSet@@SAPEBDXZ
?className@MFnComponent@@SAPEBDXZ
?className@MFnComponentListData@@SAPEBDXZ
?className@MFnCompoundAttribute@@SAPEBDXZ
?className@MFnContainerNode@@SAPEBDXZ
?className@MFnDagNode@@SAPEBDXZ
?className@MFnData@@SAPEBDXZ
?className@MFnDependencyNode@@SAPEBDXZ
?className@MFnDirectionalLight@@SAPEBDXZ
?className@MFnDoubleArrayData@@SAPEBDXZ
?className@MFnDoubleIndexedComponent@@SAPEBDXZ
?className@MFnEnumAttribute@@SAPEBDXZ
?className@MFnExpression@@SAPEBDXZ
?className@MFnFloatArrayData@@SAPEBDXZ
?className@MFnGenericAttribute@@SAPEBDXZ
?className@MFnGeometryData@@SAPEBDXZ
?className@MFnIntArrayData@@SAPEBDXZ
?className@MFnLambertShader@@SAPEBDXZ
?className@MFnLatticeData@@SAPEBDXZ
?className@MFnLayeredShader@@SAPEBDXZ
?className@MFnLight@@SAPEBDXZ
?className@MFnLightDataAttribute@@SAPEBDXZ
?className@MFnMatrixArrayData@@SAPEBDXZ
?className@MFnMatrixAttribute@@SAPEBDXZ
?className@MFnMatrixData@@SAPEBDXZ
?className@MFnMesh@@SAPEBDXZ
?className@MFnMeshData@@SAPEBDXZ
?className@MFnMessageAttribute@@SAPEBDXZ
?className@MFnNonAmbientLight@@SAPEBDXZ
?className@MFnNonExtendedLight@@SAPEBDXZ
?className@MFnNumericAttribute@@SAPEBDXZ
?className@MFnNumericData@@SAPEBDXZ
?className@MFnNurbsCurve@@SAPEBDXZ
?className@MFnNurbsCurveData@@SAPEBDXZ
?className@MFnNurbsSurface@@SAPEBDXZ
?className@MFnNurbsSurfaceData@@SAPEBDXZ
?className@MFnPartition@@SAPEBDXZ
?className@MFnPhongEShader@@SAPEBDXZ
?className@MFnPhongShader@@SAPEBDXZ
?className@MFnPlugin@@SAPEBDXZ
?className@MFnPluginData@@SAPEBDXZ
?className@MFnPointArrayData@@SAPEBDXZ
?className@MFnPointLight@@SAPEBDXZ
?className@MFnReference@@SAPEBDXZ
?className@MFnReflectShader@@SAPEBDXZ
?className@MFnScPlugin@@SAPEBDXZ
?className@MFnSet@@SAPEBDXZ
?className@MFnSingleIndexedComponent@@SAPEBDXZ
?className@MFnSphereData@@SAPEBDXZ
?className@MFnSpotLight@@SAPEBDXZ
?className@MFnStringArrayData@@SAPEBDXZ
?className@MFnStringData@@SAPEBDXZ
?className@MFnSubd@@SAPEBDXZ
?className@MFnSubdData@@SAPEBDXZ
?className@MFnSubdNames@@SAPEBDXZ
?className@MFnTransform@@SAPEBDXZ
?className@MFnTripleIndexedComponent@@SAPEBDXZ
?className@MFnTypedAttribute@@SAPEBDXZ
?className@MFnUInt64ArrayData@@SAPEBDXZ
?className@MFnUint64SingleIndexedComponent@@SAPEBDXZ
?className@MFnUnitAttribute@@SAPEBDXZ
?className@MFnVectorArrayData@@SAPEBDXZ
?className@MFnVolumeLight@@SAPEBDXZ
?className@MGlobal@@SAPEBDXZ
?className@MIffFile@@SAPEBDXZ
?className@MImage@@SAPEBDXZ
?className@MInt64Array@@SAPEBDXZ
?className@MIntArray@@SAPEBDXZ
?className@MItCurveCV@@SAPEBDXZ
?className@MItDag@@SAPEBDXZ
?className@MItDependencyGraph@@SAPEBDXZ
?className@MItDependencyNodes@@SAPEBDXZ
?className@MItEdits@@SAPEBDXZ
?className@MItGeometry@@SAPEBDXZ
?className@MItInstancer@@SAPEBDXZ
?className@MItMeshEdge@@SAPEBDXZ
?className@MItMeshFaceVertex@@SAPEBDXZ
?className@MItMeshPolygon@@SAPEBDXZ
?className@MItMeshVertex@@SAPEBDXZ
?className@MItSelectionList@@SAPEBDXZ
?className@MItSubdEdge@@SAPEBDXZ
?className@MItSubdFace@@SAPEBDXZ
?className@MItSubdVertex@@SAPEBDXZ
?className@MItSurfaceCV@@SAPEBDXZ
?className@MLockMessage@@SAPEBDXZ
?className@MMatrix@@SAPEBDXZ
?className@MMatrixArray@@SAPEBDXZ
?className@MMeshIntersector@@SAPEBDXZ
?className@MMeshSmoothOptions@@SAPEBDXZ
?className@MMessage@@SAPEBDXZ
?className@MModelMessage@@SAPEBDXZ
?className@MNamespace@@SAPEBDXZ
?className@MNodeClass@@SAPEBDXZ
?className@MNodeMessage@@SAPEBDXZ
?className@MNurbsIntersector@@SAPEBDXZ
?className@MObjectArray@@SAPEBDXZ
?className@MObjectSetMessage@@SAPEBDXZ
?className@MParentingEdit@@SAPEBDXZ
?className@MPlane@@SAPEBDXZ
?className@MPlug@@SAPEBDXZ
?className@MPlugArray@@SAPEBDXZ
?className@MPoint@@SAPEBDXZ
?className@MPointArray@@SAPEBDXZ
?className@MPolyMessage@@SAPEBDXZ
?className@MProfiler@@SAPEBDXZ
?className@MProfilingScope@@SAPEBDXZ
?className@MPxAssembly@@SAPEBDXZ
?className@MPxAttributePatternFactory@@SAPEBDXZ
?className@MPxCacheFormat@@SAPEBDXZ
?className@MPxCameraSet@@SAPEBDXZ
?className@MPxCommand@@SAPEBDXZ
?className@MPxFileResolver@@SAPEBDXZ
?className@MPxGeometryIterator@@SAPEBDXZ
?className@MPxImagePlane@@SAPEBDXZ
?className@MPxNode@@SAPEBDXZ
?className@MPxObjectSet@@SAPEBDXZ
?className@MPxSurfaceShape@@SAPEBDXZ
?className@MPxTransform@@SAPEBDXZ
?className@MPxTransformationMatrix@@KAPEBDXZ
?className@MRampAttribute@@SAPEBDXZ
?className@MRenderPassDef@@SAPEBDXZ
?className@MRenderPassRegistry@@SAPEBDXZ
?className@MRichSelection@@SAPEBDXZ
?className@MSceneMessage@@SAPEBDXZ
?className@MSelectionList@@SAPEBDXZ
?className@MSetAttrEdit@@SAPEBDXZ
?className@MStringArray@@SAPEBDXZ
?className@MSyntax@@SAPEBDXZ
?className@MTesselationParams@@SAPEBDXZ
?className@MThreadAsync@@SAPEBDXZ
?className@MThreadPool@@SAPEBDXZ
?className@MTime@@SAPEBDXZ
?className@MTimeArray@@SAPEBDXZ
?className@MTimerMessage@@SAPEBDXZ
?className@MTransformationMatrix@@SAPEBDXZ
?className@MTrimBoundaryArray@@SAPEBDXZ
?className@MTypeId@@SAPEBDXZ
?className@MURI@@SAPEBDXZ
?className@MUint64Array@@SAPEBDXZ
?className@MUintArray@@SAPEBDXZ
?className@MUserData@@SAPEBDXZ
?className@MUserEventMessage@@SAPEBDXZ
?className@MUuid@@SAPEBDXZ
?className@MVectorArray@@SAPEBDXZ
?className@MWeight@@SAPEBDXZ
?className@THapiNodeFlags@@SAPEBDXZ
?className@THdependNode@@SAPEBDXZ
?className@THsurfaceShape@@SAPEBDXZ
?className@TpluginMaya@@MEBAPEBDXZ
?classification@MFnDependencyNode@@SA?AVMString@@AEBV2@@Z
?classification@MNodeClass@@QEBA?AVMString@@XZ
?cleanReference@MFileIO@@SA?AVMStatus@@AEBVMString@@PEBDPEAV2@@Z
?cleanup@MLibrary@@SAXH_N@Z
?cleanupEdgeSmoothing@MFnMesh@@QEAA?AVMStatus@@XZ
?cleanupSmoothing@MItMeshEdge@@QEAA?AVMStatus@@XZ
?clear@?$MPyMArray_Type_Base@VMAttributeSpecArray@@VMAttributeSpec@@@@SAPEAU_object@@PEAV?$MPyObject@VMAttributeSpecArray@@@@@Z
?clear@?$MPyMArray_Type_Base@VMCallbackIdArray@@_K@@SAPEAU_object@@PEAV?$MPyObject@VMCallbackIdArray@@@@@Z
?clear@?$MPyMArray_Type_Base@VMColorArray@@VMColor@@@@SAPEAU_object@@PEAV?$MPyObject@VMColorArray@@@@@Z
?clear@?$MPyMArray_Type_Base@VMDagPathArray@@VMDagPath@@@@SAPEAU_object@@PEAV?$MPyObject@VMDagPathArray@@@@@Z
?clear@?$MPyMArray_Type_Base@VMDoubleArray@@N@@SAPEAU_object@@PEAV?$MPyObject@VMDoubleArray@@@@@Z
?clear@?$MPyMArray_Type_Base@VMFloatArray@@M@@SAPEAU_object@@PEAV?$MPyObject@VMFloatArray@@@@@Z
?clear@?$MPyMArray_Type_Base@VMFloatPointArray@@VMFloatPoint@@@@SAPEAU_object@@PEAV?$MPyObject@VMFloatPointArray@@@@@Z
?clear@?$MPyMArray_Type_Base@VMFloatVectorArray@@VMFloatVector@@@@SAPEAU_object@@PEAV?$MPyObject@VMFloatVectorArray@@@@@Z
?clear@?$MPyMArray_Type_Base@VMInt64Array@@_J@@SAPEAU_object@@PEAV?$MPyObject@VMInt64Array@@@@@Z
?clear@?$MPyMArray_Type_Base@VMIntArray@@H@@SAPEAU_object@@PEAV?$MPyObject@VMIntArray@@@@@Z
?clear@?$MPyMArray_Type_Base@VMMatrixArray@@VMMatrix@@@@SAPEAU_object@@PEAV?$MPyObject@VMMatrixArray@@@@@Z
?clear@?$MPyMArray_Type_Base@VMObjectArray@@VMObject@@@@SAPEAU_object@@PEAV?$MPyObject@VMObjectArray@@@@@Z
?clear@?$MPyMArray_Type_Base@VMPlugArray@@VMPlug@@@@SAPEAU_object@@PEAV?$MPyObject@VMPlugArray@@@@@Z
?clear@?$MPyMArray_Type_Base@VMPointArray@@VMPoint@@@@SAPEAU_object@@PEAV?$MPyObject@VMPointArray@@@@@Z
?clear@?$MPyMArray_Type_Base@VMTimeArray@@VMTime@@@@SAPEAU_object@@PEAV?$MPyObject@VMTimeArray@@@@@Z
?clear@?$MPyMArray_Type_Base@VMUint64Array@@_K@@SAPEAU_object@@PEAV?$MPyObject@VMUint64Array@@@@@Z
?clear@?$MPyMArray_Type_Base@VMUintArray@@I@@SAPEAU_object@@PEAV?$MPyObject@VMUintArray@@@@@Z
?clear@?$MPyMArray_Type_Base@VMVectorArray@@VMVector@@@@SAPEAU_object@@PEAV?$MPyObject@VMVectorArray@@@@@Z
?clear@MAttributePatternArray@@QEAA?AVMStatus@@XZ
?clear@MAttributeSpecArray@@QEAA?AVMStatus@@XZ
?clear@MBoundingBox@@QEAAXXZ
?clear@MCallbackIdArray@@QEAA?AVMStatus@@XZ
?clear@MColorArray@@QEAA?AVMStatus@@XZ
?clear@MDagPathArray@@QEAA?AVMStatus@@XZ
?clear@MDoubleArray@@QEAA?AVMStatus@@XZ
?clear@MFloatArray@@QEAA?AVMStatus@@XZ
?clear@MFloatPointArray@@QEAA?AVMStatus@@XZ
?clear@MFloatVectorArray@@QEAA?AVMStatus@@XZ
?clear@MFnArrayAttrsData@@QEAA?AVMStatus@@XZ
?clear@MFnCameraSet@@QEAA?AVMStatus@@XZ
?clear@MFnComponentListData@@QEAA?AVMStatus@@XZ
?clear@MFnContainerNode@@QEAA?AVMStatus@@XZ
?clear@MFnSet@@QEAA?AVMStatus@@XZ
?clear@MInt64Array@@QEAA?AVMStatus@@XZ
?clear@MIntArray@@QEAA?AVMStatus@@XZ
?clear@MMatrixArray@@QEAA?AVMStatus@@XZ
?clear@MObjectArray@@QEAA?AVMStatus@@XZ
?clear@MPlugArray@@QEAA?AVMStatus@@XZ
?clear@MPointArray@@QEAA?AVMStatus@@XZ
?clear@MRichSelection@@QEAA?AVMStatus@@XZ
?clear@MSelectionList@@QEAA?AVMStatus@@XZ
?clear@MStatus@@QEAAXXZ
?clear@MString@@QEAAXXZ
?clear@MStringArray@@QEAA?AVMStatus@@XZ
?clear@MTimeArray@@QEAA?AVMStatus@@XZ
?clear@MTimer@@QEAAXXZ
?clear@MTrimBoundaryArray@@QEAA?AVMStatus@@XZ
?clear@MURI@@QEAA?AVMStatus@@XZ
?clear@MUint64Array@@QEAA?AVMStatus@@XZ
?clear@MUintArray@@QEAA?AVMStatus@@XZ
?clear@MVectorArray@@QEAA?AVMStatus@@XZ
?clearBlindData@MFnMesh@@QEAA?AVMStatus@@HW4Type@MFn@@H@Z
?clearBlindData@MFnMesh@@QEAA?AVMStatus@@HW4Type@MFn@@HVMString@@@Z
?clearBlindData@MFnMesh@@QEAA?AVMStatus@@W4Type@MFn@@@Z
?clearBlindData@MFnMesh@@QEAA?AVMStatus@@W4Type@MFn@@H@Z
?clearBlindData@MFnMesh@@QEAA?AVMStatus@@W4Type@MFn@@HVMString@@@Z
?clearColors@MFnMesh@@QEAA?AVMStatus@@PEBVMString@@@Z
?clearConstraintCreator@TpluginObject@@UEAAXXZ
?clearCreateSyntax@TpluginObject@@UEAAXXZ
?clearCreator@TpluginNode@@UEAAXXZ
?clearCreator@TpluginObject@@UEAAXXZ
?clearGlobalIntersectionAcceleratorInfo@MFnMesh@@SAXXZ
?clearInstance@THcommandObject@@QEAAXXZ
?clearInstance@THdependNode@@UEAAXXZ
?clearInstance@THsurfaceShape@@UEAAXXZ
?clearLimits@MPxTransform@@UEAA?AVMStatus@@XZ
?clearModelEditorCreator@TpluginObject@@UEAAXXZ
?clearObjectOnError@MPyUtil@@SAXAEAPEAU_object@@@Z
?clearPluginInfo@Tplugin@@QEAAXXZ
?clearRestPosition@MFnTransform@@QEAA?AVMStatus@@XZ
?clearResult@MPxCommand@@SAXXZ
?clearScriptEntryPoints@Tplugin@@QEAAXXZ
?clearSelectionList@MGlobal@@SA?AVMStatus@@XZ
?clearUVs@MFnMesh@@QEAA?AVMStatus@@PEBVMString@@@Z
?clearUVs@MFnNurbsSurface@@QEAA?AVMStatus@@XZ
?clearUserInstances@TpluginCmdDBase@@SA_NPEAVTpluginCmd@@@Z
?clearUserInstances@TpluginRegistryInfo@@QEBA_NPEAVTpluginObject@@@Z
?clearall@TanimCallbackTable@@AEAAXXZ
?cloneCache@THdependNode@@UEAA_NAEBVTdependNode@@@Z
?cloneCache@THsurfaceShape@@UEAA_NAEBVTdependNode@@@Z
?close@MIffFile@@QEAA?AVMStatus@@XZ
?close@MPxCacheFormat@@UEAAXXZ
?close@MPxImageFile@@UEAA?AVMStatus@@XZ
?closeErrorLog@MGlobal@@SA?AVMStatus@@XZ
?closestCut@MEulerRotation@@QEBA?AV1@AEBV1@@Z
?closestCut@MEulerRotation@@SA?AV1@AEBV1@0@Z
?closestIntersection@MFnMesh@@QEAA_NAEBVMFloatPoint@@AEBVMFloatVector@@PEBVMIntArray@@2_NW4Space@MSpace@@M3PEAVMMeshIsectAccelParams@@AEAV2@PEAMPEAH877MPEAVMStatus@@@Z
?closestPoint@MFnNurbsCurve@@QEBA?AVMPoint@@AEBV2@PEANNW4Space@MSpace@@PEAVMStatus@@@Z
?closestPoint@MFnNurbsCurve@@QEBA?AVMPoint@@AEBV2@_NPEANNW4Space@MSpace@@PEAVMStatus@@@Z
?closestPoint@MFnNurbsSurface@@QEBA?AVMPoint@@AEBV2@PEAN1_NNW4Space@MSpace@@PEAVMStatus@@@Z
?closestPoint@MFnNurbsSurface@@QEBA?AVMPoint@@AEBV2@_NPEAN21NW4Space@MSpace@@PEAVMStatus@@@Z
?closestPoint@MPxSurfaceShape@@UEAAXAEBVMPoint@@AEAV2@N@Z
?closestPoint@MPxSurfaceShape@@UEAA_NAEBVMPoint@@AEBVMVector@@AEAV2@AEAV3@_NN@Z
?closestPoint@THsurfaceShape@@UEBAXAEBVT4dDblPoint@@AEAV2@N@Z
?closestPoint@THsurfaceShape@@UEBA_NAEBVT4dDblPoint@@AEBVT4dDblVector@@AEAV2@AEAV3@_NN@Z
?closestSolution@MEulerRotation@@QEBA?AV1@AEBV1@@Z
?closestSolution@MEulerRotation@@SA?AV1@AEBV1@0@Z
?cmdResult@TapiCast@@SAAEAVTmelCmdResult@@AEAVMCommandResult@@@Z
?cmds@Tplugin@@QEBAAEBVTpluginCmdPtrs@@XZ
?cmdsByName@TpluginCmdDBase@@0PEAVTpluginCmdDBaseNameTable@@EA
?collapse@MFnSubd@@QEAA?AVMObject@@H_NPEAVMStatus@@@Z
?collapseEdges@MFnMesh@@QEAA?AVMStatus@@AEAVMIntArray@@@Z
?collapseFaces@MFnMesh@@QEAA?AVMStatus@@AEAVMIntArray@@@Z
?color@MFnLambertShader@@QEBA?AVMColor@@PEAVMStatus@@@Z
?color@MFnLayeredShader@@QEBA?AVMColor@@IPEAVMStatus@@@Z
?color@MFnLight@@QEBA?AVMColor@@PEAVMStatus@@@Z
?color@TapiCast@@SAAEAVMColor@@AEAVT3dFltVector@@@Z
?color@TapiCast@@SAAEAVT3dFltVector@@AEAVMColor@@@Z
?color@TapiCast@@SAAEBVMColor@@AEBVT3dFltVector@@@Z
?color@TapiCast@@SAAEBVT3dFltVector@@AEBVMColor@@@Z
?color@TapiPack@@SA?AVMColor@@AEBVTportColor@@@Z
?color@TapiPack@@SA?AVTportColor@@AEBVMColor@@@Z
?colorArray@TapiCast@@SA?AVMColorArray@@AEAVTportColorArray@@@Z
?colorArray@TapiCast@@SAAEAVTportColorArray@@AEAVMColorArray@@@Z
?colorArray@TapiCast@@SAAEBVTportColorArray@@AEBVMColorArray@@@Z
?colorGain@MPxImagePlane@@2VMObject@@A
?colorGainB@MPxImagePlane@@2VMObject@@A
?colorGainG@MPxImagePlane@@2VMObject@@A
?colorGainR@MPxImagePlane@@2VMObject@@A
?colorOffset@MPxImagePlane@@2VMObject@@A
?colorOffsetB@MPxImagePlane@@2VMObject@@A
?colorOffsetG@MPxImagePlane@@2VMObject@@A
?colorOffsetR@MPxImagePlane@@2VMObject@@A
?colorRamp@MFnVolumeLight@@QEBA?AVMRampAttribute@@PEAVMStatus@@@Z
?commandArgumentBool@MArgParser@@QEBA_NIPEAVMStatus@@@Z
?commandArgumentDouble@MArgParser@@QEBANIPEAVMStatus@@@Z
?commandArgumentInt@MArgParser@@QEBAHIPEAVMStatus@@@Z
?commandArgumentMAngle@MArgParser@@QEBA?AVMAngle@@IPEAVMStatus@@@Z
?commandArgumentMDistance@MArgParser@@QEBA?AVMDistance@@IPEAVMStatus@@@Z
?commandArgumentMTime@MArgParser@@QEBA?AVMTime@@IPEAVMStatus@@@Z
?commandArgumentString@MArgParser@@QEBA?AVMString@@IPEAVMStatus@@@Z
?commandString@MPxCommand@@QEBA?AVMString@@XZ
?commandToExecute@MDGModifier@@QEAA?AVMStatus@@AEBVMString@@@Z
?commonGetDefault@MFnEnumAttribute@@AEBA?AVMStatus@@AEAF@Z
?commonSetDefault@MFnEnumAttribute@@AEBA?AVMStatus@@F@Z
?compareAndSwap@MAtomic@@SAHPECHHH@Z
?component@MItGeometry@@QEBA?AVMObject@@PEAVMStatus@@@Z
?component@MPxGeometryIterator@@UEAAXAEAVMObject@@@Z
?component@MPyMPxGeometryIterator_Director@@UEAAXAEAVMObject@@@Z
?component@TapiCast@@SAPEAVTcomponent@@AEBVMObject@@@Z
?componentSelectionMask@MGlobal@@SA?AVMSelectionMask@@PEAVMStatus@@@Z
?componentToPlugs@MPxComponentShape@@UEBAXAEAVMObject@@AEAVMSelectionList@@@Z
?componentToPlugs@MPxSurfaceShape@@UEBAXAEAVMObject@@AEAVMSelectionList@@@Z
?componentToPlugs@THsurfaceShape@@UEBAXAEBVTcomponent@@AEAVTselectionList@@@Z
?componentType@MFnComponent@@QEBA?AW4Type@MFn@@PEAVMStatus@@@Z
?componentTypeFromName@MFnMesh@@SA?AW4Type@MFn@@AEBVMString@@@Z
?componentTypeName@MFnMesh@@SA?AVMString@@W4Type@MFn@@AEAVMStatus@@@Z
?composite@MPxImagePlane@@2VMObject@@A
?compositeWith@THxformMatrix@@UEAAAEAVTxformMatrix@@AEBV2@@Z
?compositingFlag@MFnLayeredShader@@QEBAFPEAVMStatus@@@Z
?compute@MPxNode@@UEAA?AVMStatus@@AEBVMPlug@@AEAVMDataBlock@@@Z
?compute@MPxPolyTrg@@UEAA?AVMStatus@@AEBVMPlug@@AEAVMDataBlock@@@Z
?compute@MPxTransform@@UEAA?AVMStatus@@AEBVMPlug@@AEAVMDataBlock@@@Z
?computeDepthOfField@MFnCamera@@QEAA?AVMStatus@@N@Z
?computeDepthOfField@MFnCamera@@QEAA?AVMStatus@@XZ
?computeLocalTransformation@MPxTransform@@UEAA?AVMStatus@@PEAVMPxTransformationMatrix@@AEAVMDataBlock@@@Z
?computePlug@THdependNode@@UEAAXAEBVTplug@@AEAVTdataBlock@@@Z
?computePlug@THsurfaceShape@@UEAAXAEBVTplug@@AEAVTdataBlock@@@Z
?con1@?$MPyMArray_Type_Base@VMAttributeSpecArray@@VMAttributeSpec@@@@SA_NPEAV?$MPyObject@VMAttributeSpecArray@@@@PEAU_object@@1@Z
?con1@?$MPyMArray_Type_Base@VMCallbackIdArray@@_K@@SA_NPEAV?$MPyObject@VMCallbackIdArray@@@@PEAU_object@@1@Z
?con1@?$MPyMArray_Type_Base@VMColorArray@@VMColor@@@@SA_NPEAV?$MPyObject@VMColorArray@@@@PEAU_object@@1@Z
?con1@?$MPyMArray_Type_Base@VMDagPathArray@@VMDagPath@@@@SA_NPEAV?$MPyObject@VMDagPathArray@@@@PEAU_object@@1@Z
?con1@?$MPyMArray_Type_Base@VMDoubleArray@@N@@SA_NPEAV?$MPyObject@VMDoubleArray@@@@PEAU_object@@1@Z
?con1@?$MPyMArray_Type_Base@VMFloatArray@@M@@SA_NPEAV?$MPyObject@VMFloatArray@@@@PEAU_object@@1@Z
?con1@?$MPyMArray_Type_Base@VMFloatPointArray@@VMFloatPoint@@@@SA_NPEAV?$MPyObject@VMFloatPointArray@@@@PEAU_object@@1@Z
?con1@?$MPyMArray_Type_Base@VMFloatVectorArray@@VMFloatVector@@@@SA_NPEAV?$MPyObject@VMFloatVectorArray@@@@PEAU_object@@1@Z
?con1@?$MPyMArray_Type_Base@VMInt64Array@@_J@@SA_NPEAV?$MPyObject@VMInt64Array@@@@PEAU_object@@1@Z
?con1@?$MPyMArray_Type_Base@VMIntArray@@H@@SA_NPEAV?$MPyObject@VMIntArray@@@@PEAU_object@@1@Z
?con1@?$MPyMArray_Type_Base@VMMatrixArray@@VMMatrix@@@@SA_NPEAV?$MPyObject@VMMatrixArray@@@@PEAU_object@@1@Z
?con1@?$MPyMArray_Type_Base@VMObjectArray@@VMObject@@@@SA_NPEAV?$MPyObject@VMObjectArray@@@@PEAU_object@@1@Z
?con1@?$MPyMArray_Type_Base@VMPlugArray@@VMPlug@@@@SA_NPEAV?$MPyObject@VMPlugArray@@@@PEAU_object@@1@Z
?con1@?$MPyMArray_Type_Base@VMPointArray@@VMPoint@@@@SA_NPEAV?$MPyObject@VMPointArray@@@@PEAU_object@@1@Z
?con1@?$MPyMArray_Type_Base@VMTimeArray@@VMTime@@@@SA_NPEAV?$MPyObject@VMTimeArray@@@@PEAU_object@@1@Z
?con1@?$MPyMArray_Type_Base@VMUint64Array@@_K@@SA_NPEAV?$MPyObject@VMUint64Array@@@@PEAU_object@@1@Z
?con1@?$MPyMArray_Type_Base@VMUintArray@@I@@SA_NPEAV?$MPyObject@VMUintArray@@@@PEAU_object@@1@Z
?con1@?$MPyMArray_Type_Base@VMVectorArray@@VMVector@@@@SA_NPEAV?$MPyObject@VMVectorArray@@@@PEAU_object@@1@Z
?con2@?$MPyMArray_Type_Base@VMAttributeSpecArray@@VMAttributeSpec@@@@SA_NPEAV?$MPyObject@VMAttributeSpecArray@@@@PEAU_object@@1@Z
?con2@?$MPyMArray_Type_Base@VMCallbackIdArray@@_K@@SA_NPEAV?$MPyObject@VMCallbackIdArray@@@@PEAU_object@@1@Z
?con2@?$MPyMArray_Type_Base@VMColorArray@@VMColor@@@@SA_NPEAV?$MPyObject@VMColorArray@@@@PEAU_object@@1@Z
?con2@?$MPyMArray_Type_Base@VMDagPathArray@@VMDagPath@@@@SA_NPEAV?$MPyObject@VMDagPathArray@@@@PEAU_object@@1@Z
?con2@?$MPyMArray_Type_Base@VMDoubleArray@@N@@SA_NPEAV?$MPyObject@VMDoubleArray@@@@PEAU_object@@1@Z
?con2@?$MPyMArray_Type_Base@VMFloatArray@@M@@SA_NPEAV?$MPyObject@VMFloatArray@@@@PEAU_object@@1@Z
?con2@?$MPyMArray_Type_Base@VMFloatPointArray@@VMFloatPoint@@@@SA_NPEAV?$MPyObject@VMFloatPointArray@@@@PEAU_object@@1@Z
?con2@?$MPyMArray_Type_Base@VMFloatVectorArray@@VMFloatVector@@@@SA_NPEAV?$MPyObject@VMFloatVectorArray@@@@PEAU_object@@1@Z
?con2@?$MPyMArray_Type_Base@VMInt64Array@@_J@@SA_NPEAV?$MPyObject@VMInt64Array@@@@PEAU_object@@1@Z
?con2@?$MPyMArray_Type_Base@VMIntArray@@H@@SA_NPEAV?$MPyObject@VMIntArray@@@@PEAU_object@@1@Z
?con2@?$MPyMArray_Type_Base@VMMatrixArray@@VMMatrix@@@@SA_NPEAV?$MPyObject@VMMatrixArray@@@@PEAU_object@@1@Z
?con2@?$MPyMArray_Type_Base@VMObjectArray@@VMObject@@@@SA_NPEAV?$MPyObject@VMObjectArray@@@@PEAU_object@@1@Z
?con2@?$MPyMArray_Type_Base@VMPlugArray@@VMPlug@@@@SA_NPEAV?$MPyObject@VMPlugArray@@@@PEAU_object@@1@Z
?con2@?$MPyMArray_Type_Base@VMPointArray@@VMPoint@@@@SA_NPEAV?$MPyObject@VMPointArray@@@@PEAU_object@@1@Z
?con2@?$MPyMArray_Type_Base@VMTimeArray@@VMTime@@@@SA_NPEAV?$MPyObject@VMTimeArray@@@@PEAU_object@@1@Z
?con2@?$MPyMArray_Type_Base@VMUint64Array@@_K@@SA_NPEAV?$MPyObject@VMUint64Array@@@@PEAU_object@@1@Z
?con2@?$MPyMArray_Type_Base@VMUintArray@@I@@SA_NPEAV?$MPyObject@VMUintArray@@@@PEAU_object@@1@Z
?con2@?$MPyMArray_Type_Base@VMVectorArray@@VMVector@@@@SA_NPEAV?$MPyObject@VMVectorArray@@@@PEAU_object@@1@Z
?con3@?$MPyMArray_Type_Base@VMAttributeSpecArray@@VMAttributeSpec@@@@SA?AW4ConStatus@1@PEAV?$MPyObject@VMAttributeSpecArray@@@@PEAU_object@@1@Z
?con3@?$MPyMArray_Type_Base@VMCallbackIdArray@@_K@@SA?AW4ConStatus@1@PEAV?$MPyObject@VMCallbackIdArray@@@@PEAU_object@@1@Z
?con3@?$MPyMArray_Type_Base@VMColorArray@@VMColor@@@@SA?AW4ConStatus@1@PEAV?$MPyObject@VMColorArray@@@@PEAU_object@@1@Z
?con3@?$MPyMArray_Type_Base@VMDagPathArray@@VMDagPath@@@@SA?AW4ConStatus@1@PEAV?$MPyObject@VMDagPathArray@@@@PEAU_object@@1@Z
?con3@?$MPyMArray_Type_Base@VMDoubleArray@@N@@SA?AW4ConStatus@1@PEAV?$MPyObject@VMDoubleArray@@@@PEAU_object@@1@Z
?con3@?$MPyMArray_Type_Base@VMFloatArray@@M@@SA?AW4ConStatus@1@PEAV?$MPyObject@VMFloatArray@@@@PEAU_object@@1@Z
?con3@?$MPyMArray_Type_Base@VMFloatPointArray@@VMFloatPoint@@@@SA?AW4ConStatus@1@PEAV?$MPyObject@VMFloatPointArray@@@@PEAU_object@@1@Z
?con3@?$MPyMArray_Type_Base@VMFloatVectorArray@@VMFloatVector@@@@SA?AW4ConStatus@1@PEAV?$MPyObject@VMFloatVectorArray@@@@PEAU_object@@1@Z
?con3@?$MPyMArray_Type_Base@VMInt64Array@@_J@@SA?AW4ConStatus@1@PEAV?$MPyObject@VMInt64Array@@@@PEAU_object@@1@Z
?con3@?$MPyMArray_Type_Base@VMIntArray@@H@@SA?AW4ConStatus@1@PEAV?$MPyObject@VMIntArray@@@@PEAU_object@@1@Z
?con3@?$MPyMArray_Type_Base@VMMatrixArray@@VMMatrix@@@@SA?AW4ConStatus@1@PEAV?$MPyObject@VMMatrixArray@@@@PEAU_object@@1@Z
?con3@?$MPyMArray_Type_Base@VMObjectArray@@VMObject@@@@SA?AW4ConStatus@1@PEAV?$MPyObject@VMObjectArray@@@@PEAU_object@@1@Z
?con3@?$MPyMArray_Type_Base@VMPlugArray@@VMPlug@@@@SA?AW4ConStatus@1@PEAV?$MPyObject@VMPlugArray@@@@PEAU_object@@1@Z
?con3@?$MPyMArray_Type_Base@VMPointArray@@VMPoint@@@@SA?AW4ConStatus@1@PEAV?$MPyObject@VMPointArray@@@@PEAU_object@@1@Z
?con3@?$MPyMArray_Type_Base@VMTimeArray@@VMTime@@@@SA?AW4ConStatus@1@PEAV?$MPyObject@VMTimeArray@@@@PEAU_object@@1@Z
?con3@?$MPyMArray_Type_Base@VMUint64Array@@_K@@SA?AW4ConStatus@1@PEAV?$MPyObject@VMUint64Array@@@@PEAU_object@@1@Z
?con3@?$MPyMArray_Type_Base@VMUintArray@@I@@SA?AW4ConStatus@1@PEAV?$MPyObject@VMUintArray@@@@PEAU_object@@1@Z
?con3@?$MPyMArray_Type_Base@VMVectorArray@@VMVector@@@@SA?AW4ConStatus@1@PEAV?$MPyObject@VMVectorArray@@@@PEAU_object@@1@Z
?con4@?$MPyMArray_Type_Base@VMAttributeSpecArray@@VMAttributeSpec@@@@SA?AW4ConStatus@1@PEAV?$MPyObject@VMAttributeSpecArray@@@@PEAU_object@@1@Z
?con4@?$MPyMArray_Type_Base@VMCallbackIdArray@@_K@@SA?AW4ConStatus@1@PEAV?$MPyObject@VMCallbackIdArray@@@@PEAU_object@@1@Z
?con4@?$MPyMArray_Type_Base@VMColorArray@@VMColor@@@@SA?AW4ConStatus@1@PEAV?$MPyObject@VMColorArray@@@@PEAU_object@@1@Z
?con4@?$MPyMArray_Type_Base@VMDagPathArray@@VMDagPath@@@@SA?AW4ConStatus@1@PEAV?$MPyObject@VMDagPathArray@@@@PEAU_object@@1@Z
?con4@?$MPyMArray_Type_Base@VMDoubleArray@@N@@SA?AW4ConStatus@1@PEAV?$MPyObject@VMDoubleArray@@@@PEAU_object@@1@Z
?con4@?$MPyMArray_Type_Base@VMFloatArray@@M@@SA?AW4ConStatus@1@PEAV?$MPyObject@VMFloatArray@@@@PEAU_object@@1@Z
?con4@?$MPyMArray_Type_Base@VMFloatPointArray@@VMFloatPoint@@@@SA?AW4ConStatus@1@PEAV?$MPyObject@VMFloatPointArray@@@@PEAU_object@@1@Z
?con4@?$MPyMArray_Type_Base@VMFloatVectorArray@@VMFloatVector@@@@SA?AW4ConStatus@1@PEAV?$MPyObject@VMFloatVectorArray@@@@PEAU_object@@1@Z
?con4@?$MPyMArray_Type_Base@VMInt64Array@@_J@@SA?AW4ConStatus@1@PEAV?$MPyObject@VMInt64Array@@@@PEAU_object@@1@Z
?con4@?$MPyMArray_Type_Base@VMIntArray@@H@@SA?AW4ConStatus@1@PEAV?$MPyObject@VMIntArray@@@@PEAU_object@@1@Z
?con4@?$MPyMArray_Type_Base@VMMatrixArray@@VMMatrix@@@@SA?AW4ConStatus@1@PEAV?$MPyObject@VMMatrixArray@@@@PEAU_object@@1@Z
?con4@?$MPyMArray_Type_Base@VMObjectArray@@VMObject@@@@SA?AW4ConStatus@1@PEAV?$MPyObject@VMObjectArray@@@@PEAU_object@@1@Z
?con4@?$MPyMArray_Type_Base@VMPlugArray@@VMPlug@@@@SA?AW4ConStatus@1@PEAV?$MPyObject@VMPlugArray@@@@PEAU_object@@1@Z
?con4@?$MPyMArray_Type_Base@VMPointArray@@VMPoint@@@@SA?AW4ConStatus@1@PEAV?$MPyObject@VMPointArray@@@@PEAU_object@@1@Z
?con4@?$MPyMArray_Type_Base@VMTimeArray@@VMTime@@@@SA?AW4ConStatus@1@PEAV?$MPyObject@VMTimeArray@@@@PEAU_object@@1@Z
?con4@?$MPyMArray_Type_Base@VMUint64Array@@_K@@SA?AW4ConStatus@1@PEAV?$MPyObject@VMUint64Array@@@@PEAU_object@@1@Z
?con4@?$MPyMArray_Type_Base@VMUintArray@@I@@SA?AW4ConStatus@1@PEAV?$MPyObject@VMUintArray@@@@PEAU_object@@1@Z
?con4@?$MPyMArray_Type_Base@VMVectorArray@@VMVector@@@@SA?AW4ConStatus@1@PEAV?$MPyObject@VMVectorArray@@@@PEAU_object@@1@Z
?coneAngle@MFnSpotLight@@QEBANPEAVMStatus@@@Z
?coneEndRadius@MFnVolumeLight@@QEBAMPEAVMStatus@@@Z
?conjugate@MQuaternion@@QEBA?AV1@XZ
?conjugateIt@MQuaternion@@QEAAAEAV1@XZ
?connect@MDGModifier@@QEAA?AVMStatus@@AEBVMObject@@000@Z
?connect@MDGModifier@@QEAA?AVMStatus@@AEBVMPlug@@0@Z
?connectDisconnectEdit@MItEdits@@QEBA?AVMConnectDisconnectAttrEdit@@PEAVMStatus@@@Z
?connectedTo@MPlug@@QEBA_NAEAVMPlugArray@@_N1PEAVMStatus@@@Z
?connectedToEdge@MItMeshEdge@@QEAA_NHPEAVMStatus@@@Z
?connectedToEdge@MItMeshVertex@@QEAA_NHPEAVMStatus@@@Z
?connectedToFace@MItMeshEdge@@QEAA_NHPEAVMStatus@@@Z
?connectedToFace@MItMeshVertex@@QEAA_NHPEAVMStatus@@@Z
?connectionBroken@MPxNode@@UEAA?AVMStatus@@AEBVMPlug@@0_N@Z
?connectionBroken@THdependNode@@UEAAXAEBVTplug@@0_N@Z
?connectionBroken@THsurfaceShape@@UEAAXAEBVTplug@@0_N@Z
?connectionByPhysicalIndex@MPlug@@QEBA?AV1@IPEAVMStatus@@@Z
?connectionMade@MPxNode@@UEAA?AVMStatus@@AEBVMPlug@@0_N@Z
?connectionMade@THdependNode@@UEAAXAEBVTplug@@0_N@Z
?connectionMade@THsurfaceShape@@UEAAXAEBVTplug@@0_N@Z
?constData@MFnPluginData@@QEBAPEBVMPxData@@PEAVMStatus@@@Z
?constraintCmds@Tplugin@@QEBAAEBVTpluginConstraintCmdPtrs@@XZ
?construct@THclient@@SAPEAV1@PEAVTmetaclass@@@Z
?construct@THdependNode@@SAPEAV1@PEAVTmetaclass@@@Z
?construct@THrenderPassImpl@@SAPEAV1@PEAVTmetaclass@@@Z
?construct@THsurfaceShape@@SAPEAV1@PEAVTmetaclass@@@Z
?construct@TapiMAttributePatternArray@@UEAAXII@Z
?construct@TapiMDagPathArray@@UEAAXII@Z
?construct@TapiMObjectArray@@UEAAXII@Z
?construct@TapiMPlugArray@@UEAAXII@Z
?construct@TapiMTimeArray@@UEAAXII@Z
?construct@TpluginNode@@SAPEAV1@PEAVTmetaclass@@@Z
?constructClass@MArrayDataBuilder@@AEAAXPEAVMDataBlock@@AEBVMObject@@IPEAVMStatus@@@Z
?constructHandle@MPlug@@QEBA?AVMDataHandle@@AEAVMDataBlock@@@Z
?constructInPlace@THclient@@SAPEAV1@PEAVTmetaclass@@PEAX@Z
?constructInPlace@THrenderPassImpl@@SAPEAV1@PEAVTmetaclass@@PEAX@Z
?constructInPlace@TpluginNode@@SAPEAV1@PEAVTmetaclass@@PEAX@Z
?contains@MBoundingBox@@QEBA_NAEBVMPoint@@@Z
?containsNode@MFnReference@@QEBA_NAEBVMObject@@PEAVMStatus@@@Z
?containsNodeExactly@MFnReference@@QEBA_NAEBVMObject@@PEAVMStatus@@@Z
?context@MDataBlock@@QEAA?AVMDGContext@@PEAVMStatus@@@Z
?controlCommands@Tplugin@@QEBAAEBVTpluginControlCommandPtrs@@XZ
?controls@Tplugin@@QEBAAEBVTpluginControlPtrs@@XZ
?convertEulerRotationOrder@MPxTransformationMatrix@@SA?AW4RotationOrder@MTransformationMatrix@@W42MEulerRotation@@PEAVMStatus@@@Z
?convertPixelFormat@MImage@@QEAA?AVMStatus@@W4MPixelType@1@NN@Z
?convertRotationOrder@MPxTransformationMatrix@@SA?AW4RotationOrder@MEulerRotation@@W42MTransformationMatrix@@PEAVMStatus@@@Z
?convertRotationOrder@MPxTransformationMatrix@@SA?AW4RotationOrder@MTransformationMatrix@@W42MEulerRotation@@PEAVMStatus@@@Z
?convertScriptToCPointer@TapiScriptConverterCallbacks@@SA_NPEBDPEAU_object@@AEAPEAX_N@Z
?convertScriptToCPointerQuiet@TapiScriptConverterCallbacks@@SA_NPEBDPEAU_object@@AEAPEAX_N@Z
?convertStringToNodeType@TapiEnum@@SA?AW4Type@MPxNode@@AEBVTstring@@@Z
?convertToNormalMap@TnormalMapConverter@@QEAA_NPEAEIIW4OutFormatType@1@M0@Z
?convertToNormalMap_InPlace@TnormalMapConverter@@IEAA_NPEAEIIW4OutFormatType@1@M@Z
?convertToNurbs@MFnSubd@@QEAA?AVMStatus@@AEAVMObjectArray@@@Z
?convertToTweakNodePlug@MPxSurfaceShape@@QEBA_NAEAVMPlug@@@Z
?convertTransformationRotationOrder@MPxTransformationMatrix@@SA?AW4RotationOrder@MEulerRotation@@W42MTransformationMatrix@@PEAVMStatus@@@Z
?copy@?$MPyMArray_Type_Base@VMAttributeSpecArray@@VMAttributeSpec@@@@SAPEAU_object@@PEAV?$MPyObject@VMAttributeSpecArray@@@@PEAU2@@Z
?copy@?$MPyMArray_Type_Base@VMCallbackIdArray@@_K@@SAPEAU_object@@PEAV?$MPyObject@VMCallbackIdArray@@@@PEAU2@@Z
?copy@?$MPyMArray_Type_Base@VMColorArray@@VMColor@@@@SAPEAU_object@@PEAV?$MPyObject@VMColorArray@@@@PEAU2@@Z
?copy@?$MPyMArray_Type_Base@VMDagPathArray@@VMDagPath@@@@SAPEAU_object@@PEAV?$MPyObject@VMDagPathArray@@@@PEAU2@@Z
?copy@?$MPyMArray_Type_Base@VMDoubleArray@@N@@SAPEAU_object@@PEAV?$MPyObject@VMDoubleArray@@@@PEAU2@@Z
?copy@?$MPyMArray_Type_Base@VMFloatArray@@M@@SAPEAU_object@@PEAV?$MPyObject@VMFloatArray@@@@PEAU2@@Z
?copy@?$MPyMArray_Type_Base@VMFloatPointArray@@VMFloatPoint@@@@SAPEAU_object@@PEAV?$MPyObject@VMFloatPointArray@@@@PEAU2@@Z
?copy@?$MPyMArray_Type_Base@VMFloatVectorArray@@VMFloatVector@@@@SAPEAU_object@@PEAV?$MPyObject@VMFloatVectorArray@@@@PEAU2@@Z
?copy@?$MPyMArray_Type_Base@VMInt64Array@@_J@@SAPEAU_object@@PEAV?$MPyObject@VMInt64Array@@@@PEAU2@@Z
?copy@?$MPyMArray_Type_Base@VMIntArray@@H@@SAPEAU_object@@PEAV?$MPyObject@VMIntArray@@@@PEAU2@@Z
?copy@?$MPyMArray_Type_Base@VMMatrixArray@@VMMatrix@@@@SAPEAU_object@@PEAV?$MPyObject@VMMatrixArray@@@@PEAU2@@Z
?copy@?$MPyMArray_Type_Base@VMObjectArray@@VMObject@@@@SAPEAU_object@@PEAV?$MPyObject@VMObjectArray@@@@PEAU2@@Z
?copy@?$MPyMArray_Type_Base@VMPlugArray@@VMPlug@@@@SAPEAU_object@@PEAV?$MPyObject@VMPlugArray@@@@PEAU2@@Z
?copy@?$MPyMArray_Type_Base@VMPointArray@@VMPoint@@@@SAPEAU_object@@PEAV?$MPyObject@VMPointArray@@@@PEAU2@@Z
?copy@?$MPyMArray_Type_Base@VMTimeArray@@VMTime@@@@SAPEAU_object@@PEAV?$MPyObject@VMTimeArray@@@@PEAU2@@Z
?copy@?$MPyMArray_Type_Base@VMUint64Array@@_K@@SAPEAU_object@@PEAV?$MPyObject@VMUint64Array@@@@PEAU2@@Z
?copy@?$MPyMArray_Type_Base@VMUintArray@@I@@SAPEAU_object@@PEAV?$MPyObject@VMUintArray@@@@PEAU2@@Z
?copy@?$MPyMArray_Type_Base@VMVectorArray@@VMVector@@@@SAPEAU_object@@PEAV?$MPyObject@VMVectorArray@@@@PEAU2@@Z
?copy@MAttributePatternArray@@QEAA?AVMStatus@@AEBV1@@Z
?copy@MAttributeSpecArray@@QEAA?AVMStatus@@AEBV1@@Z
?copy@MCallbackIdArray@@QEAA?AVMStatus@@AEBV1@@Z
?copy@MColorArray@@QEAA?AVMStatus@@AEBV1@@Z
?copy@MDagPathArray@@QEAA?AVMStatus@@AEBV1@@Z
?copy@MDataHandle@@QEAA?AVMStatus@@AEBV1@@Z
?copy@MDoubleArray@@QEAA?AVMStatus@@AEBV1@@Z
?copy@MFloatArray@@QEAA?AVMStatus@@AEBV1@@Z
?copy@MFloatPointArray@@QEAA?AVMStatus@@AEBV1@@Z
?copy@MFloatVectorArray@@QEAA?AVMStatus@@AEBV1@@Z
?copy@MFnMesh@@QEAA?AVMObject@@AEBV2@V2@PEAVMStatus@@@Z
?copy@MFnNurbsCurve@@QEAA?AVMObject@@AEBV2@AEAV2@PEAVMStatus@@@Z
?copy@MFnNurbsSurface@@QEAA?AVMObject@@AEBV2@V2@PEAVMStatus@@@Z
?copy@MFnSubd@@QEAA?AVMObject@@AEBV2@V2@PEAVMStatus@@@Z
?copy@MInt64Array@@QEAA?AVMStatus@@AEBV1@@Z
?copy@MIntArray@@QEAA?AVMStatus@@AEBV1@@Z
?copy@MMatrixArray@@QEAA?AVMStatus@@AEBV1@@Z
?copy@MObjectArray@@QEAA?AVMStatus@@AEBV1@@Z
?copy@MPlugArray@@QEAA?AVMStatus@@AEBV1@@Z
?copy@MPointArray@@QEAA?AVMStatus@@AEBV1@@Z
?copy@MTimeArray@@QEAA?AVMStatus@@AEBV1@@Z
?copy@MURI@@QEAA?AVMStatus@@AEBV1@@Z
?copy@MUint64Array@@QEAA?AVMStatus@@AEBV1@@Z
?copy@MUintArray@@QEAA?AVMStatus@@AEBV1@@Z
?copy@MUuid@@QEAAXAEBV1@@Z
?copy@MVectorArray@@QEAA?AVMStatus@@AEBV1@@Z
?copy@TapiMAttributePatternArray@@QEAAXAEBV1@@Z
?copy@TapiMDagPathArray@@QEAAXAEBV1@@Z
?copy@TapiMObjectArray@@QEAAXAEBV1@@Z
?copy@TapiMPlugArray@@QEAAXAEBV1@@Z
?copy@TapiMTimeArray@@QEAAXAEBV1@@Z
?copyData@THsurfaceShape@@UEAAXAEBVTentity@@@Z
?copyFromXform@THxformMatrix@@QEAAXAEBVTxformMatrix@@@Z
?copyInPlace@MFnMesh@@QEAA?AVMStatus@@AEBVMObject@@@Z
?copyInternalData@MPxNode@@UEAAXPEAV1@@Z
?copyInternalData@MPxTransform@@UEAAXPEAVMPxNode@@@Z
?copyInternalData@THdependNode@@UEAAXAEBVTdependNode@@@Z
?copyInternalData@THsurfaceShape@@UEAAXAEBVTdependNode@@@Z
?copyObjectGroups@MFnGeometryData@@QEAA?AVMStatus@@AEAVMObject@@@Z
?copySequenceToArray@?$MPyMArray_Type_Base@VMAttributeSpecArray@@VMAttributeSpec@@@@SA_NPEAU_object@@AEAVMAttributeSpecArray@@_N@Z
?copySequenceToArray@?$MPyMArray_Type_Base@VMCallbackIdArray@@_K@@SA_NPEAU_object@@AEAVMCallbackIdArray@@_N@Z
?copySequenceToArray@?$MPyMArray_Type_Base@VMColorArray@@VMColor@@@@SA_NPEAU_object@@AEAVMColorArray@@_N@Z
?copySequenceToArray@?$MPyMArray_Type_Base@VMDagPathArray@@VMDagPath@@@@SA_NPEAU_object@@AEAVMDagPathArray@@_N@Z
?copySequenceToArray@?$MPyMArray_Type_Base@VMDoubleArray@@N@@SA_NPEAU_object@@AEAVMDoubleArray@@_N@Z
?copySequenceToArray@?$MPyMArray_Type_Base@VMFloatArray@@M@@SA_NPEAU_object@@AEAVMFloatArray@@_N@Z
?copySequenceToArray@?$MPyMArray_Type_Base@VMFloatPointArray@@VMFloatPoint@@@@SA_NPEAU_object@@AEAVMFloatPointArray@@_N@Z
?copySequenceToArray@?$MPyMArray_Type_Base@VMFloatVectorArray@@VMFloatVector@@@@SA_NPEAU_object@@AEAVMFloatVectorArray@@_N@Z
?copySequenceToArray@?$MPyMArray_Type_Base@VMInt64Array@@_J@@SA_NPEAU_object@@AEAVMInt64Array@@_N@Z
?copySequenceToArray@?$MPyMArray_Type_Base@VMIntArray@@H@@SA_NPEAU_object@@AEAVMIntArray@@_N@Z
?copySequenceToArray@?$MPyMArray_Type_Base@VMMatrixArray@@VMMatrix@@@@SA_NPEAU_object@@AEAVMMatrixArray@@_N@Z
?copySequenceToArray@?$MPyMArray_Type_Base@VMObjectArray@@VMObject@@@@SA_NPEAU_object@@AEAVMObjectArray@@_N@Z
?copySequenceToArray@?$MPyMArray_Type_Base@VMPlugArray@@VMPlug@@@@SA_NPEAU_object@@AEAVMPlugArray@@_N@Z
?copySequenceToArray@?$MPyMArray_Type_Base@VMPointArray@@VMPoint@@@@SA_NPEAU_object@@AEAVMPointArray@@_N@Z
?copySequenceToArray@?$MPyMArray_Type_Base@VMTimeArray@@VMTime@@@@SA_NPEAU_object@@AEAVMTimeArray@@_N@Z
?copySequenceToArray@?$MPyMArray_Type_Base@VMUint64Array@@_K@@SA_NPEAU_object@@AEAVMUint64Array@@_N@Z
?copySequenceToArray@?$MPyMArray_Type_Base@VMUintArray@@I@@SA_NPEAU_object@@AEAVMUintArray@@_N@Z
?copySequenceToArray@?$MPyMArray_Type_Base@VMVectorArray@@VMVector@@@@SA_NPEAU_object@@AEAVMVectorArray@@_N@Z
?copyTo@MFnDoubleArrayData@@QEBA?AVMStatus@@AEAVMDoubleArray@@@Z
?copyTo@MFnFloatArrayData@@QEBA?AVMStatus@@AEAVMFloatArray@@@Z
?copyTo@MFnIntArrayData@@QEBA?AVMStatus@@AEAVMIntArray@@@Z
?copyTo@MFnMatrixArrayData@@QEBA?AVMStatus@@AEAVMMatrixArray@@@Z
?copyTo@MFnPointArrayData@@QEBA?AVMStatus@@AEAVMPointArray@@@Z
?copyTo@MFnStringArrayData@@QEBA?AVMStatus@@AEAVMStringArray@@@Z
?copyTo@MFnUInt64ArrayData@@QEBA?AVMStatus@@AEAVMUint64Array@@@Z
?copyTo@MFnVectorArrayData@@QEBA?AVMStatus@@AEAVMVectorArray@@@Z
?copyUVSet@MFnMesh@@QEAA?AVMStatus@@AEBVMString@@AEAV3@PEAVMDGModifier@@@Z
?copyUVSetWithName@MFnMesh@@QEAA?AVMString@@AEBV2@0PEAVMDGModifier@@PEAVMStatus@@@Z
?copyValues@MPxTransformationMatrix@@UEAAXPEAV1@@Z
?copyViewFrom@MFnCamera@@QEAA?AVMStatus@@AEBVMDagPath@@@Z
?copyWritable@MDataHandle@@QEAA?AVMStatus@@AEBV1@@Z
?corner@MFnSubdNames@@SAH_K@Z
?correlationX@MFnAnisotropyShader@@QEBAMPEAVMStatus@@@Z
?correlationY@MFnAnisotropyShader@@QEBAMPEAVMStatus@@@Z
?cosPower@MFnPhongShader@@QEBAMPEAVMStatus@@@Z
?count@MFnArrayAttrsData@@QEBAIXZ
?count@MItGeometry@@QEBAHPEAVMStatus@@@Z
?count@MItMeshEdge@@QEAAHPEAVMStatus@@@Z
?count@MItMeshPolygon@@QEAAIPEAVMStatus@@@Z
?count@MItMeshVertex@@QEAAHPEAVMStatus@@@Z
?coverage@MPxImagePlane@@2VMObject@@A
?coverageOrigin@MPxImagePlane@@2VMObject@@A
?coverageOriginX@MPxImagePlane@@2VMObject@@A
?coverageOriginY@MPxImagePlane@@2VMObject@@A
?coverageX@MPxImagePlane@@2VMObject@@A
?coverageY@MPxImagePlane@@2VMObject@@A
?creasesClearAll@MFnSubd@@QEBA?AVMStatus@@XZ
?creasesGetAll@MFnSubd@@QEBA?AVMStatus@@AEAVMUint64Array@@0@Z
?creasesSetAll@MFnSubd@@QEAA?AVMStatus@@AEBVMUint64Array@@0@Z
?create@MFnAmbientLight@@QEAA?AVMObject@@AEBV2@_N1PEAVMStatus@@@Z
?create@MFnAmbientLight@@QEAA?AVMObject@@AEBV2@_NPEAVMStatus@@@Z
?create@MFnAmbientLight@@QEAA?AVMObject@@_NPEAVMStatus@@@Z
?create@MFnAnisotropyShader@@QEAA?AVMObject@@_NPEAVMStatus@@@Z
?create@MFnAreaLight@@QEAA?AVMObject@@AEBV2@_N1PEAVMStatus@@@Z
?create@MFnAreaLight@@QEAA?AVMObject@@AEBV2@_NPEAVMStatus@@@Z
?create@MFnAreaLight@@QEAA?AVMObject@@_NPEAVMStatus@@@Z
?create@MFnArrayAttrsData@@QEAA?AVMObject@@PEAVMStatus@@@Z
?create@MFnBlinnShader@@QEAA?AVMObject@@_NPEAVMStatus@@@Z
?create@MFnCamera@@QEAA?AVMObject@@AEAV2@PEAVMStatus@@@Z
?create@MFnCamera@@QEAA?AVMObject@@PEAVMStatus@@@Z
?create@MFnCameraSet@@QEAA?AVMObject@@AEBVMDagPathArray@@AEBVMObjectArray@@PEAVMStatus@@@Z
?create@MFnCameraSet@@QEAA?AVMObject@@AEBVMDagPathArray@@PEAVMStatus@@@Z
?create@MFnCameraSet@@QEAA?AVMObject@@AEBVMString@@AEBVMDagPathArray@@AEBVMObjectArray@@PEAVMStatus@@@Z
?create@MFnCameraSet@@QEAA?AVMObject@@AEBVMString@@PEAVMStatus@@@Z
?create@MFnCameraSet@@QEAA?AVMObject@@PEAVMStatus@@@Z
?create@MFnComponentListData@@QEAA?AVMObject@@PEAVMStatus@@@Z
?create@MFnCompoundAttribute@@QEAA?AVMObject@@AEBVMString@@0PEAVMStatus@@@Z
?create@MFnDagNode@@QEAA?AVMObject@@AEBVMString@@0AEAV2@PEAVMStatus@@@Z
?create@MFnDagNode@@QEAA?AVMObject@@AEBVMString@@AEAV2@PEAVMStatus@@@Z
?create@MFnDagNode@@QEAA?AVMObject@@AEBVMTypeId@@AEAV2@PEAVMStatus@@@Z
?create@MFnDagNode@@QEAA?AVMObject@@AEBVMTypeId@@AEBVMString@@AEAV2@PEAVMStatus@@@Z
?create@MFnDependencyNode@@QEAA?AVMObject@@AEBVMString@@0PEAVMStatus@@@Z
?create@MFnDependencyNode@@QEAA?AVMObject@@AEBVMString@@PEAVMStatus@@@Z
?create@MFnDependencyNode@@QEAA?AVMObject@@AEBVMTypeId@@AEBVMString@@PEAVMStatus@@@Z
?create@MFnDependencyNode@@QEAA?AVMObject@@AEBVMTypeId@@PEAVMStatus@@@Z
?create@MFnDirectionalLight@@QEAA?AVMObject@@AEBV2@_N1PEAVMStatus@@@Z
?create@MFnDirectionalLight@@QEAA?AVMObject@@AEBV2@_NPEAVMStatus@@@Z
?create@MFnDirectionalLight@@QEAA?AVMObject@@_NPEAVMStatus@@@Z
?create@MFnDoubleArrayData@@QEAA?AVMObject@@AEBVMDoubleArray@@PEAVMStatus@@@Z
?create@MFnDoubleArrayData@@QEAA?AVMObject@@PEAVMStatus@@@Z
?create@MFnDoubleIndexedComponent@@QEAA?AVMObject@@W4Type@MFn@@PEAVMStatus@@@Z
?create@MFnEnumAttribute@@QEAA?AVMObject@@AEBVMString@@0FPEAVMStatus@@@Z
?create@MFnExpression@@QEAA?AVMObject@@AEBVMString@@AEAV2@PEAVMStatus@@@Z
?create@MFnFloatArrayData@@QEAA?AVMObject@@AEBVMFloatArray@@PEAVMStatus@@@Z
?create@MFnFloatArrayData@@QEAA?AVMObject@@PEAVMStatus@@@Z
?create@MFnGenericAttribute@@QEAA?AVMObject@@AEBVMString@@0PEAVMStatus@@@Z
?create@MFnIntArrayData@@QEAA?AVMObject@@AEBVMIntArray@@PEAVMStatus@@@Z
?create@MFnIntArrayData@@QEAA?AVMObject@@PEAVMStatus@@@Z
?create@MFnLambertShader@@QEAA?AVMObject@@_NPEAVMStatus@@@Z
?create@MFnLatticeData@@QEAA?AVMObject@@PEAVMStatus@@@Z
?create@MFnLayeredShader@@QEAA?AVMObject@@_NPEAVMStatus@@@Z
?create@MFnLightDataAttribute@@QEAA?AVMObject@@AEBVMString@@0AEBV2@1111111PEAVMStatus@@@Z
?create@MFnMatrixArrayData@@QEAA?AVMObject@@AEBVMMatrixArray@@PEAVMStatus@@@Z
?create@MFnMatrixArrayData@@QEAA?AVMObject@@PEAVMStatus@@@Z
?create@MFnMatrixAttribute@@QEAA?AVMObject@@AEBVMString@@0W4Type@1@PEAVMStatus@@@Z
?create@MFnMatrixData@@QEAA?AVMObject@@AEBVMMatrix@@PEAVMStatus@@@Z
?create@MFnMatrixData@@QEAA?AVMObject@@AEBVMTransformationMatrix@@PEAVMStatus@@@Z
?create@MFnMatrixData@@QEAA?AVMObject@@PEAVMStatus@@@Z
?create@MFnMesh@@QEAA?AVMObject@@HHAEBVMFloatPointArray@@AEBVMIntArray@@1AEBVMFloatArray@@2V2@PEAVMStatus@@@Z
?create@MFnMesh@@QEAA?AVMObject@@HHAEBVMFloatPointArray@@AEBVMIntArray@@1V2@PEAVMStatus@@@Z
?create@MFnMesh@@QEAA?AVMObject@@HHAEBVMPointArray@@AEBVMIntArray@@1AEBVMFloatArray@@2V2@PEAVMStatus@@@Z
?create@MFnMesh@@QEAA?AVMObject@@HHAEBVMPointArray@@AEBVMIntArray@@1V2@PEAVMStatus@@@Z
?create@MFnMeshData@@QEAA?AVMObject@@PEAVMStatus@@@Z
?create@MFnMessageAttribute@@QEAA?AVMObject@@AEBVMString@@0PEAVMStatus@@@Z
?create@MFnNumericAttribute@@QEAA?AVMObject@@AEBVMString@@0AEBV2@11PEAVMStatus@@@Z
?create@MFnNumericAttribute@@QEAA?AVMObject@@AEBVMString@@0W4Type@MFnNumericData@@NPEAVMStatus@@@Z
?create@MFnNumericData@@QEAA?AVMObject@@W4Type@1@PEAVMStatus@@@Z
?create@MFnNurbsCurve@@QEAA?AVMObject@@AEBVMObjectArray@@AEAV2@PEAVMStatus@@@Z
?create@MFnNurbsCurve@@QEAA?AVMObject@@AEBVMPointArray@@AEBVMDoubleArray@@IW4Form@1@_N3AEAV2@PEAVMStatus@@@Z
?create@MFnNurbsCurveData@@QEAA?AVMObject@@PEAVMStatus@@@Z
?create@MFnNurbsSurface@@QEAA?AVMObject@@AEBVMPointArray@@AEBVMDoubleArray@@1IIW4Form@1@2_NV2@PEAVMStatus@@@Z
?create@MFnNurbsSurfaceData@@QEAA?AVMObject@@PEAVMStatus@@@Z
?create@MFnPartition@@QEAA?AVMObject@@_NPEAVMStatus@@@Z
?create@MFnPhongEShader@@QEAA?AVMObject@@_NPEAVMStatus@@@Z
?create@MFnPhongShader@@QEAA?AVMObject@@_NPEAVMStatus@@@Z
?create@MFnPluginData@@QEAA?AVMObject@@AEBVMTypeId@@PEAVMStatus@@@Z
?create@MFnPointArrayData@@QEAA?AVMObject@@AEBVMPointArray@@PEAVMStatus@@@Z
?create@MFnPointArrayData@@QEAA?AVMObject@@PEAVMStatus@@@Z
?create@MFnPointLight@@QEAA?AVMObject@@AEBV2@_N1PEAVMStatus@@@Z
?create@MFnPointLight@@QEAA?AVMObject@@AEBV2@_NPEAVMStatus@@@Z
?create@MFnPointLight@@QEAA?AVMObject@@_NPEAVMStatus@@@Z
?create@MFnSet@@QEAA?AVMObject@@AEBVMSelectionList@@W4Restriction@1@PEAVMStatus@@@Z
?create@MFnSet@@QEAA?AVMObject@@AEBVMSelectionList@@W4Restriction@1@_NPEAVMStatus@@@Z
?create@MFnSingleIndexedComponent@@QEAA?AVMObject@@W4Type@MFn@@PEAVMStatus@@@Z
?create@MFnSphereData@@QEAA?AVMObject@@NPEAVMStatus@@@Z
?create@MFnSpotLight@@QEAA?AVMObject@@AEBV2@_N1PEAVMStatus@@@Z
?create@MFnSpotLight@@QEAA?AVMObject@@AEBV2@_NPEAVMStatus@@@Z
?create@MFnSpotLight@@QEAA?AVMObject@@_NPEAVMStatus@@@Z
?create@MFnStringArrayData@@QEAA?AVMObject@@AEBVMStringArray@@PEAVMStatus@@@Z
?create@MFnStringArrayData@@QEAA?AVMObject@@PEAVMStatus@@@Z
?create@MFnStringData@@QEAA?AVMObject@@AEBVMString@@PEAVMStatus@@@Z
?create@MFnStringData@@QEAA?AVMObject@@PEAVMStatus@@@Z
?create@MFnSubdData@@QEAA?AVMObject@@PEAVMStatus@@@Z
?create@MFnTransform@@QEAA?AVMObject@@V2@PEAVMStatus@@@Z
?create@MFnTripleIndexedComponent@@QEAA?AVMObject@@W4Type@MFn@@PEAVMStatus@@@Z
?create@MFnTypedAttribute@@QEAA?AVMObject@@AEBVMString@@0AEBVMTypeId@@V2@PEAVMStatus@@@Z
?create@MFnTypedAttribute@@QEAA?AVMObject@@AEBVMString@@0W4Type@MFnData@@PEAVMStatus@@@Z
?create@MFnTypedAttribute@@QEAA?AVMObject@@AEBVMString@@0W4Type@MFnData@@V2@PEAVMStatus@@@Z
?create@MFnUInt64ArrayData@@QEAA?AVMObject@@AEBVMUint64Array@@PEAVMStatus@@@Z
?create@MFnUInt64ArrayData@@QEAA?AVMObject@@PEAVMStatus@@@Z
?create@MFnUint64SingleIndexedComponent@@QEAA?AVMObject@@W4Type@MFn@@PEAVMStatus@@@Z
?create@MFnUnitAttribute@@QEAA?AVMObject@@AEBVMString@@0AEBVMAngle@@PEAVMStatus@@@Z
?create@MFnUnitAttribute@@QEAA?AVMObject@@AEBVMString@@0AEBVMDistance@@PEAVMStatus@@@Z
?create@MFnUnitAttribute@@QEAA?AVMObject@@AEBVMString@@0AEBVMTime@@PEAVMStatus@@@Z
?create@MFnUnitAttribute@@QEAA?AVMObject@@AEBVMString@@0W4Type@1@NPEAVMStatus@@@Z
?create@MFnVectorArrayData@@QEAA?AVMObject@@AEBVMVectorArray@@PEAVMStatus@@@Z
?create@MFnVectorArrayData@@QEAA?AVMObject@@PEAVMStatus@@@Z
?create@MFnVolumeLight@@QEAA?AVMObject@@AEBV2@_N1PEAVMStatus@@@Z
?create@MFnVolumeLight@@QEAA?AVMObject@@AEBV2@_NPEAVMStatus@@@Z
?create@MFnVolumeLight@@QEAA?AVMObject@@_NPEAVMStatus@@@Z
?create@MImage@@QEAA?AVMStatus@@IIIW4MPixelType@1@@Z
?create@MMeshIntersector@@QEAA?AVMStatus@@AEAVMObject@@AEBVMMatrix@@@Z
?create@MNurbsIntersector@@QEAA?AVMStatus@@AEAVMObject@@AEBVMMatrix@@@Z
?createAddr@MFnNumericAttribute@@QEAA?AVMObject@@AEBVMString@@0PEAXPEAVMStatus@@@Z
?createAndCopyXform@THxformMatrix@@AEAAXAEBVTxformMatrix@@@Z
?createAndRegisterType@MPyTypeObjectHelper@@SA_NAEAU_typeobject@@PEAU_object@@PEBD2HP6APEAU3@PEAU2@11@ZP6AX1@ZP6AH111@ZPEAUPyMethodDef@@PEAVMPyAttributeRegistry@@PEAUPyGetSetDef@@PEAUPySequenceMethods@@P6APEAU3@11H@ZP6APEAU3@1@ZP6APEAU3@1@ZPEAUPyNumberMethods@@@Z
?createBaseMesh@MFnSubd@@QEAA?AVMObject@@_NHHAEBVMPointArray@@AEBVMIntArray@@2V2@PEAVMStatus@@@Z
?createBlindDataType@MFnMesh@@QEAA?AVMStatus@@HVMStringArray@@00@Z
?createColor@MFnNumericAttribute@@QEAA?AVMObject@@AEBVMString@@0PEAVMStatus@@@Z
?createColorRamp@MRampAttribute@@SA?AVMObject@@AEBVMString@@0PEAVMStatus@@@Z
?createColorSet@MFnMesh@@QEAA?AVMStatus@@AEAVMString@@PEAVMDGModifier@@PEBVMUintArray@@@Z
?createColorSet@MFnMesh@@QEAA?AVMStatus@@AEAVMString@@PEAVMDGModifier@@_NW4MColorRepresentation@1@PEBVMUintArray@@@Z
?createColorSetDataMesh@MFnMesh@@QEAA?AVMStatus@@AEAVMString@@_NW4MColorRepresentation@1@@Z
?createColorSetWithName@MFnMesh@@QEAA?AVMString@@AEBV2@PEAVMDGModifier@@PEAVMStatus@@@Z
?createColorSetWithName@MFnMesh@@QEAA?AVMString@@AEBV2@PEAVMDGModifier@@PEBVMUintArray@@PEAVMStatus@@@Z
?createColorSetWithNameDataMesh@MFnMesh@@QEAA?AVMString@@AEBV2@_NW4MColorRepresentation@1@PEAVMStatus@@@Z
?createCommand@TpluginCmd@@QEAAPEAVMPxCommand@@PEAVTHcommandObject@@@Z
?createCommand@TpluginCmd@@QEAAPEAVTHcommandObject@@XZ
?createCurve@MCurveAttribute@@SA?AVMObject@@AEBVMString@@0AEBV2@AEBVMFloatArray@@2PEAVMStatus@@@Z
?createCurveAttr@MCurveAttribute@@SA?AVMObject@@AEBVMString@@0PEAVMStatus@@@Z
?createCurveRamp@MRampAttribute@@SA?AVMObject@@AEBVMString@@0PEAVMStatus@@@Z
?createFloatArrayFromList@MScriptUtil@@SA_NPEAXAEAVMFloatArray@@@Z
?createFloatMatrixFromList@MScriptUtil@@SA_NPEAXAEAVMFloatMatrix@@@Z
?createFromDouble@MScriptUtil@@QEAAXNNNN@Z
?createFromInt@MScriptUtil@@QEAAXHHHH@Z
?createFromList@MScriptUtil@@QEAA_NPEAXI@Z
?createFullRenderGroup@MPxSurfaceShape@@UEBA?AVMObject@@XZ
?createFullRenderGroup@THsurfaceShape@@UEBAPEAVTcomponent@@XZ
?createFullVertexGroup@MPxComponentShape@@UEBA?AVMObject@@XZ
?createFullVertexGroup@MPxSurfaceShape@@UEBA?AVMObject@@XZ
?createFullVertexGroup@THsurfaceShape@@UEBAPEAVTcomponent@@XZ
?createImp@MAddRemoveAttrEdit@@AEAAXPEBXH_N@Z
?createImp@MConnectDisconnectAttrEdit@@AEAAXPEBXH_N@Z
?createImp@MEdit@@AEAAXPEBXH@Z
?createImp@MParentingEdit@@AEAAXPEBXH@Z
?createImp@MSetAttrEdit@@AEAAXPEBXH@Z
?createInPlace@MFnMesh@@QEAA?AVMStatus@@HHAEBVMFloatPointArray@@AEBVMIntArray@@1@Z
?createInstance@?$MPyTypeObject@VMAttributeSpecArray@@@@SAPEAV?$MPyObject@VMAttributeSpecArray@@@@PEAU_object@@0@Z
?createInstance@?$MPyTypeObject@VMAttributeSpecArray@@@@SAPEAV?$MPyObject@VMAttributeSpecArray@@@@PEAVMAttributeSpecArray@@@Z
?createInstance@?$MPyTypeObject@VMAttributeSpecArray@@@@SAPEAV?$MPyObject@VMAttributeSpecArray@@@@XZ
?createInstance@?$MPyTypeObject@VMCallbackIdArray@@@@SAPEAV?$MPyObject@VMCallbackIdArray@@@@PEAU_object@@0@Z
?createInstance@?$MPyTypeObject@VMCallbackIdArray@@@@SAPEAV?$MPyObject@VMCallbackIdArray@@@@PEAVMCallbackIdArray@@@Z
?createInstance@?$MPyTypeObject@VMCallbackIdArray@@@@SAPEAV?$MPyObject@VMCallbackIdArray@@@@XZ
?createInstance@?$MPyTypeObject@VMColorArray@@@@SAPEAV?$MPyObject@VMColorArray@@@@PEAU_object@@0@Z
?createInstance@?$MPyTypeObject@VMColorArray@@@@SAPEAV?$MPyObject@VMColorArray@@@@PEAVMColorArray@@@Z
?createInstance@?$MPyTypeObject@VMColorArray@@@@SAPEAV?$MPyObject@VMColorArray@@@@XZ
?createInstance@?$MPyTypeObject@VMDagPathArray@@@@SAPEAV?$MPyObject@VMDagPathArray@@@@PEAU_object@@0@Z
?createInstance@?$MPyTypeObject@VMDagPathArray@@@@SAPEAV?$MPyObject@VMDagPathArray@@@@PEAVMDagPathArray@@@Z
?createInstance@?$MPyTypeObject@VMDagPathArray@@@@SAPEAV?$MPyObject@VMDagPathArray@@@@XZ
?createInstance@?$MPyTypeObject@VMDoubleArray@@@@SAPEAV?$MPyObject@VMDoubleArray@@@@PEAU_object@@0@Z
?createInstance@?$MPyTypeObject@VMDoubleArray@@@@SAPEAV?$MPyObject@VMDoubleArray@@@@PEAVMDoubleArray@@@Z
?createInstance@?$MPyTypeObject@VMDoubleArray@@@@SAPEAV?$MPyObject@VMDoubleArray@@@@XZ
?createInstance@?$MPyTypeObject@VMFloatArray@@@@SAPEAV?$MPyObject@VMFloatArray@@@@PEAU_object@@0@Z
?createInstance@?$MPyTypeObject@VMFloatArray@@@@SAPEAV?$MPyObject@VMFloatArray@@@@PEAVMFloatArray@@@Z
?createInstance@?$MPyTypeObject@VMFloatArray@@@@SAPEAV?$MPyObject@VMFloatArray@@@@XZ
?createInstance@?$MPyTypeObject@VMFloatPointArray@@@@SAPEAV?$MPyObject@VMFloatPointArray@@@@PEAU_object@@0@Z
?createInstance@?$MPyTypeObject@VMFloatPointArray@@@@SAPEAV?$MPyObject@VMFloatPointArray@@@@PEAVMFloatPointArray@@@Z
?createInstance@?$MPyTypeObject@VMFloatPointArray@@@@SAPEAV?$MPyObject@VMFloatPointArray@@@@XZ
?createInstance@?$MPyTypeObject@VMFloatVectorArray@@@@SAPEAV?$MPyObject@VMFloatVectorArray@@@@PEAU_object@@0@Z
?createInstance@?$MPyTypeObject@VMFloatVectorArray@@@@SAPEAV?$MPyObject@VMFloatVectorArray@@@@PEAVMFloatVectorArray@@@Z
?createInstance@?$MPyTypeObject@VMFloatVectorArray@@@@SAPEAV?$MPyObject@VMFloatVectorArray@@@@XZ
?createInstance@?$MPyTypeObject@VMInt64Array@@@@SAPEAV?$MPyObject@VMInt64Array@@@@PEAU_object@@0@Z
?createInstance@?$MPyTypeObject@VMInt64Array@@@@SAPEAV?$MPyObject@VMInt64Array@@@@PEAVMInt64Array@@@Z
?createInstance@?$MPyTypeObject@VMInt64Array@@@@SAPEAV?$MPyObject@VMInt64Array@@@@XZ
?createInstance@?$MPyTypeObject@VMIntArray@@@@SAPEAV?$MPyObject@VMIntArray@@@@PEAU_object@@0@Z
?createInstance@?$MPyTypeObject@VMIntArray@@@@SAPEAV?$MPyObject@VMIntArray@@@@PEAVMIntArray@@@Z
?createInstance@?$MPyTypeObject@VMIntArray@@@@SAPEAV?$MPyObject@VMIntArray@@@@XZ
?createInstance@?$MPyTypeObject@VMMatrixArray@@@@SAPEAV?$MPyObject@VMMatrixArray@@@@PEAU_object@@0@Z
?createInstance@?$MPyTypeObject@VMMatrixArray@@@@SAPEAV?$MPyObject@VMMatrixArray@@@@PEAVMMatrixArray@@@Z
?createInstance@?$MPyTypeObject@VMMatrixArray@@@@SAPEAV?$MPyObject@VMMatrixArray@@@@XZ
?createInstance@?$MPyTypeObject@VMObjectArray@@@@SAPEAV?$MPyObject@VMObjectArray@@@@PEAU_object@@0@Z
?createInstance@?$MPyTypeObject@VMObjectArray@@@@SAPEAV?$MPyObject@VMObjectArray@@@@PEAVMObjectArray@@@Z
?createInstance@?$MPyTypeObject@VMObjectArray@@@@SAPEAV?$MPyObject@VMObjectArray@@@@XZ
?createInstance@?$MPyTypeObject@VMPlugArray@@@@SAPEAV?$MPyObject@VMPlugArray@@@@PEAU_object@@0@Z
?createInstance@?$MPyTypeObject@VMPlugArray@@@@SAPEAV?$MPyObject@VMPlugArray@@@@PEAVMPlugArray@@@Z
?createInstance@?$MPyTypeObject@VMPlugArray@@@@SAPEAV?$MPyObject@VMPlugArray@@@@XZ
?createInstance@?$MPyTypeObject@VMPointArray@@@@SAPEAV?$MPyObject@VMPointArray@@@@PEAU_object@@0@Z
?createInstance@?$MPyTypeObject@VMPointArray@@@@SAPEAV?$MPyObject@VMPointArray@@@@PEAVMPointArray@@@Z
?createInstance@?$MPyTypeObject@VMPointArray@@@@SAPEAV?$MPyObject@VMPointArray@@@@XZ
?createInstance@?$MPyTypeObject@VMTimeArray@@@@SAPEAV?$MPyObject@VMTimeArray@@@@PEAU_object@@0@Z
?createInstance@?$MPyTypeObject@VMTimeArray@@@@SAPEAV?$MPyObject@VMTimeArray@@@@PEAVMTimeArray@@@Z
?createInstance@?$MPyTypeObject@VMTimeArray@@@@SAPEAV?$MPyObject@VMTimeArray@@@@XZ
?createInstance@?$MPyTypeObject@VMUint64Array@@@@SAPEAV?$MPyObject@VMUint64Array@@@@PEAU_object@@0@Z
?createInstance@?$MPyTypeObject@VMUint64Array@@@@SAPEAV?$MPyObject@VMUint64Array@@@@PEAVMUint64Array@@@Z
?createInstance@?$MPyTypeObject@VMUint64Array@@@@SAPEAV?$MPyObject@VMUint64Array@@@@XZ
?createInstance@?$MPyTypeObject@VMUintArray@@@@SAPEAV?$MPyObject@VMUintArray@@@@PEAU_object@@0@Z
?createInstance@?$MPyTypeObject@VMUintArray@@@@SAPEAV?$MPyObject@VMUintArray@@@@PEAVMUintArray@@@Z
?createInstance@?$MPyTypeObject@VMUintArray@@@@SAPEAV?$MPyObject@VMUintArray@@@@XZ
?createInstance@?$MPyTypeObject@VMVectorArray@@@@SAPEAV?$MPyObject@VMVectorArray@@@@PEAU_object@@0@Z
?createInstance@?$MPyTypeObject@VMVectorArray@@@@SAPEAV?$MPyObject@VMVectorArray@@@@PEAVMVectorArray@@@Z
?createInstance@?$MPyTypeObject@VMVectorArray@@@@SAPEAV?$MPyObject@VMVectorArray@@@@XZ
?createInstance@?$MPyTypeObjectStatic@VMAttributeSpecArray@@@@SAPEAU_object@@PEAU2@0@Z
?createInstance@?$MPyTypeObjectStatic@VMAttributeSpecArray@@@@SAPEAU_object@@XZ
?createInstance@?$MPyTypeObjectStatic@VMCallbackIdArray@@@@SAPEAU_object@@PEAU2@0@Z
?createInstance@?$MPyTypeObjectStatic@VMCallbackIdArray@@@@SAPEAU_object@@XZ
?createInstance@?$MPyTypeObjectStatic@VMColorArray@@@@SAPEAU_object@@PEAU2@0@Z
?createInstance@?$MPyTypeObjectStatic@VMColorArray@@@@SAPEAU_object@@XZ
?createInstance@?$MPyTypeObjectStatic@VMDagPathArray@@@@SAPEAU_object@@PEAU2@0@Z
?createInstance@?$MPyTypeObjectStatic@VMDagPathArray@@@@SAPEAU_object@@XZ
?createInstance@?$MPyTypeObjectStatic@VMDoubleArray@@@@SAPEAU_object@@PEAU2@0@Z
?createInstance@?$MPyTypeObjectStatic@VMDoubleArray@@@@SAPEAU_object@@XZ
?createInstance@?$MPyTypeObjectStatic@VMFloatArray@@@@SAPEAU_object@@PEAU2@0@Z
?createInstance@?$MPyTypeObjectStatic@VMFloatArray@@@@SAPEAU_object@@XZ
?createInstance@?$MPyTypeObjectStatic@VMFloatPointArray@@@@SAPEAU_object@@PEAU2@0@Z
?createInstance@?$MPyTypeObjectStatic@VMFloatPointArray@@@@SAPEAU_object@@XZ
?createInstance@?$MPyTypeObjectStatic@VMFloatVectorArray@@@@SAPEAU_object@@PEAU2@0@Z
?createInstance@?$MPyTypeObjectStatic@VMFloatVectorArray@@@@SAPEAU_object@@XZ
?createInstance@?$MPyTypeObjectStatic@VMInt64Array@@@@SAPEAU_object@@PEAU2@0@Z
?createInstance@?$MPyTypeObjectStatic@VMInt64Array@@@@SAPEAU_object@@XZ
?createInstance@?$MPyTypeObjectStatic@VMIntArray@@@@SAPEAU_object@@PEAU2@0@Z
?createInstance@?$MPyTypeObjectStatic@VMIntArray@@@@SAPEAU_object@@XZ
?createInstance@?$MPyTypeObjectStatic@VMMatrixArray@@@@SAPEAU_object@@PEAU2@0@Z
?createInstance@?$MPyTypeObjectStatic@VMMatrixArray@@@@SAPEAU_object@@XZ
?createInstance@?$MPyTypeObjectStatic@VMObjectArray@@@@SAPEAU_object@@PEAU2@0@Z
?createInstance@?$MPyTypeObjectStatic@VMObjectArray@@@@SAPEAU_object@@XZ
?createInstance@?$MPyTypeObjectStatic@VMPlugArray@@@@SAPEAU_object@@PEAU2@0@Z
?createInstance@?$MPyTypeObjectStatic@VMPlugArray@@@@SAPEAU_object@@XZ
?createInstance@?$MPyTypeObjectStatic@VMPointArray@@@@SAPEAU_object@@PEAU2@0@Z
?createInstance@?$MPyTypeObjectStatic@VMPointArray@@@@SAPEAU_object@@XZ
?createInstance@?$MPyTypeObjectStatic@VMTimeArray@@@@SAPEAU_object@@PEAU2@0@Z
?createInstance@?$MPyTypeObjectStatic@VMTimeArray@@@@SAPEAU_object@@XZ
?createInstance@?$MPyTypeObjectStatic@VMUint64Array@@@@SAPEAU_object@@PEAU2@0@Z
?createInstance@?$MPyTypeObjectStatic@VMUint64Array@@@@SAPEAU_object@@XZ
?createInstance@?$MPyTypeObjectStatic@VMUintArray@@@@SAPEAU_object@@PEAU2@0@Z
?createInstance@?$MPyTypeObjectStatic@VMUintArray@@@@SAPEAU_object@@XZ
?createInstance@?$MPyTypeObjectStatic@VMVectorArray@@@@SAPEAU_object@@PEAU2@0@Z
?createInstance@?$MPyTypeObjectStatic@VMVectorArray@@@@SAPEAU_object@@XZ
?createInstance@MPyMAngle_Type@@SAPEAV?$MPyObject@VMAngle@@@@PEAU_object@@0@Z
?createInstance@MPyMAngle_Type@@SAPEAV?$MPyObject@VMAngle@@@@PEAVMAngle@@@Z
?createInstance@MPyMAngle_Type@@SAPEAV?$MPyObject@VMAngle@@@@XZ
?createInstance@MPyMArgDatabase_Type@@SAPEAV?$MPyObject@VMArgDatabase@@@@PEAU_object@@0@Z
?createInstance@MPyMArgDatabase_Type@@SAPEAV?$MPyObject@VMArgDatabase@@@@PEAVMArgDatabase@@@Z
?createInstance@MPyMArgDatabase_Type@@SAPEAV?$MPyObject@VMArgDatabase@@@@XZ
?createInstance@MPyMArgList_Type@@SAPEAVMPyMArgList@@PEAU_object@@0@Z
?createInstance@MPyMArgList_Type@@SAPEAVMPyMArgList@@PEAVMArgList@@@Z
?createInstance@MPyMArgList_Type@@SAPEAVMPyMArgList@@XZ
?createInstance@MPyMArgParser_Type@@SAPEAV?$MPyObject@VMArgParser@@@@PEAU_object@@0@Z
?createInstance@MPyMArgParser_Type@@SAPEAV?$MPyObject@VMArgParser@@@@PEAVMArgParser@@@Z
?createInstance@MPyMArgParser_Type@@SAPEAV?$MPyObject@VMArgParser@@@@XZ
?createInstance@MPyMArrayDataBuilder_Type@@SAPEAV?$MPyObject@VMArrayDataBuilder@@@@PEAU_object@@0@Z
?createInstance@MPyMArrayDataBuilder_Type@@SAPEAV?$MPyObject@VMArrayDataBuilder@@@@PEAVMArrayDataBuilder@@@Z
?createInstance@MPyMArrayDataBuilder_Type@@SAPEAV?$MPyObject@VMArrayDataBuilder@@@@XZ
?createInstance@MPyMArrayDataHandle_Type@@SAPEAVMPyMArrayDataHandle@@PEAU_object@@0@Z
?createInstance@MPyMArrayDataHandle_Type@@SAPEAVMPyMArrayDataHandle@@PEAVMArrayDataHandle@@@Z
?createInstance@MPyMArrayDataHandle_Type@@SAPEAVMPyMArrayDataHandle@@XZ
?createInstance@MPyMAttributeIndex_Type@@SAPEAV?$MPyObject@VMAttributeIndex@@@@PEAU_object@@0@Z
?createInstance@MPyMAttributeIndex_Type@@SAPEAV?$MPyObject@VMAttributeIndex@@@@PEAVMAttributeIndex@@@Z
?createInstance@MPyMAttributeIndex_Type@@SAPEAV?$MPyObject@VMAttributeIndex@@@@XZ
?createInstance@MPyMAttributePattern_Type@@SAPEAV?$MPyObject@VMAttributePattern@@@@PEAU_object@@0@Z
?createInstance@MPyMAttributePattern_Type@@SAPEAV?$MPyObject@VMAttributePattern@@@@PEAVMAttributePattern@@@Z
?createInstance@MPyMAttributePattern_Type@@SAPEAV?$MPyObject@VMAttributePattern@@@@XZ
?createInstance@MPyMAttributeSpecArray_Type@@SAPEAV?$MPyObject@VMAttributeSpecArray@@@@PEAU_object@@0@Z
?createInstance@MPyMAttributeSpecArray_Type@@SAPEAV?$MPyObject@VMAttributeSpecArray@@@@PEAVMAttributeSpecArray@@@Z
?createInstance@MPyMAttributeSpecArray_Type@@SAPEAV?$MPyObject@VMAttributeSpecArray@@@@XZ
?createInstance@MPyMAttributeSpec_Type@@SAPEAV?$MPyObject@VMAttributeSpec@@@@PEAU_object@@0@Z
?createInstance@MPyMAttributeSpec_Type@@SAPEAV?$MPyObject@VMAttributeSpec@@@@PEAVMAttributeSpec@@@Z
?createInstance@MPyMAttributeSpec_Type@@SAPEAV?$MPyObject@VMAttributeSpec@@@@XZ
?createInstance@MPyMBoundingBox_Type@@SAPEAV?$MPyObject@VMBoundingBox@@@@PEAU_object@@0@Z
?createInstance@MPyMBoundingBox_Type@@SAPEAV?$MPyObject@VMBoundingBox@@@@PEAVMBoundingBox@@@Z
?createInstance@MPyMBoundingBox_Type@@SAPEAV?$MPyObject@VMBoundingBox@@@@XZ
?createInstance@MPyMCallbackIdArray_Type@@SAPEAV?$MPyObject@VMCallbackIdArray@@@@PEAU_object@@0@Z
?createInstance@MPyMCallbackIdArray_Type@@SAPEAV?$MPyObject@VMCallbackIdArray@@@@PEAVMCallbackIdArray@@@Z
?createInstance@MPyMCallbackIdArray_Type@@SAPEAV?$MPyObject@VMCallbackIdArray@@@@XZ
?createInstance@MPyMColorArray_Type@@SAPEAV?$MPyObject@VMColorArray@@@@PEAU_object@@0@Z
?createInstance@MPyMColorArray_Type@@SAPEAV?$MPyObject@VMColorArray@@@@PEAVMColorArray@@@Z
?createInstance@MPyMColorArray_Type@@SAPEAV?$MPyObject@VMColorArray@@@@XZ
?createInstance@MPyMColor_Type@@SAPEAV?$MPyObject@VMColor@@@@PEAU_object@@0@Z
?createInstance@MPyMColor_Type@@SAPEAV?$MPyObject@VMColor@@@@PEAVMColor@@@Z
?createInstance@MPyMColor_Type@@SAPEAV?$MPyObject@VMColor@@@@XZ
?createInstance@MPyMDAGDrawOverrideInfo_Type@@SAPEAV?$MPyObject@VMDAGDrawOverrideInfo@@@@PEAU_object@@0@Z
?createInstance@MPyMDAGDrawOverrideInfo_Type@@SAPEAV?$MPyObject@VMDAGDrawOverrideInfo@@@@PEAVMDAGDrawOverrideInfo@@@Z
?createInstance@MPyMDAGDrawOverrideInfo_Type@@SAPEAV?$MPyObject@VMDAGDrawOverrideInfo@@@@XZ
?createInstance@MPyMDGContext_Type@@SAPEAV?$MPyObject@VMDGContext@@@@PEAU_object@@0@Z
?createInstance@MPyMDGContext_Type@@SAPEAV?$MPyObject@VMDGContext@@@@PEAVMDGContext@@@Z
?createInstance@MPyMDGContext_Type@@SAPEAV?$MPyObject@VMDGContext@@@@XZ
?createInstance@MPyMDGModifier_Type@@SAPEAV?$MPyObject@VMDGModifier@@@@PEAU_object@@0@Z
?createInstance@MPyMDGModifier_Type@@SAPEAV?$MPyObject@VMDGModifier@@@@PEAVMDGModifier@@@Z
?createInstance@MPyMDGModifier_Type@@SAPEAV?$MPyObject@VMDGModifier@@@@XZ
?createInstance@MPyMDagModifier_Type@@SAPEAV?$MPyObject@VMDagModifier@@@@PEAU_object@@0@Z
?createInstance@MPyMDagModifier_Type@@SAPEAV?$MPyObject@VMDagModifier@@@@PEAVMDagModifier@@@Z
?createInstance@MPyMDagModifier_Type@@SAPEAV?$MPyObject@VMDagModifier@@@@XZ
?createInstance@MPyMDagPathArray_Type@@SAPEAV?$MPyObject@VMDagPathArray@@@@PEAU_object@@0@Z
?createInstance@MPyMDagPathArray_Type@@SAPEAV?$MPyObject@VMDagPathArray@@@@PEAVMDagPathArray@@@Z
?createInstance@MPyMDagPathArray_Type@@SAPEAV?$MPyObject@VMDagPathArray@@@@XZ
?createInstance@MPyMDagPath_Type@@SAPEAV?$MPyObject@VMDagPath@@@@PEAU_object@@0@Z
?createInstance@MPyMDagPath_Type@@SAPEAV?$MPyObject@VMDagPath@@@@PEAVMDagPath@@@Z
?createInstance@MPyMDagPath_Type@@SAPEAV?$MPyObject@VMDagPath@@@@XZ
?createInstance@MPyMDataBlock_Type@@SAPEAV?$MPyObject@VMDataBlock@@@@PEAU_object@@0@Z
?createInstance@MPyMDataBlock_Type@@SAPEAV?$MPyObject@VMDataBlock@@@@PEAVMDataBlock@@@Z
?createInstance@MPyMDataBlock_Type@@SAPEAV?$MPyObject@VMDataBlock@@@@XZ
?createInstance@MPyMDataHandle_Type@@SAPEAV?$MPyObject@VMDataHandle@@@@PEAU_object@@0@Z
?createInstance@MPyMDataHandle_Type@@SAPEAV?$MPyObject@VMDataHandle@@@@PEAVMDataHandle@@@Z
?createInstance@MPyMDataHandle_Type@@SAPEAV?$MPyObject@VMDataHandle@@@@XZ
?createInstance@MPyMDistance_Type@@SAPEAV?$MPyObject@VMDistance@@@@PEAU_object@@0@Z
?createInstance@MPyMDistance_Type@@SAPEAV?$MPyObject@VMDistance@@@@PEAVMDistance@@@Z
?createInstance@MPyMDistance_Type@@SAPEAV?$MPyObject@VMDistance@@@@XZ
?createInstance@MPyMDoubleArray_Type@@SAPEAV?$MPyObject@VMDoubleArray@@@@PEAU_object@@0@Z
?createInstance@MPyMDoubleArray_Type@@SAPEAV?$MPyObject@VMDoubleArray@@@@PEAVMDoubleArray@@@Z
?createInstance@MPyMDoubleArray_Type@@SAPEAV?$MPyObject@VMDoubleArray@@@@XZ
?createInstance@MPyMEulerRotation_Type@@SAPEAV?$MPyObject@VMEulerRotation@@@@PEAU_object@@0@Z
?createInstance@MPyMEulerRotation_Type@@SAPEAV?$MPyObject@VMEulerRotation@@@@PEAVMEulerRotation@@@Z
?createInstance@MPyMEulerRotation_Type@@SAPEAV?$MPyObject@VMEulerRotation@@@@XZ
?createInstance@MPyMExternalContentInfoTable_Type@@SAPEAV?$MPyObject@VMExternalContentInfoTable@@@@PEAU_object@@0@Z
?createInstance@MPyMExternalContentInfoTable_Type@@SAPEAV?$MPyObject@VMExternalContentInfoTable@@@@PEAVMExternalContentInfoTable@@@Z
?createInstance@MPyMExternalContentInfoTable_Type@@SAPEAV?$MPyObject@VMExternalContentInfoTable@@@@XZ
?createInstance@MPyMExternalContentLocationTable_Type@@SAPEAV?$MPyObject@VMExternalContentLocationTable@@@@PEAU_object@@0@Z
?createInstance@MPyMExternalContentLocationTable_Type@@SAPEAV?$MPyObject@VMExternalContentLocationTable@@@@PEAVMExternalContentLocationTable@@@Z
?createInstance@MPyMExternalContentLocationTable_Type@@SAPEAV?$MPyObject@VMExternalContentLocationTable@@@@XZ
?createInstance@MPyMFileObject_Type@@SAPEAV?$MPyObject@VMFileObject@@@@PEAU_object@@0@Z
?createInstance@MPyMFileObject_Type@@SAPEAV?$MPyObject@VMFileObject@@@@PEAVMFileObject@@@Z
?createInstance@MPyMFileObject_Type@@SAPEAV?$MPyObject@VMFileObject@@@@XZ
?createInstance@MPyMFloatArray_Type@@SAPEAV?$MPyObject@VMFloatArray@@@@PEAU_object@@0@Z
?createInstance@MPyMFloatArray_Type@@SAPEAV?$MPyObject@VMFloatArray@@@@PEAVMFloatArray@@@Z
?createInstance@MPyMFloatArray_Type@@SAPEAV?$MPyObject@VMFloatArray@@@@XZ
?createInstance@MPyMFloatMatrix_Type@@SAPEAV?$MPyObject@VMFloatMatrix@@@@PEAU_object@@0@Z
?createInstance@MPyMFloatMatrix_Type@@SAPEAV?$MPyObject@VMFloatMatrix@@@@PEAVMFloatMatrix@@@Z
?createInstance@MPyMFloatMatrix_Type@@SAPEAV?$MPyObject@VMFloatMatrix@@@@XZ
?createInstance@MPyMFloatPointArray_Type@@SAPEAV?$MPyObject@VMFloatPointArray@@@@PEAU_object@@0@Z
?createInstance@MPyMFloatPointArray_Type@@SAPEAV?$MPyObject@VMFloatPointArray@@@@PEAVMFloatPointArray@@@Z
?createInstance@MPyMFloatPointArray_Type@@SAPEAV?$MPyObject@VMFloatPointArray@@@@XZ
?createInstance@MPyMFloatPoint_Type@@SAPEAV?$MPyObject@VMFloatPoint@@@@PEAU_object@@0@Z
?createInstance@MPyMFloatPoint_Type@@SAPEAV?$MPyObject@VMFloatPoint@@@@PEAVMFloatPoint@@@Z
?createInstance@MPyMFloatPoint_Type@@SAPEAV?$MPyObject@VMFloatPoint@@@@XZ
?createInstance@MPyMFloatVectorArray_Type@@SAPEAV?$MPyObject@VMFloatVectorArray@@@@PEAU_object@@0@Z
?createInstance@MPyMFloatVectorArray_Type@@SAPEAV?$MPyObject@VMFloatVectorArray@@@@PEAVMFloatVectorArray@@@Z
?createInstance@MPyMFloatVectorArray_Type@@SAPEAV?$MPyObject@VMFloatVectorArray@@@@XZ
?createInstance@MPyMFloatVector_Type@@SAPEAV?$MPyObject@VMFloatVector@@@@PEAU_object@@0@Z
?createInstance@MPyMFloatVector_Type@@SAPEAV?$MPyObject@VMFloatVector@@@@PEAVMFloatVector@@@Z
?createInstance@MPyMFloatVector_Type@@SAPEAV?$MPyObject@VMFloatVector@@@@XZ
?createInstance@MPyMFnAttribute_Type@@SAPEAV?$MPyObject@VMFnAttribute@@@@PEAU_object@@0@Z
?createInstance@MPyMFnAttribute_Type@@SAPEAV?$MPyObject@VMFnAttribute@@@@PEAVMFnAttribute@@@Z
?createInstance@MPyMFnAttribute_Type@@SAPEAV?$MPyObject@VMFnAttribute@@@@XZ
?createInstance@MPyMFnBase_Type@@SAPEAV?$MPyObject@VMFnBase@@@@PEAU_object@@0@Z
?createInstance@MPyMFnBase_Type@@SAPEAV?$MPyObject@VMFnBase@@@@PEAVMFnBase@@@Z
?createInstance@MPyMFnBase_Type@@SAPEAV?$MPyObject@VMFnBase@@@@XZ
?createInstance@MPyMFnCamera_Type@@SAPEAV?$MPyObject@VMFnCamera@@@@PEAU_object@@0@Z
?createInstance@MPyMFnCamera_Type@@SAPEAV?$MPyObject@VMFnCamera@@@@PEAVMFnCamera@@@Z
?createInstance@MPyMFnCamera_Type@@SAPEAV?$MPyObject@VMFnCamera@@@@XZ
?createInstance@MPyMFnComponentListData_Type@@SAPEAV?$MPyObject@VMFnComponentListData@@@@PEAU_object@@0@Z
?createInstance@MPyMFnComponentListData_Type@@SAPEAV?$MPyObject@VMFnComponentListData@@@@PEAVMFnComponentListData@@@Z
?createInstance@MPyMFnComponentListData_Type@@SAPEAV?$MPyObject@VMFnComponentListData@@@@XZ
?createInstance@MPyMFnComponent_Type@@SAPEAV?$MPyObject@VMFnComponent@@@@PEAU_object@@0@Z
?createInstance@MPyMFnComponent_Type@@SAPEAV?$MPyObject@VMFnComponent@@@@PEAVMFnComponent@@@Z
?createInstance@MPyMFnComponent_Type@@SAPEAV?$MPyObject@VMFnComponent@@@@XZ
?createInstance@MPyMFnCompoundAttribute_Type@@SAPEAV?$MPyObject@VMFnCompoundAttribute@@@@PEAU_object@@0@Z
?createInstance@MPyMFnCompoundAttribute_Type@@SAPEAV?$MPyObject@VMFnCompoundAttribute@@@@PEAVMFnCompoundAttribute@@@Z
?createInstance@MPyMFnCompoundAttribute_Type@@SAPEAV?$MPyObject@VMFnCompoundAttribute@@@@XZ
?createInstance@MPyMFnDagNode_Type@@SAPEAV?$MPyObject@VMFnDagNode@@@@PEAU_object@@0@Z
?createInstance@MPyMFnDagNode_Type@@SAPEAV?$MPyObject@VMFnDagNode@@@@PEAVMFnDagNode@@@Z
?createInstance@MPyMFnDagNode_Type@@SAPEAV?$MPyObject@VMFnDagNode@@@@XZ
?createInstance@MPyMFnData_Type@@SAPEAV?$MPyObject@VMFnData@@@@PEAU_object@@0@Z
?createInstance@MPyMFnData_Type@@SAPEAV?$MPyObject@VMFnData@@@@PEAVMFnData@@@Z
?createInstance@MPyMFnData_Type@@SAPEAV?$MPyObject@VMFnData@@@@XZ
?createInstance@MPyMFnDependencyNode_Type@@SAPEAV?$MPyObject@VMFnDependencyNode@@@@PEAU_object@@0@Z
?createInstance@MPyMFnDependencyNode_Type@@SAPEAV?$MPyObject@VMFnDependencyNode@@@@PEAVMFnDependencyNode@@@Z
?createInstance@MPyMFnDependencyNode_Type@@SAPEAV?$MPyObject@VMFnDependencyNode@@@@XZ
?createInstance@MPyMFnDoubleArrayData_Type@@SAPEAV?$MPyObject@VMFnDoubleArrayData@@@@PEAU_object@@0@Z
?createInstance@MPyMFnDoubleArrayData_Type@@SAPEAV?$MPyObject@VMFnDoubleArrayData@@@@PEAVMFnDoubleArrayData@@@Z
?createInstance@MPyMFnDoubleArrayData_Type@@SAPEAV?$MPyObject@VMFnDoubleArrayData@@@@XZ
?createInstance@MPyMFnDoubleIndexedComponent_Type@@SAPEAV?$MPyObject@VMFnDoubleIndexedComponent@@@@PEAU_object@@0@Z
?createInstance@MPyMFnDoubleIndexedComponent_Type@@SAPEAV?$MPyObject@VMFnDoubleIndexedComponent@@@@PEAVMFnDoubleIndexedComponent@@@Z
?createInstance@MPyMFnDoubleIndexedComponent_Type@@SAPEAV?$MPyObject@VMFnDoubleIndexedComponent@@@@XZ
?createInstance@MPyMFnEnumAttribute_Type@@SAPEAV?$MPyObject@VMFnEnumAttribute@@@@PEAU_object@@0@Z
?createInstance@MPyMFnEnumAttribute_Type@@SAPEAV?$MPyObject@VMFnEnumAttribute@@@@PEAVMFnEnumAttribute@@@Z
?createInstance@MPyMFnEnumAttribute_Type@@SAPEAV?$MPyObject@VMFnEnumAttribute@@@@XZ
?createInstance@MPyMFnFloatArrayData_Type@@SAPEAV?$MPyObject@VMFnFloatArrayData@@@@PEAU_object@@0@Z
?createInstance@MPyMFnFloatArrayData_Type@@SAPEAV?$MPyObject@VMFnFloatArrayData@@@@PEAVMFnFloatArrayData@@@Z
?createInstance@MPyMFnFloatArrayData_Type@@SAPEAV?$MPyObject@VMFnFloatArrayData@@@@XZ
?createInstance@MPyMFnGenericAttribute_Type@@SAPEAV?$MPyObject@VMFnGenericAttribute@@@@PEAU_object@@0@Z
?createInstance@MPyMFnGenericAttribute_Type@@SAPEAV?$MPyObject@VMFnGenericAttribute@@@@PEAVMFnGenericAttribute@@@Z
?createInstance@MPyMFnGenericAttribute_Type@@SAPEAV?$MPyObject@VMFnGenericAttribute@@@@XZ
?createInstance@MPyMFnGeometryData_Type@@SAPEAV?$MPyObject@VMFnGeometryData@@@@PEAU_object@@0@Z
?createInstance@MPyMFnGeometryData_Type@@SAPEAV?$MPyObject@VMFnGeometryData@@@@PEAVMFnGeometryData@@@Z
?createInstance@MPyMFnGeometryData_Type@@SAPEAV?$MPyObject@VMFnGeometryData@@@@XZ
?createInstance@MPyMFnIntArrayData_Type@@SAPEAV?$MPyObject@VMFnIntArrayData@@@@PEAU_object@@0@Z
?createInstance@MPyMFnIntArrayData_Type@@SAPEAV?$MPyObject@VMFnIntArrayData@@@@PEAVMFnIntArrayData@@@Z
?createInstance@MPyMFnIntArrayData_Type@@SAPEAV?$MPyObject@VMFnIntArrayData@@@@XZ
?createInstance@MPyMFnLightDataAttribute_Type@@SAPEAV?$MPyObject@VMFnLightDataAttribute@@@@PEAU_object@@0@Z
?createInstance@MPyMFnLightDataAttribute_Type@@SAPEAV?$MPyObject@VMFnLightDataAttribute@@@@PEAVMFnLightDataAttribute@@@Z
?createInstance@MPyMFnLightDataAttribute_Type@@SAPEAV?$MPyObject@VMFnLightDataAttribute@@@@XZ
?createInstance@MPyMFnMatrixArrayData_Type@@SAPEAV?$MPyObject@VMFnMatrixArrayData@@@@PEAU_object@@0@Z
?createInstance@MPyMFnMatrixArrayData_Type@@SAPEAV?$MPyObject@VMFnMatrixArrayData@@@@PEAVMFnMatrixArrayData@@@Z
?createInstance@MPyMFnMatrixArrayData_Type@@SAPEAV?$MPyObject@VMFnMatrixArrayData@@@@XZ
?createInstance@MPyMFnMatrixAttribute_Type@@SAPEAV?$MPyObject@VMFnMatrixAttribute@@@@PEAU_object@@0@Z
?createInstance@MPyMFnMatrixAttribute_Type@@SAPEAV?$MPyObject@VMFnMatrixAttribute@@@@PEAVMFnMatrixAttribute@@@Z
?createInstance@MPyMFnMatrixAttribute_Type@@SAPEAV?$MPyObject@VMFnMatrixAttribute@@@@XZ
?createInstance@MPyMFnMatrixData_Type@@SAPEAV?$MPyObject@VMFnMatrixData@@@@PEAU_object@@0@Z
?createInstance@MPyMFnMatrixData_Type@@SAPEAV?$MPyObject@VMFnMatrixData@@@@PEAVMFnMatrixData@@@Z
?createInstance@MPyMFnMatrixData_Type@@SAPEAV?$MPyObject@VMFnMatrixData@@@@XZ
?createInstance@MPyMFnMeshData_Type@@SAPEAV?$MPyObject@VMFnMeshData@@@@PEAU_object@@0@Z
?createInstance@MPyMFnMeshData_Type@@SAPEAV?$MPyObject@VMFnMeshData@@@@PEAVMFnMeshData@@@Z
?createInstance@MPyMFnMeshData_Type@@SAPEAV?$MPyObject@VMFnMeshData@@@@XZ
?createInstance@MPyMFnMesh_Type@@SAPEAV?$MPyObject@VMFnMesh@@@@PEAU_object@@0@Z
?createInstance@MPyMFnMesh_Type@@SAPEAV?$MPyObject@VMFnMesh@@@@PEAVMFnMesh@@@Z
?createInstance@MPyMFnMesh_Type@@SAPEAV?$MPyObject@VMFnMesh@@@@XZ
?createInstance@MPyMFnMessageAttribute_Type@@SAPEAV?$MPyObject@VMFnMessageAttribute@@@@PEAU_object@@0@Z
?createInstance@MPyMFnMessageAttribute_Type@@SAPEAV?$MPyObject@VMFnMessageAttribute@@@@PEAVMFnMessageAttribute@@@Z
?createInstance@MPyMFnMessageAttribute_Type@@SAPEAV?$MPyObject@VMFnMessageAttribute@@@@XZ
?createInstance@MPyMFnNumericAttribute_Type@@SAPEAV?$MPyObject@VMFnNumericAttribute@@@@PEAU_object@@0@Z
?createInstance@MPyMFnNumericAttribute_Type@@SAPEAV?$MPyObject@VMFnNumericAttribute@@@@PEAVMFnNumericAttribute@@@Z
?createInstance@MPyMFnNumericAttribute_Type@@SAPEAV?$MPyObject@VMFnNumericAttribute@@@@XZ
?createInstance@MPyMFnNumericData_Type@@SAPEAV?$MPyObject@VMFnNumericData@@@@PEAU_object@@0@Z
?createInstance@MPyMFnNumericData_Type@@SAPEAV?$MPyObject@VMFnNumericData@@@@PEAVMFnNumericData@@@Z
?createInstance@MPyMFnNumericData_Type@@SAPEAV?$MPyObject@VMFnNumericData@@@@XZ
?createInstance@MPyMFnNurbsCurveData_Type@@SAPEAV?$MPyObject@VMFnNurbsCurveData@@@@PEAU_object@@0@Z
?createInstance@MPyMFnNurbsCurveData_Type@@SAPEAV?$MPyObject@VMFnNurbsCurveData@@@@PEAVMFnNurbsCurveData@@@Z
?createInstance@MPyMFnNurbsCurveData_Type@@SAPEAV?$MPyObject@VMFnNurbsCurveData@@@@XZ
?createInstance@MPyMFnNurbsCurve_Type@@SAPEAV?$MPyObject@VMFnNurbsCurve@@@@PEAU_object@@0@Z
?createInstance@MPyMFnNurbsCurve_Type@@SAPEAV?$MPyObject@VMFnNurbsCurve@@@@PEAVMFnNurbsCurve@@@Z
?createInstance@MPyMFnNurbsCurve_Type@@SAPEAV?$MPyObject@VMFnNurbsCurve@@@@XZ
?createInstance@MPyMFnNurbsSurfaceData_Type@@SAPEAV?$MPyObject@VMFnNurbsSurfaceData@@@@PEAU_object@@0@Z
?createInstance@MPyMFnNurbsSurfaceData_Type@@SAPEAV?$MPyObject@VMFnNurbsSurfaceData@@@@PEAVMFnNurbsSurfaceData@@@Z
?createInstance@MPyMFnNurbsSurfaceData_Type@@SAPEAV?$MPyObject@VMFnNurbsSurfaceData@@@@XZ
?createInstance@MPyMFnNurbsSurface_Type@@SAPEAV?$MPyObject@VMFnNurbsSurface@@@@PEAU_object@@0@Z
?createInstance@MPyMFnNurbsSurface_Type@@SAPEAV?$MPyObject@VMFnNurbsSurface@@@@PEAVMFnNurbsSurface@@@Z
?createInstance@MPyMFnNurbsSurface_Type@@SAPEAV?$MPyObject@VMFnNurbsSurface@@@@XZ
?createInstance@MPyMFnPluginData_Type@@SAPEAV?$MPyObject@VMFnPluginData@@@@PEAU_object@@0@Z
?createInstance@MPyMFnPluginData_Type@@SAPEAV?$MPyObject@VMFnPluginData@@@@PEAVMFnPluginData@@@Z
?createInstance@MPyMFnPluginData_Type@@SAPEAV?$MPyObject@VMFnPluginData@@@@XZ
?createInstance@MPyMFnPlugin_Type@@SAPEAV?$MPyObject@VMFnPlugin@@@@PEAU_object@@0@Z
?createInstance@MPyMFnPlugin_Type@@SAPEAV?$MPyObject@VMFnPlugin@@@@PEAVMFnPlugin@@@Z
?createInstance@MPyMFnPlugin_Type@@SAPEAV?$MPyObject@VMFnPlugin@@@@XZ
?createInstance@MPyMFnPointArrayData_Type@@SAPEAV?$MPyObject@VMFnPointArrayData@@@@PEAU_object@@0@Z
?createInstance@MPyMFnPointArrayData_Type@@SAPEAV?$MPyObject@VMFnPointArrayData@@@@PEAVMFnPointArrayData@@@Z
?createInstance@MPyMFnPointArrayData_Type@@SAPEAV?$MPyObject@VMFnPointArrayData@@@@XZ
?createInstance@MPyMFnSingleIndexedComponent_Type@@SAPEAV?$MPyObject@VMFnSingleIndexedComponent@@@@PEAU_object@@0@Z
?createInstance@MPyMFnSingleIndexedComponent_Type@@SAPEAV?$MPyObject@VMFnSingleIndexedComponent@@@@PEAVMFnSingleIndexedComponent@@@Z
?createInstance@MPyMFnSingleIndexedComponent_Type@@SAPEAV?$MPyObject@VMFnSingleIndexedComponent@@@@XZ
?createInstance@MPyMFnStringArrayData_Type@@SAPEAV?$MPyObject@VMFnStringArrayData@@@@PEAU_object@@0@Z
?createInstance@MPyMFnStringArrayData_Type@@SAPEAV?$MPyObject@VMFnStringArrayData@@@@PEAVMFnStringArrayData@@@Z
?createInstance@MPyMFnStringArrayData_Type@@SAPEAV?$MPyObject@VMFnStringArrayData@@@@XZ
?createInstance@MPyMFnStringData_Type@@SAPEAV?$MPyObject@VMFnStringData@@@@PEAU_object@@0@Z
?createInstance@MPyMFnStringData_Type@@SAPEAV?$MPyObject@VMFnStringData@@@@PEAVMFnStringData@@@Z
?createInstance@MPyMFnStringData_Type@@SAPEAV?$MPyObject@VMFnStringData@@@@XZ
?createInstance@MPyMFnTransform_Type@@SAPEAV?$MPyObject@VMFnTransform@@@@PEAU_object@@0@Z
?createInstance@MPyMFnTransform_Type@@SAPEAV?$MPyObject@VMFnTransform@@@@PEAVMFnTransform@@@Z
?createInstance@MPyMFnTransform_Type@@SAPEAV?$MPyObject@VMFnTransform@@@@XZ
?createInstance@MPyMFnTripleIndexedComponent_Type@@SAPEAV?$MPyObject@VMFnTripleIndexedComponent@@@@PEAU_object@@0@Z
?createInstance@MPyMFnTripleIndexedComponent_Type@@SAPEAV?$MPyObject@VMFnTripleIndexedComponent@@@@PEAVMFnTripleIndexedComponent@@@Z
?createInstance@MPyMFnTripleIndexedComponent_Type@@SAPEAV?$MPyObject@VMFnTripleIndexedComponent@@@@XZ
?createInstance@MPyMFnTypedAttribute_Type@@SAPEAV?$MPyObject@VMFnTypedAttribute@@@@PEAU_object@@0@Z
?createInstance@MPyMFnTypedAttribute_Type@@SAPEAV?$MPyObject@VMFnTypedAttribute@@@@PEAVMFnTypedAttribute@@@Z
?createInstance@MPyMFnTypedAttribute_Type@@SAPEAV?$MPyObject@VMFnTypedAttribute@@@@XZ
?createInstance@MPyMFnUInt64ArrayData_Type@@SAPEAV?$MPyObject@VMFnUInt64ArrayData@@@@PEAU_object@@0@Z
?createInstance@MPyMFnUInt64ArrayData_Type@@SAPEAV?$MPyObject@VMFnUInt64ArrayData@@@@PEAVMFnUInt64ArrayData@@@Z
?createInstance@MPyMFnUInt64ArrayData_Type@@SAPEAV?$MPyObject@VMFnUInt64ArrayData@@@@XZ
?createInstance@MPyMFnUnitAttribute_Type@@SAPEAV?$MPyObject@VMFnUnitAttribute@@@@PEAU_object@@0@Z
?createInstance@MPyMFnUnitAttribute_Type@@SAPEAV?$MPyObject@VMFnUnitAttribute@@@@PEAVMFnUnitAttribute@@@Z
?createInstance@MPyMFnUnitAttribute_Type@@SAPEAV?$MPyObject@VMFnUnitAttribute@@@@XZ
?createInstance@MPyMFnVectorArrayData_Type@@SAPEAV?$MPyObject@VMFnVectorArrayData@@@@PEAU_object@@0@Z
?createInstance@MPyMFnVectorArrayData_Type@@SAPEAV?$MPyObject@VMFnVectorArrayData@@@@PEAVMFnVectorArrayData@@@Z
?createInstance@MPyMFnVectorArrayData_Type@@SAPEAV?$MPyObject@VMFnVectorArrayData@@@@XZ
?createInstance@MPyMImage_Type@@SAPEAV?$MPyObject@VMImage@@@@PEAU_object@@0@Z
?createInstance@MPyMImage_Type@@SAPEAV?$MPyObject@VMImage@@@@PEAVMImage@@@Z
?createInstance@MPyMImage_Type@@SAPEAV?$MPyObject@VMImage@@@@XZ
?createInstance@MPyMInt64Array_Type@@SAPEAV?$MPyObject@VMInt64Array@@@@PEAU_object@@0@Z
?createInstance@MPyMInt64Array_Type@@SAPEAV?$MPyObject@VMInt64Array@@@@PEAVMInt64Array@@@Z
?createInstance@MPyMInt64Array_Type@@SAPEAV?$MPyObject@VMInt64Array@@@@XZ
?createInstance@MPyMIntArray_Type@@SAPEAV?$MPyObject@VMIntArray@@@@PEAU_object@@0@Z
?createInstance@MPyMIntArray_Type@@SAPEAV?$MPyObject@VMIntArray@@@@PEAVMIntArray@@@Z
?createInstance@MPyMIntArray_Type@@SAPEAV?$MPyObject@VMIntArray@@@@XZ
?createInstance@MPyMItMeshEdge_Type@@SAPEAV?$MPyObject@VMItMeshEdge@@@@PEAU_object@@0@Z
?createInstance@MPyMItMeshEdge_Type@@SAPEAV?$MPyObject@VMItMeshEdge@@@@PEAVMItMeshEdge@@@Z
?createInstance@MPyMItMeshEdge_Type@@SAPEAV?$MPyObject@VMItMeshEdge@@@@XZ
?createInstance@MPyMItMeshFaceVertex_Type@@SAPEAV?$MPyObject@VMItMeshFaceVertex@@@@PEAU_object@@0@Z
?createInstance@MPyMItMeshFaceVertex_Type@@SAPEAV?$MPyObject@VMItMeshFaceVertex@@@@PEAVMItMeshFaceVertex@@@Z
?createInstance@MPyMItMeshFaceVertex_Type@@SAPEAV?$MPyObject@VMItMeshFaceVertex@@@@XZ
?createInstance@MPyMItMeshPolygon_Type@@SAPEAV?$MPyObject@VMItMeshPolygon@@@@PEAU_object@@0@Z
?createInstance@MPyMItMeshPolygon_Type@@SAPEAV?$MPyObject@VMItMeshPolygon@@@@PEAVMItMeshPolygon@@@Z
?createInstance@MPyMItMeshPolygon_Type@@SAPEAV?$MPyObject@VMItMeshPolygon@@@@XZ
?createInstance@MPyMItMeshVertex_Type@@SAPEAV?$MPyObject@VMItMeshVertex@@@@PEAU_object@@0@Z
?createInstance@MPyMItMeshVertex_Type@@SAPEAV?$MPyObject@VMItMeshVertex@@@@PEAVMItMeshVertex@@@Z
?createInstance@MPyMItMeshVertex_Type@@SAPEAV?$MPyObject@VMItMeshVertex@@@@XZ
?createInstance@MPyMItSelectionList_Type@@SAPEAV?$MPyObject@VMItSelectionList@@@@PEAU_object@@0@Z
?createInstance@MPyMItSelectionList_Type@@SAPEAV?$MPyObject@VMItSelectionList@@@@PEAVMItSelectionList@@@Z
?createInstance@MPyMItSelectionList_Type@@SAPEAV?$MPyObject@VMItSelectionList@@@@XZ
?createInstance@MPyMItSurfaceCV_Type@@SAPEAV?$MPyObject@VMItSurfaceCV@@@@PEAU_object@@0@Z
?createInstance@MPyMItSurfaceCV_Type@@SAPEAV?$MPyObject@VMItSurfaceCV@@@@PEAVMItSurfaceCV@@@Z
?createInstance@MPyMItSurfaceCV_Type@@SAPEAV?$MPyObject@VMItSurfaceCV@@@@XZ
?createInstance@MPyMMatrixArray_Type@@SAPEAV?$MPyObject@VMMatrixArray@@@@PEAU_object@@0@Z
?createInstance@MPyMMatrixArray_Type@@SAPEAV?$MPyObject@VMMatrixArray@@@@PEAVMMatrixArray@@@Z
?createInstance@MPyMMatrixArray_Type@@SAPEAV?$MPyObject@VMMatrixArray@@@@XZ
?createInstance@MPyMMatrix_Type@@SAPEAV?$MPyObject@VMMatrix@@@@PEAU_object@@0@Z
?createInstance@MPyMMatrix_Type@@SAPEAV?$MPyObject@VMMatrix@@@@PEAVMMatrix@@@Z
?createInstance@MPyMMatrix_Type@@SAPEAV?$MPyObject@VMMatrix@@@@XZ
?createInstance@MPyMMeshIntersector_Type@@SAPEAV?$MPyObject@VMMeshIntersector@@@@PEAU_object@@0@Z
?createInstance@MPyMMeshIntersector_Type@@SAPEAV?$MPyObject@VMMeshIntersector@@@@PEAVMMeshIntersector@@@Z
?createInstance@MPyMMeshIntersector_Type@@SAPEAV?$MPyObject@VMMeshIntersector@@@@XZ
?createInstance@MPyMMeshIsectAccelParams_Type@@SAPEAV?$MPyObject@VMMeshIsectAccelParams@@@@PEAU_object@@0@Z
?createInstance@MPyMMeshIsectAccelParams_Type@@SAPEAV?$MPyObject@VMMeshIsectAccelParams@@@@PEAVMMeshIsectAccelParams@@@Z
?createInstance@MPyMMeshIsectAccelParams_Type@@SAPEAV?$MPyObject@VMMeshIsectAccelParams@@@@XZ
?createInstance@MPyMMeshSmoothOptions_Type@@SAPEAV?$MPyObject@VMMeshSmoothOptions@@@@PEAU_object@@0@Z
?createInstance@MPyMMeshSmoothOptions_Type@@SAPEAV?$MPyObject@VMMeshSmoothOptions@@@@PEAVMMeshSmoothOptions@@@Z
?createInstance@MPyMMeshSmoothOptions_Type@@SAPEAV?$MPyObject@VMMeshSmoothOptions@@@@XZ
?createInstance@MPyMNodeClass_Type@@SAPEAV?$MPyObject@VMNodeClass@@@@PEAU_object@@0@Z
?createInstance@MPyMNodeClass_Type@@SAPEAV?$MPyObject@VMNodeClass@@@@PEAVMNodeClass@@@Z
?createInstance@MPyMNodeClass_Type@@SAPEAV?$MPyObject@VMNodeClass@@@@XZ
?createInstance@MPyMObjectArray_Type@@SAPEAV?$MPyObject@VMObjectArray@@@@PEAU_object@@0@Z
?createInstance@MPyMObjectArray_Type@@SAPEAV?$MPyObject@VMObjectArray@@@@PEAVMObjectArray@@@Z
?createInstance@MPyMObjectArray_Type@@SAPEAV?$MPyObject@VMObjectArray@@@@XZ
?createInstance@MPyMObjectHandle_Type@@SAPEAV?$MPyObject@VMObjectHandle@@@@PEAU_object@@0@Z
?createInstance@MPyMObjectHandle_Type@@SAPEAV?$MPyObject@VMObjectHandle@@@@PEAVMObjectHandle@@@Z
?createInstance@MPyMObjectHandle_Type@@SAPEAV?$MPyObject@VMObjectHandle@@@@XZ
?createInstance@MPyMObject_Type@@SAPEAV?$MPyObject@VMObject@@@@PEAU_object@@0@Z
?createInstance@MPyMObject_Type@@SAPEAV?$MPyObject@VMObject@@@@PEAVMObject@@@Z
?createInstance@MPyMObject_Type@@SAPEAV?$MPyObject@VMObject@@@@XZ
?createInstance@MPyMPlane_Type@@SAPEAV?$MPyObject@VMPlane@@@@PEAU_object@@0@Z
?createInstance@MPyMPlane_Type@@SAPEAV?$MPyObject@VMPlane@@@@PEAVMPlane@@@Z
?createInstance@MPyMPlane_Type@@SAPEAV?$MPyObject@VMPlane@@@@XZ
?createInstance@MPyMPlugArray_Type@@SAPEAV?$MPyObject@VMPlugArray@@@@PEAU_object@@0@Z
?createInstance@MPyMPlugArray_Type@@SAPEAV?$MPyObject@VMPlugArray@@@@PEAVMPlugArray@@@Z
?createInstance@MPyMPlugArray_Type@@SAPEAV?$MPyObject@VMPlugArray@@@@XZ
?createInstance@MPyMPlug_Type@@SAPEAV?$MPyObject@VMPlug@@@@PEAU_object@@0@Z
?createInstance@MPyMPlug_Type@@SAPEAV?$MPyObject@VMPlug@@@@PEAVMPlug@@@Z
?createInstance@MPyMPlug_Type@@SAPEAV?$MPyObject@VMPlug@@@@XZ
?createInstance@MPyMPointArray_Type@@SAPEAV?$MPyObject@VMPointArray@@@@PEAU_object@@0@Z
?createInstance@MPyMPointArray_Type@@SAPEAV?$MPyObject@VMPointArray@@@@PEAVMPointArray@@@Z
?createInstance@MPyMPointArray_Type@@SAPEAV?$MPyObject@VMPointArray@@@@XZ
?createInstance@MPyMPointOnMesh_Type@@SAPEAV?$MPyObject@VMPointOnMesh@@@@PEAU_object@@0@Z
?createInstance@MPyMPointOnMesh_Type@@SAPEAV?$MPyObject@VMPointOnMesh@@@@PEAVMPointOnMesh@@@Z
?createInstance@MPyMPointOnMesh_Type@@SAPEAV?$MPyObject@VMPointOnMesh@@@@XZ
?createInstance@MPyMPoint_Type@@SAPEAV?$MPyObject@VMPoint@@@@PEAU_object@@0@Z
?createInstance@MPyMPoint_Type@@SAPEAV?$MPyObject@VMPoint@@@@PEAVMPoint@@@Z
?createInstance@MPyMPoint_Type@@SAPEAV?$MPyObject@VMPoint@@@@XZ
?createInstance@MPyMPxAttributePatternFactory_Type@@SAPEAV?$MPyObject@VMPyMPxAttributePatternFactory_Director@@@@PEAU_object@@0@Z
?createInstance@MPyMPxAttributePatternFactory_Type@@SAPEAV?$MPyObject@VMPyMPxAttributePatternFactory_Director@@@@PEAVMPyMPxAttributePatternFactory_Director@@@Z
?createInstance@MPyMPxAttributePatternFactory_Type@@SAPEAV?$MPyObject@VMPyMPxAttributePatternFactory_Director@@@@XZ
?createInstance@MPyMPxCommand_Type@@SAPEAV?$MPyObject@VMPyMPxCommand_Director@@@@PEAU_object@@0@Z
?createInstance@MPyMPxCommand_Type@@SAPEAV?$MPyObject@VMPyMPxCommand_Director@@@@PEAVMPyMPxCommand_Director@@@Z
?createInstance@MPyMPxCommand_Type@@SAPEAV?$MPyObject@VMPyMPxCommand_Director@@@@XZ
?createInstance@MPyMPxData_Type@@SAPEAV?$MPyObject@VMPxData@@@@PEAU_object@@0@Z
?createInstance@MPyMPxData_Type@@SAPEAV?$MPyObject@VMPxData@@@@PEAVMPxData@@@Z
?createInstance@MPyMPxData_Type@@SAPEAV?$MPyObject@VMPxData@@@@XZ
?createInstance@MPyMPxGeometryData_Type@@SAPEAV?$MPyObject@VMPxGeometryData@@@@PEAU_object@@0@Z
?createInstance@MPyMPxGeometryData_Type@@SAPEAV?$MPyObject@VMPxGeometryData@@@@PEAVMPxGeometryData@@@Z
?createInstance@MPyMPxGeometryData_Type@@SAPEAV?$MPyObject@VMPxGeometryData@@@@XZ
?createInstance@MPyMPxGeometryIterator_Type@@SAPEAV?$MPyObject@VMPxGeometryIterator@@@@PEAU_object@@0@Z
?createInstance@MPyMPxGeometryIterator_Type@@SAPEAV?$MPyObject@VMPxGeometryIterator@@@@PEAVMPxGeometryIterator@@@Z
?createInstance@MPyMPxGeometryIterator_Type@@SAPEAV?$MPyObject@VMPxGeometryIterator@@@@XZ
?createInstance@MPyMPxNode_Type@@SAPEAV?$MPyObject@VMPxNode@@@@PEAU_object@@0@Z
?createInstance@MPyMPxNode_Type@@SAPEAV?$MPyObject@VMPxNode@@@@PEAVMPxNode@@@Z
?createInstance@MPyMPxNode_Type@@SAPEAV?$MPyObject@VMPxNode@@@@XZ
?createInstance@MPyMPxSurfaceShape_Type@@SAPEAV?$MPyObject@VMPxSurfaceShape@@@@PEAU_object@@0@Z
?createInstance@MPyMPxSurfaceShape_Type@@SAPEAV?$MPyObject@VMPxSurfaceShape@@@@PEAVMPxSurfaceShape@@@Z
?createInstance@MPyMPxSurfaceShape_Type@@SAPEAV?$MPyObject@VMPxSurfaceShape@@@@XZ
?createInstance@MPyMQuaternion_Type@@SAPEAV?$MPyObject@VMQuaternion@@@@PEAU_object@@0@Z
?createInstance@MPyMQuaternion_Type@@SAPEAV?$MPyObject@VMQuaternion@@@@PEAVMQuaternion@@@Z
?createInstance@MPyMQuaternion_Type@@SAPEAV?$MPyObject@VMQuaternion@@@@XZ
?createInstance@MPyMRampAttribute_Type@@SAPEAV?$MPyObject@VMRampAttribute@@@@PEAU_object@@0@Z
?createInstance@MPyMRampAttribute_Type@@SAPEAV?$MPyObject@VMRampAttribute@@@@PEAVMRampAttribute@@@Z
?createInstance@MPyMRampAttribute_Type@@SAPEAV?$MPyObject@VMRampAttribute@@@@XZ
?createInstance@MPyMRichSelection_Type@@SAPEAV?$MPyObject@VMRichSelection@@@@PEAU_object@@0@Z
?createInstance@MPyMRichSelection_Type@@SAPEAV?$MPyObject@VMRichSelection@@@@PEAVMRichSelection@@@Z
?createInstance@MPyMRichSelection_Type@@SAPEAV?$MPyObject@VMRichSelection@@@@XZ
?createInstance@MPyMSelectionList_Type@@SAPEAV?$MPyObject@VMSelectionList@@@@PEAU_object@@0@Z
?createInstance@MPyMSelectionList_Type@@SAPEAV?$MPyObject@VMSelectionList@@@@PEAVMSelectionList@@@Z
?createInstance@MPyMSelectionList_Type@@SAPEAV?$MPyObject@VMSelectionList@@@@XZ
?createInstance@MPyMSelectionMask_Type@@SAPEAV?$MPyObject@VMSelectionMask@@@@PEAU_object@@0@Z
?createInstance@MPyMSelectionMask_Type@@SAPEAV?$MPyObject@VMSelectionMask@@@@PEAVMSelectionMask@@@Z
?createInstance@MPyMSelectionMask_Type@@SAPEAV?$MPyObject@VMSelectionMask@@@@XZ
?createInstance@MPyMSyntax_Type@@SAPEAV?$MPyObject@VMSyntax@@@@PEAU_object@@0@Z
?createInstance@MPyMSyntax_Type@@SAPEAV?$MPyObject@VMSyntax@@@@PEAVMSyntax@@@Z
?createInstance@MPyMSyntax_Type@@SAPEAV?$MPyObject@VMSyntax@@@@XZ
?createInstance@MPyMTimeArray_Type@@SAPEAV?$MPyObject@VMTimeArray@@@@PEAU_object@@0@Z
?createInstance@MPyMTimeArray_Type@@SAPEAV?$MPyObject@VMTimeArray@@@@PEAVMTimeArray@@@Z
?createInstance@MPyMTimeArray_Type@@SAPEAV?$MPyObject@VMTimeArray@@@@XZ
?createInstance@MPyMTime_Type@@SAPEAV?$MPyObject@VMTime@@@@PEAU_object@@0@Z
?createInstance@MPyMTime_Type@@SAPEAV?$MPyObject@VMTime@@@@PEAVMTime@@@Z
?createInstance@MPyMTime_Type@@SAPEAV?$MPyObject@VMTime@@@@XZ
?createInstance@MPyMTransformationMatrix_Type@@SAPEAV?$MPyObject@VMTransformationMatrix@@@@PEAU_object@@0@Z
?createInstance@MPyMTransformationMatrix_Type@@SAPEAV?$MPyObject@VMTransformationMatrix@@@@PEAVMTransformationMatrix@@@Z
?createInstance@MPyMTransformationMatrix_Type@@SAPEAV?$MPyObject@VMTransformationMatrix@@@@XZ
?createInstance@MPyMTypeId_Type@@SAPEAV?$MPyObject@VMTypeId@@@@PEAU_object@@0@Z
?createInstance@MPyMTypeId_Type@@SAPEAV?$MPyObject@VMTypeId@@@@PEAVMTypeId@@@Z
?createInstance@MPyMTypeId_Type@@SAPEAV?$MPyObject@VMTypeId@@@@XZ
?createInstance@MPyMUint64Array_Type@@SAPEAV?$MPyObject@VMUint64Array@@@@PEAU_object@@0@Z
?createInstance@MPyMUint64Array_Type@@SAPEAV?$MPyObject@VMUint64Array@@@@PEAVMUint64Array@@@Z
?createInstance@MPyMUint64Array_Type@@SAPEAV?$MPyObject@VMUint64Array@@@@XZ
?createInstance@MPyMUintArray_Type@@SAPEAV?$MPyObject@VMUintArray@@@@PEAU_object@@0@Z
?createInstance@MPyMUintArray_Type@@SAPEAV?$MPyObject@VMUintArray@@@@PEAVMUintArray@@@Z
?createInstance@MPyMUintArray_Type@@SAPEAV?$MPyObject@VMUintArray@@@@XZ
?createInstance@MPyMUserData_Type@@SAPEAV?$MPyObject@VMUserData@@@@PEAU_object@@0@Z
?createInstance@MPyMUserData_Type@@SAPEAV?$MPyObject@VMUserData@@@@PEAVMUserData@@@Z
?createInstance@MPyMUserData_Type@@SAPEAV?$MPyObject@VMUserData@@@@XZ
?createInstance@MPyMUuid_Type@@SAPEAV?$MPyObject@VMUuid@@@@PEAU_object@@0@Z
?createInstance@MPyMUuid_Type@@SAPEAV?$MPyObject@VMUuid@@@@PEAVMUuid@@@Z
?createInstance@MPyMUuid_Type@@SAPEAV?$MPyObject@VMUuid@@@@XZ
?createInstance@MPyMVectorArray_Type@@SAPEAV?$MPyObject@VMVectorArray@@@@PEAU_object@@0@Z
?createInstance@MPyMVectorArray_Type@@SAPEAV?$MPyObject@VMVectorArray@@@@PEAVMVectorArray@@@Z
?createInstance@MPyMVectorArray_Type@@SAPEAV?$MPyObject@VMVectorArray@@@@XZ
?createInstance@MPyMVector_Type@@SAPEAV?$MPyObject@VMVector@@@@PEAU_object@@0@Z
?createInstance@MPyMVector_Type@@SAPEAV?$MPyObject@VMVector@@@@PEAVMVector@@@Z
?createInstance@MPyMVector_Type@@SAPEAV?$MPyObject@VMVector@@@@XZ
?createInstance@MPyMWeight_Type@@SAPEAV?$MPyObject@VMWeight@@@@PEAU_object@@0@Z
?createInstance@MPyMWeight_Type@@SAPEAV?$MPyObject@VMWeight@@@@PEAVMWeight@@@Z
?createInstance@MPyMWeight_Type@@SAPEAV?$MPyObject@VMWeight@@@@XZ
?createInstance@MPyTypeObjectHelper@@SAPEAU_object@@AEAU_typeobject@@PEAU2@1@Z
?createIntArrayFromList@MScriptUtil@@SA_NPEAXAEAVMIntArray@@@Z
?createIterator@MItGeometry@@AEAAXAEAVMDataHandle@@_NPEAXI1PEAVMStatus@@@Z
?createMObject@MFnNurbsCurve@@IEAA?AVMObject@@AEAV2@PEAVTnurbsCurve@@PEAVMStatus@@@Z
?createMatrixFromList@MScriptUtil@@SA_NPEAXAEAVMMatrix@@@Z
?createNode@MDGModifier@@QEAA?AVMObject@@AEBVMString@@PEAVMStatus@@@Z
?createNode@MDGModifier@@QEAA?AVMObject@@AEBVMTypeId@@PEAVMStatus@@@Z
?createNode@MDagModifier@@QEAA?AVMObject@@AEBVMString@@AEBV2@PEAVMStatus@@@Z
?createNode@MDagModifier@@QEAA?AVMObject@@AEBVMTypeId@@AEBV2@PEAVMStatus@@@Z
?createNode@TpluginNode@@UEAAPEAVTdependNode@@XZ
?createNodeFromMetaClass@MDGModifier@@AEAA?AVMObject@@PEAVTmetaclass@@PEAVMStatus@@@Z
?createPatternsFromFile@MPyMPxAttributePatternFactory_Director@@UEBA?AVMStatus@@AEBVMString@@AEAVMAttributePatternArray@@@Z
?createPatternsFromFile@THattributePatternFactory@@UEBA_NAEBVTstring@@AEAVTattributePatternArray@@@Z
?createPatternsFromString@MPyMPxAttributePatternFactory_Director@@UEBA?AVMStatus@@AEBVMString@@AEAVMAttributePatternArray@@@Z
?createPatternsFromString@THattributePatternFactory@@UEBA_NAEBVTstring@@AEAVTattributePatternArray@@@Z
?createPoint@MFnNumericAttribute@@QEAA?AVMObject@@AEBVMString@@0PEAVMStatus@@@Z
?createRamp@MRampAttribute@@SA?AVMObject@@AEBVMString@@0AEBV2@AEBVMColor@@MW4MInterpolation@1@PEAVMStatus@@@Z
?createRamp@MRampAttribute@@SA?AVMObject@@AEBVMString@@0AEBV2@AEBVMColorArray@@AEBVMFloatArray@@AEBVMIntArray@@PEAVMStatus@@@Z
?createRamp@MRampAttribute@@SA?AVMObject@@AEBVMString@@0AEBV2@AEBVMFloatArray@@2AEBVMIntArray@@PEAVMStatus@@@Z
?createRamp@MRampAttribute@@SA?AVMObject@@AEBVMString@@0AEBV2@MMW4MInterpolation@1@PEAVMStatus@@@Z
?createRepresentation@MFnAssembly@@QEAA?AVMString@@AEBV2@00PEAVMDagModifier@@PEAVMStatus@@@Z
?createRepresentation@MFnAssembly@@QEAA?AVMString@@AEBV2@0PEAVMDagModifier@@PEAVMStatus@@@Z
?createSharedList@MPyMArgList@@SAPEAV1@AEBVMArgList@@@Z
?createSyntax@TpluginCmd@@QEAAPEAVTsyntax@@XZ
?createTask@MThreadAsync@@SA?AVMStatus@@P6AJPEAX@Z0P6AX0@ZPEAVMThreadRootTask@@@Z
?createTask@MThreadPool@@SA?AVMStatus@@P6AJPEAX@Z0PEAVMThreadRootTask@@@Z
?createTransformationMatrix@MPxTransform@@UEAAPEAVMPxTransformationMatrix@@XZ
?createUVSet@MFnMesh@@QEAA?AVMStatus@@AEAVMString@@PEAVMDGModifier@@PEBVMUintArray@@@Z
?createUVSetDataMesh@MFnMesh@@QEAA?AVMStatus@@AEAVMString@@@Z
?createUVSetDataMeshWithName@MFnMesh@@QEAA?AVMString@@AEBV2@PEAVMStatus@@@Z
?createUVSetWithName@MFnMesh@@QEAA?AVMString@@AEBV2@PEAVMDGModifier@@PEAVMStatus@@PEBVMUintArray@@@Z
?createUserNode@TpluginNode@@QEAAPEAVMPxNode@@PEAVTdependNode@@@Z
?createWithEditPoints@MFnNurbsCurve@@QEAA?AVMObject@@AEBVMPointArray@@IW4Form@1@_N22AEAV2@PEAVMStatus@@@Z
?creator@MPxTransformationMatrix@@SAPEAV1@XZ
?creator@THdependNode@@SAPEAXPEAVTmetaclass@@@Z
?creator@THsurfaceShape@@SAPEAXPEAVTmetaclass@@@Z
?ctxCmds@Tplugin@@QEBAAEBVTpluginCtxCmdPtrs@@XZ
?currentCallbackId@MMessage@@SA_KPEAVMStatus@@@Z
?currentCallbackId@THcallbackId@@SA_KXZ
?currentColorSetName@MFnMesh@@QEBA?AVMString@@HPEAVMStatus@@@Z
?currentColorSetName@MFnMesh@@QEBA?AVMString@@PEAVMStatus@@@Z
?currentDirection@MItDependencyGraph@@QEAA?AW4Direction@1@PEAVMStatus@@@Z
?currentDoubleResult@MPxCommand@@SANPEAVMStatus@@@Z
?currentEditString@MItEdits@@QEBA?AVMString@@PEAVMStatus@@@Z
?currentEditType@MItEdits@@QEBA?AW4EditType@MEdit@@PEAVMStatus@@@Z
?currentFile@MFileIO@@SA?AVMString@@XZ
?currentFilter@MItDependencyGraph@@QEAA?AW4Type@MFn@@PEAVMStatus@@@Z
?currentIntResult@MPxCommand@@SAHPEAVMStatus@@@Z
?currentItem@MItCurveCV@@QEBA?AVMObject@@PEAVMStatus@@@Z
?currentItem@MItDag@@QEAA?AVMObject@@PEAVMStatus@@@Z
?currentItem@MItDependencyGraph@@QEAA?AVMObject@@PEAVMStatus@@@Z
?currentItem@MItGeometry@@QEBA?AVMObject@@PEAVMStatus@@@Z
?currentItem@MItMeshEdge@@QEAA?AVMObject@@PEAVMStatus@@@Z
?currentItem@MItMeshFaceVertex@@QEBA?AVMObject@@PEAVMStatus@@@Z
?currentItem@MItMeshPolygon@@QEAA?AVMObject@@PEAVMStatus@@@Z
?currentItem@MItMeshVertex@@QEAA?AVMObject@@PEAVMStatus@@@Z
?currentItem@MItSurfaceCV@@QEBA?AVMObject@@PEAVMStatus@@@Z
?currentLevel@MItDependencyGraph@@QEAA?AW4Level@1@PEAVMStatus@@@Z
?currentNamespace@MNamespace@@SA?AVMString@@PEAVMStatus@@@Z
?currentPoint@MPxGeometryIterator@@QEBAHXZ
?currentResultType@MPxCommand@@SA?AW4MResultType@1@XZ
?currentStringResult@MPxCommand@@SA?AVMString@@PEAVMStatus@@@Z
?currentToolContext@MGlobal@@SA?AVMObject@@XZ
?currentTraversal@MItDependencyGraph@@QEAA?AW4Traversal@1@PEAVMStatus@@@Z
?currentUVSetName@MFnMesh@@QEBA?AVMString@@PEAVMStatus@@H@Z
?currentlyInCallback@THcallbackId@@SA_NXZ
?currentlyReadingFileVersion@MFileIO@@SAHXZ
?curveInterpolators@Tplugin@@QEBAAEBVTpluginInterpPtrs@@XZ
?curveToMObjects@MFnNurbsSurface@@IEAA_NPEAUag_curve@@AEAVMObjectArray@@PEAVMStatus@@@Z
?cv@MFnNurbsCurve@@QEBA?AVMObject@@IPEAVMStatus@@@Z
?cv@MFnNurbsSurface@@QEAA?AVMObject@@IIPEAVMStatus@@@Z
?cv@MItCurveCV@@QEBA?AVMObject@@PEAVMStatus@@@Z
?cv@MItSurfaceCV@@QEBA?AVMObject@@PEAVMStatus@@@Z
?cvs@MFnNurbsCurve@@QEBA?AVMObject@@IIPEAVMStatus@@@Z
?cvsInU@MFnNurbsSurface@@QEAA?AVMObject@@IIIPEAVMStatus@@@Z
?cvsInV@MFnNurbsSurface@@QEAA?AVMObject@@IIIPEAVMStatus@@@Z
?dagCommand@TapiCast@@SAAEAVTdagDGcommand@@AEAVMDagModifier@@@Z
?dagCommand@TapiCast@@SAAEBVTdagDGcommand@@AEBVMDagModifier@@@Z
?dagDGcommand@TapiPack@@SA?AVMDagModifier@@PEAVTdagDGcommand@@@Z
?dagObject@TapiCast@@SAPEAVTdagObject@@AEBVMObject@@@Z
?dagPath@MFnDagNode@@QEBA?AVMDagPath@@PEAVMStatus@@@Z
?dagPathHasFnOnFilterOrList@MItDag@@AEAA_NAEBVMDagPath@@@Z
?dagRoot@MFnDagNode@@QEAA?AVMObject@@PEAVMStatus@@@Z
?dagSetMembers@MPxObjectSet@@2VMObject@@A
?data@MDataHandle@@QEAA?AVMObject@@XZ
?data@MFnPluginData@@QEAAPEAVMPxData@@PEAVMStatus@@@Z
?data@TapiMAttributePatternArray@@QEAAPEAVMAttributePattern@@XZ
?data@TapiMAttributePatternArray@@QEBAPEBVMAttributePattern@@XZ
?data@TapiMDagPathArray@@QEAAPEAVMDagPath@@XZ
?data@TapiMDagPathArray@@QEBAPEBVMDagPath@@XZ
?data@TapiMObjectArray@@QEAAPEAVMObject@@XZ
?data@TapiMObjectArray@@QEBAPEBVMObject@@XZ
?data@TapiMPlugArray@@QEAAPEAVMPlug@@XZ
?data@TapiMPlugArray@@QEBAPEBVMPlug@@XZ
?data@TapiMTimeArray@@QEAAPEAVMTime@@XZ
?data@TapiMTimeArray@@QEBAPEBVMTime@@XZ
?data@Tplugin@@QEBAAEBVTpluginDataPtrs@@XZ
?dataGeometry@THsurfaceShape@@UEBAPEAVTdataGeometry@@XZ
?dataHandle@TapiCast@@SAPEAVTdataHandle@@AEAVMDataHandle@@@Z
?dataHandle@TapiCast@@SAPEBVTdataHandle@@AEBVMDataHandle@@@Z
?dataHandle@TapiPack@@SA?AVMDataHandle@@PEBVTdataHandle@@@Z
?dataLetter@TapiCast@@SAPEAVTdataLetter@@AEBVMObject@@@Z
?dataTypeTable@TapiEnum@@0PEAVTtypeidToEnumTable@@EA
?dataValid@TpluginConstraintCmdInfo@@QEBA_NXZ
?dataValid@TpluginDataInfo@@QEBA_NXZ
?dataValid@TpluginModelEditorCmdInfo@@QEBA_NXZ
?dataValid@TpluginNodeInfo@@QEBA_NXZ
?dataValid@TpluginRegistryInfo@@QEBA_NXZ
?databaseHasChanged@TpluginDBase@@SAXXZ
?datablockAdded@THdependNode@@MEAAXAEAVTdataBlock@@_N@Z
?dealloc_instance@?$MPyTypeObject@VMAttributeSpecArray@@@@SAXPEAU_object@@@Z
?dealloc_instance@?$MPyTypeObject@VMCallbackIdArray@@@@SAXPEAU_object@@@Z
?dealloc_instance@?$MPyTypeObject@VMColorArray@@@@SAXPEAU_object@@@Z
?dealloc_instance@?$MPyTypeObject@VMDagPathArray@@@@SAXPEAU_object@@@Z
?dealloc_instance@?$MPyTypeObject@VMDoubleArray@@@@SAXPEAU_object@@@Z
?dealloc_instance@?$MPyTypeObject@VMFloatArray@@@@SAXPEAU_object@@@Z
?dealloc_instance@?$MPyTypeObject@VMFloatPointArray@@@@SAXPEAU_object@@@Z
?dealloc_instance@?$MPyTypeObject@VMFloatVectorArray@@@@SAXPEAU_object@@@Z
?dealloc_instance@?$MPyTypeObject@VMInt64Array@@@@SAXPEAU_object@@@Z
?dealloc_instance@?$MPyTypeObject@VMIntArray@@@@SAXPEAU_object@@@Z
?dealloc_instance@?$MPyTypeObject@VMMatrixArray@@@@SAXPEAU_object@@@Z
?dealloc_instance@?$MPyTypeObject@VMObjectArray@@@@SAXPEAU_object@@@Z
?dealloc_instance@?$MPyTypeObject@VMPlugArray@@@@SAXPEAU_object@@@Z
?dealloc_instance@?$MPyTypeObject@VMPointArray@@@@SAXPEAU_object@@@Z
?dealloc_instance@?$MPyTypeObject@VMTimeArray@@@@SAXPEAU_object@@@Z
?dealloc_instance@?$MPyTypeObject@VMUint64Array@@@@SAXPEAU_object@@@Z
?dealloc_instance@?$MPyTypeObject@VMUintArray@@@@SAXPEAU_object@@@Z
?dealloc_instance@?$MPyTypeObject@VMVectorArray@@@@SAXPEAU_object@@@Z
?deallocateAllFlags@MFnDependencyNode@@SA?AVMStatus@@VMString@@@Z
?deallocateAllFlags@THapiNodeFlags@@SA?AVMStatus@@VTstring@@@Z
?deallocateFlag@MFnDependencyNode@@SA?AVMStatus@@VMString@@I@Z
?deallocateFlag@THapiNodeFlags@@SA?AVMStatus@@VTstring@@I@Z
?decayRate@MFnNonAmbientLight@@QEBAFPEAVMStatus@@@Z
?decompose@MEulerRotation@@SA?AV1@AEBVMMatrix@@W4RotationOrder@1@@Z
?decomposeMatrix@MPxTransformationMatrix@@MEAA?AVMStatus@@AEBVMMatrix@@@Z
?decrement@MAtomic@@SAHPECHH@Z
?defaultErrorLogPathName@MGlobal@@SA?AVMString@@PEAVMStatus@@@Z
?defaultExtension@MPxFileTranslator@@UEBA?AVMString@@XZ
?defaultName@THsurfaceShape@@UEBA?AVTstring@@XZ
?defaultValue@MFnEnumAttribute@@QEBA?AVMString@@PEAVMStatus@@@Z
?degree@MFnNurbsCurve@@QEBAHPEAVMStatus@@@Z
?degreeU@MFnNurbsSurface@@QEBAHPEAVMStatus@@@Z
?degreeV@MFnNurbsSurface@@QEBAHPEAVMStatus@@@Z
?deleteAfterUse@MUserData@@QEAA_NXZ
?deleteAllRepresentations@MFnAssembly@@QEAA?AVMStatus@@XZ
?deleteColorSet@MFnMesh@@QEAA?AVMStatus@@AEBVMString@@PEAVMDGModifier@@PEAVMSelectionList@@@Z
?deleteComponent@MPxGeometryData@@UEAA_NAEBVMObjectArray@@@Z
?deleteComponents@MPxSurfaceShape@@UEAA_NAEBVMObjectArray@@AEAVMDoubleArray@@@Z
?deleteComponents@THsurfaceShape@@UEAA_NAEBVTcomponentList@@AEAVTdoubleArray@@@Z
?deleteComponentsFromGroups@MPxGeometryData@@UEAA_NAEBVMObjectArray@@AEAVMIntArray@@AEAV2@@Z
?deleteEdge@MFnMesh@@QEAA?AVMStatus@@HPEAVMDGModifier@@@Z
?deleteEntries@MCurveAttribute@@QEAAXAEAVMIntArray@@PEAVMStatus@@@Z
?deleteEntries@MRampAttribute@@QEAAXAEAVMIntArray@@PEAVMStatus@@@Z
?deleteFace@MFnMesh@@QEAA?AVMStatus@@HPEAVMDGModifier@@@Z
?deleteLayer@MFnCameraSet@@QEAA?AVMStatus@@I@Z
?deleteMetadata@MDGModifier@@QEAA?AVMStatus@@AEBVMObject@@@Z
?deleteMetadata@MFileIO@@SA?AVMStatus@@XZ
?deleteMetadata@MFnDependencyNode@@UEAA?AVMStatus@@XZ
?deleteNode@MDGModifier@@QEAA?AVMStatus@@AEBVMObject@@@Z
?deleteNode@MGlobal@@SA?AVMStatus@@AEAVMObject@@@Z
?deleteRepresentation@MFnAssembly@@QEAA?AVMStatus@@AEBVMString@@@Z
?deleteUVSet@MFnMesh@@QEAA?AVMStatus@@AEBVMString@@PEAVMDGModifier@@PEAVMSelectionList@@@Z
?deleteVertex@MFnMesh@@QEAA?AVMStatus@@HPEAVMDGModifier@@@Z
?deletedId@MPolyMessage@@SAIXZ
?dependNode@TapiCast@@SAPEAVTdependNode@@AEBVMObject@@@Z
?dependencies@THsurfaceShape@@UEBAAEBVTdependencyMatrix@@XZ
?depth@MBoundingBox@@QEBANXZ
?depth@MImage@@QEBAIXZ
?depth@MItDag@@QEBAIPEAVMStatus@@@Z
?depth@MPxImagePlane@@2VMObject@@A
?depthBias@MPxImagePlane@@2VMObject@@A
?depthFile@MPxImagePlane@@2VMObject@@A
?depthMap@MImage@@QEBAPEAMPEAVMStatus@@@Z
?depthMapBias@MFnNonExtendedLight@@QEBAMPEAVMStatus@@@Z
?depthMapFilterSize@MFnNonExtendedLight@@QEBAFPEAVMStatus@@@Z
?depthMapFocus@MFnNonExtendedLight@@QEBAMPEAVMStatus@@@Z
?depthMapResolution@MFnNonExtendedLight@@QEBAFPEAVMStatus@@@Z
?depthMapWidthFocus@MFnNonExtendedLight@@QEBAMPEAVMStatus@@@Z
?depthOversample@MPxImagePlane@@2VMObject@@A
?depthScale@MPxImagePlane@@2VMObject@@A
?deregisterAnimCurveInterpolator@MFnPlugin@@QEAA?AVMStatus@@AEBVMString@@@Z
?deregisterAttributePatternFactory@MFnPlugin@@QEAA?AVMStatus@@AEBVMString@@@Z
?deregisterCacheFormat@MFnPlugin@@QEAA?AVMStatus@@AEBVMString@@@Z
?deregisterCommand@MFnPlugin@@QEAA?AVMStatus@@AEBVMString@@@Z
?deregisterConstraintCommand@MFnPlugin@@QEAA?AVMStatus@@AEBVMString@@@Z
?deregisterContextCommand@MFnPlugin@@QEAA?AVMStatus@@AEBVMString@@0@Z
?deregisterContextCommand@MFnPlugin@@QEAA?AVMStatus@@AEBVMString@@@Z
?deregisterControlCommand@MFnPlugin@@QEAA?AVMStatus@@AEBVMString@@@Z
?deregisterData@MFnPlugin@@QEAA?AVMStatus@@AEBVMTypeId@@@Z
?deregisterDestroyedCallback@MObjectHandle@@CAXXZ
?deregisterDevice@MFnPlugin@@QEAA?AVMStatus@@AEBVMString@@@Z
?deregisterDisplayFilter@MFnPlugin@@QEAA?AVMStatus@@AEBVMString@@@Z
?deregisterDragAndDropBehavior@MFnPlugin@@QEAA?AVMStatus@@AEBVMString@@@Z
?deregisterFileDialog@TpluginMaya@@QEAA?AVMStatus@@AEBVMString@@@Z
?deregisterFileTranslator@MFnPlugin@@QEAA?AVMStatus@@AEBVMString@@@Z
?deregisterIkSolver@MFnPlugin@@QEAA?AVMStatus@@AEBVMString@@@Z
?deregisterImageFile@MFnPlugin@@QEAA?AVMStatus@@AEBVMString@@@Z
?deregisterModelEditorCommand@MFnPlugin@@QEAA?AVMStatus@@AEBVMString@@@Z
?deregisterNativeProc@MMelNativeInterface@@SAXVMString@@@Z
?deregisterNode@MFnPlugin@@QEAA?AVMStatus@@AEBVMTypeId@@@Z
?deregisterObject@MObjectHandle@@AEAAXXZ
?deregisterRenderPassImpl@MFnPlugin@@QEAA?AVMStatus@@AEBVMString@@@Z
?deregisterRenderer@MFnPlugin@@QEAA?AVMStatus@@AEBVMString@@@Z
?deregisterSelectionType@MSelectionMask@@SA_NAEBVMString@@@Z
?deregisterURIFileResolver@MFnPlugin@@QEAA?AVMStatus@@AEBVMString@@@Z
?deregisterUserEvent@MUserEventMessage@@SA?AVMStatus@@AEBVMString@@@Z
?destroy@TapiMAttributePatternArray@@UEAAXPEADI@Z
?destroy@TapiMDagPathArray@@UEAAXPEADI@Z
?destroy@TapiMObjectArray@@UEAAXPEADI@Z
?destroy@TapiMPlugArray@@UEAAXPEADI@Z
?destroy@TapiMTimeArray@@UEAAXPEADI@Z
?destroyedCallback@MObjectHandle@@CAXPEAX@Z
?destruct@TapiMAttributePatternArray@@UEAAXII@Z
?destruct@TapiMDagPathArray@@UEAAXII@Z
?destruct@TapiMObjectArray@@UEAAXII@Z
?destruct@TapiMPlugArray@@UEAAXII@Z
?destruct@TapiMTimeArray@@UEAAXII@Z
?destructHandle@MPlug@@QEBAXAEAVMDataHandle@@@Z
?det3x3@MFloatMatrix@@QEBAMXZ
?det3x3@MMatrix@@QEBANXZ
?det4x4@MFloatMatrix@@QEBAMXZ
?det4x4@MMatrix@@QEBANXZ
?detach@MAutoCLEvent@@QEAAPEAU_cl_event@@XZ
?detach@MAutoCLKernel@@QEAAPEAU_cl_kernel@@XZ
?detach@MAutoCLMem@@QEAAPEAU_cl_mem@@XZ
?devices@Tplugin@@QEBAAEBVTpluginDevicePtrs@@XZ
?dgCallbackIds@MFnDependencyNode@@QEAA?AVMStatus@@W4MdgTimerType@1@AEBVMString@@AEAVMCallbackIdArray@@AEAVMDoubleArray@@@Z
?dgCallbacks@MFnDependencyNode@@QEAA?AVMStatus@@W4MdgTimerType@1@AEAVMStringArray@@AEAVMDoubleArray@@@Z
?dgContext@TapiCast@@SA?AVMDGContext@@AEAVTdgContext@@@Z
?dgContext@TapiCast@@SAPEAVTdgContext@@AEAVMDGContext@@@Z
?dgTimer@MFnDependencyNode@@QEBANW4MdgTimerMetric@1@W4MdgTimerType@1@PEAVMStatus@@@Z
?dgTimerOff@MFnDependencyNode@@QEAA?AVMStatus@@XZ
?dgTimerOn@MFnDependencyNode@@QEAA?AVMStatus@@XZ
?dgTimerQueryState@MFnDependencyNode@@QEAA?AW4MdgTimerState@1@PEAVMStatus@@@Z
?dgTimerReset@MFnDependencyNode@@QEAA?AVMStatus@@XZ
?diffuseCoeff@MFnLambertShader@@QEBAMPEAVMStatus@@@Z
?dimensions@MAttributeSpec@@QEBAHXZ
?directedDistance@MPlane@@QEBANAEBVMVector@@@Z
?dirtyMatrix@MPxTransform@@IEAA?AVMStatus@@XZ
?dirtyPlug@MEvaluationNode@@QEBA?AVMPlug@@AEBVMObject@@PEAVMStatus@@@Z
?dirtyPlugExists@MEvaluationNode@@QEBA_NAEBVMObject@@PEAVMStatus@@@Z
?dirtyRotateOrientation@MPxTransform@@IEAA?AVMStatus@@AEBVMEulerRotation@@@Z
?dirtyRotatePivot@MPxTransform@@IEAA?AVMStatus@@AEBVMPoint@@@Z
?dirtyRotatePivotTranslation@MPxTransform@@IEAA?AVMStatus@@AEBVMVector@@@Z
?dirtyRotation@MPxTransform@@IEAA?AVMStatus@@AEBVMEulerRotation@@@Z
?dirtyScale@MPxTransform@@IEAA?AVMStatus@@AEBVMVector@@@Z
?dirtyScalePivot@MPxTransform@@IEAA?AVMStatus@@AEBVMPoint@@@Z
?dirtyScalePivotTranslation@MPxTransform@@IEAA?AVMStatus@@AEBVMVector@@@Z
?dirtyShear@MPxTransform@@IEAA?AVMStatus@@AEBVMVector@@@Z
?dirtyTranslation@MPxTransform@@IEAA?AVMStatus@@AEBVMVector@@@Z
?disablePruningOnFilter@MItDependencyGraph@@QEAA?AVMStatus@@XZ
?disableStow@MGlobal@@SA_NXZ
?disconnect@MDGModifier@@QEAA?AVMStatus@@AEBVMObject@@000@Z
?disconnect@MDGModifier@@QEAA?AVMStatus@@AEBVMPlug@@0@Z
?disconnectBehavior@MFnAttribute@@QEBA?AW4DisconnectBehavior@1@PEAVMStatus@@@Z
?displayColors@MFnMesh@@QEBA_NPEAVMStatus@@@Z
?displayError@MGlobal@@SAXAEBVMString@@@Z
?displayError@MPxCommand@@SAXAEBVMString@@_N@Z
?displayHandle@MPxTransform@@2VMObject@@A
?displayInfo@MGlobal@@SAXAEBVMString@@@Z
?displayInfo@MPxCommand@@SAXAEBVMString@@@Z
?displayLocalAxis@MPxTransform@@2VMObject@@A
?displayMode@MPxImagePlane@@2VMObject@@A
?displayOnlyIfCurrent@MPxImagePlane@@2VMObject@@A
?displayRotatePivot@MPxTransform@@2VMObject@@A
?displayScalePivot@MPxTransform@@2VMObject@@A
?displayWarning@MGlobal@@SAXAEBVMString@@@Z
?displayWarning@MPxCommand@@SAXAEBVMString@@_N@Z
?distance@MPlane@@QEBANAEBVMVector@@@Z
?distance@MPlane@@QEBANXZ
?distanceTo@MFloatPoint@@QEBAMAEBV1@@Z
?distanceTo@MPoint@@QEBANAEBV1@@Z
?distanceToPoint@MFnNurbsCurve@@QEBANAEBVMPoint@@W4Space@MSpace@@PEAVMStatus@@@Z
?distanceToPoint@MFnNurbsSurface@@QEBANAEBVMPoint@@W4Space@MSpace@@PEAVMStatus@@@Z
?divisions@MMeshSmoothOptions@@QEBAHPEAVMStatus@@@Z
?doErrorLogEntry@MGlobal@@SA?AVMStatus@@AEBVMString@@@Z
?doIt@MDGModifier@@QEAA?AVMStatus@@XZ
?doIt@MPxCommand@@UEAA?AVMStatus@@AEBVMArgList@@@Z
?doIt@MPxPolyTweakUVCommand@@EEAA?AVMStatus@@AEBVMArgList@@@Z
?doIt@MPyMPxCommand_Director@@UEAA?AVMStatus@@AEBVMArgList@@@Z
?doIt@THcommandObject@@UEAAHAEAVTargList@@@Z
?doNotWrite@MPxAssembly@@MEBA_NPEAVMStatus@@@Z
?doNotWrite@MPxNode@@MEBA_NPEAVMStatus@@@Z
?dormantColor@MFnDagNode@@QEBA?AVMColor@@PEAVMStatus@@@Z
?doubleArray@MFnArrayAttrsData@@QEAA?AVMDoubleArray@@VMString@@PEAVMStatus@@@Z
?doubleArray@TapiCast@@SA?AVMDoubleArray@@AEAVTdoubleArray@@@Z
?doubleArray@TapiCast@@SAAEAVTdoubleArray@@AEAVMDoubleArray@@@Z
?doubleArray@TapiCast@@SAAEBVTdoubleArray@@AEBVMDoubleArray@@@Z
?doubleArray@TapiPack@@SAXAEAVMDoubleArray@@AEBVTdoubleArray@@@Z
?doubleArray@TapiPack@@SAXAEAVTdoubleArray@@AEBVMDoubleArray@@@Z
?drawOverride@MPxTransform@@2VMObject@@A
?drawOverrideColor@MFnDagNode@@QEBA_NAEAVMColor@@PEAVMStatus@@@Z
?drawOverrideEnabled@MFnDagNode@@QEBA_NPEAVMStatus@@@Z
?drawOverrideIsReference@MFnDagNode@@QEBA_NPEAVMStatus@@@Z
?drawOverrideIsTemplate@MFnDagNode@@QEBA_NPEAVMStatus@@@Z
?dropOff@MFnSpotLight@@QEBANPEAVMStatus@@@Z
?dstPlug@MConnectDisconnectAttrEdit@@QEBA?AVMPlug@@PEAVMStatus@@@Z
?dstPlugName@MConnectDisconnectAttrEdit@@QEBA?AVMString@@PEAVMStatus@@@Z
?duplicate@MFnDagNode@@QEBA?AVMObject@@_N0PEAVMStatus@@@Z
?duplicateFaces@MFnMesh@@QEAA?AVMStatus@@AEAVMIntArray@@PEAVMFloatVector@@@Z
?dynamics@MPxTransform@@2VMObject@@A
?eccentricity@MFnBlinnShader@@QEBAMPEAVMStatus@@@Z
?edge@MFnNurbsSurface@@QEAA?AVMObjectArray@@III_NPEAVMStatus@@@Z
?edge@MItMeshEdge@@QEAA?AVMObject@@PEAVMStatus@@@Z
?edgeAdjacentPolygon@MFnSubd@@QEBA?AVMStatus@@_KAEAVMUint64Array@@@Z
?edgeBetween@MFnSubd@@QEBA_K_K0PEAVMStatus@@@Z
?edgeChildren@MFnSubd@@QEBA?AVMStatus@@_KAEAVMUint64Array@@@Z
?edgeCount@MFnSubd@@QEBAIHPEAVMStatus@@@Z
?edgeCreaseRelevant@MFnSubd@@QEBA_N_KPEAVMStatus@@@Z
?edgeIsBoundary@MFnSubd@@QEBA_N_KPEAVMStatus@@@Z
?edgeIsCreased@MFnSubd@@QEBA_N_KPEAVMStatus@@@Z
?edgeIsValid@MFnSubd@@QEBA_N_KPEAVMStatus@@@Z
?edgeSetCrease@MFnSubd@@QEBA?AVMStatus@@_K_N@Z
?edgeVertices@MFnSubd@@QEBA?AVMStatus@@_KAEA_K1@Z
?edgesOnlySet@MPxObjectSet@@2VMObject@@A
?edit@MItEdits@@QEBA?AVMEdit@@PEAVMStatus@@@Z
?editPointsOnlySet@MPxObjectSet@@2VMObject@@A
?editType@MAddRemoveAttrEdit@@UEBA?AW4EditType@MEdit@@PEAVMStatus@@@Z
?editType@MConnectDisconnectAttrEdit@@UEBA?AW4EditType@MEdit@@PEAVMStatus@@@Z
?editType@MEdit@@UEBA?AW4EditType@1@PEAVMStatus@@@Z
?editType@MFcurveEdit@@UEBA?AW4EditType@MEdit@@PEAVMStatus@@@Z
?editType@MParentingEdit@@UEBA?AW4EditType@MEdit@@PEAVMStatus@@@Z
?editType@MSetAttrEdit@@UEBA?AW4EditType@MEdit@@PEAVMStatus@@@Z
?editsPending@MFnSubd@@QEBAHPEAVMStatus@@@Z
?editsUpdateAll@MFnSubd@@QEAAXPEAVMStatus@@@Z
?elapsedTime@MTimer@@QEAANXZ
?element@MFnSingleIndexedComponent@@QEBAHHPEAVMStatus@@@Z
?element@MFnUint64SingleIndexedComponent@@QEBA_KHPEAVMStatus@@@Z
?element@TapiMAttributePatternArray@@IEAAAEAVObj@1@I@Z
?element@TapiMAttributePatternArray@@IEBAAEBVObj@1@I@Z
?element@TapiMDagPathArray@@IEAAAEAVObj@1@I@Z
?element@TapiMDagPathArray@@IEBAAEBVObj@1@I@Z
?element@TapiMObjectArray@@IEAAAEAVObj@1@I@Z
?element@TapiMObjectArray@@IEBAAEBVObj@1@I@Z
?element@TapiMPlugArray@@IEAAAEAVObj@1@I@Z
?element@TapiMPlugArray@@IEBAAEBVObj@1@I@Z
?element@TapiMTimeArray@@IEAAAEAVObj@1@I@Z
?element@TapiMTimeArray@@IEBAAEBVObj@1@I@Z
?elementByLogicalIndex@MPlug@@QEBA?AV1@IPEAVMStatus@@@Z
?elementByPhysicalIndex@MPlug@@QEBA?AV1@IPEAVMStatus@@@Z
?elementCount@MArrayDataBuilder@@QEBAIPEAVMStatus@@@Z
?elementCount@MArrayDataHandle@@QEAAIPEAVMStatus@@@Z
?elementCount@MFnComponent@@QEBAHPEAVMStatus@@@Z
?elementIndex@MArrayDataHandle@@QEAAIPEAVMStatus@@@Z
?elementMax@MFnSingleIndexedComponent@@QEBAHPEAVMStatus@@@Z
?emitAmbient@MFnVolumeLight@@QEBA_NPEAVMStatus@@@Z
?emptyTuple@MPyUtil@@SAPEAU_object@@XZ
?enableDGTiming@MFnDependencyNode@@SAX_N@Z
?enableEdit@MSyntax@@QEAAX_N@Z
?enableLimit@MFnTransform@@QEAA?AVMStatus@@W4LimitType@1@_N@Z
?enableLimit@MPxTransform@@QEAA?AVMStatus@@W4LimitType@MFnTransform@@_N@Z
?enablePruningOnFilter@MItDependencyGraph@@QEAA?AVMStatus@@XZ
?enableQuery@MSyntax@@QEAAX_N@Z
?endComputation@MComputation@@QEAAXXZ
?endDistance@MFnSpotLight@@QEBAMW4MDecayRegion@1@PEAVMStatus@@@Z
?endGet@MIffFile@@QEAA?AVMStatus@@XZ
?endReadChunk@MPxCacheFormat@@UEAAXXZ
?endReadGroup@MIffFile@@QEAA?AVMStatus@@XZ
?endTimer@MTimer@@QEAAXXZ
?endWriteChunk@MPxCacheFormat@@UEAAXXZ
?ensureLoaded@TpluginCmd@@UEAA_NXZ
?ensureLoaded@TpluginObject@@UEAA_NXZ
?entity@TapiCast@@SAPEAVTentity@@AEBVMObject@@@Z
?equivalent@THxformMatrix@@UEBA_NAEBVTxformMatrix@@N@Z
?errMsg1@?1??copySequenceToArray@?$MPyMArray_Type_Base@VMAttributeSpecArray@@VMAttributeSpec@@@@SA_NPEAU_object@@AEAVMAttributeSpecArray@@_N@Z@4VMString@@A
?errMsg1@?1??copySequenceToArray@?$MPyMArray_Type_Base@VMCallbackIdArray@@_K@@SA_NPEAU_object@@AEAVMCallbackIdArray@@_N@Z@4VMString@@A
?errMsg1@?1??copySequenceToArray@?$MPyMArray_Type_Base@VMColorArray@@VMColor@@@@SA_NPEAU_object@@AEAVMColorArray@@_N@Z@4VMString@@A
?errMsg1@?1??copySequenceToArray@?$MPyMArray_Type_Base@VMDagPathArray@@VMDagPath@@@@SA_NPEAU_object@@AEAVMDagPathArray@@_N@Z@4VMString@@A
?errMsg1@?1??copySequenceToArray@?$MPyMArray_Type_Base@VMDoubleArray@@N@@SA_NPEAU_object@@AEAVMDoubleArray@@_N@Z@4VMString@@A
?errMsg1@?1??copySequenceToArray@?$MPyMArray_Type_Base@VMFloatArray@@M@@SA_NPEAU_object@@AEAVMFloatArray@@_N@Z@4VMString@@A
?errMsg1@?1??copySequenceToArray@?$MPyMArray_Type_Base@VMFloatPointArray@@VMFloatPoint@@@@SA_NPEAU_object@@AEAVMFloatPointArray@@_N@Z@4VMString@@A
?errMsg1@?1??copySequenceToArray@?$MPyMArray_Type_Base@VMFloatVectorArray@@VMFloatVector@@@@SA_NPEAU_object@@AEAVMFloatVectorArray@@_N@Z@4VMString@@A
?errMsg1@?1??copySequenceToArray@?$MPyMArray_Type_Base@VMInt64Array@@_J@@SA_NPEAU_object@@AEAVMInt64Array@@_N@Z@4VMString@@A
?errMsg1@?1??copySequenceToArray@?$MPyMArray_Type_Base@VMIntArray@@H@@SA_NPEAU_object@@AEAVMIntArray@@_N@Z@4VMString@@A
?errMsg1@?1??copySequenceToArray@?$MPyMArray_Type_Base@VMMatrixArray@@VMMatrix@@@@SA_NPEAU_object@@AEAVMMatrixArray@@_N@Z@4VMString@@A
?errMsg1@?1??copySequenceToArray@?$MPyMArray_Type_Base@VMObjectArray@@VMObject@@@@SA_NPEAU_object@@AEAVMObjectArray@@_N@Z@4VMString@@A
?errMsg1@?1??copySequenceToArray@?$MPyMArray_Type_Base@VMPlugArray@@VMPlug@@@@SA_NPEAU_object@@AEAVMPlugArray@@_N@Z@4VMString@@A
?errMsg1@?1??copySequenceToArray@?$MPyMArray_Type_Base@VMPointArray@@VMPoint@@@@SA_NPEAU_object@@AEAVMPointArray@@_N@Z@4VMString@@A
?errMsg1@?1??copySequenceToArray@?$MPyMArray_Type_Base@VMTimeArray@@VMTime@@@@SA_NPEAU_object@@AEAVMTimeArray@@_N@Z@4VMString@@A
?errMsg1@?1??copySequenceToArray@?$MPyMArray_Type_Base@VMUint64Array@@_K@@SA_NPEAU_object@@AEAVMUint64Array@@_N@Z@4VMString@@A
?errMsg1@?1??copySequenceToArray@?$MPyMArray_Type_Base@VMUintArray@@I@@SA_NPEAU_object@@AEAVMUintArray@@_N@Z@4VMString@@A
?errMsg1@?1??copySequenceToArray@?$MPyMArray_Type_Base@VMVectorArray@@VMVector@@@@SA_NPEAU_object@@AEAVMVectorArray@@_N@Z@4VMString@@A
?error@MPyUtil@@SAXPEAU_object@@VTstringId@@ZZ
?error@MStatus@@QEBA_NXZ
?errorLogHandler@TapiErrorLogEntry@@SAPEAVTapiErrorLogHandler@@XZ
?errorLogPathName@MGlobal@@SA?AVMString@@PEAVMStatus@@@Z
?errorLoggingIsOn@MGlobal@@SA_NPEAVMStatus@@@Z
?errorString@MStatus@@QEBA?AVMString@@XZ
?eulerRotateOrientation@MPxTransformationMatrix@@UEBA?AVMEulerRotation@@W4Space@MSpace@@PEAVMStatus@@@Z
?eulerRotation@MPxTransformationMatrix@@UEBA?AVMEulerRotation@@W4Space@MSpace@@PEAVMStatus@@@Z
?eulerRotation@MTransformationMatrix@@QEBA?AVMEulerRotation@@XZ
?eulerRotation@TapiCast@@SAAEAVMEulerRotation@@AEAVTrotateXYZ@@@Z
?eulerRotation@TapiCast@@SAAEAVTrotateXYZ@@AEAVMEulerRotation@@@Z
?eulerRotation@TapiCast@@SAAEBVMEulerRotation@@AEBVTrotateXYZ@@@Z
?eulerRotation@TapiCast@@SAAEBVTrotateXYZ@@AEBVMEulerRotation@@@Z
?evaluate@MFnExpression@@QEAA?AVMStatus@@AEAVMDoubleArray@@@Z
?evaluateNormal@MFnSubd@@QEBA?AVMStatus@@_KNN_NAEAVMVector@@@Z
?evaluateNumElements@MPlug@@QEAAIPEAVMStatus@@@Z
?evaluatePosition@MFnSubd@@QEBA?AVMStatus@@_KNN_NAEAVMPoint@@@Z
?evaluatePositionAndNormal@MFnSubd@@QEBA?AVMStatus@@_KNN_NAEAVMPoint@@AEAVMVector@@@Z
?evaluationInExecution@MEvaluationManager@@SA_NAEBVMDGContext@@@Z
?evaluationManagerActive@MEvaluationManager@@SA_NAEBVMDGContext@@@Z
?evaluationNode@TapiCast@@SA?AVMEvaluationNode@@AEBVTevaluationNode@@@Z
?evaluationNode@TapiCast@@SAAEBVTevaluationNode@@AEAVMEvaluationNode@@@Z
?evaluationNode@TapiCast@@SAAEBVTevaluationNode@@AEBVMEvaluationNode@@@Z
?evaluationNodeIterator@TapiCast@@SA?AVMEvaluationNodeIterator@@AEBVTevaluationNodeIterator@@@Z
?evaluationNodeIterator@TapiCast@@SAAEBVTevaluationNodeIterator@@AEAVMEvaluationNodeIterator@@@Z
?evaluationNodeIterator@TapiCast@@SAAEBVTevaluationNodeIterator@@AEBVMEvaluationNodeIterator@@@Z
?eventBegin@MProfiler@@SAHHW4ProfilingColor@1@PEBD1@Z
?eventEnd@MProfiler@@SAXH@Z
?exactCount@MItGeometry@@QEAAHPEAVMStatus@@@Z
?exactImageFile@MPxImagePlane@@QEAA?AVMString@@AEBV2@@Z
?excludeAsPluginShape@MPxSurfaceShape@@UEBA_NXZ
?excludeObjectDisplay@THsurfaceShape@@UEBA_KXZ
?exclusiveMatrix@MDagPath@@QEBA?AVMMatrix@@PEAVMStatus@@@Z
?exclusiveMatrixInverse@MDagPath@@QEBA?AVMMatrix@@PEAVMStatus@@@Z
?executeAndJoin@MThreadPool@@SA?AVMStatus@@PEAVMThreadRootTask@@@Z
?executeCommand@MGlobal@@SA?AVMStatus@@AEBVMString@@AEAH_N2@Z
?executeCommand@MGlobal@@SA?AVMStatus@@AEBVMString@@AEAN_N2@Z
?executeCommand@MGlobal@@SA?AVMStatus@@AEBVMString@@AEAV3@_N2@Z
?executeCommand@MGlobal@@SA?AVMStatus@@AEBVMString@@AEAVMCommandResult@@_N2@Z
?executeCommand@MGlobal@@SA?AVMStatus@@AEBVMString@@AEAVMDoubleArray@@_N2@Z
?executeCommand@MGlobal@@SA?AVMStatus@@AEBVMString@@AEAVMIntArray@@_N2@Z
?executeCommand@MGlobal@@SA?AVMStatus@@AEBVMString@@AEAVMStringArray@@_N2@Z
?executeCommand@MGlobal@@SA?AVMStatus@@AEBVMString@@_N1@Z
?executeCommandOnIdle@MGlobal@@SA?AVMStatus@@AEBVMString@@_N@Z
?executeCommandStringResult@MGlobal@@SA?AVMString@@AEBV2@_N1PEAVMStatus@@@Z
?executePythonCommand@MGlobal@@SA?AVMStatus@@AEBVMString@@AEAH_N2@Z
?executePythonCommand@MGlobal@@SA?AVMStatus@@AEBVMString@@AEAN_N2@Z
?executePythonCommand@MGlobal@@SA?AVMStatus@@AEBVMString@@AEAV3@_N2@Z
?executePythonCommand@MGlobal@@SA?AVMStatus@@AEBVMString@@AEAVMDoubleArray@@_N2@Z
?executePythonCommand@MGlobal@@SA?AVMStatus@@AEBVMString@@AEAVMIntArray@@_N2@Z
?executePythonCommand@MGlobal@@SA?AVMStatus@@AEBVMString@@AEAVMStringArray@@_N2@Z
?executePythonCommand@MGlobal@@SA?AVMStatus@@AEBVMString@@_N1@Z
?executePythonCommandOnIdle@MGlobal@@SA?AVMStatus@@AEBVMString@@_N@Z
?executePythonCommandStringResult@MGlobal@@SA?AVMString@@AEBV2@_N1PEAVMStatus@@@Z
?existWithoutInConnections@MPxAssembly@@UEBA_NPEAVMStatus@@@Z
?existWithoutInConnections@MPxNode@@UEBA_NPEAVMStatus@@@Z
?existWithoutOutConnections@MPxAssembly@@UEBA_NPEAVMStatus@@@Z
?existWithoutOutConnections@MPxNode@@UEBA_NPEAVMStatus@@@Z
?exists@MFileObject@@QEAA_NI@Z
?exists@MFileObject@@QEAA_NXZ
?exists@TanimDeltaMsgSwitch@@QEAA_N_K@Z
?exp@MQuaternion@@QEBA?AV1@XZ
?expand@MBoundingBox@@QEAAXAEBV1@@Z
?expand@MBoundingBox@@QEAAXAEBVMPoint@@@Z
?expandEnvironmentVariablesAndTilde@MString@@QEBA?AV1@PEAVMStatus@@@Z
?expandFilePath@MString@@QEBA?AV1@PEAVMStatus@@@Z
?expandedFullName@MFileObject@@QEBA?AVMString@@XZ
?expandedPath@MFileObject@@QEBA?AVMString@@XZ
?exportAll@MFileIO@@SA?AVMStatus@@AEBVMString@@PEBD_N@Z
?exportAnim@MFileIO@@SA?AVMStatus@@AEBVMString@@PEBD@Z
?exportAnimFromReference@MFileIO@@SA?AVMStatus@@AEBVMString@@0PEBD@Z
?exportAnimFromReference@MFileIO@@SA?AVMStatus@@AEBVMString@@PEBD@Z
?exportAsReference@MFileIO@@SA?AVMStatus@@AEBVMString@@PEBD@Z
?exportSelected@MFileIO@@SA?AVMStatus@@AEBVMString@@PEBD_N@Z
?exportSelectedAnim@MFileIO@@SA?AVMStatus@@AEBVMString@@PEBD@Z
?exportSelectedAnimFromReference@MFileIO@@SA?AVMStatus@@AEBVMString@@0PEBD@Z
?exportSelectedAnimFromReference@MFileIO@@SA?AVMStatus@@AEBVMString@@PEBD@Z
?exportType@MFileIO@@SA?AW4ExportType@1@PEAVMStatus@@@Z
?expression@MFnExpression@@QEAA?AVMString@@PEAVMStatus@@@Z
?extendToShape@MDagPath@@QEAA?AVMStatus@@XZ
?extendToShapeDirectlyBelow@MDagPath@@QEAA?AVMStatus@@I@Z
?extension@MPxCacheFormat@@UEAA?AVMString@@XZ
?extensionAttrs@THsurfaceShape@@UEAAAEAVTattributeList@@XZ
?extensionAttrs@THsurfaceShape@@UEBAAEBVTattributeList@@XZ
?extensionOffsets@THsurfaceShape@@UEBAAEBVTuInt32Array@@XZ
?extractFaces@MFnMesh@@QEAA?AVMStatus@@AEAVMIntArray@@PEAVMFloatVector@@@Z
?extractVectorsFromMatrix@THxformMatrix@@MEAAAEAVTxformMatrix@@AEBVT4dDblMatrix@@@Z
?extrudeEdges@MFnMesh@@QEAA?AVMStatus@@AEAVMIntArray@@HPEAVMFloatVector@@_NMM@Z
?extrudeFaces@MFnMesh@@QEAA?AVMStatus@@AEAVMIntArray@@HPEAVMFloatVector@@_NMM@Z
?eyeOffset@MFnCamera@@QEBANPEAVMStatus@@@Z
?eyePoint@MFnCamera@@QEBA?AVMPoint@@W4Space@MSpace@@PEAVMStatus@@@Z
?fAnimDeltaMsgSwitch@TanimDeltaMsgSwitch@@0PEAV1@EA
?fClassDoc@?$MPyMArray_Type_Base@VMAttributeSpecArray@@VMAttributeSpec@@@@2VMString@@A
?fClassDoc@?$MPyMArray_Type_Base@VMCallbackIdArray@@_K@@2VMString@@A
?fClassDoc@?$MPyMArray_Type_Base@VMColorArray@@VMColor@@@@2VMString@@A
?fClassDoc@?$MPyMArray_Type_Base@VMDagPathArray@@VMDagPath@@@@2VMString@@A
?fClassDoc@?$MPyMArray_Type_Base@VMDoubleArray@@N@@2VMString@@A
?fClassDoc@?$MPyMArray_Type_Base@VMFloatArray@@M@@2VMString@@A
?fClassDoc@?$MPyMArray_Type_Base@VMFloatPointArray@@VMFloatPoint@@@@2VMString@@A
?fClassDoc@?$MPyMArray_Type_Base@VMFloatVectorArray@@VMFloatVector@@@@2VMString@@A
?fClassDoc@?$MPyMArray_Type_Base@VMInt64Array@@_J@@2VMString@@A
?fClassDoc@?$MPyMArray_Type_Base@VMIntArray@@H@@2VMString@@A
?fClassDoc@?$MPyMArray_Type_Base@VMMatrixArray@@VMMatrix@@@@2VMString@@A
?fClassDoc@?$MPyMArray_Type_Base@VMObjectArray@@VMObject@@@@2VMString@@A
?fClassDoc@?$MPyMArray_Type_Base@VMPlugArray@@VMPlug@@@@2VMString@@A
?fClassDoc@?$MPyMArray_Type_Base@VMPointArray@@VMPoint@@@@2VMString@@A
?fClassDoc@?$MPyMArray_Type_Base@VMTimeArray@@VMTime@@@@2VMString@@A
?fClassDoc@?$MPyMArray_Type_Base@VMUint64Array@@_K@@2VMString@@A
?fClassDoc@?$MPyMArray_Type_Base@VMUintArray@@I@@2VMString@@A
?fClassDoc@?$MPyMArray_Type_Base@VMVectorArray@@VMVector@@@@2VMString@@A
?fClassName@?$MPyMArray_Type_Base@VMAttributeSpecArray@@VMAttributeSpec@@@@0VMString@@A
?fClassName@?$MPyMArray_Type_Base@VMCallbackIdArray@@_K@@0VMString@@A
?fClassName@?$MPyMArray_Type_Base@VMColorArray@@VMColor@@@@0VMString@@A
?fClassName@?$MPyMArray_Type_Base@VMDagPathArray@@VMDagPath@@@@0VMString@@A
?fClassName@?$MPyMArray_Type_Base@VMDoubleArray@@N@@0VMString@@A
?fClassName@?$MPyMArray_Type_Base@VMFloatArray@@M@@0VMString@@A
?fClassName@?$MPyMArray_Type_Base@VMFloatPointArray@@VMFloatPoint@@@@0VMString@@A
?fClassName@?$MPyMArray_Type_Base@VMFloatVectorArray@@VMFloatVector@@@@0VMString@@A
?fClassName@?$MPyMArray_Type_Base@VMInt64Array@@_J@@0VMString@@A
?fClassName@?$MPyMArray_Type_Base@VMIntArray@@H@@0VMString@@A
?fClassName@?$MPyMArray_Type_Base@VMMatrixArray@@VMMatrix@@@@0VMString@@A
?fClassName@?$MPyMArray_Type_Base@VMObjectArray@@VMObject@@@@0VMString@@A
?fClassName@?$MPyMArray_Type_Base@VMPlugArray@@VMPlug@@@@0VMString@@A
?fClassName@?$MPyMArray_Type_Base@VMPointArray@@VMPoint@@@@0VMString@@A
?fClassName@?$MPyMArray_Type_Base@VMTimeArray@@VMTime@@@@0VMString@@A
?fClassName@?$MPyMArray_Type_Base@VMUint64Array@@_K@@0VMString@@A
?fClassName@?$MPyMArray_Type_Base@VMUintArray@@I@@0VMString@@A
?fClassName@?$MPyMArray_Type_Base@VMVectorArray@@VMVector@@@@0VMString@@A
?fConvertPtrCallback@TapiScriptConverterCallbacks@@2P6AHPEAU_object@@PEAPEAXPEAUswig_type_info@@HPEAH@ZEA
?fDotNetLoaderDLL@Tplugin@@0VTdynamicLoad@@A
?fFlagOwners@THapiNodeFlags@@0PEAVTstring@@EA
?fGetSetters@?$MPyMArray_Type_Base@VMAttributeSpecArray@@VMAttributeSpec@@@@0PAUPyGetSetDef@@A
?fGetSetters@?$MPyMArray_Type_Base@VMCallbackIdArray@@_K@@0PAUPyGetSetDef@@A
?fGetSetters@?$MPyMArray_Type_Base@VMColorArray@@VMColor@@@@0PAUPyGetSetDef@@A
?fGetSetters@?$MPyMArray_Type_Base@VMDagPathArray@@VMDagPath@@@@0PAUPyGetSetDef@@A
?fGetSetters@?$MPyMArray_Type_Base@VMDoubleArray@@N@@0PAUPyGetSetDef@@A
?fGetSetters@?$MPyMArray_Type_Base@VMFloatArray@@M@@0PAUPyGetSetDef@@A
?fGetSetters@?$MPyMArray_Type_Base@VMFloatPointArray@@VMFloatPoint@@@@0PAUPyGetSetDef@@A
?fGetSetters@?$MPyMArray_Type_Base@VMFloatVectorArray@@VMFloatVector@@@@0PAUPyGetSetDef@@A
?fGetSetters@?$MPyMArray_Type_Base@VMInt64Array@@_J@@0PAUPyGetSetDef@@A
?fGetSetters@?$MPyMArray_Type_Base@VMIntArray@@H@@0PAUPyGetSetDef@@A
?fGetSetters@?$MPyMArray_Type_Base@VMMatrixArray@@VMMatrix@@@@0PAUPyGetSetDef@@A
?fGetSetters@?$MPyMArray_Type_Base@VMObjectArray@@VMObject@@@@0PAUPyGetSetDef@@A
?fGetSetters@?$MPyMArray_Type_Base@VMPlugArray@@VMPlug@@@@0PAUPyGetSetDef@@A
?fGetSetters@?$MPyMArray_Type_Base@VMPointArray@@VMPoint@@@@0PAUPyGetSetDef@@A
?fGetSetters@?$MPyMArray_Type_Base@VMTimeArray@@VMTime@@@@0PAUPyGetSetDef@@A
?fGetSetters@?$MPyMArray_Type_Base@VMUint64Array@@_K@@0PAUPyGetSetDef@@A
?fGetSetters@?$MPyMArray_Type_Base@VMUintArray@@I@@0PAUPyGetSetDef@@A
?fGetSetters@?$MPyMArray_Type_Base@VMVectorArray@@VMVector@@@@0PAUPyGetSetDef@@A
?fHandleCount@MObjectHandle@@0HA
?fIsCallbackInitialized@MObjectHandle@@0_NA
?fLoadDotNetPlugin@Tplugin@@0P6AHPEAV1@VTstring@@AEAV2@@ZEA
?fMethods@?$MPyMArray_Type_Base@VMAttributeSpecArray@@VMAttributeSpec@@@@0PAUPyMethodDef@@A
?fMethods@?$MPyMArray_Type_Base@VMCallbackIdArray@@_K@@0PAUPyMethodDef@@A
?fMethods@?$MPyMArray_Type_Base@VMColorArray@@VMColor@@@@0PAUPyMethodDef@@A
?fMethods@?$MPyMArray_Type_Base@VMDagPathArray@@VMDagPath@@@@0PAUPyMethodDef@@A
?fMethods@?$MPyMArray_Type_Base@VMDoubleArray@@N@@0PAUPyMethodDef@@A
?fMethods@?$MPyMArray_Type_Base@VMFloatArray@@M@@0PAUPyMethodDef@@A
?fMethods@?$MPyMArray_Type_Base@VMFloatPointArray@@VMFloatPoint@@@@0PAUPyMethodDef@@A
?fMethods@?$MPyMArray_Type_Base@VMFloatVectorArray@@VMFloatVector@@@@0PAUPyMethodDef@@A
?fMethods@?$MPyMArray_Type_Base@VMInt64Array@@_J@@0PAUPyMethodDef@@A
?fMethods@?$MPyMArray_Type_Base@VMIntArray@@H@@0PAUPyMethodDef@@A
?fMethods@?$MPyMArray_Type_Base@VMMatrixArray@@VMMatrix@@@@0PAUPyMethodDef@@A
?fMethods@?$MPyMArray_Type_Base@VMObjectArray@@VMObject@@@@0PAUPyMethodDef@@A
?fMethods@?$MPyMArray_Type_Base@VMPlugArray@@VMPlug@@@@0PAUPyMethodDef@@A
?fMethods@?$MPyMArray_Type_Base@VMPointArray@@VMPoint@@@@0PAUPyMethodDef@@A
?fMethods@?$MPyMArray_Type_Base@VMTimeArray@@VMTime@@@@0PAUPyMethodDef@@A
?fMethods@?$MPyMArray_Type_Base@VMUint64Array@@_K@@0PAUPyMethodDef@@A
?fMethods@?$MPyMArray_Type_Base@VMUintArray@@I@@0PAUPyMethodDef@@A
?fMethods@?$MPyMArray_Type_Base@VMVectorArray@@VMVector@@@@0PAUPyMethodDef@@A
?fNewPointerCallback@TapiScriptConverterCallbacks@@2P6APEAU_object@@PEAXPEAUswig_type_info@@H@ZEA
?fPluginPrefList@TpluginPrefMgr@@0VTpluginPrefPtrArray@@A
?fPluginPrefMgr@TpluginPrefMgr@@0PEAV1@EA
?fPostLoadHandler@Tplugin@@0P6AHAEBVTstring@@PEAV2@AEAPEAX2@ZEA
?fPreUnloadHandler@Tplugin@@0P6AHAEBVTstring@@PEAV2@AEAPEAX2@ZEA
?fRegisteringCallableScript@MMessage@@0_NA
?fRegisteringCallableScriptNewAPI@MMessage@@0_NA
?fSequenceMethods@?$MPyMArray_Type_Base@VMAttributeSpecArray@@VMAttributeSpec@@@@0UPySequenceMethods@@A
?fSequenceMethods@?$MPyMArray_Type_Base@VMCallbackIdArray@@_K@@0UPySequenceMethods@@A
?fSequenceMethods@?$MPyMArray_Type_Base@VMColorArray@@VMColor@@@@0UPySequenceMethods@@A
?fSequenceMethods@?$MPyMArray_Type_Base@VMDagPathArray@@VMDagPath@@@@0UPySequenceMethods@@A
?fSequenceMethods@?$MPyMArray_Type_Base@VMDoubleArray@@N@@0UPySequenceMethods@@A
?fSequenceMethods@?$MPyMArray_Type_Base@VMFloatArray@@M@@0UPySequenceMethods@@A
?fSequenceMethods@?$MPyMArray_Type_Base@VMFloatPointArray@@VMFloatPoint@@@@0UPySequenceMethods@@A
?fSequenceMethods@?$MPyMArray_Type_Base@VMFloatVectorArray@@VMFloatVector@@@@0UPySequenceMethods@@A
?fSequenceMethods@?$MPyMArray_Type_Base@VMInt64Array@@_J@@0UPySequenceMethods@@A
?fSequenceMethods@?$MPyMArray_Type_Base@VMIntArray@@H@@0UPySequenceMethods@@A
?fSequenceMethods@?$MPyMArray_Type_Base@VMMatrixArray@@VMMatrix@@@@0UPySequenceMethods@@A
?fSequenceMethods@?$MPyMArray_Type_Base@VMObjectArray@@VMObject@@@@0UPySequenceMethods@@A
?fSequenceMethods@?$MPyMArray_Type_Base@VMPlugArray@@VMPlug@@@@0UPySequenceMethods@@A
?fSequenceMethods@?$MPyMArray_Type_Base@VMPointArray@@VMPoint@@@@0UPySequenceMethods@@A
?fSequenceMethods@?$MPyMArray_Type_Base@VMTimeArray@@VMTime@@@@0UPySequenceMethods@@A
?fSequenceMethods@?$MPyMArray_Type_Base@VMUint64Array@@_K@@0UPySequenceMethods@@A
?fSequenceMethods@?$MPyMArray_Type_Base@VMUintArray@@I@@0UPySequenceMethods@@A
?fSequenceMethods@?$MPyMArray_Type_Base@VMVectorArray@@VMVector@@@@0UPySequenceMethods@@A
?fStop@MFnCamera@@QEBANPEAVMStatus@@@Z
?fTypeName@?$MPyMArray_Type_Base@VMAttributeSpecArray@@VMAttributeSpec@@@@0PEBDEB
?fTypeName@?$MPyMArray_Type_Base@VMCallbackIdArray@@_K@@0PEBDEB
?fTypeName@?$MPyMArray_Type_Base@VMColorArray@@VMColor@@@@0PEBDEB
?fTypeName@?$MPyMArray_Type_Base@VMDagPathArray@@VMDagPath@@@@0PEBDEB
?fTypeName@?$MPyMArray_Type_Base@VMDoubleArray@@N@@0PEBDEB
?fTypeName@?$MPyMArray_Type_Base@VMFloatArray@@M@@0PEBDEB
?fTypeName@?$MPyMArray_Type_Base@VMFloatPointArray@@VMFloatPoint@@@@0PEBDEB
?fTypeName@?$MPyMArray_Type_Base@VMFloatVectorArray@@VMFloatVector@@@@0PEBDEB
?fTypeName@?$MPyMArray_Type_Base@VMInt64Array@@_J@@0PEBDEB
?fTypeName@?$MPyMArray_Type_Base@VMIntArray@@H@@0PEBDEB
?fTypeName@?$MPyMArray_Type_Base@VMMatrixArray@@VMMatrix@@@@0PEBDEB
?fTypeName@?$MPyMArray_Type_Base@VMObjectArray@@VMObject@@@@0PEBDEB
?fTypeName@?$MPyMArray_Type_Base@VMPlugArray@@VMPlug@@@@0PEBDEB
?fTypeName@?$MPyMArray_Type_Base@VMPointArray@@VMPoint@@@@0PEBDEB
?fTypeName@?$MPyMArray_Type_Base@VMTimeArray@@VMTime@@@@0PEBDEB
?fTypeName@?$MPyMArray_Type_Base@VMUint64Array@@_K@@0PEBDEB
?fTypeName@?$MPyMArray_Type_Base@VMUintArray@@I@@0PEBDEB
?fTypeName@?$MPyMArray_Type_Base@VMVectorArray@@VMVector@@@@0PEBDEB
?fTypeObj@?$MPyTypeObjectStatic@VMMatrixArray@@@@0U_typeobject@@A
?fTypeQueryCallback@TapiScriptConverterCallbacks@@2P6APEAUswig_type_info@@PEBD@ZEA
?fUnloadDotNetPlugin@Tplugin@@0P6AHPEAV1@AEAVTstring@@@ZEA
?fUserMelProcClient@THclient@@2PEAV1@EA
?faceId@MItMeshFaceVertex@@QEBAHPEAVMStatus@@@Z
?faceIndex@MPointOnMesh@@QEBAHXZ
?faceVertId@MItMeshFaceVertex@@QEBAHPEAVMStatus@@@Z
?faceVertex@MItMeshFaceVertex@@QEBA?AVMObject@@PEAVMStatus@@@Z
?facetsOnlySet@MPxObjectSet@@2VMObject@@A
?factory@THrenderPassImpl@@SA?AV?$TsharedObjectPtr@VTrenderPassImpl@@@@PEAX@Z
?farClippingPlane@MFnCamera@@QEBANPEAVMStatus@@@Z
?farFocusDistance@MFnCamera@@QEBANPEAVMStatus@@@Z
?fcurve@MFcurveEdit@@QEBA?AVMObject@@PEAVMStatus@@@Z
?fcurveEdit@MItEdits@@QEBA?AVMFcurveEdit@@PEAVMStatus@@@Z
?fcurveName@MFcurveEdit@@QEBA?AVMString@@PEAVMStatus@@@Z
?fieldIndex@MFnEnumAttribute@@QEBAFAEBVMString@@PEAVMStatus@@@Z
?fieldName@MFnEnumAttribute@@QEBA?AVMString@@FPEAVMStatus@@@Z
?file@MPxMayaAsciiFilter@@IEBA?BVMFileObject@@XZ
?fileAccessMode@MPxFileTranslator@@SA?AW4FileAccessMode@1@XZ
?fileCurrentlyLoading@MFileIO@@SA?AVMString@@XZ
?fileDialogs@Tplugin@@QEBAAEBVTpluginFileDialogPtrs@@XZ
?fileName@MFnReference@@QEBA?AVMString@@_N00PEAVMStatus@@@Z
?fileObject@TapiCast@@CAXAEAVMFileObject@@AEBVTapiFileObject@@@Z
?fileObject@TapiCast@@SA?AVMFileObject@@AEAVTapiFileObject@@@Z
?fileObject@TapiCast@@SA?AVMFileObject@@AEBVTapiFileObject@@@Z
?fileObject@TapiCast@@SAAEAVTapiFileObject@@AEAVMFileObject@@@Z
?fileObject@TapiCast@@SAAEBVTapiFileObject@@AEBVMFileObject@@@Z
?fileObject@TapiCast@@SAPEBVTapiFileObject@@PEBVMFileObject@@@Z
?fileObject@TapiPack@@SA?AVMFileObject@@AEBVTresolveFileObject@@@Z
?fileResolvers@Tplugin@@QEBAAEBVTpluginFileResolverPtrs@@XZ
?fileType@MFileIO@@SA?AVMString@@XZ
?filmFit@MFnCamera@@QEBA?AW4FilmFit@1@PEAVMStatus@@@Z
?filmFitOffset@MFnCamera@@QEBANPEAVMStatus@@@Z
?filmRollOrder@MFnCamera@@QEBA?AW4RollOrder@1@PEAVMStatus@@@Z
?filmRollValue@MFnCamera@@QEBANPEAVMStatus@@@Z
?filmTranslateH@MFnCamera@@QEBANPEAVMStatus@@@Z
?filmTranslateV@MFnCamera@@QEBANPEAVMStatus@@@Z
?filter@MImage@@QEAA?AVMStatus@@W4MImageFilterFormat@1@0NN@Z
?filter@MPxFileTranslator@@UEBA?AVMString@@XZ
?filterDagPath@MItDag@@AEAA?AVMStatus@@AEBVMDagPath@@W4TraversalType@1@@Z
?filterExists@MImage@@SA_NW4MImageFilterFormat@1@0@Z
?filterListEnabled@MIteratorType@@QEAA_NXZ
?filterObject@MItDag@@AEAA?AVMStatus@@AEBVMObject@@W4TraversalType@1@@Z
?find@TanimCallbackTable@@QEBA_NAEB_K@Z
?find@TapiMAttributePatternArray@@QEBAHAEBVMAttributePattern@@@Z
?find@TapiMAttributePatternArray@@QEBAHAEBVMAttributePattern@@AEAI@Z
?find@TapiMDagPathArray@@QEBAHAEBVMDagPath@@@Z
?find@TapiMDagPathArray@@QEBAHAEBVMDagPath@@AEAI@Z
?find@TapiMObjectArray@@QEBAHAEBVMObject@@@Z
?find@TapiMObjectArray@@QEBAHAEBVMObject@@AEAI@Z
?find@TapiMPlugArray@@QEBAHAEBVMPlug@@@Z
?find@TapiMPlugArray@@QEBAHAEBVMPlug@@AEAI@Z
?find@TapiMTimeArray@@QEBAHAEBVMTime@@@Z
?find@TapiMTimeArray@@QEBAHAEBVMTime@@AEAI@Z
?find@TpluginAttributePatternFactoryDBase@@SAPEAVTpluginObject@@AEBVTstring@@@Z
?find@TpluginCmdDBase@@SAPEAVTpluginCmd@@AEBVTstring@@@Z
?find@TpluginDBase@@SAPEAVTplugin@@AEBVTstring@@@Z
?find@TpluginDBase@@SA_NAEAVTpluginPtrArray@@AEBVTstring@@@Z
?find@TpluginFileResolverDBase@@SAPEAVTpluginFileResolver@@AEBVTstring@@@Z
?find@TpluginGeometryCacheDBase@@SAPEAVTpluginObject@@AEBVTstring@@@Z
?find@TpluginImageFormatDBase@@SAPEAVTpluginObject@@AEBVTstring@@@Z
?find@TpluginRegistryInfo@@QEBAPEAVTpluginObject@@AEBVTstring@@@Z
?find@TpluginRenderPassImplDBase@@SAPEAVTpluginObject@@AEBVTstring@@@Z
?findAlias@MFnDependencyNode@@QEBA_NAEBVMString@@AEAVMObject@@PEAVMStatus@@@Z
?findByNodeTypeName@TpluginDBase@@SAPEAVTplugin@@AEBVTstring@@@Z
?findByPath@TpluginDBase@@SAPEAVTplugin@@AEBVTfilePath@@@Z
?findChannelName@MPxCacheFormat@@UEAA?AVMStatus@@AEBVMString@@@Z
?findMObject@MItSelectionList@@AEAA?AVMObject@@PEAX@Z
?findParamFromLength@MFnNurbsCurve@@QEBANNPEAVMStatus@@@Z
?findPattern@MAttributePattern@@SAPEAV1@AEBVMString@@@Z
?findPlug@MFnDependencyNode@@QEBA?AVMPlug@@AEBVMObject@@PEAVMStatus@@@Z
?findPlug@MFnDependencyNode@@QEBA?AVMPlug@@AEBVMObject@@_NPEAVMStatus@@@Z
?findPlug@MFnDependencyNode@@QEBA?AVMPlug@@AEBVMString@@PEAVMStatus@@@Z
?findPlug@MFnDependencyNode@@QEBA?AVMPlug@@AEBVMString@@_NPEAVMStatus@@@Z
?findPlugin@MFnPlugin@@SA?AVMObject@@AEBVMString@@@Z
?findTime@MPxCacheFormat@@UEAA?AVMStatus@@AEAVMTime@@0@Z
?findURIResolverByName@MPxFileResolver@@SAPEAV1@AEBVMString@@@Z
?findURIResolverByScheme@MPxFileResolver@@SAPEAV1@AEBVMString@@@Z
?first@Iterator@TanimCallbackTable@@QEAA_NXZ
?first@MFnSubdNames@@SAH_K@Z
?fit@MPxImagePlane@@2VMObject@@A
?flagArgumentBool@MArgParser@@QEBA_NPEBDIPEAVMStatus@@@Z
?flagArgumentDouble@MArgParser@@QEBANPEBDIPEAVMStatus@@@Z
?flagArgumentInt@MArgParser@@QEBAHPEBDIPEAVMStatus@@@Z
?flagArgumentMAngle@MArgParser@@QEBA?AVMAngle@@PEBDIPEAVMStatus@@@Z
?flagArgumentMDistance@MArgParser@@QEBA?AVMDistance@@PEBDIPEAVMStatus@@@Z
?flagArgumentMTime@MArgParser@@QEBA?AVMTime@@PEBDIPEAVMStatus@@@Z
?flagArgumentString@MArgParser@@QEBA?AVMString@@PEBDIPEAVMStatus@@@Z
?flagIndex@MArgList@@QEBAIPEBD0@Z
?floatArray@TapiCast@@SA?AVMFloatArray@@AEAVTfloatArray@@@Z
?floatArray@TapiCast@@SAAEAVTfloatArray@@AEAVMFloatArray@@@Z
?floatArray@TapiCast@@SAAEBVTfloatArray@@AEBVMFloatArray@@@Z
?floatArray@TapiPack@@SAXAEAVMFloatArray@@AEBVTfloatArray@@@Z
?floatArray@TapiPack@@SAXAEAVTfloatArray@@AEBVMFloatArray@@@Z
?floatImage@TapiCast@@SAAEAV?$TgenericPixelMap@M@@AEAVMImage@@@Z
?floatImage@TapiCast@@SAAEBV?$TgenericPixelMap@M@@AEBVMImage@@@Z
?floatMatrix@TapiCast@@SAAEAVMFloatMatrix@@AEAVT4dFltMatrix@@@Z
?floatMatrix@TapiCast@@SAAEAVT4dFltMatrix@@AEAVMFloatMatrix@@@Z
?floatMatrix@TapiCast@@SAAEBVMFloatMatrix@@AEBVT4dFltMatrix@@@Z
?floatMatrix@TapiCast@@SAAEBVT4dFltMatrix@@AEBVMFloatMatrix@@@Z
?floatPixels@MImage@@QEBAPEAMXZ
?floatPointArray@TapiCast@@SAAEAVT4dFltPointArray@@AEAVMFloatPointArray@@@Z
?floatPointArray@TapiCast@@SAAEBVT4dFltPointArray@@AEBVMFloatPointArray@@@Z
?floatVector@TapiCast@@SAAEAVMFloatVector@@AEAVT3dFltVector@@@Z
?floatVector@TapiCast@@SAAEAVT3dFltVector@@AEAVMFloatVector@@@Z
?floatVector@TapiCast@@SAAEBVMFloatVector@@AEBVT3dFltVector@@@Z
?floatVector@TapiCast@@SAAEBVT3dFltVector@@AEBVMFloatVector@@@Z
?floatVectorArray@TapiCast@@SA?AVMFloatVectorArray@@AEAVT3dFltVectorArray@@@Z
?floatVectorArray@TapiCast@@SAAEAVT3dFltVectorArray@@AEAVMFloatVectorArray@@@Z
?floatVectorArray@TapiCast@@SAAEBVT3dFltVectorArray@@AEBVMFloatVectorArray@@@Z
?focalLength@MFnCamera@@QEBANPEAVMStatus@@@Z
?focusDistance@MFnCamera@@QEBANPEAVMStatus@@@Z
?forceCache@MPxAssembly@@MEAA?AVMDataBlock@@AEAVMDGContext@@@Z
?forceCache@MPxNode@@MEAA?AVMDataBlock@@AEAVMDGContext@@@Z
?form@MFnNurbsCurve@@QEBA?AW4Form@1@PEAVMStatus@@@Z
?formInU@MFnNurbsSurface@@QEBA?AW4Form@1@PEAVMStatus@@@Z
?formInV@MFnNurbsSurface@@QEBA?AW4Form@1@PEAVMStatus@@@Z
?format@MString@@QEAA?AVMStatus@@AEBV1@0000000000@Z
?format@MString@@QEAA?AVMStatus@@AEBV1@AEBVMStringArray@@@Z
?frameExtension@MPxImagePlane@@2VMObject@@A
?frameOffset@MPxImagePlane@@2VMObject@@A
?freeAndReplaceTHXform@THxformMatrix@@AEAAXPEAVMPxTransformationMatrix@@PEAV1@@Z
?freeCachedIntersectionAccelerator@MFnMesh@@QEAA?AVMStatus@@XZ
?fromMUint64@MFnSubdNames@@SA?AVMStatus@@_KAEAH1111@Z
?fromSelectionIndices@MFnSubdNames@@SA?AVMStatus@@AEA_KII@Z
?frozen@MPxNode@@2VMObject@@A
?fsBaseDagObjectUICreator@THsurfaceShape@@0P6APEAVTbaseDagObjectUI@@AEAVTdagObject@@@ZEA
?fsCallbackArray@TpluginDBase@@0VTscriptActionArray@@A
?fsDefaultTesselationParams@MTesselationParams@@2V1@A
?fsErrorLogHandler@TapiErrorLogEntry@@0PEAVTapiErrorLogHandler@@EA
?fsLazyLoad@Tplugin@@0_NA
?fsLoggingIsOn@TapiErrorLogEntry@@2_NA
?fsNormal@MDGContext@@2V1@A
?fsOldPluginWarningEnabled@Tplugin@@0_NA
?fsVsData@THdependNode@@2PEAVTdnVSTHdependNode@@EA
?fsVsData@THsurfaceShape@@2PEAVTdnVSTHsurfaceShape@@EA
?fullName@MFileObject@@QEBA?AVMString@@XZ
?fullPathName@MDagPath@@QEBA?AVMString@@PEAVMStatus@@@Z
?fullPathName@MFnDagNode@@QEBA?AVMString@@PEAVMStatus@@@Z
?fullPathName@MItDag@@QEBA?AVMString@@PEAVMStatus@@@Z
?funcDynSweptGeomTypeId@TapiEnum@@2P6APEAVTmetaclass@@XZEA
?funcNIdDataTypeId@TapiEnum@@2P6APEAVTmetaclass@@XZEA
?funcNObjectDataTypeId@TapiEnum@@2P6APEAVTmetaclass@@XZEA
?generate@MUuid@@QEAA?AVMStatus@@XZ
?generateSmoothMesh@MFnMesh@@QEAA?AVMObject@@V2@PEAVMMeshSmoothOptions@@PEAVMStatus@@@Z
?generateSmoothMesh@MFnMesh@@QEAA?AVMObject@@V2@PEAVMStatus@@@Z
?geomChanged@MItMeshEdge@@QEAA?AVMStatus@@XZ
?geomChanged@MItMeshFaceVertex@@QEAA?AVMStatus@@XZ
?geomChanged@MItMeshPolygon@@QEAA?AVMStatus@@XZ
?geomChanged@MItMeshVertex@@QEAA?AVMStatus@@XZ
?geometry@MPxGeometryIterator@@QEBAPEAXXZ
?geometry@MPxTransform@@2VMObject@@A
?geometryCaches@Tplugin@@QEBAAEBVTpluginGeometryCachePtrs@@XZ
?geometryCachesByName@TpluginGeometryCacheDBase@@0PEAVTpluginGeometryCacheDBaseNameTable@@EA
?geometryData@MPxSurfaceShape@@UEBA?AVMObject@@XZ
?geometryIterator@TapiPack@@SA?AVMItGeometry@@PEAVTgeometryIterator@@@Z
?geometryIteratorSetup@MPxSurfaceShape@@UEAAPEAVMPxGeometryIterator@@AEAVMObjectArray@@AEAVMObject@@_N@Z
?geometryIteratorSetup@THsurfaceShape@@UEAAPEAVTgeometryBaseIterator@@PEBVTcomponentList@@PEBVTcomponent@@_N@Z
?geometryTransformMatrix@MDataHandle@@QEBAAEBVMMatrix@@XZ
?get@MArgList@@QEBA?AVMStatus@@AEAIAEAVMDoubleArray@@@Z
?get@MArgList@@QEBA?AVMStatus@@AEAIAEAVMIntArray@@@Z
?get@MArgList@@QEBA?AVMStatus@@AEAIAEAVMMatrix@@@Z
?get@MArgList@@QEBA?AVMStatus@@AEAIAEAVMPoint@@I@Z
?get@MArgList@@QEBA?AVMStatus@@AEAIAEAVMStringArray@@@Z
?get@MArgList@@QEBA?AVMStatus@@AEAIAEAVMVector@@I@Z
?get@MArgList@@QEBA?AVMStatus@@IAEAH@Z
?get@MArgList@@QEBA?AVMStatus@@IAEAN@Z
?get@MArgList@@QEBA?AVMStatus@@IAEAVMAngle@@@Z
?get@MArgList@@QEBA?AVMStatus@@IAEAVMDistance@@@Z
?get@MArgList@@QEBA?AVMStatus@@IAEAVMString@@@Z
?get@MArgList@@QEBA?AVMStatus@@IAEAVMTime@@@Z
?get@MArgList@@QEBA?AVMStatus@@IAEA_N@Z
?get@MAutoCLEvent@@QEBAPEAU_cl_event@@XZ
?get@MAutoCLKernel@@QEBAPEAU_cl_kernel@@XZ
?get@MAutoCLMem@@QEBAPEAU_cl_mem@@XZ
?get@MCallbackIdArray@@QEBA?AVMStatus@@QEA_K@Z
?get@MColor@@QEBA_NQEAM@Z
?get@MColor@@QEBA_NW4MColorType@1@AEAM111@Z
?get@MColor@@QEBA_NW4MColorType@1@AEAM11@Z
?get@MColorArray@@QEBA?AVMStatus@@QEAY03M@Z
?get@MDoubleArray@@QEBA?AVMStatus@@QEAM@Z
?get@MDoubleArray@@QEBA?AVMStatus@@QEAN@Z
?get@MFloatArray@@QEBA?AVMStatus@@QEAM@Z
?get@MFloatArray@@QEBA?AVMStatus@@QEAN@Z
?get@MFloatMatrix@@QEBA?AVMStatus@@QEAY03M@Z
?get@MFloatMatrix@@QEBA?AVMStatus@@QEAY03N@Z
?get@MFloatPoint@@QEBA?AVMStatus@@QEAM@Z
?get@MFloatPoint@@QEBA?AVMStatus@@QEAN@Z
?get@MFloatPointArray@@QEBA?AVMStatus@@QEAY03M@Z
?get@MFloatPointArray@@QEBA?AVMStatus@@QEAY03N@Z
?get@MFloatVector@@QEBA?AVMStatus@@QEAM@Z
?get@MFloatVectorArray@@QEBA?AVMStatus@@QEAY02M@Z
?get@MFloatVectorArray@@QEBA?AVMStatus@@QEAY02N@Z
?get@MIffFile@@QEAAHPEAXIPEAVMStatus@@@Z
?get@MInt64Array@@QEBA?AVMStatus@@QEA_J@Z
?get@MIntArray@@QEBA?AVMStatus@@QEAH@Z
?get@MMatrix@@QEBA?AVMStatus@@QEAY03M@Z
?get@MMatrix@@QEBA?AVMStatus@@QEAY03N@Z
?get@MObjectArray@@QEBA?AVMStatus@@QEAVMObject@@@Z
?get@MPlugArray@@QEBA?AVMStatus@@QEAVMPlug@@@Z
?get@MPoint@@QEBA?AVMStatus@@QEAM@Z
?get@MPoint@@QEBA?AVMStatus@@QEAN@Z
?get@MPointArray@@QEBA?AVMStatus@@QEAY03M@Z
?get@MPointArray@@QEBA?AVMStatus@@QEAY03N@Z
?get@MQuaternion@@QEBA?AVMStatus@@QEAN@Z
?get@MStringArray@@QEBA?AVMStatus@@QEAPEAD@Z
?get@MStringArray@@QEBA?AVMStatus@@QEAVMString@@@Z
?get@MTimeArray@@QEBA?AVMStatus@@QEAVMTime@@@Z
?get@MTrimBoundaryArray@@QEBAAEBVMObjectArray@@I@Z
?get@MUint64Array@@QEBA?AVMStatus@@QEA_K@Z
?get@MUintArray@@QEBA?AVMStatus@@QEAI@Z
?get@MUuid@@QEBA?AVMStatus@@PEAE@Z
?get@MVector@@QEBA?AVMStatus@@QEAN@Z
?get@MVectorArray@@QEBA?AVMStatus@@QEAY02M@Z
?get@MVectorArray@@QEBA?AVMStatus@@QEAY02N@Z
?getAPathTo@MDagPath@@SA?AV1@AEBVMObject@@PEAVMStatus@@@Z
?getAPathTo@MDagPath@@SA?AVMStatus@@AEBVMObject@@AEAV1@@Z
?getAbsolutePathToResources@MGlobal@@SA?AVMString@@XZ
?getAbsoluteRepNamespace@MFnAssembly@@QEBA?AVMString@@PEAVMStatus@@@Z
?getActive@MFnAssembly@@QEBA?AVMString@@PEAVMStatus@@@Z
?getActiveSelectionList@MGlobal@@SA?AVMStatus@@AEAVMSelectionList@@_N@Z
?getAddAttrCmd@MFnAttribute@@QEBA?AVMString@@_NPEAVMStatus@@@Z
?getAddAttrCmds@MFnCompoundAttribute@@QEBA?AVMStatus@@AEAVMStringArray@@_N@Z
?getAffectedAttributes@MFnDependencyNode@@QEBA?AVMStatus@@AEBVMObject@@AEAVMObjectArray@@@Z
?getAffectedByAttributes@MFnDependencyNode@@QEBA?AVMStatus@@AEBVMObject@@AEAVMObjectArray@@@Z
?getAliasAttr@MFnDependencyNode@@QEAA?AVMObject@@_NPEAVMStatus@@@Z
?getAliasList@MFnDependencyNode@@QEAA_NAEAVMStringArray@@PEAVMStatus@@@Z
?getAllCategories@MProfiler@@SAXAEAVMStringArray@@@Z
?getAllPaths@MFnDagNode@@QEBA?AVMStatus@@AEAVMDagPathArray@@@Z
?getAllPaths@MItDag@@QEBA?AVMStatus@@AEAVMDagPathArray@@@Z
?getAllPathsTo@MDagPath@@SA?AVMStatus@@AEBVMObject@@AEAVMDagPathArray@@@Z
?getAllQueryItemKeys@MURI@@QEBA?AVMStringArray@@XZ
?getAllQueryItemValues@MURI@@QEBA?AVMStringArray@@AEBVMString@@@Z
?getArea@MItMeshPolygon@@QEAA?AVMStatus@@AEANW4Space@MSpace@@@Z
?getAspectRatioLimits@MFnCamera@@QEBA?AVMStatus@@AEAN0@Z
?getAssembly@MPxRepresentation@@IEBAPEAVMPxAssembly@@XZ
?getAssignedUVs@MFnMesh@@QEBA?AVMStatus@@AEAVMIntArray@@0PEBVMString@@@Z
?getAssignedUVs@MFnNurbsSurface@@QEBA?AVMStatus@@AEAVMIntArray@@0@Z
?getAssociatedColorSetInstances@MFnMesh@@QEBA?AVMStatus@@AEBVMString@@AEAVMIntArray@@@Z
?getAssociatedSets@MGlobal@@SA?AVMStatus@@AEBVMSelectionList@@AEAVMObjectArray@@@Z
?getAssociatedUVSetInstances@MFnMesh@@QEBA?AVMStatus@@AEBVMString@@AEAVMIntArray@@@Z
?getAssociatedUVSetTextures@MFnMesh@@QEBA?AVMStatus@@VMString@@AEAVMObjectArray@@@Z
?getAttrData@TpluginNode@@QEAAXAEAV?$vector@PEBVTdataLetter@@V?$allocator@PEBVTdataLetter@@@std@@@std@@@Z
?getAttributePatternFactoryList@TpluginAttributePatternFactoryDBase@@SA_NAEAVTpluginAttributePatternFactoryPtrArray@@@Z
?getAttributePatternFactoryNames@TpluginAttributePatternFactoryDBase@@SA_NAEAVTstringArray@@@Z
?getAttributeType@MRenderPassDef@@QEBA?AVMString@@AEBV2@PEAVMStatus@@@Z
?getAttributes@MNodeClass@@QEBA?AVMStatus@@AEAVMObjectArray@@@Z
?getAuthority@MURI@@QEBA?AVMString@@XZ
?getAxisAngle@MQuaternion@@QEBA_NAEAVMVector@@AEAN@Z
?getAxisAtPoint@MFnMesh@@QEAA?AVMStatus@@AEAVMPoint@@AEAVMVector@@11W4Space@MSpace@@PEBVMString@@PEAH@Z
?getAxisAtUV@MItMeshPolygon@@QEAA?AVMStatus@@AEAVMVector@@00AEAY01MW4Space@MSpace@@PEBVMString@@M@Z
?getBarycentricCoords@MPointOnMesh@@QEBAXAEAM0@Z
?getBinaryBlindData@MFnMesh@@QEBA?AVMStatus@@HW4Type@MFn@@HVMString@@AEAV5@@Z
?getBinaryBlindData@MFnMesh@@QEBA?AVMStatus@@W4Type@MFn@@HVMString@@AEAVMIntArray@@AEAVMStringArray@@@Z
?getBinormal@MItMeshFaceVertex@@QEBA?AVMVector@@W4Space@MSpace@@PEBVMString@@PEAVMStatus@@@Z
?getBinormals@MFnMesh@@QEBA?AVMStatus@@AEAVMFloatVectorArray@@W4Space@MSpace@@PEBVMString@@@Z
?getBlindDataAttrNames@MFnMesh@@QEBA?AVMStatus@@HAEAVMStringArray@@00@Z
?getBlindDataAttrNames@MFnMesh@@QEBA?AVMStatus@@HAEAVMStringArray@@0@Z
?getBlindDataFaceVertexIndices@MFnMesh@@QEBA?AVMStatus@@HAEAH0@Z
?getBlindDataTypes@MFnMesh@@QEBA?AVMStatus@@W4Type@MFn@@AEAVMIntArray@@@Z
?getBool@MScriptUtil@@SAHAEA_N@Z
?getBoolArrayItem@MScriptUtil@@SAHPEA_NI@Z
?getBoolBlindData@MFnMesh@@QEBA?AVMStatus@@HW4Type@MFn@@HVMString@@AEA_N@Z
?getBoolBlindData@MFnMesh@@QEBA?AVMStatus@@W4Type@MFn@@HVMString@@AEAVMIntArray@@2@Z
?getBufferSize@MProfiler@@SAHXZ
?getCPUId@MProfiler@@SAHH@Z
?getCV@MFnNurbsCurve@@QEBA?AVMStatus@@IAEAVMPoint@@W4Space@MSpace@@@Z
?getCV@MFnNurbsSurface@@QEBA?AVMStatus@@IIAEAVMPoint@@W4Space@MSpace@@@Z
?getCVs@MFnNurbsCurve@@QEBA?AVMStatus@@AEAVMPointArray@@W4Space@MSpace@@@Z
?getCVs@MFnNurbsSurface@@QEBA?AVMStatus@@AEAVMPointArray@@W4Space@MSpace@@@Z
?getCacheLineSize@MThreadUtils@@SAHXZ
?getCachedValue@THdependNode@@UEAA_NAEBVTplug@@AEAVTdataHandle@@AEBVTdgContext@@@Z
?getCachedValue@THsurfaceShape@@UEAA_NAEBVTplug@@AEAVTdataHandle@@AEBVTdgContext@@@Z
?getCategories@MFnAttribute@@QEBA?AVMStatus@@AEAVMStringArray@@@Z
?getCategoryIndex@MProfiler@@SAHPEBD@Z
?getCategoryName@MProfiler@@SAPEBDH@Z
?getChannelDataType@MCacheFormatDescription@@QEBA?AW4CacheDataType@1@I@Z
?getChannelEndTime@MCacheFormatDescription@@QEBA?AVMTime@@I@Z
?getChannelInterpretation@MCacheFormatDescription@@QEBA?AVMString@@I@Z
?getChannelName@MCacheFormatDescription@@QEBA?AVMString@@I@Z
?getChannelSamplingRate@MCacheFormatDescription@@QEBA?AVMTime@@I@Z
?getChannelSamplingType@MCacheFormatDescription@@QEBA?AW4CacheSamplingType@1@I@Z
?getChannelStartTime@MCacheFormatDescription@@QEBA?AVMTime@@I@Z
?getChar@MScriptUtil@@SAHAEAD@Z
?getCharArrayItem@MScriptUtil@@SAHPEADI@Z
?getCheckSamePointTwice@MFnMesh@@QEAA_NXZ
?getChunk@MIffFile@@QEAAPEBXAEAVMIffTag@@PEAI@Z
?getClosestNormal@MFnMesh@@QEBA?AVMStatus@@AEBVMPoint@@AEAVMVector@@W4Space@MSpace@@PEAHPEAVMMeshIsectAccelParams@@@Z
?getClosestPoint@MFnMesh@@QEBA?AVMStatus@@AEBVMPoint@@AEAV3@W4Space@MSpace@@PEAHPEAVMMeshIsectAccelParams@@@Z
?getClosestPoint@MMeshIntersector@@QEBA?AVMStatus@@AEBVMPoint@@AEAVMPointOnMesh@@N@Z
?getClosestPoint@MNurbsIntersector@@QEBA?AVMStatus@@AEBVMPoint@@AEAVMPointOnNurbs@@N@Z
?getClosestPointAndNormal@MFnMesh@@QEBA?AVMStatus@@AEBVMPoint@@AEAV3@AEAVMVector@@W4Space@MSpace@@PEAHPEAVMMeshIsectAccelParams@@@Z
?getCmdList@TpluginCmdDBase@@SA_NAEAVTpluginCmdPtrArray@@@Z
?getColor@MFnMesh@@QEBA?AVMStatus@@HAEAVMColor@@PEBVMString@@PEBV3@@Z
?getColor@MItMeshFaceVertex@@QEAA?AVMStatus@@AEAVMColor@@PEBVMString@@@Z
?getColor@MItMeshPolygon@@QEAA?AVMStatus@@AEAVMColor@@H@Z
?getColor@MItMeshPolygon@@QEAA?AVMStatus@@AEAVMColor@@PEBVMString@@@Z
?getColor@MItMeshVertex@@QEBA?AVMStatus@@AEAVMColor@@HPEBVMString@@@Z
?getColor@MItMeshVertex@@QEBA?AVMStatus@@AEAVMColor@@PEBVMString@@@Z
?getColor@MProfiler@@SA?AW4ProfilingColor@1@H@Z
?getColorAtPosition@MRampAttribute@@QEAAXMAEAVMColor@@PEAVMStatus@@AEAVMDGContext@@@Z
?getColorIndex@MFnMesh@@QEAA?AVMStatus@@HHAEAHPEBVMString@@@Z
?getColorIndex@MItMeshFaceVertex@@QEAA?AVMStatus@@AEAHPEBVMString@@@Z
?getColorIndex@MItMeshPolygon@@QEAA?AVMStatus@@HAEAHPEBVMString@@@Z
?getColorIndices@MItMeshPolygon@@QEAA?AVMStatus@@AEAVMIntArray@@PEBVMString@@@Z
?getColorIndices@MItMeshVertex@@QEBA?AVMStatus@@AEAVMIntArray@@PEBVMString@@@Z
?getColorRepresentation@MFnMesh@@QEBA?AW4MColorRepresentation@1@AEBVMString@@PEAVMStatus@@@Z
?getColorSetFamilyNames@MFnMesh@@QEBA?AVMStatus@@AEAVMStringArray@@@Z
?getColorSetIndex@MFnMesh@@IEBA_NPEBVMString@@AEAH@Z
?getColorSetNames@MFnMesh@@QEBA?AVMStatus@@AEAVMStringArray@@@Z
?getColorSetsInFamily@MFnMesh@@QEBA?AVMStatus@@AEBVMString@@AEAVMStringArray@@@Z
?getColors@MFnMesh@@QEBA?AVMStatus@@AEAVMColorArray@@PEBVMString@@PEBVMColor@@@Z
?getColors@MItMeshPolygon@@QEAA?AVMStatus@@AEAVMColorArray@@PEBVMString@@@Z
?getColors@MItMeshVertex@@QEBA?AVMStatus@@AEAVMColorArray@@PEBVMString@@@Z
?getCommandArgument@MArgDatabase@@QEBA?AVMStatus@@IAEAH@Z
?getCommandArgument@MArgDatabase@@QEBA?AVMStatus@@IAEAN@Z
?getCommandArgument@MArgDatabase@@QEBA?AVMStatus@@IAEAVMAngle@@@Z
?getCommandArgument@MArgDatabase@@QEBA?AVMStatus@@IAEAVMDistance@@@Z
?getCommandArgument@MArgDatabase@@QEBA?AVMStatus@@IAEAVMSelectionList@@@Z
?getCommandArgument@MArgDatabase@@QEBA?AVMStatus@@IAEAVMString@@@Z
?getCommandArgument@MArgDatabase@@QEBA?AVMStatus@@IAEAVMTime@@@Z
?getCommandArgument@MArgDatabase@@QEBA?AVMStatus@@IAEA_N@Z
?getCommandArgument@MArgParser@@QEBA?AVMStatus@@IAEAH@Z
?getCommandArgument@MArgParser@@QEBA?AVMStatus@@IAEAN@Z
?getCommandArgument@MArgParser@@QEBA?AVMStatus@@IAEAVMAngle@@@Z
?getCommandArgument@MArgParser@@QEBA?AVMStatus@@IAEAVMDistance@@@Z
?getCommandArgument@MArgParser@@QEBA?AVMStatus@@IAEAVMString@@@Z
?getCommandArgument@MArgParser@@QEBA?AVMStatus@@IAEAVMTime@@@Z
?getCommandArgument@MArgParser@@QEBA?AVMStatus@@IAEA_N@Z
?getCompleteData@MFnDoubleIndexedComponent@@QEBA?AVMStatus@@AEAH0@Z
?getCompleteData@MFnSingleIndexedComponent@@QEBA?AVMStatus@@AEAH@Z
?getCompleteData@MFnTripleIndexedComponent@@QEBA?AVMStatus@@AEAH00@Z
?getCompleteData@MFnUint64SingleIndexedComponent@@QEBA?AVMStatus@@AEA_K@Z
?getComponentSelectionMask@MPxSurfaceShape@@UEBA?AVMSelectionMask@@XZ
?getConditionNames@MConditionMessage@@SA?AVMStatus@@AEAVMStringArray@@@Z
?getConditionState@MConditionMessage@@SA_NAEBVMString@@PEAVMStatus@@@Z
?getConnectedEdges@MItMeshEdge@@QEBAHAEAVMIntArray@@PEAVMStatus@@@Z
?getConnectedEdges@MItMeshPolygon@@QEAA?AVMStatus@@AEAVMIntArray@@@Z
?getConnectedEdges@MItMeshVertex@@QEAA?AVMStatus@@AEAVMIntArray@@@Z
?getConnectedFaces@MItMeshEdge@@QEBAHAEAVMIntArray@@PEAVMStatus@@@Z
?getConnectedFaces@MItMeshPolygon@@QEAA?AVMStatus@@AEAVMIntArray@@@Z
?getConnectedFaces@MItMeshVertex@@QEAA?AVMStatus@@AEAVMIntArray@@@Z
?getConnectedSetsAndMembers@MFnDagNode@@QEBA?AVMStatus@@IAEAVMObjectArray@@0_N@Z
?getConnectedShaders@MFnMesh@@QEBA?AVMStatus@@IAEAVMObjectArray@@AEAVMIntArray@@@Z
?getConnectedShaders@MFnNurbsSurface@@QEBA?AVMStatus@@IAEAVMObjectArray@@AEAVMIntArray@@@Z
?getConnectedShaders@MFnSubd@@QEBA?AVMStatus@@IAEAVMObjectArray@@AEAVMUint64Array@@AEAVMIntArray@@@Z
?getConnectedVertices@MItMeshPolygon@@QEAA?AVMStatus@@AEAVMIntArray@@@Z
?getConnectedVertices@MItMeshVertex@@QEAA?AVMStatus@@AEAVMIntArray@@@Z
?getConnections@MFnDependencyNode@@QEBA?AVMStatus@@AEAVMPlugArray@@@Z
?getControlPoints@MPxComponentShape@@QEAAPEAVMVectorArray@@XZ
?getCreaseEdges@MFnMesh@@QEBA?AVMStatus@@AEAVMUintArray@@AEAVMDoubleArray@@@Z
?getCreaseVertices@MFnMesh@@QEBA?AVMStatus@@AEAVMUintArray@@AEAVMDoubleArray@@@Z
?getCreator@TpluginObject@@UEBAP6APEAXXZXZ
?getCubicSpline@MFnSubd@@QEAA_N_KQEAVMPoint@@PEAVMStatus@@@Z
?getCubicSpline@MFnSubd@@QEAA_N_KVMPointArray@@PEAVMStatus@@@Z
?getCurrentColorSetName@MFnMesh@@QEBA?AVMStatus@@AEAVMString@@H@Z
?getCurrentIteratorFromMObjectOrMPlug@MItDependencyGraph@@AEAAXAEAVMObject@@AEAVMPlug@@W4Direction@1@W4Traversal@1@W4Level@1@PEAVMStatus@@@Z
?getCurrentResult@MPxCommand@@SA?AVMStatus@@AEAH@Z
?getCurrentResult@MPxCommand@@SA?AVMStatus@@AEAN@Z
?getCurrentResult@MPxCommand@@SA?AVMStatus@@AEAVMDoubleArray@@@Z
?getCurrentResult@MPxCommand@@SA?AVMStatus@@AEAVMIntArray@@@Z
?getCurrentResult@MPxCommand@@SA?AVMStatus@@AEAVMString@@@Z
?getCurrentResult@MPxCommand@@SA?AVMStatus@@AEAVMStringArray@@@Z
?getCurrentTime@MTimer@@AEAANXZ
?getCurrentUVSetName@MFnMesh@@QEBA?AVMStatus@@AEAVMString@@H@Z
?getDagPath@MItSelectionList@@QEAA?AVMStatus@@AEAVMDagPath@@@Z
?getDagPath@MItSelectionList@@QEAA?AVMStatus@@AEAVMDagPath@@AEAVMObject@@@Z
?getDagPath@MSelectionList@@QEBA?AVMStatus@@IAEAVMDagPath@@AEAVMObject@@@Z
?getData2Double@MFnNumericData@@QEAA?AVMStatus@@AEAN0@Z
?getData2Float@MFnNumericData@@QEAA?AVMStatus@@AEAM0@Z
?getData2Int@MFnNumericData@@QEAA?AVMStatus@@AEAH0@Z
?getData2Short@MFnNumericData@@QEAA?AVMStatus@@AEAF0@Z
?getData3Double@MFnNumericData@@QEAA?AVMStatus@@AEAN00@Z
?getData3Float@MFnNumericData@@QEAA?AVMStatus@@AEAM00@Z
?getData3Int@MFnNumericData@@QEAA?AVMStatus@@AEAH00@Z
?getData3Short@MFnNumericData@@QEAA?AVMStatus@@AEAF00@Z
?getData4Double@MFnNumericData@@QEAA?AVMStatus@@AEAN000@Z
?getData@MExternalContentInfoTable@@AEBAPEAXXZ
?getData@MExternalContentLocationTable@@AEBAPEAXXZ
?getData@MFnNumericData@@QEAA?AVMStatus@@AEAF00@Z
?getData@MFnNumericData@@QEAA?AVMStatus@@AEAF0@Z
?getData@MFnNumericData@@QEAA?AVMStatus@@AEAH00@Z
?getData@MFnNumericData@@QEAA?AVMStatus@@AEAH0@Z
?getData@MFnNumericData@@QEAA?AVMStatus@@AEAM00@Z
?getData@MFnNumericData@@QEAA?AVMStatus@@AEAM0@Z
?getData@MFnNumericData@@QEAA?AVMStatus@@AEAN000@Z
?getData@MFnNumericData@@QEAA?AVMStatus@@AEAN00@Z
?getData@MFnNumericData@@QEAA?AVMStatus@@AEAN0@Z
?getDataObject@MFnNurbsSurface@@QEBA?AVMObject@@XZ
?getDebugPeekValue@TapiArrayTester@@QEAAPEBHAEBVMIntArray@@@Z
?getDefault@MFnEnumAttribute@@QEBA?AVMStatus@@AEAF@Z
?getDefault@MFnEnumAttribute@@QEBA?AVMStatus@@AEAVMString@@@Z
?getDefault@MFnLightDataAttribute@@QEAA?AVMStatus@@AEAM00000AEA_N1100AEAPEAX@Z
?getDefault@MFnMatrixAttribute@@QEAA?AVMStatus@@AEAVMFloatMatrix@@@Z
?getDefault@MFnMatrixAttribute@@QEAA?AVMStatus@@AEAVMMatrix@@@Z
?getDefault@MFnNumericAttribute@@QEAA?AVMStatus@@AEAD@Z
?getDefault@MFnNumericAttribute@@QEAA?AVMStatus@@AEAH00@Z
?getDefault@MFnNumericAttribute@@QEAA?AVMStatus@@AEAH0@Z
?getDefault@MFnNumericAttribute@@QEAA?AVMStatus@@AEAH@Z
?getDefault@MFnNumericAttribute@@QEAA?AVMStatus@@AEAM00@Z
?getDefault@MFnNumericAttribute@@QEAA?AVMStatus@@AEAM0@Z
?getDefault@MFnNumericAttribute@@QEAA?AVMStatus@@AEAM@Z
?getDefault@MFnNumericAttribute@@QEAA?AVMStatus@@AEAN000@Z
?getDefault@MFnNumericAttribute@@QEAA?AVMStatus@@AEAN00@Z
?getDefault@MFnNumericAttribute@@QEAA?AVMStatus@@AEAN0@Z
?getDefault@MFnNumericAttribute@@QEAA?AVMStatus@@AEAN@Z
?getDefault@MFnNumericAttribute@@QEAA?AVMStatus@@AEAPEAX@Z
?getDefault@MFnNumericAttribute@@QEAA?AVMStatus@@AEA_J@Z
?getDefault@MFnNumericAttribute@@QEAA?AVMStatus@@AEA_N@Z
?getDefault@MFnTypedAttribute@@QEAA?AVMStatus@@AEAVMObject@@@Z
?getDefault@MFnUnitAttribute@@QEAA?AVMStatus@@AEAN@Z
?getDefault@MFnUnitAttribute@@QEAA?AVMStatus@@AEAVMAngle@@@Z
?getDefault@MFnUnitAttribute@@QEAA?AVMStatus@@AEAVMDistance@@@Z
?getDefault@MFnUnitAttribute@@QEAA?AVMStatus@@AEAVMTime@@@Z
?getDefaultObject@MFnExpression@@QEAA?AVMStatus@@AEAVMObject@@@Z
?getDefaultType@THrenderPassImpl@@UEBA?AW4TtypeBit@TrenderPassImpl@@XZ
?getDependNode@MItSelectionList@@QEAA?AVMStatus@@AEAVMObject@@@Z
?getDependNode@MSelectionList@@QEBA?AVMStatus@@IAEAVMObject@@@Z
?getDepthMapRange@MImage@@QEBA?AVMStatus@@AEAM0@Z
?getDepthMapSize@MImage@@QEBA?AVMStatus@@AEAI0@Z
?getDerivativesAtParm@MFnNurbsCurve@@QEBA?AVMStatus@@NAEAVMPoint@@AEAVMVector@@W4Space@MSpace@@PEAV4@@Z
?getDerivativesAtParm@MFnNurbsSurface@@QEBA?AVMStatus@@NNAEAVMPoint@@AEAVMVector@@1W4Space@MSpace@@PEAV4@33@Z
?getDescription@MProfiler@@SAPEBDH@Z
?getDescription@MRenderPassDef@@QEBA?AVMString@@PEAVMStatus@@@Z
?getDescriptionInfo@MCacheFormatDescription@@QEBA?AVMStringArray@@XZ
?getDescriptionInfo@MCacheFormatDescription@@QEBAXAEAVMStringArray@@@Z
?getDirectory@MURI@@QEBA?AVMString@@XZ
?getDisplayStatus@MDagPath@@QEBAIXZ
?getDistribution@MCacheFormatDescription@@QEBA?AW4CacheFileDistribution@1@XZ
?getDouble2ArrayItem@MScriptUtil@@SANPEAY01NII@Z
?getDouble3ArrayItem@MScriptUtil@@SANPEAY02NII@Z
?getDouble4ArrayItem@MScriptUtil@@SANPEAY03NII@Z
?getDouble@MScriptUtil@@SANAEAN@Z
?getDoubleArrayItem@MScriptUtil@@SANPEANI@Z
?getDoubleBlindData@MFnMesh@@QEBA?AVMStatus@@HW4Type@MFn@@HVMString@@AEAN@Z
?getDoubleBlindData@MFnMesh@@QEBA?AVMStatus@@W4Type@MFn@@HVMString@@AEAVMIntArray@@AEAVMDoubleArray@@@Z
?getDoubleData@MFnArrayAttrsData@@QEAA?AVMDoubleArray@@VMString@@PEAVMStatus@@@Z
?getDrawOverrideInfo@MDagPath@@QEBA?AVMDAGDrawOverrideInfo@@XZ
?getDynSweptGeomTypeId@TapiEnum@@SAPEAVTmetaclass@@XZ
?getEdgeVertices@MFnMesh@@QEBA?AVMStatus@@HAEAY01H@Z
?getEdges@MItMeshPolygon@@QEAA?AVMStatus@@AEAVMIntArray@@@Z
?getElement@MFnDoubleIndexedComponent@@QEBA?AVMStatus@@HAEAH0@Z
?getElement@MFnTripleIndexedComponent@@QEBA?AVMStatus@@HAEAH00@Z
?getElements@MFnDoubleIndexedComponent@@QEBA?AVMStatus@@AEAVMIntArray@@0@Z
?getElements@MFnSingleIndexedComponent@@QEBA?AVMStatus@@AEAVMIntArray@@@Z
?getElements@MFnTripleIndexedComponent@@QEBA?AVMStatus@@AEAVMIntArray@@00@Z
?getElements@MFnUint64SingleIndexedComponent@@QEBA?AVMStatus@@AEAVMUint64Array@@@Z
?getEntries@MCurveAttribute@@QEAAXAEAVMIntArray@@AEAVMFloatArray@@1PEAVMStatus@@@Z
?getEntries@MRampAttribute@@QEAAXAEAVMIntArray@@AEAVMFloatArray@@10PEAVMStatus@@@Z
?getEntries@MRampAttribute@@QEAAXAEAVMIntArray@@AEAVMFloatArray@@AEAVMColorArray@@0PEAVMStatus@@@Z
?getEntry@MExternalContentInfoTable@@QEBA?AVMStatus@@IAEAVMString@@000AEAVMStringArray@@@Z
?getEntry@MExternalContentInfoTable@@QEBA?AVMStatus@@IAEAVMString@@00AEAVMStringArray@@@Z
?getEntry@MExternalContentLocationTable@@QEBA?AVMStatus@@IAEAVMString@@0@Z
?getEnv@MCommonSystemUtils@@SA?AVMStatus@@AEBVMString@@AEAV3@@Z
?getEnv@MCommonSystemUtils@@SA?AVMString@@AEBV2@PEAVMStatus@@@Z
?getErrorStatus@MFileIO@@SA_NPEAVMStatus@@@Z
?getEulerRotation@MPxTransform@@UEAA?AVMEulerRotation@@W4Space@MSpace@@AEBVMDGContext@@PEAVMStatus@@@Z
?getEulerRotationFromAttrs@MPxTransform@@CA?AVMEulerRotation@@AEAVMDataBlock@@@Z
?getEulerRotationOrderFromAttrs@MPxTransform@@CA?AW4RotationOrder@MEulerRotation@@AEAVMDataBlock@@@Z
?getEventCategory@MProfiler@@SAHH@Z
?getEventCount@MProfiler@@SAHXZ
?getEventDuration@MProfiler@@SAHH@Z
?getEventName@MProfiler@@SAPEBDH@Z
?getEventNames@MEventMessage@@SA?AVMStatus@@AEAVMStringArray@@@Z
?getEventTime@MProfiler@@SA_KH@Z
?getExactImageFile@MPxImagePlane@@QEAA_NAEBVMString@@AEAV2@@Z
?getExistingArrayAttributeIndices@MPlug@@QEAAIAEAVMIntArray@@PEAVMStatus@@@Z
?getExpression@MFnExpression@@QEAA?AVMStatus@@AEAVMString@@@Z
?getExternalContent@MFnDependencyNode@@QEBA?AVMStatus@@AEAVMExternalContentInfoTable@@@Z
?getExternalContent@MPxNode@@UEBAXAEAVMExternalContentInfoTable@@@Z
?getExternalContent@MPxRepresentation@@UEBAXAEAVMExternalContentInfoTable@@@Z
?getExternalContent@THdependNode@@UEBAXAEAVTexternalContentInfoTable@@@Z
?getExternalContent@THsurfaceShape@@UEBAXAEAVTexternalContentInfoTable@@@Z
?getFaceNormalIds@MFnMesh@@QEBA?AVMStatus@@HAEAVMIntArray@@@Z
?getFaceUVSetNames@MFnMesh@@QEBA?AVMStatus@@HAEAVMStringArray@@@Z
?getFaceVertexBinormal@MFnMesh@@QEBA?AVMStatus@@HHAEAVMVector@@W4Space@MSpace@@PEBVMString@@@Z
?getFaceVertexBinormals@MFnMesh@@QEBA?AVMStatus@@HAEAVMFloatVectorArray@@W4Space@MSpace@@PEBVMString@@@Z
?getFaceVertexBlindDataIndex@MFnMesh@@QEBA?AVMStatus@@HHAEAH@Z
?getFaceVertexColorIndex@MFnMesh@@QEAA?AVMStatus@@HHAEAHPEBVMString@@@Z
?getFaceVertexColors@MFnMesh@@QEAA?AVMStatus@@AEAVMColorArray@@PEBVMString@@PEBVMColor@@@Z
?getFaceVertexNormal@MFnMesh@@QEBA?AVMStatus@@HHAEAVMVector@@W4Space@MSpace@@@Z
?getFaceVertexNormals@MFnMesh@@QEBA?AVMStatus@@HAEAVMFloatVectorArray@@W4Space@MSpace@@@Z
?getFaceVertexTangent@MFnMesh@@QEBA?AVMStatus@@HHAEAVMVector@@W4Space@MSpace@@PEBVMString@@@Z
?getFaceVertexTangents@MFnMesh@@QEBA?AVMStatus@@HAEAVMFloatVectorArray@@W4Space@MSpace@@PEBVMString@@@Z
?getFileName@MURI@@QEBA?AVMString@@_N@Z
?getFileResolverList@TpluginFileResolverDBase@@SA_NAEAVTpluginFileResolverPtrArray@@@Z
?getFileResolverNames@TpluginFileResolverDBase@@SA_NAEAVTstringArray@@@Z
?getFileTypes@MFileIO@@SA?AVMStatus@@AEAVMStringArray@@@Z
?getFiles@MFileIO@@SA?AVMStatus@@AEAVMStringArray@@_N1@Z
?getFilesToArchive@MPxNode@@UEBA?AVMStringArray@@_N00@Z
?getFilesToArchive@THdependNode@@UEBAIAEAVTstringArray@@_N11@Z
?getFilesToArchive@THsurfaceShape@@UEBAIAEAVTstringArray@@_N11@Z
?getFilmApertureLimits@MFnCamera@@QEBA?AVMStatus@@AEAN0@Z
?getFilmFrustum@MFnCamera@@QEBA?AVMStatus@@NAEAN000_N@Z
?getFilmFrustum@MFnCamera@@QEBA?AVMStatus@@NQEAVMPoint@@_N@Z
?getFilmFrustum@MFnCamera@@QEBA?AVMStatus@@NVMPointArray@@_N@Z
?getFilterList@MIteratorType@@QEAA?AVMStatus@@AEAVMIntArray@@@Z
?getFilterType@MIteratorType@@QEAA?AW4Type@MFn@@PEAVMStatus@@@Z
?getFlagArgument@MArgDatabase@@QEBA?AVMStatus@@PEBDIAEAH@Z
?getFlagArgument@MArgDatabase@@QEBA?AVMStatus@@PEBDIAEAI@Z
?getFlagArgument@MArgDatabase@@QEBA?AVMStatus@@PEBDIAEAN@Z
?getFlagArgument@MArgDatabase@@QEBA?AVMStatus@@PEBDIAEAVMAngle@@@Z
?getFlagArgument@MArgDatabase@@QEBA?AVMStatus@@PEBDIAEAVMDistance@@@Z
?getFlagArgument@MArgDatabase@@QEBA?AVMStatus@@PEBDIAEAVMSelectionList@@@Z
?getFlagArgument@MArgDatabase@@QEBA?AVMStatus@@PEBDIAEAVMString@@@Z
?getFlagArgument@MArgDatabase@@QEBA?AVMStatus@@PEBDIAEAVMTime@@@Z
?getFlagArgument@MArgDatabase@@QEBA?AVMStatus@@PEBDIAEA_N@Z
?getFlagArgument@MArgParser@@QEBA?AVMStatus@@PEBDIAEAH@Z
?getFlagArgument@MArgParser@@QEBA?AVMStatus@@PEBDIAEAI@Z
?getFlagArgument@MArgParser@@QEBA?AVMStatus@@PEBDIAEAN@Z
?getFlagArgument@MArgParser@@QEBA?AVMStatus@@PEBDIAEAVMAngle@@@Z
?getFlagArgument@MArgParser@@QEBA?AVMStatus@@PEBDIAEAVMDistance@@@Z
?getFlagArgument@MArgParser@@QEBA?AVMStatus@@PEBDIAEAVMString@@@Z
?getFlagArgument@MArgParser@@QEBA?AVMStatus@@PEBDIAEAVMTime@@@Z
?getFlagArgument@MArgParser@@QEBA?AVMStatus@@PEBDIAEA_N@Z
?getFlagArgumentList@MArgParser@@QEBA?AVMStatus@@PEBDIAEAVMArgList@@@Z
?getFlagArgumentPosition@MArgParser@@QEBA?AVMStatus@@PEBDIAEAI@Z
?getFloat2ArrayItem@MScriptUtil@@SAMPEAY01MII@Z
?getFloat3ArrayItem@MScriptUtil@@SAMPEAY02MII@Z
?getFloat4ArrayItem@MScriptUtil@@SAMPEAY03MII@Z
?getFloat@MScriptUtil@@SANAEAM@Z
?getFloatArrayItem@MScriptUtil@@SANPEAMI@Z
?getFloatBlindData@MFnMesh@@QEBA?AVMStatus@@HW4Type@MFn@@HVMString@@AEAM@Z
?getFloatBlindData@MFnMesh@@QEBA?AVMStatus@@W4Type@MFn@@HVMString@@AEAVMIntArray@@AEAVMFloatArray@@@Z
?getFocalLengthLimits@MFnCamera@@QEBA?AVMStatus@@AEAN0@Z
?getFragment@MURI@@QEBA?AVMString@@XZ
?getFunctionSetList@MGlobal@@SA?AVMStatus@@VMObject@@AEAVMStringArray@@@Z
?getGeometryCacheList@TpluginGeometryCacheDBase@@SA_NAEAVTpluginGeometryCachePtrArray@@@Z
?getGeometryCacheNames@TpluginGeometryCacheDBase@@SA_NAEAVTstringArray@@@Z
?getGetterSetters@MPyAttributeRegistry@@QEAAPEAUPyGetSetDef@@XZ
?getGroup@MRenderPassDef@@QEBA?AVMString@@PEAVMStatus@@@Z
?getHanger@TpluginObject@@QEBAPEAVTpluginObjectHanger@@XZ
?getHiliteList@MGlobal@@SA?AVMStatus@@AEAVMSelectionList@@@Z
?getHoles@MFnMesh@@QEAAHAEAVMIntArray@@0PEAVMStatus@@@Z
?getHost@MURI@@QEBA?AVMString@@XZ
?getID@MRenderPassDef@@QEBA?AVMString@@PEAVMStatus@@@Z
?getImageFormatList@TpluginImageFormatDBase@@SA_NAEAVTpluginImageFormatPtrArray@@@Z
?getImp@MAddRemoveAttrEdit@@AEBAAEBVImp@1@XZ
?getImp@MConnectDisconnectAttrEdit@@AEBAAEBVImp@1@XZ
?getImp@MEdit@@AEBAAEBVImp@1@XZ
?getImp@MParentingEdit@@AEBAAEBVImp@1@XZ
?getImp@MSetAttrEdit@@AEBAAEBVImp@1@XZ
?getImplementation@MRenderPassDef@@QEAAPEAVMPxRenderPassImpl@@AEBVMString@@PEAVMStatus@@@Z
?getImplementation@MRenderPassDef@@QEAAPEAVMPxRenderPassImpl@@AEBVMString@@W4PassTypeBit@2@IPEAVMStatus@@@Z
?getIndex@MItSurfaceCV@@QEBA?AVMStatus@@AEAH0@Z
?getInfo@MExternalContentInfoTable@@QEBA?AVMStatus@@AEBVMString@@AEAV3@11AEAVMStringArray@@@Z
?getInfo@MExternalContentInfoTable@@QEBA?AVMStatus@@AEBVMString@@AEAV3@1AEAVMStringArray@@@Z
?getInitialRep@MFnAssembly@@QEBA?AVMString@@AEA_NPEAVMStatus@@@Z
?getInitialRep@MFnAssembly@@QEBA?AVMString@@PEAVMStatus@@@Z
?getInitialRep@MPxAssembly@@UEBA?AVMString@@AEBVMObject@@AEA_NPEAVMStatus@@@Z
?getInitialRep@MPxAssembly@@UEBA?AVMString@@AEBVMObject@@PEAVMStatus@@@Z
?getInstancePtr@MPxAssembly@@QEAAPEAXXZ
?getInt2ArrayItem@MScriptUtil@@SAHPEAY01HII@Z
?getInt3ArrayItem@MScriptUtil@@SAHPEAY02HII@Z
?getInt4ArrayItem@MScriptUtil@@SAHPEAY03HII@Z
?getInt@MScriptUtil@@SAHAEAH@Z
?getIntArrayItem@MScriptUtil@@SAHPEAHI@Z
?getIntBlindData@MFnMesh@@QEBA?AVMStatus@@HW4Type@MFn@@HVMString@@AEAH@Z
?getIntBlindData@MFnMesh@@QEBA?AVMStatus@@W4Type@MFn@@HVMString@@AEAVMIntArray@@2@Z
?getIntData@MFnArrayAttrsData@@QEAA?AVMIntArray@@VMString@@PEAVMStatus@@@Z
?getInternalValue@MPxNode@@UEAA_NAEBVMPlug@@AEAVMDataHandle@@@Z
?getInternalValueInContext@MPxNode@@UEAA_NAEBVMPlug@@AEAVMDataHandle@@AEAVMDGContext@@@Z
?getIntersect@MNurbsIntersector@@QEBA?AVMStatus@@AEBVMPoint@@AEBVMVector@@AEAN2AEAV3@N@Z
?getIntersection@MFnSet@@QEAA?AVMStatus@@AEBVMObject@@AEAVMSelectionList@@@Z
?getIntersection@MFnSet@@QEAA?AVMStatus@@AEBVMObjectArray@@AEAVMSelectionList@@@Z
?getIntersects@MNurbsIntersector@@QEBA?AVMStatus@@AEBVMPoint@@AEBVMVector@@AEAVMDoubleArray@@2AEAVMPointArray@@N@Z
?getInvisibleFaces@MFnMesh@@QEBA?AVMUintArray@@PEAVMStatus@@@Z
?getKey@Iterator@TanimCallbackTable@@QEAA_NAEA_K@Z
?getKnotDomain@MFnNurbsCurve@@QEBA?AVMStatus@@AEAN0@Z
?getKnotDomain@MFnNurbsSurface@@QEBA?AVMStatus@@AEAN000@Z
?getKnots@MFnNurbsCurve@@QEBA?AVMStatus@@AEAVMDoubleArray@@@Z
?getKnotsInU@MFnNurbsSurface@@QEBA?AVMStatus@@AEAVMDoubleArray@@@Z
?getKnotsInV@MFnNurbsSurface@@QEBA?AVMStatus@@AEAVMDoubleArray@@@Z
?getLastTempFile@MFileIO@@SA?AVMString@@PEAVMStatus@@@Z
?getLayerCamera@MFnCameraSet@@QEAA?AVMStatus@@IAEAVMDagPath@@@Z
?getLayerClearDepthValue@MFnCameraSet@@QEBA?AVMStatus@@IAEA_N@Z
?getLayerOrder@MFnCameraSet@@QEAA?AVMStatus@@IAEAH@Z
?getLayerSceneData@MFnCameraSet@@QEAA?AVMStatus@@IAEAVMObject@@@Z
?getLength@MItMeshEdge@@QEAA?AVMStatus@@AEANW4Space@MSpace@@@Z
?getLiveList@MGlobal@@SA?AVMStatus@@AEAVMSelectionList@@@Z
?getLocation@MExternalContentLocationTable@@QEBA?AVMStatus@@AEBVMString@@AEAV3@@Z
?getLower@MAttributeIndex@@QEBA?AVMStatus@@AEAH@Z
?getLower@MAttributeIndex@@QEBA?AVMStatus@@AEAN@Z
?getMatrix@MFnGeometryData@@QEBA?AVMStatus@@AEAVMMatrix@@@Z
?getMatrix@MPxTransform@@UEAA?AVMMatrix@@AEBVMDGContext@@PEAVMStatus@@@Z
?getMatrixInverse@MPxTransform@@UEAA?AVMMatrix@@AEBVMDGContext@@PEAVMStatus@@@Z
?getMax@MFnEnumAttribute@@QEBA?AVMStatus@@AEAF@Z
?getMax@MFnNumericAttribute@@QEBA?AVMStatus@@AEAN00@Z
?getMax@MFnNumericAttribute@@QEBA?AVMStatus@@AEAN0@Z
?getMax@MFnNumericAttribute@@QEBA?AVMStatus@@AEAN@Z
?getMax@MFnUnitAttribute@@QEBA?AVMStatus@@AEAN@Z
?getMax@MFnUnitAttribute@@QEBA?AVMStatus@@AEAVMAngle@@@Z
?getMax@MFnUnitAttribute@@QEBA?AVMStatus@@AEAVMDistance@@@Z
?getMax@MFnUnitAttribute@@QEBA?AVMStatus@@AEAVMTime@@@Z
?getMayaObj@?$MPyObject@VMArgList@@@@QEBAPEAVMArgList@@XZ
?getMayaObj@?$MPyObject@VMArrayDataHandle@@@@QEBAPEAVMArrayDataHandle@@XZ
?getMayaObj@MPyMAngle_Type@@SAPEAVMAngle@@PEAU_object@@@Z
?getMayaObj@MPyMArgDatabase_Type@@SAPEAVMArgDatabase@@PEAU_object@@@Z
?getMayaObj@MPyMArgList_Type@@SAPEAVMArgList@@PEAU_object@@@Z
?getMayaObj@MPyMArgParser_Type@@SAPEAVMArgParser@@PEAU_object@@@Z
?getMayaObj@MPyMArrayDataBuilder_Type@@SAPEAVMArrayDataBuilder@@PEAU_object@@@Z
?getMayaObj@MPyMArrayDataHandle_Type@@SAPEAVMArrayDataHandle@@PEAU_object@@@Z
?getMayaObj@MPyMAttributeIndex_Type@@SAPEAVMAttributeIndex@@PEAU_object@@@Z
?getMayaObj@MPyMAttributePattern_Type@@SAPEAVMAttributePattern@@PEAU_object@@@Z
?getMayaObj@MPyMAttributeSpecArray_Type@@SAPEAVMAttributeSpecArray@@PEAU_object@@@Z
?getMayaObj@MPyMAttributeSpec_Type@@SAPEAVMAttributeSpec@@PEAU_object@@@Z
?getMayaObj@MPyMBoundingBox_Type@@SAPEAVMBoundingBox@@PEAU_object@@@Z
?getMayaObj@MPyMCallbackIdArray_Type@@SAPEAVMCallbackIdArray@@PEAU_object@@@Z
?getMayaObj@MPyMColorArray_Type@@SAPEAVMColorArray@@PEAU_object@@@Z
?getMayaObj@MPyMColor_Type@@SAPEAVMColor@@PEAU_object@@@Z
?getMayaObj@MPyMDAGDrawOverrideInfo_Type@@SAPEAVMDAGDrawOverrideInfo@@PEAU_object@@@Z
?getMayaObj@MPyMDGContext_Type@@SAPEAVMDGContext@@PEAU_object@@@Z
?getMayaObj@MPyMDGModifier_Type@@SAPEAVMDGModifier@@PEAU_object@@@Z
?getMayaObj@MPyMDagModifier_Type@@SAPEAVMDagModifier@@PEAU_object@@@Z
?getMayaObj@MPyMDagPathArray_Type@@SAPEAVMDagPathArray@@PEAU_object@@@Z
?getMayaObj@MPyMDagPath_Type@@SAPEAVMDagPath@@PEAU_object@@@Z
?getMayaObj@MPyMDataBlock_Type@@SAPEAVMDataBlock@@PEAU_object@@@Z
?getMayaObj@MPyMDataHandle_Type@@SAPEAVMDataHandle@@PEAU_object@@@Z
?getMayaObj@MPyMDistance_Type@@SAPEAVMDistance@@PEAU_object@@@Z
?getMayaObj@MPyMDoubleArray_Type@@SAPEAVMDoubleArray@@PEAU_object@@@Z
?getMayaObj@MPyMEulerRotation_Type@@SAPEAVMEulerRotation@@PEAU_object@@@Z
?getMayaObj@MPyMExternalContentInfoTable_Type@@SAPEAVMExternalContentInfoTable@@PEAU_object@@@Z
?getMayaObj@MPyMExternalContentLocationTable_Type@@SAPEAVMExternalContentLocationTable@@PEAU_object@@@Z
?getMayaObj@MPyMFileObject_Type@@SAPEAVMFileObject@@PEAU_object@@@Z
?getMayaObj@MPyMFloatArray_Type@@SAPEAVMFloatArray@@PEAU_object@@@Z
?getMayaObj@MPyMFloatMatrix_Type@@SAPEAVMFloatMatrix@@PEAU_object@@@Z
?getMayaObj@MPyMFloatPointArray_Type@@SAPEAVMFloatPointArray@@PEAU_object@@@Z
?getMayaObj@MPyMFloatPoint_Type@@SAPEAVMFloatPoint@@PEAU_object@@@Z
?getMayaObj@MPyMFloatVectorArray_Type@@SAPEAVMFloatVectorArray@@PEAU_object@@@Z
?getMayaObj@MPyMFloatVector_Type@@SAPEAVMFloatVector@@PEAU_object@@@Z
?getMayaObj@MPyMFnAttribute_Type@@SAPEAVMFnAttribute@@PEAU_object@@@Z
?getMayaObj@MPyMFnBase_Type@@SAPEAVMFnBase@@PEAU_object@@@Z
?getMayaObj@MPyMFnCamera_Type@@SAPEAVMFnCamera@@PEAU_object@@@Z
?getMayaObj@MPyMFnComponentListData_Type@@SAPEAVMFnComponentListData@@PEAU_object@@@Z
?getMayaObj@MPyMFnComponent_Type@@SAPEAVMFnComponent@@PEAU_object@@@Z
?getMayaObj@MPyMFnCompoundAttribute_Type@@SAPEAVMFnCompoundAttribute@@PEAU_object@@@Z
?getMayaObj@MPyMFnDagNode_Type@@SAPEAVMFnDagNode@@PEAU_object@@@Z
?getMayaObj@MPyMFnData_Type@@SAPEAVMFnData@@PEAU_object@@@Z
?getMayaObj@MPyMFnDependencyNode_Type@@SAPEAVMFnDependencyNode@@PEAU_object@@@Z
?getMayaObj@MPyMFnDoubleArrayData_Type@@SAPEAVMFnDoubleArrayData@@PEAU_object@@@Z
?getMayaObj@MPyMFnDoubleIndexedComponent_Type@@SAPEAVMFnDoubleIndexedComponent@@PEAU_object@@@Z
?getMayaObj@MPyMFnEnumAttribute_Type@@SAPEAVMFnEnumAttribute@@PEAU_object@@@Z
?getMayaObj@MPyMFnFloatArrayData_Type@@SAPEAVMFnFloatArrayData@@PEAU_object@@@Z
?getMayaObj@MPyMFnGenericAttribute_Type@@SAPEAVMFnGenericAttribute@@PEAU_object@@@Z
?getMayaObj@MPyMFnGeometryData_Type@@SAPEAVMFnGeometryData@@PEAU_object@@@Z
?getMayaObj@MPyMFnIntArrayData_Type@@SAPEAVMFnIntArrayData@@PEAU_object@@@Z
?getMayaObj@MPyMFnLightDataAttribute_Type@@SAPEAVMFnLightDataAttribute@@PEAU_object@@@Z
?getMayaObj@MPyMFnMatrixArrayData_Type@@SAPEAVMFnMatrixArrayData@@PEAU_object@@@Z
?getMayaObj@MPyMFnMatrixAttribute_Type@@SAPEAVMFnMatrixAttribute@@PEAU_object@@@Z
?getMayaObj@MPyMFnMatrixData_Type@@SAPEAVMFnMatrixData@@PEAU_object@@@Z
?getMayaObj@MPyMFnMeshData_Type@@SAPEAVMFnMeshData@@PEAU_object@@@Z
?getMayaObj@MPyMFnMesh_Type@@SAPEAVMFnMesh@@PEAU_object@@@Z
?getMayaObj@MPyMFnMessageAttribute_Type@@SAPEAVMFnMessageAttribute@@PEAU_object@@@Z
?getMayaObj@MPyMFnNumericAttribute_Type@@SAPEAVMFnNumericAttribute@@PEAU_object@@@Z
?getMayaObj@MPyMFnNumericData_Type@@SAPEAVMFnNumericData@@PEAU_object@@@Z
?getMayaObj@MPyMFnNurbsCurveData_Type@@SAPEAVMFnNurbsCurveData@@PEAU_object@@@Z
?getMayaObj@MPyMFnNurbsCurve_Type@@SAPEAVMFnNurbsCurve@@PEAU_object@@@Z
?getMayaObj@MPyMFnNurbsSurfaceData_Type@@SAPEAVMFnNurbsSurfaceData@@PEAU_object@@@Z
?getMayaObj@MPyMFnNurbsSurface_Type@@SAPEAVMFnNurbsSurface@@PEAU_object@@@Z
?getMayaObj@MPyMFnPluginData_Type@@SAPEAVMFnPluginData@@PEAU_object@@@Z
?getMayaObj@MPyMFnPlugin_Type@@SAPEAVMFnPlugin@@PEAU_object@@@Z
?getMayaObj@MPyMFnPointArrayData_Type@@SAPEAVMFnPointArrayData@@PEAU_object@@@Z
?getMayaObj@MPyMFnSingleIndexedComponent_Type@@SAPEAVMFnSingleIndexedComponent@@PEAU_object@@@Z
?getMayaObj@MPyMFnStringArrayData_Type@@SAPEAVMFnStringArrayData@@PEAU_object@@@Z
?getMayaObj@MPyMFnStringData_Type@@SAPEAVMFnStringData@@PEAU_object@@@Z
?getMayaObj@MPyMFnTransform_Type@@SAPEAVMFnTransform@@PEAU_object@@@Z
?getMayaObj@MPyMFnTripleIndexedComponent_Type@@SAPEAVMFnTripleIndexedComponent@@PEAU_object@@@Z
?getMayaObj@MPyMFnTypedAttribute_Type@@SAPEAVMFnTypedAttribute@@PEAU_object@@@Z
?getMayaObj@MPyMFnUInt64ArrayData_Type@@SAPEAVMFnUInt64ArrayData@@PEAU_object@@@Z
?getMayaObj@MPyMFnUnitAttribute_Type@@SAPEAVMFnUnitAttribute@@PEAU_object@@@Z
?getMayaObj@MPyMFnVectorArrayData_Type@@SAPEAVMFnVectorArrayData@@PEAU_object@@@Z
?getMayaObj@MPyMImage_Type@@SAPEAVMImage@@PEAU_object@@@Z
?getMayaObj@MPyMInt64Array_Type@@SAPEAVMInt64Array@@PEAU_object@@@Z
?getMayaObj@MPyMIntArray_Type@@SAPEAVMIntArray@@PEAU_object@@@Z
?getMayaObj@MPyMItMeshEdge_Type@@SAPEAVMItMeshEdge@@PEAU_object@@@Z
?getMayaObj@MPyMItMeshFaceVertex_Type@@SAPEAVMItMeshFaceVertex@@PEAU_object@@@Z
?getMayaObj@MPyMItMeshPolygon_Type@@SAPEAVMItMeshPolygon@@PEAU_object@@@Z
?getMayaObj@MPyMItMeshVertex_Type@@SAPEAVMItMeshVertex@@PEAU_object@@@Z
?getMayaObj@MPyMItSelectionList_Type@@SAPEAVMItSelectionList@@PEAU_object@@@Z
?getMayaObj@MPyMItSurfaceCV_Type@@SAPEAVMItSurfaceCV@@PEAU_object@@@Z
?getMayaObj@MPyMMatrixArray_Type@@SAPEAVMMatrixArray@@PEAU_object@@@Z
?getMayaObj@MPyMMatrix_Type@@SAPEAVMMatrix@@PEAU_object@@@Z
?getMayaObj@MPyMMeshIntersector_Type@@SAPEAVMMeshIntersector@@PEAU_object@@@Z
?getMayaObj@MPyMMeshIsectAccelParams_Type@@SAPEAVMMeshIsectAccelParams@@PEAU_object@@@Z
?getMayaObj@MPyMMeshSmoothOptions_Type@@SAPEAVMMeshSmoothOptions@@PEAU_object@@@Z
?getMayaObj@MPyMNodeClass_Type@@SAPEAVMNodeClass@@PEAU_object@@@Z
?getMayaObj@MPyMObjectArray_Type@@SAPEAVMObjectArray@@PEAU_object@@@Z
?getMayaObj@MPyMObjectHandle_Type@@SAPEAVMObjectHandle@@PEAU_object@@@Z
?getMayaObj@MPyMObject_Type@@SAPEAVMObject@@PEAU_object@@@Z
?getMayaObj@MPyMPlane_Type@@SAPEAVMPlane@@PEAU_object@@@Z
?getMayaObj@MPyMPlugArray_Type@@SAPEAVMPlugArray@@PEAU_object@@@Z
?getMayaObj@MPyMPlug_Type@@SAPEAVMPlug@@PEAU_object@@@Z
?getMayaObj@MPyMPointArray_Type@@SAPEAVMPointArray@@PEAU_object@@@Z
?getMayaObj@MPyMPointOnMesh_Type@@SAPEAVMPointOnMesh@@PEAU_object@@@Z
?getMayaObj@MPyMPoint_Type@@SAPEAVMPoint@@PEAU_object@@@Z
?getMayaObj@MPyMPxAttributePatternFactory_Type@@SAPEAVMPyMPxAttributePatternFactory_Director@@PEAU_object@@@Z
?getMayaObj@MPyMPxCommand_Type@@SAPEAVMPyMPxCommand_Director@@PEAU_object@@@Z
?getMayaObj@MPyMPxData_Type@@SAPEAVMPxData@@PEAU_object@@@Z
?getMayaObj@MPyMPxGeometryData_Type@@SAPEAVMPxGeometryData@@PEAU_object@@@Z
?getMayaObj@MPyMPxGeometryIterator_Type@@SAPEAVMPxGeometryIterator@@PEAU_object@@@Z
?getMayaObj@MPyMPxNode_Type@@SAPEAVMPxNode@@PEAU_object@@@Z
?getMayaObj@MPyMPxSurfaceShape_Type@@SAPEAVMPxSurfaceShape@@PEAU_object@@@Z
?getMayaObj@MPyMQuaternion_Type@@SAPEAVMQuaternion@@PEAU_object@@@Z
?getMayaObj@MPyMRampAttribute_Type@@SAPEAVMRampAttribute@@PEAU_object@@@Z
?getMayaObj@MPyMRichSelection_Type@@SAPEAVMRichSelection@@PEAU_object@@@Z
?getMayaObj@MPyMSelectionList_Type@@SAPEAVMSelectionList@@PEAU_object@@@Z
?getMayaObj@MPyMSelectionMask_Type@@SAPEAVMSelectionMask@@PEAU_object@@@Z
?getMayaObj@MPyMSyntax_Type@@SAPEAVMSyntax@@PEAU_object@@@Z
?getMayaObj@MPyMTimeArray_Type@@SAPEAVMTimeArray@@PEAU_object@@@Z
?getMayaObj@MPyMTime_Type@@SAPEAVMTime@@PEAU_object@@@Z
?getMayaObj@MPyMTransformationMatrix_Type@@SAPEAVMTransformationMatrix@@PEAU_object@@@Z
?getMayaObj@MPyMTypeId_Type@@SAPEAVMTypeId@@PEAU_object@@@Z
?getMayaObj@MPyMUint64Array_Type@@SAPEAVMUint64Array@@PEAU_object@@@Z
?getMayaObj@MPyMUintArray_Type@@SAPEAVMUintArray@@PEAU_object@@@Z
?getMayaObj@MPyMUserData_Type@@SAPEAVMUserData@@PEAU_object@@@Z
?getMayaObj@MPyMUuid_Type@@SAPEAVMUuid@@PEAU_object@@@Z
?getMayaObj@MPyMVectorArray_Type@@SAPEAVMVectorArray@@PEAU_object@@@Z
?getMayaObj@MPyMVector_Type@@SAPEAVMVector@@PEAU_object@@@Z
?getMayaObj@MPyMWeight_Type@@SAPEAVMWeight@@PEAU_object@@@Z
?getMembers@MFnContainerNode@@QEBA?AVMStatus@@AEAVMObjectArray@@@Z
?getMembers@MFnSet@@QEBA?AVMStatus@@AEAVMSelectionList@@_N@Z
?getMergedBoundary@MTrimBoundaryArray@@QEBA?AVMObject@@IPEAVMStatus@@@Z
?getMeshForIntersection@MFnMesh@@IEAA_NW4Space@MSpace@@AEAVMFloatPoint@@AEAVMFloatVector@@AEAPEAXPEAVMStatus@@@Z
?getMin@MFnEnumAttribute@@QEBA?AVMStatus@@AEAF@Z
?getMin@MFnNumericAttribute@@QEBA?AVMStatus@@AEAN00@Z
?getMin@MFnNumericAttribute@@QEBA?AVMStatus@@AEAN0@Z
?getMin@MFnNumericAttribute@@QEBA?AVMStatus@@AEAN@Z
?getMin@MFnUnitAttribute@@QEBA?AVMStatus@@AEAN@Z
?getMin@MFnUnitAttribute@@QEBA?AVMStatus@@AEAVMAngle@@@Z
?getMin@MFnUnitAttribute@@QEBA?AVMStatus@@AEAVMDistance@@@Z
?getMin@MFnUnitAttribute@@QEBA?AVMStatus@@AEAVMTime@@@Z
?getNIdDataTypeId@TapiEnum@@SAPEAVTmetaclass@@XZ
?getNObjectDataTypeId@TapiEnum@@SAPEAVTmetaclass@@XZ
?getName@MPxRepresentation@@QEBA?AVMString@@XZ
?getName@MRenderPassDef@@QEBA?AVMString@@PEAVMStatus@@@Z
?getNamespaceFromName@MNamespace@@SA?AVMString@@AEBV2@PEAVMStatus@@@Z
?getNamespaceObjects@MNamespace@@SA?AVMObjectArray@@AEBVMString@@_NPEAVMStatus@@@Z
?getNamespaces@MNamespace@@SA?AVMStringArray@@AEBVMString@@_NPEAVMStatus@@@Z
?getNamespaces@MNamespace@@SA?AVMStringArray@@_NPEAVMStatus@@@Z
?getNodePath@MItDependencyGraph@@QEBA?AVMStatus@@AEAVMObjectArray@@@Z
?getNodesVisited@MItDependencyGraph@@QEBA?AVMStatus@@AEAVMObjectArray@@@Z
?getNormal@MItMeshFaceVertex@@QEBA?AVMStatus@@AEAVMVector@@W4Space@MSpace@@@Z
?getNormal@MItMeshPolygon@@QEBA?AVMStatus@@AEAVMVector@@W4Space@MSpace@@@Z
?getNormal@MItMeshPolygon@@QEBA?AVMStatus@@IAEAVMVector@@W4Space@MSpace@@@Z
?getNormal@MItMeshVertex@@QEAA?AVMStatus@@AEAVMVector@@HW4Space@MSpace@@@Z
?getNormal@MItMeshVertex@@QEAA?AVMStatus@@AEAVMVector@@W4Space@MSpace@@@Z
?getNormal@MPointOnMesh@@QEAAAEAVMFloatVector@@XZ
?getNormalIds@MFnMesh@@QEBA?AVMStatus@@AEAVMIntArray@@0@Z
?getNormalIndices@MItMeshVertex@@QEBA?AVMStatus@@AEAVMIntArray@@@Z
?getNormals@MFnMesh@@QEBA?AVMStatus@@AEAVMFloatVectorArray@@W4Space@MSpace@@@Z
?getNormals@MItMeshPolygon@@QEBA?AVMStatus@@AEAVMVectorArray@@W4Space@MSpace@@@Z
?getNormals@MItMeshVertex@@QEAA?AVMStatus@@AEAVMVectorArray@@W4Space@MSpace@@@Z
?getNumChannels@MCacheFormatDescription@@QEBAIXZ
?getNumChannels@THrenderPassImpl@@UEBAIXZ
?getNumEntries@MCurveAttribute@@QEAAIPEAVMStatus@@@Z
?getNumEntries@MRampAttribute@@QEAAIPEAVMStatus@@@Z
?getNumLayers@MFnCameraSet@@QEAAIPEAVMStatus@@@Z
?getNumThreads@MThreadUtils@@SAHXZ
?getObjectType@MIteratorType@@QEAA?AW4objFilterType@1@PEAVMStatus@@@Z
?getObjects@MArgDatabase@@QEBA?AVMStatus@@AEAVMSelectionList@@@Z
?getObjects@MArgDatabase@@QEBA?AVMStatus@@AEAVMStringArray@@@Z
?getObjects@MArgParser@@QEBA?AVMStatus@@AEAVMStringArray@@@Z
?getOpenCLCommandQueue@MOpenCLInfo@@SAPEAU_cl_command_queue@@XZ
?getOpenCLContext@MOpenCLInfo@@SAPEAU_cl_context@@XZ
?getOpenCLDeviceId@MOpenCLInfo@@SAPEAU_cl_device_id@@XZ
?getOpenCLKernel@MOpenCLInfo@@SA?AVMAutoCLKernel@@AEBVMString@@0@Z
?getOppositeVertex@MItMeshVertex@@QEAA?AVMStatus@@AEAHH@Z
?getOptionVarValue@MGlobal@@SA_NAEBVMString@@AEAH@Z
?getOptionVarValue@MGlobal@@SA_NAEBVMString@@AEAN@Z
?getOptionVarValue@MGlobal@@SA_NAEBVMString@@AEAV2@@Z
?getParamAtPoint@MFnNurbsCurve@@QEBA?AVMStatus@@AEBVMPoint@@AEANNW4Space@MSpace@@@Z
?getParamAtPoint@MFnNurbsCurve@@QEBA?AVMStatus@@AEBVMPoint@@AEANW4Space@MSpace@@@Z
?getParamAtPoint@MFnNurbsSurface@@QEBA?AVMStatus@@AEBVMPoint@@AEAN1W4Space@MSpace@@@Z
?getParamAtPoint@MFnNurbsSurface@@QEBA?AVMStatus@@AEBVMPoint@@AEAN1_NW4Space@MSpace@@N@Z
?getParentAssembly@MFnAssembly@@QEBA?AVMObject@@PEAVMStatus@@@Z
?getParentContainer@MFnContainerNode@@QEBA?AVMStatus@@AEAVMObject@@@Z
?getPassword@MURI@@QEBA?AVMString@@XZ
?getPatchUV@MFnNurbsSurface@@QEBA?AVMStatus@@HHAEAM0@Z
?getPatchUVid@MFnNurbsSurface@@QEBA?AVMStatus@@HHAEAH@Z
?getPatchUVs@MFnNurbsSurface@@QEBA?AVMStatus@@HAEAVMFloatArray@@0@Z
?getPath@MDagPath@@QEBA?AVMStatus@@AEAV1@I@Z
?getPath@MFnDagNode@@QEBA?AVMStatus@@AEAVMDagPath@@@Z
?getPath@MItDag@@QEBA?AVMStatus@@AEAVMDagPath@@@Z
?getPath@MURI@@QEBA?AVMString@@XZ
?getPinUVs@MFnMesh@@QEBA?AVMStatus@@AEAVMUintArray@@AEAVMDoubleArray@@PEBVMString@@@Z
?getPlug@MItSelectionList@@QEAA?AVMStatus@@AEAVMPlug@@@Z
?getPlug@MSelectionList@@QEBA?AVMStatus@@IAEAVMPlug@@@Z
?getPlugPath@MItDependencyGraph@@QEBA?AVMStatus@@AEAVMPlugArray@@@Z
?getPlugin@TpluginPref@@QEBA?AVTstring@@XZ
?getPluginList@TpluginDBase@@SAXAEAVTpluginPtrArray@@_N1@Z
?getPluginName@TpluginPref@@QEBA?AVTstring@@XZ
?getPluginPrefMgr@TpluginPrefMgr@@SAPEAV1@XZ
?getPluginsInUse@TpluginDBase@@SAXAEAVTpluginPtrArray@@_N@Z
?getPlugsAlias@MFnDependencyNode@@QEAA_NAEBVMPlug@@AEAVMString@@PEAVMStatus@@@Z
?getPlugsVisited@MItDependencyGraph@@QEBA?AVMStatus@@AEAVMPlugArray@@@Z
?getPoint@MFnMesh@@QEBA?AVMStatus@@HAEAVMPoint@@W4Space@MSpace@@@Z
?getPoint@MPointOnMesh@@QEAAAEAVMFloatPoint@@XZ
?getPoint@MPointOnNurbs@@QEAAAEAVMPoint@@XZ
?getPointAtParam@MFnNurbsCurve@@QEBA?AVMStatus@@NAEAVMPoint@@W4Space@MSpace@@@Z
?getPointAtParam@MFnNurbsSurface@@QEBA?AVMStatus@@NNAEAVMPoint@@W4Space@MSpace@@@Z
?getPointAtUV@MFnMesh@@QEAA?AVMStatus@@HAEAVMPoint@@AEAY01MW4Space@MSpace@@PEBVMString@@M@Z
?getPointAtUV@MItMeshPolygon@@QEAA?AVMStatus@@AEAVMPoint@@AEAY01MW4Space@MSpace@@PEBVMString@@M@Z
?getPoints@MFnMesh@@QEBA?AVMStatus@@AEAVMFloatPointArray@@W4Space@MSpace@@@Z
?getPoints@MFnMesh@@QEBA?AVMStatus@@AEAVMPointArray@@W4Space@MSpace@@@Z
?getPoints@MItMeshPolygon@@QEAAXAEAVMPointArray@@W4Space@MSpace@@PEAVMStatus@@@Z
?getPolygonNormal@MFnMesh@@QEBA?AVMStatus@@HAEAVMVector@@W4Space@MSpace@@@Z
?getPolygonTriangleVertices@MFnMesh@@QEBA?AVMStatus@@HHQEAH@Z
?getPolygonUV@MFnMesh@@QEBA?AVMStatus@@HHAEAM0PEBVMString@@@Z
?getPolygonUVid@MFnMesh@@QEBA?AVMStatus@@HHAEAHPEBVMString@@@Z
?getPolygonVertices@MFnMesh@@QEBA?AVMStatus@@HAEAVMIntArray@@@Z
?getPort@MURI@@QEBAHXZ
?getPortFieldOfView@MFnCamera@@QEBA?AVMStatus@@HHAEAN0@Z
?getPreselectionHiliteList@MGlobal@@SA?AVMStatus@@AEAVMSelectionList@@@Z
?getPublishedNames@MFnContainerNode@@QEBA?AVMStatus@@AEAVMStringArray@@_N@Z
?getPublishedNodes@MFnContainerNode@@QEBA?AVMStatus@@W4MPublishNodeType@1@AEAVMStringArray@@AEAVMObjectArray@@@Z
?getPublishedPlugs@MFnContainerNode@@QEBA?AVMStatus@@AEAVMPlugArray@@AEAVMStringArray@@@Z
?getPyObject@MPyDirector@@QEBAPEAU_object@@XZ
?getQueryItemValue@MURI@@QEBA?AVMString@@AEBV2@@Z
?getQueryPairDelimiter@MURI@@QEBADXZ
?getQueryValueDelimiter@MURI@@QEBADXZ
?getRawNormals@MFnMesh@@QEBAPEBMPEAVMStatus@@@Z
?getRawPoints@MFnMesh@@QEBAPEBMPEAVMStatus@@@Z
?getReadOnlyRef@MAutoCLEvent@@QEBAPEBQEAU_cl_event@@XZ
?getReadOnlyRef@MAutoCLKernel@@QEBAPEBQEAU_cl_kernel@@XZ
?getReadOnlyRef@MAutoCLMem@@QEBAPEBQEAU_cl_mem@@XZ
?getReferenceConnectionsBroken@MFileIO@@SA?AVMStatus@@AEBVMObject@@AEAVMPlugArray@@1_N2@Z
?getReferenceConnectionsBroken@MFileIO@@SA?AVMStatus@@AEBVMObject@@AEAVMStringArray@@_N2@Z
?getReferenceConnectionsBroken@MFileIO@@SA?AVMStatus@@AEBVMString@@AEAVMPlugArray@@1@Z
?getReferenceConnectionsBroken@MFileIO@@SA?AVMStatus@@AEBVMString@@AEAVMStringArray@@@Z
?getReferenceConnectionsMade@MFileIO@@SA?AVMStatus@@AEBVMString@@AEAVMStringArray@@@Z
?getReferenceFileByNode@MFileIO@@SA?AVMString@@AEAVMObject@@PEAVMStatus@@@Z
?getReferenceForAssignment@MAutoCLEvent@@QEAAPEAPEAU_cl_event@@XZ
?getReferenceForAssignment@MAutoCLKernel@@QEAAPEAPEAU_cl_kernel@@XZ
?getReferenceForAssignment@MAutoCLMem@@QEAAPEAPEAU_cl_mem@@XZ
?getReferenceList@TpluginCmd@@QEAAXAEAVTHcommandObjectPtrArray@@@Z
?getReferenceNodes@MFileIO@@SA?AVMStatus@@AEBVMString@@AEAVMSelectionList@@@Z
?getReferenceNodes@MFileIO@@SA?AVMStatus@@AEBVMString@@AEAVMStringArray@@@Z
?getReferences@MFileIO@@SA?AVMStatus@@AEAVMStringArray@@_N@Z
?getRenderPassDefinition@MRenderPassRegistry@@SA?AVMRenderPassDef@@AEBVMString@@PEAVMStatus@@@Z
?getRenderingFrustum@MFnCamera@@QEBA?AVMStatus@@NAEAN000@Z
?getRepLabel@MFnAssembly@@QEBA?AVMString@@AEBV2@PEAVMStatus@@@Z
?getRepNamespace@MFnAssembly@@QEBA?AVMString@@PEAVMStatus@@@Z
?getRepNamespace@MPxAssembly@@UEBA?AVMString@@XZ
?getRepType@MFnAssembly@@QEBA?AVMString@@AEBV2@PEAVMStatus@@@Z
?getRepresentations@MFnAssembly@@QEBA?AVMStringArray@@PEAVMStatus@@@Z
?getResolvedFullName@MFileObject@@SA?AVMString@@AEBV2@@Z
?getResolvedFullName@MFileObject@@SA?AVMString@@AEBV2@AEA_NW4MFileResolveMethod@1@@Z
?getResult@MCommandResult@@QEBA?AVMStatus@@AEAH@Z
?getResult@MCommandResult@@QEBA?AVMStatus@@AEAN@Z
?getResult@MCommandResult@@QEBA?AVMStatus@@AEAVMDoubleArray@@@Z
?getResult@MCommandResult@@QEBA?AVMStatus@@AEAVMDoubleArray@@AEAH1@Z
?getResult@MCommandResult@@QEBA?AVMStatus@@AEAVMInt64Array@@@Z
?getResult@MCommandResult@@QEBA?AVMStatus@@AEAVMIntArray@@@Z
?getResult@MCommandResult@@QEBA?AVMStatus@@AEAVMString@@@Z
?getResult@MCommandResult@@QEBA?AVMStatus@@AEAVMStringArray@@@Z
?getResult@MCommandResult@@QEBA?AVMStatus@@AEAVMVector@@@Z
?getResult@MCommandResult@@QEBA?AVMStatus@@AEAVMVectorArray@@@Z
?getResult@MCommandResult@@QEBA?AVMStatus@@AEA_J@Z
?getRichSelection@MGlobal@@SA?AVMStatus@@AEAVMRichSelection@@_N@Z
?getRootTransform@MFnContainerNode@@QEBA?AVMStatus@@AEAVMObject@@@Z
?getRotateOrientation@MPxTransform@@UEAA?AVMQuaternion@@W4Space@MSpace@@AEBVMDGContext@@PEAVMStatus@@@Z
?getRotatePivot@MPxTransform@@UEAA?AVMPoint@@W4Space@MSpace@@AEBVMDGContext@@PEAVMStatus@@@Z
?getRotatePivotTranslation@MPxTransform@@UEAA?AVMVector@@W4Space@MSpace@@AEBVMDGContext@@PEAVMStatus@@@Z
?getRotation@MFnTransform@@QEBA?AVMStatus@@AEAVMEulerRotation@@@Z
?getRotation@MFnTransform@@QEBA?AVMStatus@@AEAVMQuaternion@@W4Space@MSpace@@@Z
?getRotation@MFnTransform@@QEBA?AVMStatus@@QEANAEAW4RotationOrder@MTransformationMatrix@@@Z
?getRotation@MFnTransform@@QEBA?AVMStatus@@QEANAEAW4RotationOrder@MTransformationMatrix@@W4Space@MSpace@@@Z
?getRotation@MPxTransform@@UEAA?AVMQuaternion@@W4Space@MSpace@@AEBVMDGContext@@PEAVMStatus@@@Z
?getRotation@MTransformationMatrix@@QEBA?AVMStatus@@QEANAEAW4RotationOrder@1@@Z
?getRotation@MTransformationMatrix@@QEBA?AVMStatus@@QEANAEAW4RotationOrder@1@W4Space@MSpace@@@Z
?getRotationOrder@MPxTransform@@UEAA?AW4RotationOrder@MTransformationMatrix@@AEBVMDGContext@@@Z
?getRotationQuaternion@MFnTransform@@QEBA?AVMStatus@@AEAN000W4Space@MSpace@@@Z
?getRotationQuaternion@MTransformationMatrix@@QEBA?AVMStatus@@AEAN000@Z
?getRotationQuaternion@MTransformationMatrix@@QEBA?AVMStatus@@AEAN000W4Space@MSpace@@@Z
?getScale@MFnTransform@@QEBA?AVMStatus@@QEAN@Z
?getScale@MPxTransform@@UEAA?AVMVector@@W4Space@MSpace@@AEBVMDGContext@@PEAVMStatus@@@Z
?getScale@MTransformationMatrix@@QEBA?AVMStatus@@QEANW4Space@MSpace@@@Z
?getScalePivot@MPxTransform@@UEAA?AVMPoint@@W4Space@MSpace@@AEBVMDGContext@@PEAVMStatus@@@Z
?getScalePivotTranslation@MPxTransform@@UEAA?AVMVector@@W4Space@MSpace@@AEBVMDGContext@@PEAVMStatus@@@Z
?getScheme@MURI@@QEBA?AVMString@@XZ
?getSelection@MRichSelection@@QEBA?AVMStatus@@AEAVMSelectionList@@@Z
?getSelectionListByName@MGlobal@@SA?AVMStatus@@AEBVMString@@AEAVMSelectionList@@@Z
?getSelectionStrings@MSelectionList@@QEBA?AVMStatus@@AEAVMStringArray@@@Z
?getSelectionStrings@MSelectionList@@QEBA?AVMStatus@@IAEAVMStringArray@@@Z
?getSelectionTypePriority@MSelectionMask@@SAHAEBVMString@@@Z
?getSemantic@THrenderPassImpl@@UEBA?AW4Tsemantic@TrenderPassImpl@@XZ
?getServiceDescriptions@Tplugin@@QEAAXAEAVTstringArray@@@Z
?getSetAttrCmds@MPlug@@QEAA?AVMStatus@@AEAVMStringArray@@W4MValueSelector@1@_N@Z
?getShapeSelectionMask@MPxSurfaceShape@@UEBA?AVMSelectionMask@@XZ
?getShear@MFnTransform@@QEBA?AVMStatus@@QEAN@Z
?getShear@MPxTransform@@UEAA?AVMVector@@W4Space@MSpace@@AEBVMDGContext@@PEAVMStatus@@@Z
?getShear@MTransformationMatrix@@QEBA?AVMStatus@@QEANW4Space@MSpace@@@Z
?getShort2ArrayItem@MScriptUtil@@SAFPEAY01FII@Z
?getShort3ArrayItem@MScriptUtil@@SAFPEAY02FII@Z
?getShort4ArrayItem@MScriptUtil@@SAFPEAY03FII@Z
?getShort@MScriptUtil@@SAHAEAF@Z
?getShortArrayItem@MScriptUtil@@SAHPEAFI@Z
?getSize@MImage@@QEBA?AVMStatus@@AEAI0@Z
?getSmoothMeshDisplayOptions@MFnMesh@@QEBA?AVMStatus@@AEAVMMeshSmoothOptions@@@Z
?getSoftMax@MFnNumericAttribute@@QEBA?AVMStatus@@AEAN@Z
?getSoftMax@MFnUnitAttribute@@QEBA?AVMStatus@@AEAN@Z
?getSoftMax@MFnUnitAttribute@@QEBA?AVMStatus@@AEAVMAngle@@@Z
?getSoftMax@MFnUnitAttribute@@QEBA?AVMStatus@@AEAVMDistance@@@Z
?getSoftMax@MFnUnitAttribute@@QEBA?AVMStatus@@AEAVMTime@@@Z
?getSoftMin@MFnNumericAttribute@@QEBA?AVMStatus@@AEAN@Z
?getSoftMin@MFnUnitAttribute@@QEBA?AVMStatus@@AEAN@Z
?getSoftMin@MFnUnitAttribute@@QEBA?AVMStatus@@AEAVMAngle@@@Z
?getSoftMin@MFnUnitAttribute@@QEBA?AVMStatus@@AEAVMDistance@@@Z
?getSoftMin@MFnUnitAttribute@@QEBA?AVMStatus@@AEAVMTime@@@Z
?getSortedIndices@MFnCameraSet@@QEAA?AVMStatus@@AEAVMUintArray@@@Z
?getStartAndEndTimes@MCacheFormatDescription@@QEBAXAEAVMTime@@0@Z
?getString@MEdit@@QEBA?AVMString@@PEAVMStatus@@@Z
?getString@MStringResource@@SA?BVMString@@AEBVMStringResourceId@@AEAVMStatus@@@Z
?getStringBlindData@MFnMesh@@QEBA?AVMStatus@@HW4Type@MFn@@HVMString@@AEAV5@@Z
?getStringBlindData@MFnMesh@@QEBA?AVMStatus@@W4Type@MFn@@HVMString@@AEAVMIntArray@@AEAVMStringArray@@@Z
?getStringData@MFnArrayAttrsData@@QEAA?AVMStringArray@@VMString@@PEAVMStatus@@@Z
?getStringHelper@MPlug@@AEBA?AVMString@@AEAVMDGContext@@PEAVMStatus@@_N@Z
?getStrings@MItSelectionList@@QEAA?AVMStatus@@AEAVMStringArray@@@Z
?getSubAssemblies@MFnAssembly@@QEBA?AVMObjectArray@@PEAVMStatus@@@Z
?getSubcontainers@MFnContainerNode@@QEBA?AVMStatus@@AEAVMObjectArray@@@Z
?getSymmetry@MRichSelection@@QEBA?AVMStatus@@AEAVMSelectionList@@@Z
?getSymmetryMatrix@MRichSelection@@QEBA?AVMStatus@@AEAVMMatrix@@AEAW4Space@MSpace@@@Z
?getSymmetryMatrix@MRichSelection@@QEBA?AVMStatus@@AEBVMDagPath@@W4Space@MSpace@@AEAVMMatrix@@@Z
?getSymmetryPlane@MRichSelection@@QEBA?AVMStatus@@AEBVMDagPath@@W4Space@MSpace@@AEAVMPlane@@@Z
?getTangent@MItMeshFaceVertex@@QEBA?AVMVector@@W4Space@MSpace@@PEBVMString@@PEAVMStatus@@@Z
?getTangentId@MFnMesh@@QEBAHHHPEAVMStatus@@@Z
?getTangents@MFnMesh@@QEBA?AVMStatus@@AEAVMFloatVectorArray@@W4Space@MSpace@@PEBVMString@@@Z
?getTangents@MFnNurbsSurface@@QEBA?AVMStatus@@NNAEAVMVector@@0W4Space@MSpace@@@Z
?getThreadId@MProfiler@@SAHH@Z
?getTime@MDGContext@@QEBA?AVMStatus@@AEAVMTime@@@Z
?getTimePerFrame@MCacheFormatDescription@@QEBA?AVMTime@@XZ
?getTopLevelAssemblies@MFnAssembly@@SA?AVMObjectArray@@XZ
?getTranslation@MFnTransform@@QEBA?AVMVector@@W4Space@MSpace@@PEAVMStatus@@@Z
?getTranslation@MPxTransform@@UEAA?AVMVector@@W4Space@MSpace@@AEBVMDGContext@@PEAVMStatus@@@Z
?getTranslation@MTransformationMatrix@@QEBA?AVMVector@@W4Space@MSpace@@PEAVMStatus@@@Z
?getTriangle@MItMeshPolygon@@QEBA?AVMStatus@@HAEAVMPointArray@@AEAVMIntArray@@W4Space@MSpace@@@Z
?getTriangleOffsets@MFnMesh@@QEBA?AVMStatus@@AEAVMIntArray@@0@Z
?getTriangles@MFnMesh@@QEBA?AVMStatus@@AEAVMIntArray@@0@Z
?getTriangles@MItMeshPolygon@@QEBA?AVMStatus@@AEAVMPointArray@@AEAVMIntArray@@W4Space@MSpace@@@Z
?getTrimBoundaries@MFnNurbsSurface@@QEAA?AVMStatus@@AEAVMTrimBoundaryArray@@I_N@Z
?getTweakedUVs@MPxPolyTweakUVCommand@@UEAA?AVMStatus@@AEBVMObject@@AEAVMIntArray@@AEAVMFloatArray@@2@Z
?getType@MItDag@@QEBA?AW4TraversalType@1@PEAVMStatus@@@Z
?getURIResolversByName@MPxFileResolver@@SA?AVMStringArray@@XZ
?getURIResolversByScheme@MPxFileResolver@@SA?AVMStringArray@@XZ
?getUV@MFnMesh@@QEBA?AVMStatus@@HAEAM0PEBVMString@@@Z
?getUV@MFnNurbsSurface@@QEBA?AVMStatus@@HAEAM0@Z
?getUV@MItMeshFaceVertex@@QEBA?AVMStatus@@AEAY01MPEBVMString@@@Z
?getUV@MItMeshPolygon@@QEBA?AVMStatus@@HAEAY01MPEBVMString@@@Z
?getUV@MItMeshVertex@@QEAA?AVMStatus@@AEAY01MPEBVMString@@@Z
?getUV@MItMeshVertex@@QEBA?AVMStatus@@HAEAY01MPEBVMString@@@Z
?getUV@MPointOnNurbs@@QEAAAEAVMPoint@@XZ
?getUVArea@MItMeshPolygon@@QEAA?AVMStatus@@AEANPEBVMString@@@Z
?getUVAtPoint@MFnMesh@@QEAA?AVMStatus@@AEAVMPoint@@AEAY01MW4Space@MSpace@@PEBVMString@@PEAH@Z
?getUVAtPoint@MItMeshPolygon@@QEAA?AVMStatus@@AEAVMPoint@@AEAY01MW4Space@MSpace@@PEBVMString@@@Z
?getUVIndex@MItMeshFaceVertex@@QEAA?AVMStatus@@AEAHAEAM1PEBVMString@@@Z
?getUVIndex@MItMeshFaceVertex@@QEAA?AVMStatus@@AEAHPEBVMString@@@Z
?getUVIndex@MItMeshPolygon@@QEAA?AVMStatus@@HAEAHAEAM1PEBVMString@@@Z
?getUVIndex@MItMeshPolygon@@QEAA?AVMStatus@@HAEAHPEBVMString@@@Z
?getUVIndices@MItMeshVertex@@QEBA?AVMStatus@@AEAVMIntArray@@PEBVMString@@@Z
?getUVRange@MPxBakeEngine@@QEAAXVMFloatArray@@0@Z
?getUVSetFamilyNames@MFnMesh@@QEBA?AVMStatus@@AEAVMStringArray@@@Z
?getUVSetIndex@MFnMesh@@IEBA_NPEBVMString@@AEAH@Z
?getUVSetIndex@MFnNurbsSurface@@IEBA_NPEBVMString@@AEAH@Z
?getUVSetIndex@MItMeshFaceVertex@@IEBA_NPEBVMString@@AEAH@Z
?getUVSetIndex@MItMeshPolygon@@IEBA_NPEBVMString@@AEAH@Z
?getUVSetIndex@MItMeshVertex@@IEBA_NPEBVMString@@AEAH@Z
?getUVSetNames@MFnMesh@@QEBA?AVMStatus@@AEAVMStringArray@@@Z
?getUVSetNames@MItMeshPolygon@@QEBA?AVMStatus@@AEAVMStringArray@@@Z
?getUVSetsInFamily@MFnMesh@@QEBA?AVMStatus@@AEBVMString@@AEAVMStringArray@@@Z
?getUVs@MFnMesh@@QEBA?AVMStatus@@AEAVMFloatArray@@0PEBVMString@@@Z
?getUVs@MFnNurbsSurface@@QEBA?AVMStatus@@AEAVMFloatArray@@0@Z
?getUVs@MItMeshPolygon@@QEBA?AVMStatus@@AEAVMFloatArray@@0PEBVMString@@@Z
?getUVs@MItMeshVertex@@QEBA?AVMStatus@@AEAVMFloatArray@@0AEAVMIntArray@@PEBVMString@@@Z
?getUchar@MScriptUtil@@SAHAEAE@Z
?getUcharArrayItem@MScriptUtil@@SAHPEAEI@Z
?getUint2ArrayItem@MScriptUtil@@SAIPEAY01III@Z
?getUint3ArrayItem@MScriptUtil@@SAIPEAY02III@Z
?getUint4ArrayItem@MScriptUtil@@SAIPEAY03III@Z
?getUint@MScriptUtil@@SAHAEAI@Z
?getUintArrayItem@MScriptUtil@@SAHPEAII@Z
?getUnion@MFnSet@@QEAA?AVMStatus@@AEBVMObject@@AEAVMSelectionList@@@Z
?getUnion@MFnSet@@QEAA?AVMStatus@@AEBVMObjectArray@@AEAVMSelectionList@@@Z
?getUpper@MAttributeIndex@@QEBA?AVMStatus@@AEAH@Z
?getUpper@MAttributeIndex@@QEBA?AVMStatus@@AEAN@Z
?getUserInfo@MURI@@QEBA?AVMString@@XZ
?getUserName@MURI@@QEBA?AVMString@@XZ
?getUserName@TpluginPref@@QEBA?AVTstring@@XZ
?getUshortArrayItem@MScriptUtil@@SAHPEAGI@Z
?getUvShellsIds@MFnMesh@@QEBA?AVMStatus@@AEAVMIntArray@@AEAIPEBVMString@@@Z
?getValue@MAttributeIndex@@QEBA?AVMStatus@@AEAH@Z
?getValue@MAttributeIndex@@QEBA?AVMStatus@@AEAN@Z
?getValue@MPlug@@QEBA?AVMStatus@@AEADAEAVMDGContext@@@Z
?getValue@MPlug@@QEBA?AVMStatus@@AEAFAEAVMDGContext@@@Z
?getValue@MPlug@@QEBA?AVMStatus@@AEAHAEAVMDGContext@@@Z
?getValue@MPlug@@QEBA?AVMStatus@@AEAMAEAVMDGContext@@@Z
?getValue@MPlug@@QEBA?AVMStatus@@AEANAEAVMDGContext@@@Z
?getValue@MPlug@@QEBA?AVMStatus@@AEAVMAngle@@AEAVMDGContext@@@Z
?getValue@MPlug@@QEBA?AVMStatus@@AEAVMDataHandle@@AEAVMDGContext@@@Z
?getValue@MPlug@@QEBA?AVMStatus@@AEAVMDistance@@AEAVMDGContext@@@Z
?getValue@MPlug@@QEBA?AVMStatus@@AEAVMObject@@AEAVMDGContext@@@Z
?getValue@MPlug@@QEBA?AVMStatus@@AEAVMString@@AEAVMDGContext@@@Z
?getValue@MPlug@@QEBA?AVMStatus@@AEAVMTime@@AEAVMDGContext@@@Z
?getValue@MPlug@@QEBA?AVMStatus@@AEA_JAEAVMDGContext@@@Z
?getValue@MPlug@@QEBA?AVMStatus@@AEA_NAEAVMDGContext@@@Z
?getValueAtPosition@MCurveAttribute@@QEAAXMAEAMPEAVMStatus@@@Z
?getValueAtPosition@MRampAttribute@@QEAAXMAEAMPEAVMStatus@@AEAVMDGContext@@@Z
?getValuesAtPositions@MCurveAttribute@@QEAAXAEBVMFloatArray@@AEAV2@PEAVMStatus@@@Z
?getVectorData@MFnArrayAttrsData@@QEAA?AVMVectorArray@@VMString@@PEAVMStatus@@@Z
?getVertexColors@MFnMesh@@QEAA?AVMStatus@@AEAVMColorArray@@PEBVMString@@PEBVMColor@@@Z
?getVertexNormal@MFnMesh@@QEBA?AVMStatus@@HAEAVMVector@@W4Space@MSpace@@@Z
?getVertexNormal@MFnMesh@@QEBA?AVMStatus@@H_NAEAVMVector@@W4Space@MSpace@@@Z
?getVertexNormals@MFnMesh@@QEBA?AVMStatus@@_NAEAVMFloatVectorArray@@W4Space@MSpace@@@Z
?getVertices@MFnMesh@@QEBA?AVMStatus@@AEAVMIntArray@@0@Z
?getVertices@MItMeshPolygon@@QEAA?AVMStatus@@AEAVMIntArray@@@Z
?getViewParameters@MFnCamera@@QEBA?AVMStatus@@NAEAN000_N11@Z
?getViewingFrustum@MFnCamera@@QEBA?AVMStatus@@NAEAN000_N11@Z
?getWorldMatrix@MPxSurfaceShape@@QEBA?AVMMatrix@@AEAVMDataBlock@@I@Z
?getWorldMatrix@THsurfaceShape@@QEBA?AVMMatrix@@AEAVMDataBlock@@I@Z
?get_sizeIncrement@?$MPyMArray_Type_Base@VMAttributeSpecArray@@VMAttributeSpec@@@@SAPEAU_object@@PEAV?$MPyObject@VMAttributeSpecArray@@@@PEAX@Z
?get_sizeIncrement@?$MPyMArray_Type_Base@VMCallbackIdArray@@_K@@SAPEAU_object@@PEAV?$MPyObject@VMCallbackIdArray@@@@PEAX@Z
?get_sizeIncrement@?$MPyMArray_Type_Base@VMColorArray@@VMColor@@@@SAPEAU_object@@PEAV?$MPyObject@VMColorArray@@@@PEAX@Z
?get_sizeIncrement@?$MPyMArray_Type_Base@VMDagPathArray@@VMDagPath@@@@SAPEAU_object@@PEAV?$MPyObject@VMDagPathArray@@@@PEAX@Z
?get_sizeIncrement@?$MPyMArray_Type_Base@VMDoubleArray@@N@@SAPEAU_object@@PEAV?$MPyObject@VMDoubleArray@@@@PEAX@Z
?get_sizeIncrement@?$MPyMArray_Type_Base@VMFloatArray@@M@@SAPEAU_object@@PEAV?$MPyObject@VMFloatArray@@@@PEAX@Z
?get_sizeIncrement@?$MPyMArray_Type_Base@VMFloatPointArray@@VMFloatPoint@@@@SAPEAU_object@@PEAV?$MPyObject@VMFloatPointArray@@@@PEAX@Z
?get_sizeIncrement@?$MPyMArray_Type_Base@VMFloatVectorArray@@VMFloatVector@@@@SAPEAU_object@@PEAV?$MPyObject@VMFloatVectorArray@@@@PEAX@Z
?get_sizeIncrement@?$MPyMArray_Type_Base@VMInt64Array@@_J@@SAPEAU_object@@PEAV?$MPyObject@VMInt64Array@@@@PEAX@Z
?get_sizeIncrement@?$MPyMArray_Type_Base@VMIntArray@@H@@SAPEAU_object@@PEAV?$MPyObject@VMIntArray@@@@PEAX@Z
?get_sizeIncrement@?$MPyMArray_Type_Base@VMMatrixArray@@VMMatrix@@@@SAPEAU_object@@PEAV?$MPyObject@VMMatrixArray@@@@PEAX@Z
?get_sizeIncrement@?$MPyMArray_Type_Base@VMObjectArray@@VMObject@@@@SAPEAU_object@@PEAV?$MPyObject@VMObjectArray@@@@PEAX@Z
?get_sizeIncrement@?$MPyMArray_Type_Base@VMPlugArray@@VMPlug@@@@SAPEAU_object@@PEAV?$MPyObject@VMPlugArray@@@@PEAX@Z
?get_sizeIncrement@?$MPyMArray_Type_Base@VMPointArray@@VMPoint@@@@SAPEAU_object@@PEAV?$MPyObject@VMPointArray@@@@PEAX@Z
?get_sizeIncrement@?$MPyMArray_Type_Base@VMTimeArray@@VMTime@@@@SAPEAU_object@@PEAV?$MPyObject@VMTimeArray@@@@PEAX@Z
?get_sizeIncrement@?$MPyMArray_Type_Base@VMUint64Array@@_K@@SAPEAU_object@@PEAV?$MPyObject@VMUint64Array@@@@PEAX@Z
?get_sizeIncrement@?$MPyMArray_Type_Base@VMUintArray@@I@@SAPEAU_object@@PEAV?$MPyObject@VMUintArray@@@@PEAX@Z
?get_sizeIncrement@?$MPyMArray_Type_Base@VMVectorArray@@VMVector@@@@SAPEAU_object@@PEAV?$MPyObject@VMVectorArray@@@@PEAX@Z
?ghosting@MPxTransform@@2VMObject@@A
?glLoad@MPxImageFile@@UEAA?AVMStatus@@AEBVMImageFileInfo@@I@Z
?globalIntersectionAcceleratorsInfo@MFnMesh@@SA?AVMString@@XZ
?glowColor@MFnLayeredShader@@QEBA?AVMColor@@IPEAVMStatus@@@Z
?glowIntensity@MFnLambertShader@@QEBAMPEAVMStatus@@@Z
?graphConstructionActive@MEvaluationManager@@SA_NXZ
?groupNodes@MPxObjectSet@@2VMObject@@A
?growArray@MArrayDataBuilder@@QEAA?AVMStatus@@I@Z
?handle@Tplugin@@QEAAAEAVTdynamicLoad@@XZ
?handlesAddEdits@MFnAssembly@@QEBA_NPEAVMStatus@@@Z
?handlesAddEdits@MPxAssembly@@UEBA_NXZ
?handlesDescription@MPxCacheFormat@@UEAA_NXZ
?hardwareColor@MFnLayeredShader@@QEBA?AVMColor@@PEAVMStatus@@@Z
?hardwareShader@MFnLayeredShader@@QEBA?AVMColor@@PEAVMStatus@@@Z
?hardwareType@MImageFileInfo@@QEAAXW4MHwTextureType@1@@Z
?hardwareType@MImageFileInfo@@QEBA?AW4MHwTextureType@1@XZ
?has@MFnComponentListData@@QEBA_NAEBVMObject@@PEAVMStatus@@@Z
?hasActiveComponents@MPxSurfaceShape@@QEBA_NXZ
?hasAlpha@MImageFileInfo@@QEAAX_N@Z
?hasAlpha@MImageFileInfo@@QEBA_NXZ
?hasAlphaChannels@MFnMesh@@QEBA_NAEBVMString@@PEAVMStatus@@@Z
?hasAttribute@MFnDependencyNode@@QEBA_NAEBVMString@@PEAVMStatus@@@Z
?hasAttribute@MNodeClass@@QEBA_NAEBVMString@@PEAVMStatus@@@Z
?hasBlindData@MFnMesh@@QEBA_NHW4Type@MFn@@HPEAVMStatus@@@Z
?hasBlindData@MFnMesh@@QEBA_NHW4Type@MFn@@PEAVMStatus@@@Z
?hasBlindData@MFnMesh@@QEBA_NW4Type@MFn@@HPEAVMStatus@@@Z
?hasBlindData@MFnMesh@@QEBA_NW4Type@MFn@@PEAVMStatus@@@Z
?hasBlindDataComponentId@MFnMesh@@QEBA_NHW4Type@MFn@@HPEAVMStatus@@@Z
?hasBlindDataComponentId@MFnMesh@@QEBA_NHW4Type@MFn@@PEAVMStatus@@@Z
?hasCategory@MFnAttribute@@QEBA_NAEBVMString@@@Z
?hasChild@MFnDagNode@@QEBA_NAEBVMObject@@PEAVMStatus@@@Z
?hasColor@MItMeshFaceVertex@@QEBA_NPEAVMStatus@@@Z
?hasColor@MItMeshPolygon@@QEAA_NHPEAVMStatus@@@Z
?hasColor@MItMeshPolygon@@QEBA_NPEAVMStatus@@@Z
?hasColor@MItMeshVertex@@QEBA_NHPEAVMStatus@@@Z
?hasColor@MItMeshVertex@@QEBA_NPEAVMStatus@@@Z
?hasColorChannels@MFnMesh@@QEBA_NAEBVMString@@PEAVMStatus@@@Z
?hasComponents@MItSelectionList@@QEBA_NPEAVMStatus@@@Z
?hasConstraintCreator@TpluginObject@@UEAA_NXZ
?hasCreateSyntax@TpluginObject@@UEAA_NXZ
?hasCreator@TpluginObject@@UEAA_NXZ
?hasEditData@MEdit@@QEBA_NXZ
?hasFn@MDagPath@@QEBA_NW4Type@MFn@@PEAVMStatus@@@Z
?hasHistoryOnCreate@MFnNurbsCurve@@QEBA_NPEAVMStatus@@@Z
?hasHistoryOnCreate@MFnNurbsSurface@@QEBA_NPEAVMStatus@@@Z
?hasHistoryOnCreate@MItCurveCV@@QEBA_NPEAVMStatus@@@Z
?hasHistoryOnCreate@MItSurfaceCV@@QEBA_NPEAVMStatus@@@Z
?hasIndex@MCurveAttribute@@QEBA_NIPEAVMStatus@@@Z
?hasIndex@MRampAttribute@@QEBA_NIPEAVMStatus@@@Z
?hasItem@MSelectionList@@QEBA_NAEBVMDagPath@@AEBVMObject@@PEAVMStatus@@@Z
?hasItem@MSelectionList@@QEBA_NAEBVMObject@@PEAVMStatus@@@Z
?hasItem@MSelectionList@@QEBA_NAEBVMPlug@@PEAVMStatus@@@Z
?hasItemPartly@MSelectionList@@QEBA_NAEBVMDagPath@@AEBVMObject@@PEAVMStatus@@@Z
?hasLowerBound@MAttributeIndex@@QEBA_NXZ
?hasMax@MFnNumericAttribute@@QEBA_NPEAVMStatus@@@Z
?hasMax@MFnUnitAttribute@@QEBA_NPEAVMStatus@@@Z
?hasMin@MFnNumericAttribute@@QEBA_NPEAVMStatus@@@Z
?hasMin@MFnUnitAttribute@@QEBA_NPEAVMStatus@@@Z
?hasMipMaps@MImageFileInfo@@QEAAX_N@Z
?hasMipMaps@MImageFileInfo@@QEBA_NXZ
?hasModelEditorCreator@TpluginObject@@UEAA_NXZ
?hasNormals@MPxGeometryIterator@@UEBA_NXZ
?hasNormals@MPyMPxGeometryIterator_Director@@UEBA_NXZ
?hasObj@MFnBase@@QEBA_NAEBVMObject@@@Z
?hasObj@MFnBase@@QEBA_NW4Type@MFn@@@Z
?hasObjectGroup@MFnGeometryData@@QEBA_NIPEAVMStatus@@@Z
?hasParent@MFnDagNode@@QEBA_NAEBVMObject@@PEAVMStatus@@@Z
?hasPoints@MPxGeometryIterator@@UEBA_NXZ
?hasPoints@MPyMPxGeometryIterator_Director@@UEBA_NXZ
?hasPyMethod@MPyDirector@@QEBA_NPEBD_N@Z
?hasRange@MAttributeIndex@@QEBA_NXZ
?hasRestrictions@MFnSet@@QEBA_NPEAVMStatus@@@Z
?hasSamePerspective@MFnCamera@@QEAA_NAEBVMDagPath@@PEAVMStatus@@@Z
?hasSoftMax@MFnNumericAttribute@@QEBA_NPEAVMStatus@@@Z
?hasSoftMax@MFnUnitAttribute@@QEBA_NPEAVMStatus@@@Z
?hasSoftMin@MFnNumericAttribute@@QEBA_NPEAVMStatus@@@Z
?hasSoftMin@MFnUnitAttribute@@QEBA_NPEAVMStatus@@@Z
?hasSyntax@MPxCommand@@UEBA_NXZ
?hasSyntax@MPyMPxCommand_Director@@UEBA_NXZ
?hasUVs@MItMeshFaceVertex@@QEBA_NAEBVMString@@PEAVMStatus@@@Z
?hasUVs@MItMeshFaceVertex@@QEBA_NPEAVMStatus@@@Z
?hasUVs@MItMeshPolygon@@QEBA_NAEBVMString@@PEAVMStatus@@@Z
?hasUVs@MItMeshPolygon@@QEBA_NPEAVMStatus@@@Z
?hasUniqueName@MFnDependencyNode@@QEBA_NPEAVMStatus@@@Z
?hasUpperBound@MAttributeIndex@@QEBA_NXZ
?hasValidRange@MAttributeIndex@@QEBA_NXZ
?hasValidTriangulation@MItMeshPolygon@@QEBA_NPEAVMStatus@@@Z
?hasWeights@MFnComponent@@QEBA_NXZ
?hashCode@MObjectHandle@@QEBAIXZ
?haveDepth@MImage@@QEBA_NXZ
?haveNamespaceSupport@MPxFileTranslator@@UEBA_NXZ
?haveReadMethod@MPxFileTranslator@@UEBA_NXZ
?haveReadMethod@MPxMayaAsciiFilter@@UEBA_NXZ
?haveReferenceMethod@MPxFileTranslator@@UEBA_NXZ
?haveWriteMethod@MPxFileTranslator@@UEBA_NXZ
?haveWriteMethod@MPxMayaAsciiFilter@@UEBA_NXZ
?height@MBoundingBox@@QEBANXZ
?height@MImageFileInfo@@QEAAXI@Z
?height@MImageFileInfo@@QEBAIXZ
?height@MPxImagePlane@@2VMObject@@A
?helperChildChanged@THsurfaceShape@@QEAAXW4MChildChanged@MPxSurfaceShape@@@Z
?helperCreator@TpluginConstraintCmdInfo@@QEBAP6APEAXPEAX@ZXZ
?helperCreator@TpluginDataInfo@@QEBAP6APEAXPEAVTmetaclass@@@ZXZ
?helperCreator@TpluginModelEditorCmdInfo@@QEBAP6APEAXPEAX@ZXZ
?helperCreator@TpluginNodeInfo@@QEBAP6APEAXPEAVTmetaclass@@@ZXZ
?helperId@TpluginDataInfo@@QEBAPEAPEAVTmetaclass@@XZ
?helperId@TpluginNodeInfo@@QEBAPEAPEAVTmetaclass@@XZ
?helperMatchComponent@THsurfaceShape@@QEAA?AW4MatchResult@MPxSurfaceShape@@AEBVMSelectionList@@AEBVMAttributeSpecArray@@AEAV4@@Z
?helperSetRenderable@THsurfaceShape@@QEAAX_N@Z
?helperSize@TpluginDataInfo@@QEBAIXZ
?helperSize@TpluginNodeInfo@@QEBAIXZ
?hideSource@MFnLambertShader@@QEBA_NPEAVMStatus@@@Z
?highlightSize@MFnPhongEShader@@QEBAMPEAVMStatus@@@Z
?hiliteColor@MFnDagNode@@QEBA?AVMColor@@PEAVMStatus@@@Z
?homogenize@MFloatMatrix@@QEBA?AV1@XZ
?homogenize@MFloatPoint@@QEAAAEAV1@XZ
?homogenize@MMatrix@@QEBA?AV1@XZ
?homogenize@MPoint@@QEAAAEAV1@XZ
?horizontalFieldOfView@MFnCamera@@QEBANPEAVMStatus@@@Z
?horizontalFilmAperture@MFnCamera@@QEBANPEAVMStatus@@@Z
?horizontalFilmOffset@MFnCamera@@QEBANPEAVMStatus@@@Z
?horizontalPan@MFnCamera@@QEBANPEAVMStatus@@@Z
?horizontalRollPivot@MFnCamera@@QEBANPEAVMStatus@@@Z
?horizontalShake@MFnCamera@@QEBANPEAVMStatus@@@Z
?icon@MFnDependencyNode@@QEBA?AVMString@@PEAVMStatus@@@Z
?id@MTypeId@@QEBAIPEAVMStatus@@@Z
?identification@MPxTransform@@2VMObject@@A
?identifyFile@MPxFileTranslator@@UEBA?AW4MFileKind@1@AEBVMFileObject@@PEBDF@Z
?identity@MEulerRotation@@2V1@B
?identity@MMatrix@@2V1@B
?identity@MPxTransformationMatrix@@2V1@B
?identity@MQuaternion@@2V1@B
?identity@MTransformationMatrix@@2V1@B
?iffGetFloat@MIffFile@@QEAA?AVMStatus@@AEAM@Z
?iffGetInt@MIffFile@@QEAA?AVMStatus@@AEAH@Z
?iffGetShort@MIffFile@@QEAA?AVMStatus@@AEAF@Z
?iffTag@THdependNode@@UEBAAEBVTiffTag@@XZ
?iffTag@THsurfaceShape@@UEBAAEBVTiffTag@@XZ
?iffTag@TapiCast@@SAAEAVTiffTag@@AEAVMIffTag@@@Z
?iffTag@TapiCast@@SAAEBVTiffTag@@AEBVMIffTag@@@Z
?iffTag@TapiPack@@SA?AVMTypeId@@AEBVTiffTag@@@Z
?iffTag@TapiPack@@SA?AVTiffTag@@AEBVMTypeId@@@Z
?ikSolvers@Tplugin@@QEBAAEBVTpluginIkSolverPtrs@@XZ
?image@TapiCast@@SAAEAVTpixelMap@@AEAVMImage@@@Z
?image@TapiCast@@SAAEBVTpixelMap@@AEBVMImage@@@Z
?image@TapiPack@@SAXAEAVMImage@@AEBVTpixelMap@@@Z
?image@TapiPack@@SAXAEAVTpixelMap@@AEBVMImage@@@Z
?imageFormats@Tplugin@@QEBAAEBVTpluginImageFormatPtrs@@XZ
?imageFormatsByName@TpluginImageFormatDBase@@0PEAVTpluginImageFormatDBaseNameTable@@EA
?imageName@MPxImagePlane@@2VMObject@@A
?imageNoCopy@TapiPack@@SAXAEAVMImage@@AEBVTpixelMap@@@Z
?imageType@MImageFileInfo@@QEAAXW4MImageType@1@@Z
?imageType@MImageFileInfo@@QEBA?AW4MImageType@1@XZ
?imageType@MPxImagePlane@@2VMObject@@A
?import@MFileIO@@SA?AVMStatus@@AEBVMString@@PEBD_N1@Z
?importFile@MFileIO@@SA?AVMStatus@@AEBVMString@@PEBD_N12@Z
?importFile@MFnAssembly@@QEAA?AVMStatus@@AEBVMString@@PEBD_N12@Z
?inModel@MFnDagNode@@QEBA_NPEAVMStatus@@@Z
?inUnderWorld@MFnDagNode@@QEBA_NPEAVMStatus@@@Z
?inactivate@MPxRepresentation@@UEAA_NXZ
?inactivateRep@MPxAssembly@@UEAA_NXZ
?incandescence@MFnLambertShader@@QEBA?AVMColor@@PEAVMStatus@@@Z
?inclusiveMatrix@MDagPath@@QEBA?AVMMatrix@@PEAVMStatus@@@Z
?inclusiveMatrixInverse@MDagPath@@QEBA?AVMMatrix@@PEAVMStatus@@@Z
?increment@MAtomic@@SAHPECHH@Z
?incrementalRotateBy@MEulerRotation@@QEAAAEAV1@AEBVMVector@@N@Z
?index@MItCurveCV@@QEBAHPEAVMStatus@@@Z
?index@MItGeometry@@QEBAHPEAVMStatus@@@Z
?index@MItMeshEdge@@QEAAHHPEAVMStatus@@@Z
?index@MItMeshEdge@@QEBAHPEAVMStatus@@@Z
?index@MItMeshPolygon@@QEAAIPEAVMStatus@@@Z
?index@MItMeshVertex@@QEAAHPEAVMStatus@@@Z
?index@MItSubdEdge@@QEAA_KPEAVMStatus@@@Z
?index@MItSubdFace@@QEAA_KPEAVMStatus@@@Z
?index@MItSubdVertex@@QEAA_KPEAVMStatus@@@Z
?index@MItSurfaceCV@@QEBAHPEAVMStatus@@@Z
?index@MPxGeometryIterator@@UEBAHXZ
?index@MPyMPxGeometryIterator_Director@@UEBAHXZ
?index@MString@@QEBAHD@Z
?indexMatters@MFnAttribute@@QEBA_NPEAVMStatus@@@Z
?indexUnsimplified@MPxGeometryIterator@@UEBAHXZ
?indexUnsimplified@MPyMPxGeometryIterator_Director@@UEBAHXZ
?indexW@MString@@QEBAHAEBV1@@Z
?indexW@MString@@QEBAHD@Z
?indexW@MString@@QEBAH_W@Z
?influence@MWeight@@QEBAMXZ
?info@MPlug@@QEBA?AVMString@@PEAVMStatus@@@Z
?inheritAttributesFrom@MPxNode@@SA?AVMStatus@@AEBVMString@@@Z
?inheritsTransform@MPxTransform@@2VMObject@@A
?init@MThreadAsync@@SA?AVMStatus@@XZ
?init@MThreadPool@@SA?AVMStatus@@XZ
?initClass@MPxNode@@0PEAXEA
?initRampAttributes@THdependNode@@IEAAXAEAVTdataBlock@@@Z
?init_instance@?$MPyMArray_Type_Base@VMAttributeSpecArray@@VMAttributeSpec@@@@SAHPEAV?$MPyObject@VMAttributeSpecArray@@@@PEAU_object@@1@Z
?init_instance@?$MPyMArray_Type_Base@VMCallbackIdArray@@_K@@SAHPEAV?$MPyObject@VMCallbackIdArray@@@@PEAU_object@@1@Z
?init_instance@?$MPyMArray_Type_Base@VMColorArray@@VMColor@@@@SAHPEAV?$MPyObject@VMColorArray@@@@PEAU_object@@1@Z
?init_instance@?$MPyMArray_Type_Base@VMDagPathArray@@VMDagPath@@@@SAHPEAV?$MPyObject@VMDagPathArray@@@@PEAU_object@@1@Z
?init_instance@?$MPyMArray_Type_Base@VMDoubleArray@@N@@SAHPEAV?$MPyObject@VMDoubleArray@@@@PEAU_object@@1@Z
?init_instance@?$MPyMArray_Type_Base@VMFloatArray@@M@@SAHPEAV?$MPyObject@VMFloatArray@@@@PEAU_object@@1@Z
?init_instance@?$MPyMArray_Type_Base@VMFloatPointArray@@VMFloatPoint@@@@SAHPEAV?$MPyObject@VMFloatPointArray@@@@PEAU_object@@1@Z
?init_instance@?$MPyMArray_Type_Base@VMFloatVectorArray@@VMFloatVector@@@@SAHPEAV?$MPyObject@VMFloatVectorArray@@@@PEAU_object@@1@Z
?init_instance@?$MPyMArray_Type_Base@VMInt64Array@@_J@@SAHPEAV?$MPyObject@VMInt64Array@@@@PEAU_object@@1@Z
?init_instance@?$MPyMArray_Type_Base@VMIntArray@@H@@SAHPEAV?$MPyObject@VMIntArray@@@@PEAU_object@@1@Z
?init_instance@?$MPyMArray_Type_Base@VMMatrixArray@@VMMatrix@@@@SAHPEAV?$MPyObject@VMMatrixArray@@@@PEAU_object@@1@Z
?init_instance@?$MPyMArray_Type_Base@VMObjectArray@@VMObject@@@@SAHPEAV?$MPyObject@VMObjectArray@@@@PEAU_object@@1@Z
?init_instance@?$MPyMArray_Type_Base@VMPlugArray@@VMPlug@@@@SAHPEAV?$MPyObject@VMPlugArray@@@@PEAU_object@@1@Z
?init_instance@?$MPyMArray_Type_Base@VMPointArray@@VMPoint@@@@SAHPEAV?$MPyObject@VMPointArray@@@@PEAU_object@@1@Z
?init_instance@?$MPyMArray_Type_Base@VMTimeArray@@VMTime@@@@SAHPEAV?$MPyObject@VMTimeArray@@@@PEAU_object@@1@Z
?init_instance@?$MPyMArray_Type_Base@VMUint64Array@@_K@@SAHPEAV?$MPyObject@VMUint64Array@@@@PEAU_object@@1@Z
?init_instance@?$MPyMArray_Type_Base@VMUintArray@@I@@SAHPEAV?$MPyObject@VMUintArray@@@@PEAU_object@@1@Z
?init_instance@?$MPyMArray_Type_Base@VMVectorArray@@VMVector@@@@SAHPEAV?$MPyObject@VMVectorArray@@@@PEAU_object@@1@Z
?initialSetup@MPxCameraSet@@CAXXZ
?initialSetup@MPxImagePlane@@CAXXZ
?initialSetup@MPxNode@@CAXXZ
?initialSetup@MPxObjectSet@@CAXXZ
?initialSetup@MPxSurfaceShape@@CAXXZ
?initialSetup@MPxTransform@@CAXXZ
?initialize@?$MPyTypeObject@VMAttributeSpecArray@@@@SA_NPEAU_object@@PEBD1HP6AH000@ZPEAUPyMethodDef@@PEAVMPyAttributeRegistry@@PEAUPyGetSetDef@@PEAUPySequenceMethods@@P6APEAU2@00H@ZP6APEAU2@0@Z8PEAUPyNumberMethods@@@Z
?initialize@?$MPyTypeObject@VMCallbackIdArray@@@@SA_NPEAU_object@@PEBD1HP6AH000@ZPEAUPyMethodDef@@PEAVMPyAttributeRegistry@@PEAUPyGetSetDef@@PEAUPySequenceMethods@@P6APEAU2@00H@ZP6APEAU2@0@Z8PEAUPyNumberMethods@@@Z
?initialize@?$MPyTypeObject@VMColorArray@@@@SA_NPEAU_object@@PEBD1HP6AH000@ZPEAUPyMethodDef@@PEAVMPyAttributeRegistry@@PEAUPyGetSetDef@@PEAUPySequenceMethods@@P6APEAU2@00H@ZP6APEAU2@0@Z8PEAUPyNumberMethods@@@Z
?initialize@?$MPyTypeObject@VMDagPathArray@@@@SA_NPEAU_object@@PEBD1HP6AH000@ZPEAUPyMethodDef@@PEAVMPyAttributeRegistry@@PEAUPyGetSetDef@@PEAUPySequenceMethods@@P6APEAU2@00H@ZP6APEAU2@0@Z8PEAUPyNumberMethods@@@Z
?initialize@?$MPyTypeObject@VMDoubleArray@@@@SA_NPEAU_object@@PEBD1HP6AH000@ZPEAUPyMethodDef@@PEAVMPyAttributeRegistry@@PEAUPyGetSetDef@@PEAUPySequenceMethods@@P6APEAU2@00H@ZP6APEAU2@0@Z8PEAUPyNumberMethods@@@Z
?initialize@?$MPyTypeObject@VMFloatArray@@@@SA_NPEAU_object@@PEBD1HP6AH000@ZPEAUPyMethodDef@@PEAVMPyAttributeRegistry@@PEAUPyGetSetDef@@PEAUPySequenceMethods@@P6APEAU2@00H@ZP6APEAU2@0@Z8PEAUPyNumberMethods@@@Z
?initialize@?$MPyTypeObject@VMFloatPointArray@@@@SA_NPEAU_object@@PEBD1HP6AH000@ZPEAUPyMethodDef@@PEAVMPyAttributeRegistry@@PEAUPyGetSetDef@@PEAUPySequenceMethods@@P6APEAU2@00H@ZP6APEAU2@0@Z8PEAUPyNumberMethods@@@Z
?initialize@?$MPyTypeObject@VMFloatVectorArray@@@@SA_NPEAU_object@@PEBD1HP6AH000@ZPEAUPyMethodDef@@PEAVMPyAttributeRegistry@@PEAUPyGetSetDef@@PEAUPySequenceMethods@@P6APEAU2@00H@ZP6APEAU2@0@Z8PEAUPyNumberMethods@@@Z
?initialize@?$MPyTypeObject@VMInt64Array@@@@SA_NPEAU_object@@PEBD1HP6AH000@ZPEAUPyMethodDef@@PEAVMPyAttributeRegistry@@PEAUPyGetSetDef@@PEAUPySequenceMethods@@P6APEAU2@00H@ZP6APEAU2@0@Z8PEAUPyNumberMethods@@@Z
?initialize@?$MPyTypeObject@VMIntArray@@@@SA_NPEAU_object@@PEBD1HP6AH000@ZPEAUPyMethodDef@@PEAVMPyAttributeRegistry@@PEAUPyGetSetDef@@PEAUPySequenceMethods@@P6APEAU2@00H@ZP6APEAU2@0@Z8PEAUPyNumberMethods@@@Z
?initialize@?$MPyTypeObject@VMMatrixArray@@@@SA_NPEAU_object@@PEBD1HP6AH000@ZPEAUPyMethodDef@@PEAVMPyAttributeRegistry@@PEAUPyGetSetDef@@PEAUPySequenceMethods@@P6APEAU2@00H@ZP6APEAU2@0@Z8PEAUPyNumberMethods@@@Z
?initialize@?$MPyTypeObject@VMObjectArray@@@@SA_NPEAU_object@@PEBD1HP6AH000@ZPEAUPyMethodDef@@PEAVMPyAttributeRegistry@@PEAUPyGetSetDef@@PEAUPySequenceMethods@@P6APEAU2@00H@ZP6APEAU2@0@Z8PEAUPyNumberMethods@@@Z
?initialize@?$MPyTypeObject@VMPlugArray@@@@SA_NPEAU_object@@PEBD1HP6AH000@ZPEAUPyMethodDef@@PEAVMPyAttributeRegistry@@PEAUPyGetSetDef@@PEAUPySequenceMethods@@P6APEAU2@00H@ZP6APEAU2@0@Z8PEAUPyNumberMethods@@@Z
?initialize@?$MPyTypeObject@VMPointArray@@@@SA_NPEAU_object@@PEBD1HP6AH000@ZPEAUPyMethodDef@@PEAVMPyAttributeRegistry@@PEAUPyGetSetDef@@PEAUPySequenceMethods@@P6APEAU2@00H@ZP6APEAU2@0@Z8PEAUPyNumberMethods@@@Z
?initialize@?$MPyTypeObject@VMTimeArray@@@@SA_NPEAU_object@@PEBD1HP6AH000@ZPEAUPyMethodDef@@PEAVMPyAttributeRegistry@@PEAUPyGetSetDef@@PEAUPySequenceMethods@@P6APEAU2@00H@ZP6APEAU2@0@Z8PEAUPyNumberMethods@@@Z
?initialize@?$MPyTypeObject@VMUint64Array@@@@SA_NPEAU_object@@PEBD1HP6AH000@ZPEAUPyMethodDef@@PEAVMPyAttributeRegistry@@PEAUPyGetSetDef@@PEAUPySequenceMethods@@P6APEAU2@00H@ZP6APEAU2@0@Z8PEAUPyNumberMethods@@@Z
?initialize@?$MPyTypeObject@VMUintArray@@@@SA_NPEAU_object@@PEBD1HP6AH000@ZPEAUPyMethodDef@@PEAVMPyAttributeRegistry@@PEAUPyGetSetDef@@PEAUPySequenceMethods@@P6APEAU2@00H@ZP6APEAU2@0@Z8PEAUPyNumberMethods@@@Z
?initialize@?$MPyTypeObject@VMVectorArray@@@@SA_NPEAU_object@@PEBD1HP6AH000@ZPEAUPyMethodDef@@PEAVMPyAttributeRegistry@@PEAUPyGetSetDef@@PEAUPySequenceMethods@@P6APEAU2@00H@ZP6APEAU2@0@Z8PEAUPyNumberMethods@@@Z
?initialize@?$MPyTypeObjectStatic@VMAttributeSpecArray@@@@SA_NPEAU_object@@PEBD1PEAUPyMethodDef@@PEAVMPyAttributeRegistry@@PEAUPyGetSetDef@@@Z
?initialize@?$MPyTypeObjectStatic@VMCallbackIdArray@@@@SA_NPEAU_object@@PEBD1PEAUPyMethodDef@@PEAVMPyAttributeRegistry@@PEAUPyGetSetDef@@@Z
?initialize@?$MPyTypeObjectStatic@VMColorArray@@@@SA_NPEAU_object@@PEBD1PEAUPyMethodDef@@PEAVMPyAttributeRegistry@@PEAUPyGetSetDef@@@Z
?initialize@?$MPyTypeObjectStatic@VMDagPathArray@@@@SA_NPEAU_object@@PEBD1PEAUPyMethodDef@@PEAVMPyAttributeRegistry@@PEAUPyGetSetDef@@@Z
?initialize@?$MPyTypeObjectStatic@VMDoubleArray@@@@SA_NPEAU_object@@PEBD1PEAUPyMethodDef@@PEAVMPyAttributeRegistry@@PEAUPyGetSetDef@@@Z
?initialize@?$MPyTypeObjectStatic@VMFloatArray@@@@SA_NPEAU_object@@PEBD1PEAUPyMethodDef@@PEAVMPyAttributeRegistry@@PEAUPyGetSetDef@@@Z
?initialize@?$MPyTypeObjectStatic@VMFloatPointArray@@@@SA_NPEAU_object@@PEBD1PEAUPyMethodDef@@PEAVMPyAttributeRegistry@@PEAUPyGetSetDef@@@Z
?initialize@?$MPyTypeObjectStatic@VMFloatVectorArray@@@@SA_NPEAU_object@@PEBD1PEAUPyMethodDef@@PEAVMPyAttributeRegistry@@PEAUPyGetSetDef@@@Z
?initialize@?$MPyTypeObjectStatic@VMInt64Array@@@@SA_NPEAU_object@@PEBD1PEAUPyMethodDef@@PEAVMPyAttributeRegistry@@PEAUPyGetSetDef@@@Z
?initialize@?$MPyTypeObjectStatic@VMIntArray@@@@SA_NPEAU_object@@PEBD1PEAUPyMethodDef@@PEAVMPyAttributeRegistry@@PEAUPyGetSetDef@@@Z
?initialize@?$MPyTypeObjectStatic@VMMatrixArray@@@@SA_NPEAU_object@@PEBD1PEAUPyMethodDef@@PEAVMPyAttributeRegistry@@PEAUPyGetSetDef@@@Z
?initialize@?$MPyTypeObjectStatic@VMObjectArray@@@@SA_NPEAU_object@@PEBD1PEAUPyMethodDef@@PEAVMPyAttributeRegistry@@PEAUPyGetSetDef@@@Z
?initialize@?$MPyTypeObjectStatic@VMPlugArray@@@@SA_NPEAU_object@@PEBD1PEAUPyMethodDef@@PEAVMPyAttributeRegistry@@PEAUPyGetSetDef@@@Z
?initialize@?$MPyTypeObjectStatic@VMPointArray@@@@SA_NPEAU_object@@PEBD1PEAUPyMethodDef@@PEAVMPyAttributeRegistry@@PEAUPyGetSetDef@@@Z
?initialize@?$MPyTypeObjectStatic@VMTimeArray@@@@SA_NPEAU_object@@PEBD1PEAUPyMethodDef@@PEAVMPyAttributeRegistry@@PEAUPyGetSetDef@@@Z
?initialize@?$MPyTypeObjectStatic@VMUint64Array@@@@SA_NPEAU_object@@PEBD1PEAUPyMethodDef@@PEAVMPyAttributeRegistry@@PEAUPyGetSetDef@@@Z
?initialize@?$MPyTypeObjectStatic@VMUintArray@@@@SA_NPEAU_object@@PEBD1PEAUPyMethodDef@@PEAVMPyAttributeRegistry@@PEAUPyGetSetDef@@@Z
?initialize@?$MPyTypeObjectStatic@VMVectorArray@@@@SA_NPEAU_object@@PEBD1PEAUPyMethodDef@@PEAVMPyAttributeRegistry@@PEAUPyGetSetDef@@@Z
?initialize@MLibrary@@SA?AVMStatus@@PEBD_N@Z
?initialize@MLibrary@@SA?AVMStatus@@_NPEBD0@Z
?initialize@TapiMAttributePatternArray@@UEAAXPEAD0I@Z
?initialize@TapiMDagPathArray@@UEAAXPEAD0I@Z
?initialize@TapiMObjectArray@@UEAAXPEAD0I@Z
?initialize@TapiMPlugArray@@UEAAXPEAD0I@Z
?initialize@TapiMTimeArray@@UEAAXPEAD0I@Z
?initializeAttributes@TpluginNode@@UEAA_NAEAVTattributeList@@0@Z
?initializeCallback@THcallbackId@@IEAAXPEAX@Z
?initializeEntryPoint@Tplugin@@QEBAP6A?AVMStatus@@VMObject@@@ZXZ
?inputArrayValue@MArrayDataHandle@@QEAA?AV1@PEAVMStatus@@@Z
?inputArrayValue@MDataBlock@@QEAA?AVMArrayDataHandle@@AEBVMObject@@PEAVMStatus@@@Z
?inputArrayValue@MDataBlock@@QEAA?AVMArrayDataHandle@@AEBVMPlug@@PEAVMStatus@@@Z
?inputValue@MArrayDataHandle@@QEAA?AVMDataHandle@@PEAVMStatus@@@Z
?inputValue@MDataBlock@@QEAA?AVMDataHandle@@AEBVMObject@@PEAVMStatus@@@Z
?inputValue@MDataBlock@@QEAA?AVMDataHandle@@AEBVMPlug@@PEAVMStatus@@@Z
?insert@?$MPyMArray_Type_Base@VMAttributeSpecArray@@VMAttributeSpec@@@@SAPEAU_object@@PEAV?$MPyObject@VMAttributeSpecArray@@@@PEAU2@@Z
?insert@?$MPyMArray_Type_Base@VMCallbackIdArray@@_K@@SAPEAU_object@@PEAV?$MPyObject@VMCallbackIdArray@@@@PEAU2@@Z
?insert@?$MPyMArray_Type_Base@VMColorArray@@VMColor@@@@SAPEAU_object@@PEAV?$MPyObject@VMColorArray@@@@PEAU2@@Z
?insert@?$MPyMArray_Type_Base@VMDagPathArray@@VMDagPath@@@@SAPEAU_object@@PEAV?$MPyObject@VMDagPathArray@@@@PEAU2@@Z
?insert@?$MPyMArray_Type_Base@VMDoubleArray@@N@@SAPEAU_object@@PEAV?$MPyObject@VMDoubleArray@@@@PEAU2@@Z
?insert@?$MPyMArray_Type_Base@VMFloatArray@@M@@SAPEAU_object@@PEAV?$MPyObject@VMFloatArray@@@@PEAU2@@Z
?insert@?$MPyMArray_Type_Base@VMFloatPointArray@@VMFloatPoint@@@@SAPEAU_object@@PEAV?$MPyObject@VMFloatPointArray@@@@PEAU2@@Z
?insert@?$MPyMArray_Type_Base@VMFloatVectorArray@@VMFloatVector@@@@SAPEAU_object@@PEAV?$MPyObject@VMFloatVectorArray@@@@PEAU2@@Z
?insert@?$MPyMArray_Type_Base@VMInt64Array@@_J@@SAPEAU_object@@PEAV?$MPyObject@VMInt64Array@@@@PEAU2@@Z
?insert@?$MPyMArray_Type_Base@VMIntArray@@H@@SAPEAU_object@@PEAV?$MPyObject@VMIntArray@@@@PEAU2@@Z
?insert@?$MPyMArray_Type_Base@VMMatrixArray@@VMMatrix@@@@SAPEAU_object@@PEAV?$MPyObject@VMMatrixArray@@@@PEAU2@@Z
?insert@?$MPyMArray_Type_Base@VMObjectArray@@VMObject@@@@SAPEAU_object@@PEAV?$MPyObject@VMObjectArray@@@@PEAU2@@Z
?insert@?$MPyMArray_Type_Base@VMPlugArray@@VMPlug@@@@SAPEAU_object@@PEAV?$MPyObject@VMPlugArray@@@@PEAU2@@Z
?insert@?$MPyMArray_Type_Base@VMPointArray@@VMPoint@@@@SAPEAU_object@@PEAV?$MPyObject@VMPointArray@@@@PEAU2@@Z
?insert@?$MPyMArray_Type_Base@VMTimeArray@@VMTime@@@@SAPEAU_object@@PEAV?$MPyObject@VMTimeArray@@@@PEAU2@@Z
?insert@?$MPyMArray_Type_Base@VMUint64Array@@_K@@SAPEAU_object@@PEAV?$MPyObject@VMUint64Array@@@@PEAU2@@Z
?insert@?$MPyMArray_Type_Base@VMUintArray@@I@@SAPEAU_object@@PEAV?$MPyObject@VMUintArray@@@@PEAU2@@Z
?insert@?$MPyMArray_Type_Base@VMVectorArray@@VMVector@@@@SAPEAU_object@@PEAV?$MPyObject@VMVectorArray@@@@PEAU2@@Z
?insert@MAttributePatternArray@@QEAA?AVMStatus@@AEBVMAttributePattern@@I@Z
?insert@MAttributeSpecArray@@QEAA?AVMStatus@@AEBVMAttributeSpec@@I@Z
?insert@MCallbackIdArray@@QEAA?AVMStatus@@_KI@Z
?insert@MColorArray@@QEAA?AVMStatus@@AEBVMColor@@I@Z
?insert@MDagPathArray@@QEAA?AVMStatus@@AEBVMDagPath@@I@Z
?insert@MDoubleArray@@QEAA?AVMStatus@@NI@Z
?insert@MFloatArray@@QEAA?AVMStatus@@MI@Z
?insert@MFloatPointArray@@QEAA?AVMStatus@@AEBVMFloatPoint@@I@Z
?insert@MFloatVectorArray@@QEAA?AVMStatus@@AEBVMFloatVector@@I@Z
?insert@MInt64Array@@QEAA?AVMStatus@@_JI@Z
?insert@MIntArray@@QEAA?AVMStatus@@HI@Z
?insert@MMatrixArray@@QEAA?AVMStatus@@AEBVMMatrix@@I@Z
?insert@MObjectArray@@QEAA?AVMStatus@@AEBVMObject@@I@Z
?insert@MPlugArray@@QEAA?AVMStatus@@AEBVMPlug@@I@Z
?insert@MPointArray@@QEAA?AVMStatus@@AEBVMPoint@@I@Z
?insert@MStringArray@@QEAA?AVMStatus@@AEBVMString@@I@Z
?insert@MTimeArray@@QEAA?AVMStatus@@AEBVMTime@@I@Z
?insert@MTrimBoundaryArray@@QEAA?AVMStatus@@AEBVMObjectArray@@I@Z
?insert@MUint64Array@@QEAA?AVMStatus@@_KI@Z
?insert@MUintArray@@QEAA?AVMStatus@@II@Z
?insert@MVectorArray@@QEAA?AVMStatus@@AEBVMVector@@I@Z
?insert@TanimCallbackTable@@QEAA_NAEB_K@Z
?insert@TapiMAttributePatternArray@@QEAAXAEBVMAttributePattern@@I@Z
?insert@TapiMDagPathArray@@QEAAXAEBVMDagPath@@I@Z
?insert@TapiMObjectArray@@QEAAXAEBVMObject@@I@Z
?insert@TapiMPlugArray@@QEAAXAEBVMPlug@@I@Z
?insert@TapiMTimeArray@@QEAAXAEBVMTime@@I@Z
?insertLayer@MFnCameraSet@@QEAA?AVMStatus@@IAEBVMDagPath@@@Z
?insertLayer@MFnCameraSet@@QEAA?AVMStatus@@IAEBVMDagPath@@AEBVMObject@@@Z
?insertUnique@TanimCallbackTable@@QEAA_NAEB_K@Z
?instObjGroups@MPxSurfaceShape@@2VMObject@@A
?instObjGroups@MPxTransform@@2VMObject@@A
?instanceCount@MFnDagNode@@QEBAI_NPEAVMStatus@@@Z
?instanceCount@MItDag@@QEBAI_NPEAVMStatus@@@Z
?instanceNumber@MDagPath@@QEBAIPEAVMStatus@@@Z
?instancer@MItInstancer@@QEBA?AVMObject@@XZ
?instancerId@MItInstancer@@QEBA_KXZ
?instancerPath@MItInstancer@@QEBA?AVMDagPath@@XZ
?int64Array@TapiCast@@SA?AVMInt64Array@@AEAVTint64Array@@@Z
?int64Array@TapiCast@@SAAEAVTint64Array@@AEAVMInt64Array@@@Z
?int64Array@TapiCast@@SAAEBVTint64Array@@AEBVMInt64Array@@@Z
?int64Array@TapiPack@@SAXAEAVMInt64Array@@AEBVTint64Array@@@Z
?int64Array@TapiPack@@SAXAEAVTint64Array@@AEBVMInt64Array@@@Z
?intArray@MFnArrayAttrsData@@QEAA?AVMIntArray@@VMString@@PEAVMStatus@@@Z
?intArray@TapiCast@@SA?AVMIntArray@@AEAVTint32Array@@@Z
?intArray@TapiCast@@SAAEAVTint32Array@@AEAVMIntArray@@@Z
?intArray@TapiCast@@SAAEBVTint32Array@@AEBVMIntArray@@@Z
?intArray@TapiPack@@SAXAEAVMIntArray@@AEBVTint32Array@@@Z
?intArray@TapiPack@@SAXAEAVTint32Array@@AEBVMIntArray@@@Z
?intensity@MFnLight@@QEBAMPEAVMStatus@@@Z
?intermediateObject@MPxSurfaceShape@@2VMObject@@A
?intermediateObject@MPxTransform@@2VMObject@@A
?internal@MFnAttribute@@QEBA_NPEAVMStatus@@@Z
?internalArrayCount@MPxNode@@UEBAHAEBVMPlug@@AEBVMDGContext@@@Z
?internalCameraLayerCallback@THclient@@UEAAXPEAVTclientServer@@AEBVTserverMsg@@@Z
?internalCameraLayerCallbackCB@THclient@@SAXPEAVTclient@@PEAVTclientServer@@AEBVTserverMsg@@@Z
?internalCameraLayerPreCallback@THclient@@UEAAXPEAVTclientServer@@AEBVTserverMsg@@@Z
?internalCameraLayerPreCallbackCB@THclient@@SAXPEAVTclient@@PEAVTclientServer@@AEBVTserverMsg@@@Z
?internalCreate@MFnNumericAttribute@@AEAA?AVMObject@@AEBVMString@@0W4Type@MFnNumericData@@PEAPEBDNPEAVMStatus@@@Z
?internalToUI@MAngle@@SANN@Z
?internalToUI@MDistance@@SANN@Z
?internalUnit@MAngle@@SA?AW4Unit@1@XZ
?internalUnit@MDistance@@SA?AW4Unit@1@XZ
?interpMatrix@THxformMatrix@@UEBA?AVT4dDblMatrix@@AEBVTxformMatrix@@N_NF@Z
?intersect@MFnMesh@@QEBA_NAEAVMPoint@@AEAVMVector@@AEAVMPointArray@@PEAVMStatus@@@Z
?intersect@MFnMesh@@QEBA_NAEBVMPoint@@AEBVMVector@@AEAVMPointArray@@NW4Space@MSpace@@PEAVMIntArray@@PEAVMStatus@@@Z
?intersect@MFnMesh@@QEBA_NAEBVMPoint@@AEBVMVector@@AEAVMPointArray@@PEAVMStatus@@@Z
?intersect@MFnNurbsSurface@@QEBA_NAEBVMPoint@@AEBVMVector@@AEAN2AEAV2@NW4Space@MSpace@@_NPEAN5PEA_NPEAVMStatus@@@Z
?intersect@MFnNurbsSurface@@QEBA_NAEBVMPoint@@AEBVMVector@@AEAVMDoubleArray@@2AEAVMPointArray@@NW4Space@MSpace@@_NPEAV4@5PEA_NPEAVMStatus@@@Z
?intersects@MBoundingBox@@QEBA_NAEBV1@N@Z
?intersects@MSelectionMask@@QEBA_NAEAV1@PEAVMStatus@@@Z
?intersects@MSelectionMask@@QEBA_NW4SelectionType@1@PEAVMStatus@@@Z
?intersectsWith@MFnSet@@QEBA_NAEBVMObject@@PEAVMStatus@@@Z
?inverse@MEulerRotation@@QEBA?AV1@XZ
?inverse@MFloatMatrix@@QEBA?AV1@XZ
?inverse@MMatrix@@QEBA?AV1@XZ
?inverse@MQuaternion@@QEBA?AV1@XZ
?inverse@THxformMatrix@@UEBA?AVT4dDblMatrix@@XZ
?inverseMatrix@MPxSurfaceShape@@2VMObject@@A
?inverseMatrix@MPxTransform@@2VMObject@@A
?invertIt@MEulerRotation@@QEAAAEAV1@XZ
?invertIt@MQuaternion@@QEAAAEAV1@XZ
?invokeACreatorFunc@TpluginObject@@QEAAPEAXPEBDP6APEAXXZ@Z
?invokeStringRegistration@Tplugin@@QEBAHXZ
?invokeTheCreateSyntaxFunc@TpluginObject@@IEAAPEAVTsyntax@@XZ
?invokeTheCreatorFunc@TpluginObject@@QEAAPEAXPEBD@Z
?isAPluginNode@TpluginNode@@UEAA_NXZ
?isAPluginXform@THxformMatrix@@UEBA_NXZ
?isAbsolutePath@MFileObject@@SA_NAEBVMString@@@Z
?isAbstractClass@MPxNode@@UEBA_NXZ
?isAbstractClass@MPxPolyTrg@@UEBA_NXZ
?isActive@MFnAssembly@@QEBA_NAEBVMString@@PEAVMStatus@@@Z
?isActive@MIffFile@@QEBA_NXZ
?isActive@MPxAssembly@@UEBA_NAEBVMString@@@Z
?isAffectsWorldSpace@MFnAttribute@@QEBA_NPEAVMStatus@@@Z
?isAlive@MObjectHandle@@QEBA_NXZ
?isAnimated@MFnExpression@@QEAA_NPEAVMStatus@@@Z
?isApplied@MEdit@@QEBA_NPEAVMStatus@@@Z
?isArray@MFnAttribute@@QEBA_NPEAVMStatus@@@Z
?isArray@MPlug@@QEBA_NPEAVMStatus@@@Z
?isAttributeAdded@MAddRemoveAttrEdit@@QEBA_NXZ
?isAutoLoad@Tplugin@@QEBA_NXZ
?isAutoloadPlaceholder@Tplugin@@QEAA_NXZ
?isBezier@MFnNurbsSurface@@QEBA_NPEAVMStatus@@@Z
?isBlindDataTypeUsed@MFnMesh@@QEBA_NHPEAVMStatus@@@Z
?isBoundary@MItSubdEdge@@QEAA_NPEAVMStatus@@@Z
?isBounded@MAttributeIndex@@QEBA_NXZ
?isBounded@MPxSurfaceShape@@UEBA_NXZ
?isBounded@MPxTransform@@UEBA_NXZ
?isBounded@THsurfaceShape@@UEBA_NXZ
?isCached@MFnAttribute@@QEBA_NPEAVMStatus@@@Z
?isCachingFlagSet@MPlug@@QEBA_NPEAVMStatus@@@Z
?isChannelBoxFlagSet@MFnAttribute@@QEBA_NPEAVMStatus@@@Z
?isChannelBoxFlagSet@MPlug@@QEBA_NPEAVMStatus@@@Z
?isChild@MPlug@@QEBA_NPEAVMStatus@@@Z
?isChildOf@MFnDagNode@@QEBA_NAEBVMObject@@PEAVMStatus@@@Z
?isClean@MDataBlock@@QEAA_NAEBVMObject@@PEAVMStatus@@@Z
?isClean@MDataBlock@@QEAA_NAEBVMPlug@@@Z
?isClippingPlanes@MFnCamera@@QEBA_NPEAVMStatus@@@Z
?isColorClamped@MFnMesh@@QEBA_NAEBVMString@@PEAVMStatus@@@Z
?isColorRamp@MRampAttribute@@QEBA_NPEAVMStatus@@@Z
?isColorSetPerInstance@MFnMesh@@QEBA_NAEBVMString@@PEAVMStatus@@@Z
?isCompatible@THrenderPassImpl@@UEBA_NAEBVTstring@@@Z
?isComplete@MFnComponent@@QEBA_NPEAVMStatus@@@Z
?isComponentActive@THsurfaceShape@@UEBA_NPEBVTcomponent@@_N@Z
?isCompound@MPlug@@QEBA_NPEAVMStatus@@@Z
?isConnectable@MFnAttribute@@QEBA_NPEAVMStatus@@@Z
?isConnected@MPlug@@QEBA_NPEAVMStatus@@@Z
?isConnectedToEdge@MItMeshPolygon@@QEAA_NHPEAVMStatus@@@Z
?isConnectedToFace@MItMeshPolygon@@QEAA_NHPEAVMStatus@@@Z
?isConnectedToVertex@MItMeshPolygon@@QEAA_NHPEAVMStatus@@@Z
?isConnection@MConnectDisconnectAttrEdit@@QEBA_NXZ
?isConvex@MItMeshPolygon@@QEAA_NPEAVMStatus@@@Z
?isCreated@MMeshIntersector@@QEBA_NXZ
?isCreated@MNurbsIntersector@@QEBA_NXZ
?isCurrentResultArray@MPxCommand@@SA_NXZ
?isCurveRamp@MRampAttribute@@QEBA_NPEAVMStatus@@@Z
?isDefaultNode@MFnDependencyNode@@QEBA_NPEAVMStatus@@@Z
?isDepthOfField@MFnCamera@@QEBA_NPEAVMStatus@@@Z
?isDestination@MPlug@@QEBA_NPEAVMStatus@@@Z
?isDirectionDownStream@MItDependencyGraph@@QEAA_NPEAVMStatus@@@Z
?isDisplayFilmGate@MFnCamera@@QEBA_NPEAVMStatus@@@Z
?isDisplayGateMask@MFnCamera@@QEBA_NPEAVMStatus@@@Z
?isDone@Iterator@TanimCallbackTable@@QEAA_NXZ
?isDone@MEvaluationNodeIterator@@QEBA_NXZ
?isDone@MItCurveCV@@QEBA_NPEAVMStatus@@@Z
?isDone@MItDag@@QEBA_NPEAVMStatus@@@Z
?isDone@MItDependencyGraph@@QEAA_NPEAVMStatus@@@Z
?isDone@MItDependencyNodes@@QEBA_NPEAVMStatus@@@Z
?isDone@MItEdits@@QEAA_NPEAVMStatus@@@Z
?isDone@MItGeometry@@QEBA_NPEAVMStatus@@@Z
?isDone@MItInstancer@@QEBA_NXZ
?isDone@MItMeshEdge@@QEAA_NPEAVMStatus@@@Z
?isDone@MItMeshFaceVertex@@QEAA_NPEAVMStatus@@@Z
?isDone@MItMeshPolygon@@QEAA_NPEAVMStatus@@@Z
?isDone@MItMeshVertex@@QEAA_NPEAVMStatus@@@Z
?isDone@MItSelectionList@@QEAA_NPEAVMStatus@@@Z
?isDone@MItSubdEdge@@QEAA_NPEAVMStatus@@@Z
?isDone@MItSubdFace@@QEAA_NPEAVMStatus@@@Z
?isDone@MItSubdVertex@@QEAA_NPEAVMStatus@@@Z
?isDone@MItSurfaceCV@@QEBA_NPEAVMStatus@@@Z
?isDone@MPxGeometryIterator@@UEBA_NXZ
?isDone@MPyMPxGeometryIterator_Director@@UEBA_NXZ
?isDouble@MString@@QEBA_NXZ
?isDynamic@MFnAttribute@@QEBA_NPEAVMStatus@@@Z
?isDynamic@MPlug@@QEBA_NPEAVMStatus@@@Z
?isEdgeSmooth@MFnMesh@@QEBA_NHPEAVMStatus@@@Z
?isEdit@MArgParser@@QEBA_NPEAVMStatus@@@Z
?isElement@MPlug@@QEBA_NPEAVMStatus@@@Z
?isEmpty@MFnComponent@@QEBA_NPEAVMStatus@@@Z
?isEmpty@MSelectionList@@QEBA_NPEAVMStatus@@@Z
?isEmpty@MURI@@QEBA_NXZ
?isEqual@MFnComponent@@QEBA_NAEAVMObject@@PEAVMStatus@@@Z
?isEquivalent@MEulerRotation@@QEBA_NAEBV1@N@Z
?isEquivalent@MFloatMatrix@@QEBA_NAEBV1@M@Z
?isEquivalent@MFloatPoint@@QEBA_NAEBV1@M@Z
?isEquivalent@MFloatVector@@QEBA_NAEBV1@M@Z
?isEquivalent@MMatrix@@QEBA_NAEBV1@N@Z
?isEquivalent@MPoint@@QEBA_NAEBV1@N@Z
?isEquivalent@MPxTransformationMatrix@@UEBA_NAEBV1@N@Z
?isEquivalent@MPxTransformationMatrix@@UEBA_NAEBVMMatrix@@N@Z
?isEquivalent@MPxTransformationMatrix@@UEBA_NAEBVMTransformationMatrix@@N@Z
?isEquivalent@MQuaternion@@QEBA_NAEBV1@N@Z
?isEquivalent@MTransformationMatrix@@QEBA_NAEBV1@N@Z
?isEquivalent@MVector@@QEBA_NAEBV1@N@Z
?isExportEditsFile@MFnReference@@QEBA_NPEAVMStatus@@@Z
?isExtension@MFnAttribute@@QEBA_NPEAVMStatus@@@Z
?isFailed@MEdit@@QEBA_NPEAVMStatus@@@Z
?isFlagAllocated@THapiNodeFlags@@SA_NI@Z
?isFlagSet@MArgParser@@QEBA_NPEBDPEAVMStatus@@@Z
?isFlagSet@MFnDependencyNode@@QEBA_NIPEAVMStatus@@@Z
?isFlipNorm@MFnNurbsSurface@@QEBA_NIPEAVMStatus@@@Z
?isFloat@MString@@QEBA_NXZ
?isFoldedOnBispan@MFnNurbsSurface@@QEBA_NXZ
?isFreeToChange@MPlug@@QEBA?AW4FreeToChangeState@1@_N0PEAVMStatus@@@Z
?isFromReferencedFile@MFnDependencyNode@@QEBA_NPEAVMStatus@@@Z
?isFromReferencedFile@MPlug@@QEBA_NPEAVMStatus@@@Z
?isGeneric@MDataHandle@@QEBA_NAEA_N0@Z
?isHidden@MFnAttribute@@QEBA_NPEAVMStatus@@@Z
?isHistoricallyInteresting@MPxNode@@2VMObject@@A
?isHistoryOn@MPxCommand@@QEBA_NXZ
?isHoled@MItMeshPolygon@@QEAA_NPEAVMStatus@@@Z
?isIgnoredWhenRendering@MPlug@@QEBA_NPEAVMStatus@@@Z
?isImportingFile@MFileIO@@SA_NXZ
?isInScript@TpluginObject@@QEAA_NXZ
?isIndeterminant@MFnAttribute@@QEBA_NPEAVMStatus@@@Z
?isInstanceable@MFnDagNode@@QEBA_NPEAVMStatus@@@Z
?isInstanced@MDagPath@@QEBA_NPEAVMStatus@@@Z
?isInstanced@MFnDagNode@@QEBA_N_NPEAVMStatus@@@Z
?isInstanced@MItDag@@QEBA_N_NPEAVMStatus@@@Z
?isInstancedAttribute@MFnDagNode@@QEBA_NAEBVMObject@@PEAVMStatus@@@Z
?isInt@MString@@QEBA_NXZ
?isIntermediateObject@MFnDagNode@@QEBA_NPEAVMStatus@@@Z
?isInterruptRequested@MComputation@@QEAA_NXZ
?isKeyable@MFnAttribute@@QEBA_NPEAVMStatus@@@Z
?isKeyable@MPlug@@QEBA_NPEAVMStatus@@@Z
?isKnotU@MFnNurbsSurface@@QEBA_NNPEAVMStatus@@@Z
?isKnotV@MFnNurbsSurface@@QEBA_NNPEAVMStatus@@@Z
?isLamina@MItMeshPolygon@@QEAA_NPEAVMStatus@@@Z
?isLayer@MPxObjectSet@@2VMObject@@A
?isLayerActive@MFnCameraSet@@QEAA_NIPEAVMStatus@@@Z
?isLazyLoad@Tplugin@@SA_NXZ
?isLimited@MFnTransform@@QEBA_NW4LimitType@1@PEAVMStatus@@@Z
?isLimited@MPxTransform@@QEBA_NW4LimitType@MFnTransform@@PEAVMStatus@@@Z
?isLoadOnStartup@TpluginPref@@QEBA_NXZ
?isLoaded@MFnReference@@QEBA_NPEAVMStatus@@@Z
?isLoaded@Tplugin@@QEAA_NXZ
?isLocked@MFnDependencyNode@@QEBA_NPEAVMStatus@@@Z
?isLocked@MFnReference@@QEBA_NPEAVMStatus@@@Z
?isLocked@MPlug@@QEBA_NPEAVMStatus@@@Z
?isMember@MFnSet@@QEBA_NAEBVMDagPath@@AEBVMObject@@PEAVMStatus@@@Z
?isMember@MFnSet@@QEBA_NAEBVMObject@@PEAVMStatus@@@Z
?isMember@MFnSet@@QEBA_NAEBVMPlug@@PEAVMStatus@@@Z
?isMotionBlur@MFnCamera@@QEBA_NPEAVMStatus@@@Z
?isNetworked@MPlug@@QEBA_NPEAVMStatus@@@Z
?isNewAttribute@MFnDependencyNode@@QEBA_NAEBVMObject@@PEAVMStatus@@@Z
?isNewingFile@MFileIO@@SA_NXZ
?isNodeCreated@MFnScPlugin@@SA_NH@Z
?isNodeDeleted@MFnScPlugin@@SA_NH@Z
?isNodeRegistered@MFnPlugin@@SA_NAEBVMString@@@Z
?isNonAffineMatricesEnabled@MPxTransform@@SA_NPEAVMStatus@@@Z
?isNormal@MDGContext@@QEBA_NPEAVMStatus@@@Z
?isNormalLocked@MFnMesh@@QEBA_NHPEAVMStatus@@@Z
?isNull@MAutoCLEvent@@QEBA_NXZ
?isNull@MAutoCLKernel@@QEBA_NXZ
?isNull@MAutoCLMem@@QEBA_NXZ
?isNull@MPlug@@QEBA_NPEAVMStatus@@@Z
?isNumeric@MDataHandle@@QEBA_NXZ
?isOkToUnload@Tplugin@@QEAA_NXZ
?isOkToUnload@TpluginCmd@@UEAA_NXZ
?isOkToUnload@TpluginNode@@UEAA_NXZ
?isOkToUnload@TpluginObject@@UEAA_NXZ
?isOkayForUndo@THcommandObject@@UEBA_NXZ
?isOldPluginWarningEnabled@Tplugin@@SA_NXZ
?isOpeningFile@MFileIO@@SA_NXZ
?isOrtho@MFnCamera@@QEBA_NPEAVMStatus@@@Z
?isParallel@MFloatVector@@QEBA_NAEBV1@M@Z
?isParallel@MVector@@QEBA_NAEBV1@N@Z
?isParallelView@MFnCamera@@QEBA_NPEAVMStatus@@@Z
?isParamOnCurve@MFnNurbsCurve@@QEBA_NNPEAVMStatus@@@Z
?isParamOnSurface@MFnNurbsSurface@@QEBA_NNNPEAVMStatus@@@Z
?isParentOf@MFnDagNode@@QEBA_NAEBVMObject@@PEAVMStatus@@@Z
?isPassiveOutput@MPxNode@@UEBA_NAEBVMPlug@@@Z
?isPassiveOutput@THdependNode@@UEBA_NAEBVTplug@@@Z
?isPassiveOutput@THsurfaceShape@@UEBA_NAEBVTplug@@@Z
?isPlanar@MFnNurbsCurve@@QEBA_NPEAVMVector@@PEAVMStatus@@@Z
?isPlanar@MItMeshPolygon@@QEAA_NPEAVMStatus@@@Z
?isPointInTrimmedRegion@MFnNurbsSurface@@QEAA_NNNPEAVMStatus@@@Z
?isPointOnCurve@MFnNurbsCurve@@QEBA_NAEBVMPoint@@NW4Space@MSpace@@PEAVMStatus@@@Z
?isPointOnSurface@MFnNurbsSurface@@QEBA_NAEBVMPoint@@NW4Space@MSpace@@PEAVMStatus@@@Z
?isPolygonConvex@MFnMesh@@QEBA_NHPEAVMStatus@@@Z
?isProcedural@MPlug@@QEBA_NPEAVMStatus@@@Z
?isPruningOnFilter@MItDependencyGraph@@QEAA_NPEAVMStatus@@@Z
?isQuery@MArgParser@@QEBA_NPEAVMStatus@@@Z
?isRGBA@MImage@@QEBA_NXZ
?isRamp@THdependNode@@SA_NAEBVTattribute@@@Z
?isReadable@MFnAttribute@@QEBA_NPEAVMStatus@@@Z
?isReadingFile@MFileIO@@SA_NXZ
?isRedoing@MGlobal@@SA_NXZ
?isReferencingFile@MFileIO@@SA_NXZ
?isRenderPartition@MFnPartition@@QEBA_NPEAVMStatus@@@Z
?isRenderSource@MFnAttribute@@QEBA_NPEAVMStatus@@@Z
?isRenderable@MPxSurfaceShape@@QEBA_NXZ
?isReverse@MItEdits@@QEBA_NPEAVMStatus@@@Z
?isRightHandedTangent@MFnMesh@@QEBA_NHPEBVMString@@PEAVMStatus@@@Z
?isRowDone@MItSurfaceCV@@QEBA_NPEAVMStatus@@@Z
?isSavingReference@MFileIO@@SA_NXZ
?isSelected@MGlobal@@SA_NAEAVMObject@@PEAVMStatus@@@Z
?isSet@MFileObject@@QEBA_NXZ
?isShared@MFnDependencyNode@@QEBA_NPEAVMStatus@@@Z
?isSharp@MItSubdEdge@@QEAA_NPEAVMStatus@@@Z
?isShort@MString@@QEBA_NXZ
?isSignalEvent@MProfiler@@SA_NH@Z
?isSingular@MMatrix@@QEBA_NXZ
?isSmooth@MItMeshEdge@@QEBA_NPEAVMStatus@@@Z
?isSource@MPlug@@QEBA_NPEAVMStatus@@@Z
?isStarlike@MItMeshPolygon@@QEAA_NPEAVMStatus@@@Z
?isStereo@MFnCamera@@QEBA_NPEAVMStatus@@@Z
?isStorable@MFnAttribute@@QEBA_NPEAVMStatus@@@Z
?isTemplated@MDagPath@@QEBA_NPEAVMStatus@@@Z
?isTemplated@MPxSurfaceShape@@2VMObject@@A
?isTemplated@MPxTransform@@2VMObject@@A
?isTopLevel@MEdit@@QEBA_NPEAVMStatus@@@Z
?isTopLevel@MFnAssembly@@QEBA_NPEAVMStatus@@@Z
?isTrackingEdits@MFnDependencyNode@@QEBA_NPEAVMStatus@@@Z
?isTransformation@MFnMatrixData@@QEBA_NPEAVMStatus@@@Z
?isTraversalDepthFirst@MItDependencyGraph@@QEAA_NPEAVMStatus@@@Z
?isTraversingOverWorldSpaceDependents@MItDependencyGraph@@QEAA_NPEAVMStatus@@@Z
?isTrimmedSurface@MFnNurbsSurface@@QEBA_NPEAVMStatus@@@Z
?isUVSetPerInstance@MFnMesh@@QEBA_NAEBVMString@@PEAVMStatus@@@Z
?isUndoable@MPxCommand@@UEBA_NXZ
?isUndoable@MPxPolyTweakUVCommand@@EEBA_NXZ
?isUndoable@MPyMPxCommand_Director@@UEBA_NXZ
?isUndoing@MGlobal@@SA_NXZ
?isUniform@MFnNurbsSurface@@QEBA_NPEAVMStatus@@@Z
?isUnsigned@MString@@QEBA_NXZ
?isUsedAsColor@MFnAttribute@@QEBA_NPEAVMStatus@@@Z
?isUsedAsFilename@MFnAttribute@@QEBA_NPEAVMStatus@@@Z
?isUserEvent@MUserEventMessage@@SA_NAEBVMString@@@Z
?isUserNamed@Tplugin@@QEBA_NXZ
?isUsingNewAPI@Tplugin@@QEBA_NXZ
?isValid@MDagPath@@QEBA_NPEAVMStatus@@@Z
?isValid@MItSubdEdge@@QEBA_NPEAVMStatus@@@Z
?isValid@MItSubdFace@@QEBA_NPEAVMStatus@@@Z
?isValid@MItSubdVertex@@QEBA_NPEAVMStatus@@@Z
?isValid@MObjectHandle@@QEBA_NXZ
?isValid@MPxCacheFormat@@UEAA?AVMStatus@@XZ
?isValid@MURI@@QEBA_NXZ
?isValid@TapiEnum@@SA_NW4BoundaryRule@MMeshSmoothOptions@@@Z
?isValid@TapiEnum@@SA_NW4Form@MFnNurbsCurve@@@Z
?isValid@TapiEnum@@SA_NW4LockDAGEvent@MLockMessage@@@Z
?isValid@TapiEnum@@SA_NW4LockEvent@MLockMessage@@@Z
?isValid@TapiEnum@@SA_NW4LockPlugEvent@MLockMessage@@@Z
?isValid@TapiEnum@@SA_NW4MArgType@MSyntax@@@Z
?isValid@TapiEnum@@SA_NW4MObjectFormat@MSyntax@@@Z
?isValid@TapiEnum@@SA_NW4RotationOrder@MTransformationMatrix@@@Z
?isValid@TapiEnum@@SA_NW4Space@MSpace@@@Z
?isValid@TapiEnum@@SA_NW4SubdivisionType@MMeshSmoothOptions@@@Z
?isValid@TapiEnum@@SA_NW4Type@MFnData@@@Z
?isValid@TapiEnum@@SA_NW4Type@MFnNumericData@@@Z
?isValid@TapiEnum@@SA_NW4Type@MFnUnitAttribute@@@Z
?isValid@TapiEnum@@SA_NW4Unit@MAngle@@@Z
?isValid@TapiEnum@@SA_NW4Unit@MDistance@@@Z
?isValid@TapiEnum@@SA_NW4Unit@MTime@@@Z
?isValidURI@MURI@@SA_NAEBVMString@@@Z
?isVerticalLock@MFnCamera@@QEBA_NPEAVMStatus@@@Z
?isVisible@MDagPath@@QEBA_NPEAVMStatus@@@Z
?isWorldSpace@MFnAttribute@@QEBA_NPEAVMStatus@@@Z
?isWritable@MFnAttribute@@QEBA_NPEAVMStatus@@@Z
?isWriteRequires@Tplugin@@QEBA_NXZ
?isWritingFile@MFileIO@@SA_NXZ
?isYAxisUp@MGlobal@@SA_NPEAVMStatus@@@Z
?isZAxisUp@MGlobal@@SA_NPEAVMStatus@@@Z
?isZero@MEulerRotation@@QEBA_NN@Z
?item@MItDag@@QEAA?AVMObject@@PEAVMStatus@@@Z
?item@MItDependencyNodes@@QEBA?AVMObject@@PEAVMStatus@@@Z
?itemType@MItSelectionList@@QEAA?AW4selItemType@1@PEAVMStatus@@@Z
?iterator@MEvaluationNode@@QEBA?AVMEvaluationNodeIterator@@PEAVMStatus@@@Z
?iterator@MPxGeometryData@@UEAAPEAVMPxGeometryIterator@@AEAVMObjectArray@@AEAVMObject@@_N@Z
?iterator@MPxGeometryData@@UEBAPEAVMPxGeometryIterator@@AEAVMObjectArray@@AEAVMObject@@_N2@Z
?iterator@TanimDeltaMsgSwitch@@QEAA?AVIterator@TanimCallbackTable@@XZ
?iteratorCount@MPxGeometryIterator@@UEBAHXZ
?iteratorCount@MPyMPxGeometryIterator_Director@@UEBAHXZ
?ithFullName@MFileObject@@QEAA?AVMString@@I@Z
?ithPath@MFileObject@@QEAA?AVMString@@I@Z
?jumpToArrayElement@MArrayDataHandle@@QEAA?AVMStatus@@I@Z
?jumpToElement@MArrayDataHandle@@QEAA?AVMStatus@@I@Z
?kCAT4@MIffTag@@2V1@B
?kCAT8@MIffTag@@2V1@B
?kCAT@MIffTag@@2V1@B
?kDefaultDataLocation@MFnPlugin@@2VMString@@B
?kFOR4@MIffTag@@2V1@B
?kFOR8@MIffTag@@2V1@B
?kFORM@MIffTag@@2V1@B
?kInvalidArgIndex@MArgList@@2IB
?kLIS4@MIffTag@@2V1@B
?kLIS8@MIffTag@@2V1@B
?kLIST@MIffTag@@2V1@B
?kOpaqueBlack@MColor@@2V1@B
?kPRO4@MIffTag@@2V1@B
?kPRO8@MIffTag@@2V1@B
?kPROP@MIffTag@@2V1@B
?keepBorderEdge@MMeshSmoothOptions@@QEBA_NPEAVMStatus@@@Z
?keepHardEdge@MMeshSmoothOptions@@QEBA_NPEAVMStatus@@@Z
?key@Iterator@TanimCallbackTable@@QEAA_KXZ
?keyCount@TanimCallbackTable@@QEBAIAEB_K@Z
?knot@MFnNurbsCurve@@QEBANIPEAVMStatus@@@Z
?knotInU@MFnNurbsSurface@@QEBANIPEAVMStatus@@@Z
?knotInV@MFnNurbsSurface@@QEBANIPEAVMStatus@@@Z
?kwlist@?1??con3@?$MPyMArray_Type_Base@VMMatrixArray@@VMMatrix@@@@SA?AW4ConStatus@2@PEAV?$MPyObject@VMMatrixArray@@@@PEAU_object@@1@Z@4PAPEADA
?last@TapiMAttributePatternArray@@QEAAAEAVMAttributePattern@@XZ
?last@TapiMDagPathArray@@QEAAAEAVMDagPath@@XZ
?last@TapiMObjectArray@@QEAAAEAVMObject@@XZ
?last@TapiMPlugArray@@QEAAAEAVMPlug@@XZ
?last@TapiMTimeArray@@QEAAAEAVMTime@@XZ
?latestMayaFileVersion@MFileIO@@SAHXZ
?lattice@MFnLatticeData@@QEAA?AVMObject@@PEAVMStatus@@@Z
?layerOverrideColor@MPxTransform@@2VMObject@@A
?layerRenderable@MPxTransform@@2VMObject@@A
?legalConnection@MPxNode@@UEBA?AVMStatus@@AEBVMPlug@@0_NAEA_N@Z
?legalConnection@THdependNode@@UEBA_NAEBVTplug@@0_N@Z
?legalConnection@THsurfaceShape@@UEBA_NAEBVTplug@@0_N@Z
?legalDisconnection@MPxNode@@UEBA?AVMStatus@@AEBVMPlug@@0_NAEA_N@Z
?legalDisconnection@THdependNode@@UEBA_NAEBVTplug@@0_N@Z
?legalDisconnection@THsurfaceShape@@UEBA_NAEBVTplug@@0_N@Z
?length@MArgList@@QEBAIPEAVMStatus@@@Z
?length@MAttributePatternArray@@QEBAIXZ
?length@MAttributeSpecArray@@QEBAIXZ
?length@MCallbackIdArray@@QEBAIXZ
?length@MColorArray@@QEBAIXZ
?length@MDagPath@@QEBAIPEAVMStatus@@@Z
?length@MDagPathArray@@QEBAIXZ
?length@MDoubleArray@@QEBAIXZ
?length@MExternalContentInfoTable@@QEBAIXZ
?length@MExternalContentLocationTable@@QEBAIXZ
?length@MFloatArray@@QEBAIXZ
?length@MFloatPointArray@@QEBAIXZ
?length@MFloatVector@@QEBAMXZ
?length@MFloatVectorArray@@QEBAIXZ
?length@MFnComponentListData@@QEBAIPEAVMStatus@@@Z
?length@MFnDoubleArrayData@@QEBAIPEAVMStatus@@@Z
?length@MFnFloatArrayData@@QEBAIPEAVMStatus@@@Z
?length@MFnIntArrayData@@QEBAIPEAVMStatus@@@Z
?length@MFnMatrixArrayData@@QEBAIPEAVMStatus@@@Z
?length@MFnNurbsCurve@@QEBANNPEAVMStatus@@@Z
?length@MFnPointArrayData@@QEBAIPEAVMStatus@@@Z
?length@MFnStringArrayData@@QEBAIPEAVMStatus@@@Z
?length@MFnUInt64ArrayData@@QEBAIPEAVMStatus@@@Z
?length@MFnVectorArrayData@@QEBAIPEAVMStatus@@@Z
?length@MInt64Array@@QEBAIXZ
?length@MIntArray@@QEBAIXZ
?length@MMatrixArray@@QEBAIXZ
?length@MObjectArray@@QEBAIXZ
?length@MPlugArray@@QEBAIXZ
?length@MPointArray@@QEBAIXZ
?length@MSelectionList@@QEBAIPEAVMStatus@@@Z
?length@MString@@QEBAIXZ
?length@MStringArray@@QEBAIXZ
?length@MTimeArray@@QEBAIXZ
?length@MTrimBoundaryArray@@QEBAIXZ
?length@MUint64Array@@QEBAIXZ
?length@MUintArray@@QEBAIXZ
?length@MVector@@QEBANXZ
?length@MVectorArray@@QEBAIXZ
?lensSqueezeRatio@MFnCamera@@QEBANPEAVMStatus@@@Z
?level@MFnSubdNames@@SAH_K@Z
?level@MItSubdEdge@@QEBAHPEAVMStatus@@@Z
?level@MItSubdFace@@QEBAIPEAVMStatus@@@Z
?level@MItSubdVertex@@QEBAHPEAVMStatus@@@Z
?levelFullySubdivideTo@MFnSubd@@QEAAXHPEAVMStatus@@@Z
?levelMaxAllowed@MFnSubd@@QEBAIPEAVMStatus@@@Z
?levelMaxCurrent@MFnSubd@@QEBAIPEAVMStatus@@@Z
?levelOneFaceAsLong@MFnSubdNames@@SAJ_K@Z
?levelOneFaceId@MFnSubdNames@@SA_K_K@Z
?levelOneFaceIdFromIndex@MFnSubdNames@@SA_KI@Z
?levelOneFaceIdFromLong@MFnSubdNames@@SA_KJ@Z
?levelOneFaceIndexFromId@MFnSubdNames@@SAI_K@Z
?lightAmbient@MFnLight@@QEBA_NPEAVMStatus@@@Z
?lightDiffuse@MFnLight@@QEBA_NPEAVMStatus@@@Z
?lightDirection@MFnLight@@QEBA?AVMFloatVector@@HW4Space@MSpace@@PEAVMStatus@@@Z
?lightDirection@MFnLight@@QEBA?AVMFloatVector@@PEAVMStatus@@@Z
?lightIntensity@MFnLight@@QEBA?AVMColor@@PEAVMStatus@@@Z
?lightShape@MFnVolumeLight@@QEBA?AW4MLightShape@1@PEAVMStatus@@@Z
?lightSpecular@MFnLight@@QEBA_NPEAVMStatus@@@Z
?limitValue@MFnTransform@@QEBANW4LimitType@1@PEAVMStatus@@@Z
?limitValue@MPxTransform@@QEBANW4LimitType@MFnTransform@@PEAVMStatus@@@Z
?linear@TapiCast@@SA?AVMDistance@@AEBVTlinear@@@Z
?linear@TapiPack@@SA?AVMDistance@@AEBVTlinear@@@Z
?linear@TapiPack@@SA?AVTlinear@@AEBVMDistance@@@Z
?linkExtensionAttributeToPlugin@MDGModifier@@QEAA?AVMStatus@@AEBVMObject@@0@Z
?list@MFnArrayAttrsData@@QEBA?AVMStringArray@@PEAVMStatus@@@Z
?load@MPxImageFile@@UEAA?AVMStatus@@AEAVMImage@@I@Z
?load@Tplugin@@QEAAHAEBVTstring@@PEAV2@@Z
?load@Tplugin@@QEAAHPEAVTstring@@@Z
?loadDotNetLoader@Tplugin@@SAHXZ
?loadDotNetPlugin@Tplugin@@QEAAHVTstring@@AEAV2@@Z
?loadImageMap@MPxImagePlane@@UEAA?AVMStatus@@AEBVMString@@HAEAVMImage@@@Z
?loadPath@MFnPlugin@@QEBA?AVMString@@PEAVMStatus@@@Z
?loadReference@MFileIO@@SA?AVMString@@AEBV2@PEAVMStatus@@@Z
?loadReferenceByNode@MFileIO@@SA?AVMString@@AEAVMObject@@PEAVMStatus@@@Z
?loadReferenceByNode@MFileIO@@SA?AVMString@@AEBV2@PEAVMStatus@@@Z
?loadScript@Tplugin@@QEAAHAEBVTstring@@PEAV2@@Z
?localShapeInAttr@MPxComponentShape@@UEBA?AVMObject@@XZ
?localShapeInAttr@MPxSurfaceShape@@UEBA?AVMObject@@XZ
?localShapeInAttr@THsurfaceShape@@UEBAPEBVTattribute@@XZ
?localShapeOutAttr@MPxSurfaceShape@@UEBA?AVMObject@@XZ
?localShapeOutAttr@THsurfaceShape@@UEBAPEBVTattribute@@XZ
?lock@MMutexLock@@QEAAXXZ
?lock@MSpinLock@@QEAAXXZ
?lockFaceVertexNormals@MFnMesh@@QEAA?AVMStatus@@AEAVMIntArray@@0@Z
?lockVertexNormals@MFnMesh@@QEAA?AVMStatus@@AEAVMIntArray@@@Z
?lockedToCamera@MPxImagePlane@@2VMObject@@A
?lodVisibility@MPxTransform@@2VMObject@@A
?log@MQuaternion@@QEBA?AV1@XZ
?logIt@TapiErrorLogEntry@@SAXW4Terror@TapiError@@PEBD1@Z
?logicalIndex@MPlug@@QEBAIPEAVMStatus@@@Z
?mControlPoints@MPxSurfaceShape@@2VMObject@@A
?mControlValueX@MPxSurfaceShape@@2VMObject@@A
?mControlValueY@MPxSurfaceShape@@2VMObject@@A
?mControlValueZ@MPxSurfaceShape@@2VMObject@@A
?mHasHistoryOnCreate@MPxSurfaceShape@@2VMObject@@A
?makeAddRemoveAttrEdit@MItEdits@@CA?AVMAddRemoveAttrEdit@@PEBXH_N@Z
?makeComponentsActive@THsurfaceShape@@UEAAXAEBVTcomponentList@@_N1@Z
?makeConnectDisconnectAttrEdit@MItEdits@@CA?AVMConnectDisconnectAttrEdit@@PEBXH_N@Z
?makeDirectory@MCommonSystemUtils@@SA?AVMStatus@@AEBVMString@@@Z
?makeEdit@MItEdits@@CA?AVMEdit@@PEBXH@Z
?makeFcurveEdit@MItEdits@@CA?AVMFcurveEdit@@PEBX_N@Z
?makeFlagMultiUse@MSyntax@@QEAA?AVMStatus@@PEBD@Z
?makeFlagQueryWithFullArgs@MSyntax@@QEAA?AVMStatus@@PEBD_N@Z
?makeMultipleEndKnots@MFnNurbsCurve@@QEAA?AVMStatus@@XZ
?makeNamepathAbsolute@MNamespace@@SA?AVMString@@AEBV2@PEAVMStatus@@@Z
?makeParentingEdit@MItEdits@@CA?AVMParentingEdit@@PEBXH@Z
?makeSetEdit@MItEdits@@CA?AVMSetAttrEdit@@PEBXH@Z
?makeUniqueName@TpluginDBase@@SA?AVTstring@@AEBV2@@Z
?map@TapiEnum@@SA?AVTargType@@W4MArgType@MSyntax@@@Z
?map@TapiEnum@@SA?AW4Action@MMessage@@W4TmsgAction@@@Z
?map@TapiEnum@@SA?AW4BoundaryRule@MMeshSmoothOptions@@W4TpolySmoothBoundaryRule@TpolySmoothGeomOptions@@@Z
?map@TapiEnum@@SA?AW4CacheDataType@MCacheFormatDescription@@W4awCacheDataType@awCacheData@@@Z
?map@TapiEnum@@SA?AW4CacheFileDistribution@MCacheFormatDescription@@W4awCacheFileDistribution@awCacheFileAccessor@@@Z
?map@TapiEnum@@SA?AW4CacheSamplingType@MCacheFormatDescription@@W4awCacheSamplingType@awCacheChannel@@@Z
?map@TapiEnum@@SA?AW4ExportType@MFileIO@@W42Tscene@@@Z
?map@TapiEnum@@SA?AW4ExportType@Tscene@@W42MFileIO@@@Z
?map@TapiEnum@@SA?AW4FileAccessMode@MPxFileTranslator@@W4TglobalFileAccessMode@TglobalTranslator@@@Z
?map@TapiEnum@@SA?AW4FreeToChangeState@MPlug@@W4eFreeToChangeState@Tplug@@@Z
?map@TapiEnum@@SA?AW4ListAdjustment@MGlobal@@W4TlistAdjustment@@@Z
?map@TapiEnum@@SA?AW4LockDAGEvent@MLockMessage@@W4LockEventDAGType@TlockEventDAGMsg@@@Z
?map@TapiEnum@@SA?AW4LockEvent@MLockMessage@@W4LockEventOtherType@TlockEventOtherMsg@@@Z
?map@TapiEnum@@SA?AW4LockPlugEvent@MLockMessage@@W4PlugEvent@TlockEventPlugMsg@@@Z
?map@TapiEnum@@SA?AW4MFileResolveMethod@MFileObject@@W4TresolveMethod@TresolveFileObject@@@Z
?map@TapiEnum@@SA?AW4MInterpolation@MRampAttribute@@W4TinterpolationMethod@@@Z
?map@TapiEnum@@SA?AW4MProcType@MCommandMessage@@W4ProcType@TglobalTimer@@@Z
?map@TapiEnum@@SA?AW4MPxFileResolverMode@MPxFileResolver@@W4TfileResolverMode@TfileResolver@@@Z
?map@TapiEnum@@SA?AW4MatrixModifiedFlags@MDagMessage@@W4Tmodified@Ttransform@@@Z
?map@TapiEnum@@SA?AW4OpenSubdivCreaseMethod@MMeshSmoothOptions@@W4TpolyOsdCreaseMethod@TpolySmoothGeomOptions@@@Z
?map@TapiEnum@@SA?AW4OpenSubdivVertexBoundary@MMeshSmoothOptions@@W4TpolyOsdBoundary@TpolySmoothGeomOptions@@@Z
?map@TapiEnum@@SA?AW4ProcType@TglobalTimer@@W4MProcType@MCommandMessage@@@Z
?map@TapiEnum@@SA?AW4ProfilingColor@MProfiler@@W4kProfilingColors@Tprofiler@@@Z
?map@TapiEnum@@SA?AW4RotationOrder@MTransformationMatrix@@W4TrotOrder@@@Z
?map@TapiEnum@@SA?AW4SelectionMethod@MGlobal@@W4TselectionMethod@@@Z
?map@TapiEnum@@SA?AW4Space@MSpace@@W4TxformSpace@@@Z
?map@TapiEnum@@SA?AW4SubdivisionType@MMeshSmoothOptions@@W4TpolySmoothType@TpolySmoothGeomOptions@@@Z
?map@TapiEnum@@SA?AW4TangleUnitSystem@@W4Unit@MAngle@@@Z
?map@TapiEnum@@SA?AW4Taxis@@W4Axis@MVector@@@Z
?map@TapiEnum@@SA?AW4TfileResolverMode@TfileResolver@@W4MPxFileResolverMode@MPxFileResolver@@@Z
?map@TapiEnum@@SA?AW4TinterpolationMethod@@W4MInterpolation@MRampAttribute@@@Z
?map@TapiEnum@@SA?AW4TlistAdjustment@@W4ListAdjustment@MGlobal@@@Z
?map@TapiEnum@@SA?AW4Tmodified@Ttransform@@W4MatrixModifiedFlags@MDagMessage@@@Z
?map@TapiEnum@@SA?AW4TmsgAction@@W4Action@MMessage@@@Z
?map@TapiEnum@@SA?AW4TpolyOsdBoundary@TpolySmoothGeomOptions@@W4OpenSubdivVertexBoundary@MMeshSmoothOptions@@@Z
?map@TapiEnum@@SA?AW4TpolyOsdCreaseMethod@TpolySmoothGeomOptions@@W4OpenSubdivCreaseMethod@MMeshSmoothOptions@@@Z
?map@TapiEnum@@SA?AW4TpolySmoothBoundaryRule@TpolySmoothGeomOptions@@W4BoundaryRule@MMeshSmoothOptions@@@Z
?map@TapiEnum@@SA?AW4TpolySmoothType@TpolySmoothGeomOptions@@W4SubdivisionType@MMeshSmoothOptions@@@Z
?map@TapiEnum@@SA?AW4TresolveMethod@TresolveFileObject@@W4MFileResolveMethod@MFileObject@@@Z
?map@TapiEnum@@SA?AW4TrotOrder@@W4RotationOrder@MTransformationMatrix@@@Z
?map@TapiEnum@@SA?AW4TselectionMethod@@W4SelectionMethod@MGlobal@@@Z
?map@TapiEnum@@SA?AW4TtimeUnitSystem@@W4Unit@MTime@@@Z
?map@TapiEnum@@SA?AW4TunitSystem@Tunit@@W4Unit@MDistance@@@Z
?map@TapiEnum@@SA?AW4TxformSpace@@W4Space@MSpace@@@Z
?map@TapiEnum@@SA?AW4Unit@MAngle@@W4TangleUnitSystem@@@Z
?map@TapiEnum@@SA?AW4Unit@MDistance@@W4TunitSystem@Tunit@@@Z
?map@TapiEnum@@SA?AW4Unit@MTime@@W4TtimeUnitSystem@@@Z
?map@TapiEnum@@SA?AW4awCacheDataType@awCacheData@@W4CacheDataType@MCacheFormatDescription@@@Z
?map@TapiEnum@@SA?AW4awCacheFileDistribution@awCacheFileAccessor@@W4CacheFileDistribution@MCacheFormatDescription@@@Z
?map@TapiEnum@@SA?AW4awCacheSamplingType@awCacheChannel@@W4CacheSamplingType@MCacheFormatDescription@@@Z
?map@TapiEnum@@SA?AW4eFreeToChangeState@Tplug@@W4FreeToChangeState@MPlug@@@Z
?map@TapiEnum@@SA?AW4eSchedulingType@TdependNode@@W4SchedulingType@MPxNode@@@Z
?map@TapiEnum@@SA?AW4kProfilingColors@Tprofiler@@W4ProfilingColor@MProfiler@@@Z
?map@TapiEnum@@SAHW4MObjectFormat@MSyntax@@@Z
?map@TapiEnum@@SAIW4Form@MFnNurbsCurve@@@Z
?map@TapiEnum@@SAPEAVTmetaclass@@W4Type@MFnData@@@Z
?map@TapiEnum@@SAPEAVTmetaclass@@W4Type@MFnNumericData@@@Z
?map@TapiEnum@@SAPEAVTmetaclass@@W4Type@MFnUnitAttribute@@@Z
?mapCurveForm@TapiEnum@@SA?AW4Form@MFnNurbsCurve@@I@Z
?mapDataType@TapiEnum@@SA?AW4Type@MFnData@@PEAVTmetaclass@@@Z
?mapEulerRotationOrder@TapiEnum@@SA?AW4RotationOrder@MEulerRotation@@W4TrotOrder@@@Z
?mapEulerRotationOrder@TapiEnum@@SA?AW4TrotOrder@@W4RotationOrder@MEulerRotation@@@Z
?mapExcludeObjectDisplay@TapiEnum@@SA_KI@Z
?mapGeneric@TapiEnum@@SAPEAVTmetaclass@@W4Type@MFnNumericData@@@Z
?mapLimitType@TapiEnum@@SA?AW4LimitType@MFnTransform@@W4TlimitType@Ttransform@@@Z
?mapLimitType@TapiEnum@@SA?AW4TlimitType@Ttransform@@W4LimitType@MFnTransform@@@Z
?mapNumericType@TapiEnum@@SA?AW4Type@MFnNumericData@@PEAVTmetaclass@@@Z
?mapPointCachingMode@TapiEnum@@SA?AW4MVertexCachingMode@MPxSurfaceShape@@W4TpointCaching@TdagObject@@@Z
?mapUnitType@TapiEnum@@SA?AW4Type@MFnUnitAttribute@@PEAVTmetaclass@@@Z
?match@MPxComponentShape@@UEBA_NAEBVMSelectionMask@@AEBVMObjectArray@@@Z
?match@MPxSurfaceShape@@UEBA_NAEBVMSelectionMask@@AEBVMObjectArray@@@Z
?match@THsurfaceShape@@UEBA_NAEBVTselectionTypeSet@@PEBVTcomponentList@@@Z
?matchComponent@MPxSurfaceShape@@UEAA?AW4MatchResult@1@AEBVMSelectionList@@AEBVMAttributeSpecArray@@AEAV3@@Z
?matchComponent@THsurfaceShape@@UEAA?AW4TmatchResult@@PEBVTdagSelectionItem@@AEBVTattributeSpecArray@@AEAVTselectionList@@_N@Z
?matches@MEdit@@QEBA_NPEBVMPxEditData@@@Z
?matrix@MFnMatrixData@@QEBAAEBVMMatrix@@PEAVMStatus@@@Z
?matrix@MItInstancer@@QEAA?AVMMatrix@@XZ
?matrix@MPxGeometryData@@QEBAAEBVMMatrix@@XZ
?matrix@MPxGeometryData@@QEBA_NAEAVMMatrix@@@Z
?matrix@MPxSurfaceShape@@2VMObject@@A
?matrix@MPxTransform@@2VMObject@@A
?matrix@THxformMatrix@@UEBA?AVT4dDblMatrix@@XZ
?matrix@TapiCast@@SAAEAVMMatrix@@AEAVT4dDblMatrix@@@Z
?matrix@TapiCast@@SAAEAVT4dDblMatrix@@AEAVMMatrix@@@Z
?matrix@TapiCast@@SAAEBVMMatrix@@AEBVT4dDblMatrix@@@Z
?matrix@TapiCast@@SAAEBVT4dDblMatrix@@AEBVMMatrix@@@Z
?matrixArray@TapiCast@@SA?AVMMatrixArray@@AEAVT4dDblMatrixArray@@@Z
?matrixArray@TapiCast@@SAAEAVT4dDblMatrixArray@@AEAVMMatrixArray@@@Z
?matrixArray@TapiCast@@SAAEBVT4dDblMatrixArray@@AEBVMMatrixArray@@@Z
?matrixArray@TapiPack@@SAXAEAVMMatrixArray@@AEBVT4dDblMatrixArray@@@Z
?matrixArray@TapiPack@@SAXAEAVT4dDblMatrixArray@@AEBVMMatrixArray@@@Z
?matrixIsIdentity@MFnGeometryData@@QEBA_NPEAVMStatus@@@Z
?matrixIsNotIdentity@MFnGeometryData@@QEBA_NPEAVMStatus@@@Z
?matrixTypeIdFromXformId@MFnPlugin@@QEAA?AVMTypeId@@AEBV2@PEAVMStatus@@@Z
?max@MBoundingBox@@QEBA?AVMPoint@@XZ
?maxObjects@MSyntax@@QEBAIXZ
?maxPoints@MPxGeometryIterator@@QEBAHXZ
?maxRotLimit@MPxTransform@@2VMObject@@A
?maxRotLimitEnable@MPxTransform@@2VMObject@@A
?maxRotXLimit@MPxTransform@@2VMObject@@A
?maxRotXLimitEnable@MPxTransform@@2VMObject@@A
?maxRotYLimit@MPxTransform@@2VMObject@@A
?maxRotYLimitEnable@MPxTransform@@2VMObject@@A
?maxRotZLimit@MPxTransform@@2VMObject@@A
?maxRotZLimitEnable@MPxTransform@@2VMObject@@A
?maxScaleLimit@MPxTransform@@2VMObject@@A
?maxScaleLimitEnable@MPxTransform@@2VMObject@@A
?maxScaleXLimit@MPxTransform@@2VMObject@@A
?maxScaleXLimitEnable@MPxTransform@@2VMObject@@A
?maxScaleYLimit@MPxTransform@@2VMObject@@A
?maxScaleYLimitEnable@MPxTransform@@2VMObject@@A
?maxScaleZLimit@MPxTransform@@2VMObject@@A
?maxScaleZLimitEnable@MPxTransform@@2VMObject@@A
?maxShadingSamples@MPxImagePlane@@2VMObject@@A
?maxTransLimit@MPxTransform@@2VMObject@@A
?maxTransLimitEnable@MPxTransform@@2VMObject@@A
?maxTransXLimit@MPxTransform@@2VMObject@@A
?maxTransXLimitEnable@MPxTransform@@2VMObject@@A
?maxTransYLimit@MPxTransform@@2VMObject@@A
?maxTransYLimitEnable@MPxTransform@@2VMObject@@A
?maxTransZLimit@MPxTransform@@2VMObject@@A
?maxTransZLimitEnable@MPxTransform@@2VMObject@@A
?mayaState@MGlobal@@SA?AW4MMayaState@1@PEAVMStatus@@@Z
?mayaVersion@MGlobal@@SA?AVMString@@XZ
?memberAdded@MPxAssembly@@UEAAXAEAVMObject@@@Z
?memberRemoved@MPxAssembly@@UEAAXAEAVMObject@@@Z
?memberWireframeColor@MPxObjectSet@@2VMObject@@A
?merge@MSelectionList@@AEAAXPEBXW4MergeStrategy@1@@Z
?merge@MSelectionList@@QEAA?AVMStatus@@AEBV1@W4MergeStrategy@1@@Z
?merge@MSelectionList@@QEAA?AVMStatus@@AEBVMDagPath@@AEBVMObject@@W4MergeStrategy@1@@Z
?message@MPxNode@@2VMObject@@A
?messageOperation@THdependNode@@SAX_NPEBVTclient@@PEBVTserverMsg@@@Z
?metaNodeClassInfo@THsurfaceShape@@UEBAPEAVTmetaNodeClass@@XZ
?metadata@MFileIO@@SAPEBVAssociations@Data@adsk@@PEAVMStatus@@@Z
?metadata@MFnDependencyNode@@UEBAPEBVAssociations@Data@adsk@@PEAVMStatus@@@Z
?metadata@MFnMesh@@UEBAPEBVAssociations@Data@adsk@@PEAVMStatus@@@Z
?min@MBoundingBox@@QEBA?AVMPoint@@XZ
?minObjects@MSyntax@@QEBAIXZ
?minRotLimit@MPxTransform@@2VMObject@@A
?minRotLimitEnable@MPxTransform@@2VMObject@@A
?minRotXLimit@MPxTransform@@2VMObject@@A
?minRotXLimitEnable@MPxTransform@@2VMObject@@A
?minRotYLimit@MPxTransform@@2VMObject@@A
?minRotYLimitEnable@MPxTransform@@2VMObject@@A
?minRotZLimit@MPxTransform@@2VMObject@@A
?minRotZLimitEnable@MPxTransform@@2VMObject@@A
?minScaleLimit@MPxTransform@@2VMObject@@A
?minScaleLimitEnable@MPxTransform@@2VMObject@@A
?minScaleXLimit@MPxTransform@@2VMObject@@A
?minScaleXLimitEnable@MPxTransform@@2VMObject@@A
?minScaleYLimit@MPxTransform@@2VMObject@@A
?minScaleYLimitEnable@MPxTransform@@2VMObject@@A
?minScaleZLimit@MPxTransform@@2VMObject@@A
?minScaleZLimitEnable@MPxTransform@@2VMObject@@A
?minTransLimit@MPxTransform@@2VMObject@@A
?minTransLimitEnable@MPxTransform@@2VMObject@@A
?minTransXLimit@MPxTransform@@2VMObject@@A
?minTransXLimitEnable@MPxTransform@@2VMObject@@A
?minTransYLimit@MPxTransform@@2VMObject@@A
?minTransYLimitEnable@MPxTransform@@2VMObject@@A
?minTransZLimit@MPxTransform@@2VMObject@@A
?minTransZLimitEnable@MPxTransform@@2VMObject@@A
?miscSelectionMask@MGlobal@@SA?AVMSelectionMask@@PEAVMStatus@@@Z
?model@MFnDagNode@@QEBA?AVMObject@@PEAVMStatus@@@Z
?modelEditorCmds@Tplugin@@QEBAAEBVTpluginModelEditorCmdPtrs@@XZ
?modifier@TapiCast@@SAGAEAVTmodifier@@@Z
?moveNamespace@MNamespace@@SA?AVMStatus@@AEBVMString@@0_N@Z
?msgSwitch@TanimDeltaMsgSwitch@@SAAEAV1@XZ
?multiBuilder@TapiCast@@SAAEAVTmultiBuilder@@AEAVMArrayDataBuilder@@@Z
?mustCallValidateAndSet@MPxTransform@@SAXAEAVMObject@@@Z
?mustRenameToSave@MFileIO@@SA_NPEAVMStatus@@@Z
?mustRenameToSaveMsg@MFileIO@@SA?AVMString@@PEAVMStatus@@@Z
?name@MAttributePattern@@QEBA?AVMString@@PEAVMStatus@@@Z
?name@MAttributeSpec@@QEBA?BVMString@@XZ
?name@MFileObject@@QEBA?AVMString@@XZ
?name@MFnAttribute@@QEBA?AVMString@@PEAVMStatus@@@Z
?name@MFnDependencyNode@@QEBA?AVMString@@PEAVMStatus@@@Z
?name@MFnPlugin@@QEBA?AVMString@@PEAVMStatus@@@Z
?name@MPlug@@QEBA?AVMString@@PEAVMStatus@@@Z
?name@MPxAssembly@@UEBA?AVMString@@XZ
?name@MPxNode@@UEBA?AVMString@@XZ
?name@MPyMPxAttributePatternFactory_Director@@UEBA?AVMString@@XZ
?name@THattributePatternFactory@@UEBA?AVTstring@@XZ
?name@Tplugin@@QEBAAEBVTstring@@XZ
?name@TpluginCmd@@UEBAAEBVTstring@@XZ
?name@TpluginNode@@UEBAAEBVTstring@@XZ
?name@TpluginObject@@UEBAAEBVTstring@@XZ
?nameObject@TapiCast@@SAPEAVTnameObject@@AEBVMObject@@@Z
?namespaceExists@MNamespace@@SA_NAEBVMString@@PEAVMStatus@@@Z
?navigators@Tplugin@@QEBAAEBVTpluginNavigatorPtrs@@XZ
?nearClippingPlane@MFnCamera@@QEBANPEAVMStatus@@@Z
?nearFocusDistance@MFnCamera@@QEBANPEAVMStatus@@@Z
?negateIt@MQuaternion@@QEAAAEAV1@XZ
?newControlPointComponent@MPxSurfaceShape@@UEBA?AVMObject@@XZ
?newControlPointComponent@THsurfaceShape@@UEBAPEAVTcomponent@@XZ
?newFile@MFileIO@@SA?AVMStatus@@_N@Z
?newParallelRegion@MThreadPool@@SA?AVMStatus@@P6AXPEAXPEAVMThreadRootTask@@@Z0@Z
?newPlugValue@MDGModifier@@QEAA?AVMStatus@@AEBVMPlug@@AEAVMObject@@@Z
?newPlugValueBool@MDGModifier@@QEAA?AVMStatus@@AEBVMPlug@@_N@Z
?newPlugValueChar@MDGModifier@@QEAA?AVMStatus@@AEBVMPlug@@D@Z
?newPlugValueDouble@MDGModifier@@QEAA?AVMStatus@@AEBVMPlug@@N@Z
?newPlugValueFloat@MDGModifier@@QEAA?AVMStatus@@AEBVMPlug@@M@Z
?newPlugValueInt64@MDGModifier@@QEAA?AVMStatus@@AEBVMPlug@@_J@Z
?newPlugValueInt@MDGModifier@@QEAA?AVMStatus@@AEBVMPlug@@H@Z
?newPlugValueMAngle@MDGModifier@@QEAA?AVMStatus@@AEBVMPlug@@AEBVMAngle@@@Z
?newPlugValueMDistance@MDGModifier@@QEAA?AVMStatus@@AEBVMPlug@@AEBVMDistance@@@Z
?newPlugValueMTime@MDGModifier@@QEAA?AVMStatus@@AEBVMPlug@@AEBVMTime@@@Z
?newPlugValueShort@MDGModifier@@QEAA?AVMStatus@@AEBVMPlug@@F@Z
?newPlugValueString@MDGModifier@@QEAA?AVMStatus@@AEBVMPlug@@AEBVMString@@@Z
?newScriptObjectPointer@TapiScriptConverterCallbacks@@SAPEAU_object@@PEBDPEAX_N@Z
?newSyntax@MPxPolyTweakUVCommand@@SA?AVMSyntax@@XZ
?new_instance@?$MPyTypeObject@VMAttributeSpecArray@@@@SAPEAU_object@@PEAU_typeobject@@PEAU2@1@Z
?new_instance@?$MPyTypeObject@VMCallbackIdArray@@@@SAPEAU_object@@PEAU_typeobject@@PEAU2@1@Z
?new_instance@?$MPyTypeObject@VMColorArray@@@@SAPEAU_object@@PEAU_typeobject@@PEAU2@1@Z
?new_instance@?$MPyTypeObject@VMDagPathArray@@@@SAPEAU_object@@PEAU_typeobject@@PEAU2@1@Z
?new_instance@?$MPyTypeObject@VMDoubleArray@@@@SAPEAU_object@@PEAU_typeobject@@PEAU2@1@Z
?new_instance@?$MPyTypeObject@VMFloatArray@@@@SAPEAU_object@@PEAU_typeobject@@PEAU2@1@Z
?new_instance@?$MPyTypeObject@VMFloatPointArray@@@@SAPEAU_object@@PEAU_typeobject@@PEAU2@1@Z
?new_instance@?$MPyTypeObject@VMFloatVectorArray@@@@SAPEAU_object@@PEAU_typeobject@@PEAU2@1@Z
?new_instance@?$MPyTypeObject@VMInt64Array@@@@SAPEAU_object@@PEAU_typeobject@@PEAU2@1@Z
?new_instance@?$MPyTypeObject@VMIntArray@@@@SAPEAU_object@@PEAU_typeobject@@PEAU2@1@Z
?new_instance@?$MPyTypeObject@VMMatrixArray@@@@SAPEAU_object@@PEAU_typeobject@@PEAU2@1@Z
?new_instance@?$MPyTypeObject@VMObjectArray@@@@SAPEAU_object@@PEAU_typeobject@@PEAU2@1@Z
?new_instance@?$MPyTypeObject@VMPlugArray@@@@SAPEAU_object@@PEAU_typeobject@@PEAU2@1@Z
?new_instance@?$MPyTypeObject@VMPointArray@@@@SAPEAU_object@@PEAU_typeobject@@PEAU2@1@Z
?new_instance@?$MPyTypeObject@VMTimeArray@@@@SAPEAU_object@@PEAU_typeobject@@PEAU2@1@Z
?new_instance@?$MPyTypeObject@VMUint64Array@@@@SAPEAU_object@@PEAU_typeobject@@PEAU2@1@Z
?new_instance@?$MPyTypeObject@VMUintArray@@@@SAPEAU_object@@PEAU_typeobject@@PEAU2@1@Z
?new_instance@?$MPyTypeObject@VMVectorArray@@@@SAPEAU_object@@PEAU_typeobject@@PEAU2@1@Z
?next@Iterator@TanimCallbackTable@@QEAA_NXZ
?next@MArrayDataHandle@@QEAA?AVMStatus@@XZ
?next@MEvaluationNodeIterator@@QEAAXXZ
?next@MItCurveCV@@QEAA?AVMStatus@@XZ
?next@MItDag@@QEAA?AVMStatus@@XZ
?next@MItDependencyGraph@@QEAA?AVMStatus@@XZ
?next@MItDependencyNodes@@QEAA?AVMStatus@@XZ
?next@MItEdits@@QEAA?AVMStatus@@XZ
?next@MItGeometry@@QEAA?AVMStatus@@XZ
?next@MItInstancer@@QEAA?AVMStatus@@XZ
?next@MItMeshEdge@@QEAA?AVMStatus@@XZ
?next@MItMeshFaceVertex@@QEAA?AVMStatus@@XZ
?next@MItMeshPolygon@@QEAA?AVMStatus@@XZ
?next@MItMeshVertex@@QEAA?AVMStatus@@XZ
?next@MItSelectionList@@QEAA?AVMStatus@@XZ
?next@MItSubdEdge@@QEAA?AVMStatus@@XZ
?next@MItSubdFace@@QEAA?AVMStatus@@XZ
?next@MItSubdVertex@@QEAA?AVMStatus@@XZ
?next@MItSurfaceCV@@QEAA?AVMStatus@@XZ
?next@MPxGeometryIterator@@UEAAXXZ
?next@MPyMPxGeometryIterator_Director@@UEAAXXZ
?nextInstancer@MItInstancer@@QEAA?AVMStatus@@XZ
?nextParticle@MItInstancer@@QEAA?AVMStatus@@XZ
?nextRow@MItSurfaceCV@@QEAA?AVMStatus@@XZ
?node@MAddRemoveAttrEdit@@QEBA?AVMObject@@PEAVMStatus@@@Z
?node@MDagPath@@QEBA?AVMObject@@PEAVMStatus@@@Z
?node@MPlug@@QEBA?AVMObject@@PEAVMStatus@@@Z
?nodeBoundingBox@MPxSurfaceShape@@2VMObject@@A
?nodeBoundingBox@MPxTransform@@2VMObject@@A
?nodeBoundingBoxMax@MPxSurfaceShape@@2VMObject@@A
?nodeBoundingBoxMax@MPxTransform@@2VMObject@@A
?nodeBoundingBoxMaxX@MPxSurfaceShape@@2VMObject@@A
?nodeBoundingBoxMaxX@MPxTransform@@2VMObject@@A
?nodeBoundingBoxMaxY@MPxSurfaceShape@@2VMObject@@A
?nodeBoundingBoxMaxY@MPxTransform@@2VMObject@@A
?nodeBoundingBoxMaxZ@MPxSurfaceShape@@2VMObject@@A
?nodeBoundingBoxMaxZ@MPxTransform@@2VMObject@@A
?nodeBoundingBoxMin@MPxSurfaceShape@@2VMObject@@A
?nodeBoundingBoxMin@MPxTransform@@2VMObject@@A
?nodeBoundingBoxMinX@MPxSurfaceShape@@2VMObject@@A
?nodeBoundingBoxMinX@MPxTransform@@2VMObject@@A
?nodeBoundingBoxMinY@MPxSurfaceShape@@2VMObject@@A
?nodeBoundingBoxMinY@MPxTransform@@2VMObject@@A
?nodeBoundingBoxMinZ@MPxSurfaceShape@@2VMObject@@A
?nodeBoundingBoxMinZ@MPxTransform@@2VMObject@@A
?nodeBoundingBoxSize@MPxSurfaceShape@@2VMObject@@A
?nodeBoundingBoxSize@MPxTransform@@2VMObject@@A
?nodeBoundingBoxSizeX@MPxSurfaceShape@@2VMObject@@A
?nodeBoundingBoxSizeX@MPxTransform@@2VMObject@@A
?nodeBoundingBoxSizeY@MPxSurfaceShape@@2VMObject@@A
?nodeBoundingBoxSizeY@MPxTransform@@2VMObject@@A
?nodeBoundingBoxSizeZ@MPxSurfaceShape@@2VMObject@@A
?nodeBoundingBoxSizeZ@MPxTransform@@2VMObject@@A
?nodeCallbacks@MMessage@@SA?AVMStatus@@AEAVMObject@@AEAVMCallbackIdArray@@@Z
?nodeCallbacks@MMessage@@SA?AVMStatus@@AEAVMObject@@AEAVMIntArray@@@Z
?nodeName@MAddRemoveAttrEdit@@QEBA?AVMString@@PEAVMStatus@@@Z
?nodeType@TpluginNode@@QEBA?AW4Type@MPxNode@@XZ
?nodes@MFnReference@@QEBAXAEAVMObjectArray@@PEAVMStatus@@@Z
?nodes@Tplugin@@QEBAAEBVTpluginNodePtrs@@XZ
?nonBaseFaceEdges@MFnSubdNames@@SA?AVMStatus@@_KAEA_K111@Z
?nonBaseFaceVertices@MFnSubdNames@@SA?AVMStatus@@_KAEA_K111@Z
?normal@MFloatVector@@QEBA?AV1@XZ
?normal@MFnNurbsCurve@@QEBA?AVMVector@@NW4Space@MSpace@@PEAVMStatus@@@Z
?normal@MFnNurbsSurface@@QEBA?AVMVector@@NNW4Space@MSpace@@PEAVMStatus@@@Z
?normal@MItGeometry@@QEBA?AVMVector@@W4Space@MSpace@@PEAVMStatus@@@Z
?normal@MPlane@@QEBA?AVMVector@@XZ
?normal@MQuaternion@@QEBA?AV1@XZ
?normal@MVector@@QEBA?AV1@XZ
?normalId@MItMeshFaceVertex@@QEBAHPEAVMStatus@@@Z
?normalIndex@MItMeshPolygon@@QEBAIHPEAVMStatus@@@Z
?normalize@MFloatVector@@QEAA?AVMStatus@@XZ
?normalize@MVector@@QEAA?AVMStatus@@XZ
?normalizeIt@MQuaternion@@QEAAAEAV1@XZ
?normalize_slice@?$MPyMArray_Type_Base@VMAttributeSpecArray@@VMAttributeSpec@@@@SAXAEA_J0_J@Z
?normalize_slice@?$MPyMArray_Type_Base@VMCallbackIdArray@@_K@@SAXAEA_J0_J@Z
?normalize_slice@?$MPyMArray_Type_Base@VMColorArray@@VMColor@@@@SAXAEA_J0_J@Z
?normalize_slice@?$MPyMArray_Type_Base@VMDagPathArray@@VMDagPath@@@@SAXAEA_J0_J@Z
?normalize_slice@?$MPyMArray_Type_Base@VMDoubleArray@@N@@SAXAEA_J0_J@Z
?normalize_slice@?$MPyMArray_Type_Base@VMFloatArray@@M@@SAXAEA_J0_J@Z
?normalize_slice@?$MPyMArray_Type_Base@VMFloatPointArray@@VMFloatPoint@@@@SAXAEA_J0_J@Z
?normalize_slice@?$MPyMArray_Type_Base@VMFloatVectorArray@@VMFloatVector@@@@SAXAEA_J0_J@Z
?normalize_slice@?$MPyMArray_Type_Base@VMInt64Array@@_J@@SAXAEA_J0_J@Z
?normalize_slice@?$MPyMArray_Type_Base@VMIntArray@@H@@SAXAEA_J0_J@Z
?normalize_slice@?$MPyMArray_Type_Base@VMMatrixArray@@VMMatrix@@@@SAXAEA_J0_J@Z
?normalize_slice@?$MPyMArray_Type_Base@VMObjectArray@@VMObject@@@@SAXAEA_J0_J@Z
?normalize_slice@?$MPyMArray_Type_Base@VMPlugArray@@VMPlug@@@@SAXAEA_J0_J@Z
?normalize_slice@?$MPyMArray_Type_Base@VMPointArray@@VMPoint@@@@SAXAEA_J0_J@Z
?normalize_slice@?$MPyMArray_Type_Base@VMTimeArray@@VMTime@@@@SAXAEA_J0_J@Z
?normalize_slice@?$MPyMArray_Type_Base@VMUint64Array@@_K@@SAXAEA_J0_J@Z
?normalize_slice@?$MPyMArray_Type_Base@VMUintArray@@I@@SAXAEA_J0_J@Z
?normalize_slice@?$MPyMArray_Type_Base@VMVectorArray@@VMVector@@@@SAXAEA_J0_J@Z
?numBoundaries@MFnNurbsSurface@@QEAAIIPEAVMStatus@@@Z
?numCVs@MFnNurbsCurve@@QEBAHPEAVMStatus@@@Z
?numCVsInU@MFnNurbsSurface@@QEBAHPEAVMStatus@@@Z
?numCVsInV@MFnNurbsSurface@@QEBAHPEAVMStatus@@@Z
?numCallbacks@TanimDeltaMsgSwitch@@QEBAIXZ
?numChars@MString@@QEBAIXZ
?numChildren@MFnCompoundAttribute@@QEBAIPEAVMStatus@@@Z
?numChildren@MPlug@@QEBAIPEAVMStatus@@@Z
?numColorSets@MFnMesh@@QEBAHPEAVMStatus@@@Z
?numColors@MFnMesh@@QEBAHAEBVMString@@PEAVMStatus@@@Z
?numColors@MFnMesh@@QEBAHPEAVMStatus@@@Z
?numColors@MItMeshPolygon@@QEAA?AVMStatus@@AEAHPEBVMString@@@Z
?numConnectedChildren@MPlug@@QEBAIPEAVMStatus@@@Z
?numConnectedEdges@MItMeshEdge@@QEBA?AVMStatus@@AEAH@Z
?numConnectedEdges@MItMeshPolygon@@QEBA?AVMStatus@@AEAH@Z
?numConnectedEdges@MItMeshVertex@@QEBA?AVMStatus@@AEAH@Z
?numConnectedElements@MPlug@@QEBAIPEAVMStatus@@@Z
?numConnectedFaces@MItMeshEdge@@QEBA?AVMStatus@@AEAH@Z
?numConnectedFaces@MItMeshPolygon@@QEBA?AVMStatus@@AEAH@Z
?numConnectedFaces@MItMeshVertex@@QEBA?AVMStatus@@AEAH@Z
?numEdges@MFnMesh@@QEBAHPEAVMStatus@@@Z
?numEdges@MFnNurbsSurface@@QEAAIIIPEAVMStatus@@@Z
?numElements@MPlug@@QEBAIPEAVMStatus@@@Z
?numFaceVertices@MFnMesh@@QEBAHPEAVMStatus@@@Z
?numKnots@MFnNurbsCurve@@QEBAHPEAVMStatus@@@Z
?numKnotsInU@MFnNurbsSurface@@QEBAHPEAVMStatus@@@Z
?numKnotsInV@MFnNurbsSurface@@QEBAHPEAVMStatus@@@Z
?numNonZeroSpansInU@MFnNurbsSurface@@QEBAHPEAVMStatus@@@Z
?numNonZeroSpansInV@MFnNurbsSurface@@QEBAHPEAVMStatus@@@Z
?numNormals@MFnMesh@@QEBAHPEAVMStatus@@@Z
?numPatches@MFnNurbsSurface@@QEBAIPEAVMStatus@@@Z
?numPatchesInU@MFnNurbsSurface@@QEBAIPEAVMStatus@@@Z
?numPatchesInV@MFnNurbsSurface@@QEBAIPEAVMStatus@@@Z
?numPolygons@MFnMesh@@QEBAHPEAVMStatus@@@Z
?numRegions@MFnNurbsSurface@@QEBAIPEAVMStatus@@@Z
?numShadowSamples@MFnLight@@QEBAFPEAVMStatus@@@Z
?numSpans@MFnNurbsCurve@@QEBAHPEAVMStatus@@@Z
?numSpansInU@MFnNurbsSurface@@QEBAHPEAVMStatus@@@Z
?numSpansInV@MFnNurbsSurface@@QEBAHPEAVMStatus@@@Z
?numTriangles@MItMeshPolygon@@QEBA?AVMStatus@@AEAH@Z
?numURIResolvers@MPxFileResolver@@SAHXZ
?numUVSets@MFnMesh@@QEBAHPEAVMStatus@@@Z
?numUVs@MFnMesh@@QEBAHAEBVMString@@PEAVMStatus@@@Z
?numUVs@MFnMesh@@QEBAHPEAVMStatus@@@Z
?numUVs@MFnNurbsSurface@@QEBAHPEAVMStatus@@@Z
?numUVs@MItMeshVertex@@QEAA?AVMStatus@@AEAHPEBVMString@@@Z
?numVertices@MFnMesh@@QEBAHPEAVMStatus@@@Z
?numberOfFlagUses@MArgParser@@QEBAIPEBD@Z
?numberOfFlagsUsed@MArgParser@@QEBAIXZ
?numberOfImages@MImageFileInfo@@QEAAXI@Z
?numberOfImages@MImageFileInfo@@QEBAIXZ
?numberOfShapesDirectlyBelow@MDagPath@@QEBA?AVMStatus@@AEAI@Z
?numericType@MDataHandle@@QEBA?AW4Type@MFnNumericData@@XZ
?numericType@MFnNumericData@@QEAA?AW4Type@1@PEAVMStatus@@@Z
?numericTypeTable@TapiEnum@@0PEAVTtypeidToEnumTable@@EA
?nurbsCurve@TapiCast@@SAPEAVTnurbsCurve@@AEBVMObject@@@Z
?nurbsSurface@TapiCast@@SAPEAVTnurbsSurface@@AEBVMObject@@@Z
?object@MFnBase@@QEBA?AVMObject@@PEAVMStatus@@@Z
?object@MObjectHandle@@QEBA?AVMObject@@XZ
?objectArray@TapiCast@@SAAEAVTapiMObjectArray@@AEAVMObjectArray@@@Z
?objectArray@TapiCast@@SAAEBVTapiMObjectArray@@AEBVMObjectArray@@@Z
?objectChanged@MFnAttribute@@EEAA_NW4Type@MFn@@PEAVMStatus@@@Z
?objectChanged@MFnBase@@MEAA_NW4Type@MFn@@PEAVMStatus@@@Z
?objectChanged@MFnMesh@@MEAA_NW4Type@MFn@@PEAVMStatus@@@Z
?objectChanged@MFnNumericAttribute@@EEAA_NW4Type@MFn@@PEAVMStatus@@@Z
?objectChanged@MFnNurbsCurve@@MEAA_NW4Type@MFn@@PEAVMStatus@@@Z
?objectChanged@MFnNurbsSurface@@MEAA_NW4Type@MFn@@PEAVMStatus@@@Z
?objectChanged@MFnSubd@@MEAA_NW4Type@MFn@@PEAVMStatus@@@Z
?objectChanged@MFnTransform@@MEAA_NW4Type@MFn@@PEAVMStatus@@@Z
?objectColor@MFnDagNode@@QEBAHPEAVMStatus@@@Z
?objectColor@MPxSurfaceShape@@2VMObject@@A
?objectColor@MPxTransform@@2VMObject@@A
?objectColorIndex@MFnDagNode@@QEBAHPEAVMStatus@@@Z
?objectColorRGB@MFnDagNode@@QEBA?AVMColor@@PEAVMStatus@@@Z
?objectColorType@MFnDagNode@@QEBA?AW4MObjectColorType@1@PEAVMStatus@@@Z
?objectGroup@MFnGeometryData@@QEBAIIPEAVMStatus@@@Z
?objectGroupColor@MPxSurfaceShape@@2VMObject@@A
?objectGroupColor@MPxTransform@@2VMObject@@A
?objectGroupComponent@MFnDagNode@@QEAA?AVMStatus@@IAEAVMStringArray@@@Z
?objectGroupComponent@MFnGeometryData@@QEBA?AVMObject@@IPEAVMStatus@@@Z
?objectGroupCount@MFnGeometryData@@QEBAIPEAVMStatus@@@Z
?objectGroupId@MPxSurfaceShape@@2VMObject@@A
?objectGroupId@MPxTransform@@2VMObject@@A
?objectGroupType@MFnGeometryData@@QEBA?AW4Type@MFn@@IPEAVMStatus@@@Z
?objectGroups@MPxSurfaceShape@@2VMObject@@A
?objectGroups@MPxTransform@@2VMObject@@A
?objectGrpCompList@MPxSurfaceShape@@2VMObject@@A
?objectGrpCompList@MPxTransform@@2VMObject@@A
?objectHasFnOnFilterOrList@MItDag@@AEAA_NAEBVMObject@@@Z
?objectHasFnOnFilterOrList@MItDependencyNodes@@AEAA_NAEBVMObject@@@Z
?objectRef@MObjectHandle@@QEBAAEBVMObject@@XZ
?objectSelectionMask@MGlobal@@SA?AVMSelectionMask@@PEAVMStatus@@@Z
?objectsHasFnOnFilterOrList@MItDependencyGraph@@AEAA_NAEBVMObject@@0@Z
?offset@MPxImagePlane@@2VMObject@@A
?offsetX@MPxImagePlane@@2VMObject@@A
?offsetY@MPxImagePlane@@2VMObject@@A
?onBoundary@MFnMesh@@QEBA_NHPEAVMStatus@@@Z
?onBoundary@MItMeshEdge@@QEAA_NPEAVMStatus@@@Z
?onBoundary@MItMeshPolygon@@QEAA_NPEAVMStatus@@@Z
?onBoundary@MItMeshVertex@@QEAA_NPEAVMStatus@@@Z
?one@MFloatVector@@2V1@B
?one@MVector@@2V1@B
?open@MFileIO@@SA?AVMStatus@@AEBVMString@@PEBD_NW4ReferenceMode@1@2@Z
?open@MIffFile@@QEAA?AVMStatus@@AEBVMString@@@Z
?open@MPxCacheFormat@@UEAA?AVMStatus@@AEBVMString@@W4FileAccessMode@1@@Z
?open@MPxImageFile@@UEAA?AVMStatus@@VMString@@PEAVMImageFileInfo@@@Z
?openSubdivCreaseMethod@MMeshSmoothOptions@@QEBA?AW4OpenSubdivCreaseMethod@1@PEAVMStatus@@@Z
?openSubdivFaceVaryingBoundary@MMeshSmoothOptions@@QEBA?AW4OpenSubdivVertexBoundary@1@PEAVMStatus@@@Z
?openSubdivSmoothTriangles@MMeshSmoothOptions@@QEAA_NPEAVMStatus@@@Z
?openSubdivVertexBoundary@MMeshSmoothOptions@@QEBA?AW4OpenSubdivVertexBoundary@1@PEAVMStatus@@@Z
?opticalFXvisibility@MFnLight@@QEBA?AVMColor@@PEAVMStatus@@@Z
?optionVarDoubleValue@MGlobal@@SANAEBVMString@@PEA_N@Z
?optionVarExists@MGlobal@@SA_NAEBVMString@@@Z
?optionVarIntValue@MGlobal@@SAHAEBVMString@@PEA_N@Z
?optionVarStringValue@MGlobal@@SA?AVMString@@AEBV2@PEA_N@Z
?order@MPxCameraSet@@2VMObject@@A
?origin@MFloatPoint@@2V1@B
?origin@MPoint@@2V1@B
?orthoWidth@MFnCamera@@QEBANPEAVMStatus@@@Z
?outputArrayValue@MArrayDataHandle@@QEAA?AV1@PEAVMStatus@@@Z
?outputArrayValue@MDataBlock@@QEAA?AVMArrayDataHandle@@AEBVMObject@@PEAVMStatus@@@Z
?outputArrayValue@MDataBlock@@QEAA?AVMArrayDataHandle@@AEBVMPlug@@PEAVMStatus@@@Z
?outputValue@MArrayDataHandle@@QEAA?AVMDataHandle@@PEAVMStatus@@@Z
?outputValue@MDataBlock@@QEAA?AVMDataHandle@@AEBVMObject@@PEAVMStatus@@@Z
?outputValue@MDataBlock@@QEAA?AVMDataHandle@@AEBVMPlug@@PEAVMStatus@@@Z
?overrideColor@MPxTransform@@2VMObject@@A
?overrideDisplayType@MPxTransform@@2VMObject@@A
?overrideEnabled@MPxTransform@@2VMObject@@A
?overrideLevelOfDetail@MPxTransform@@2VMObject@@A
?overridePlayback@MPxTransform@@2VMObject@@A
?overrideResolvedFullName@MFileObject@@QEAA?AVMStatus@@AEBVMString@@@Z
?overrideShading@MPxTransform@@2VMObject@@A
?overrideTexturing@MPxTransform@@2VMObject@@A
?overrideVisibility@MPxTransform@@2VMObject@@A
?overscan@MFnCamera@@QEBANPEAVMStatus@@@Z
?ownsObject@?$MPyObject@VMArgList@@@@QEAAX_N@Z
?ownsObject@?$MPyObject@VMArgList@@@@QEBA_NXZ
?ownsObject@?$MPyObject@VMArrayDataHandle@@@@QEAAX_N@Z
?ownsObject@?$MPyObject@VMArrayDataHandle@@@@QEBA_NXZ
?pack@MCurveAttribute@@QEAA?AVMStatus@@XZ
?pack@MRampAttribute@@QEAA?AVMStatus@@XZ
?panZoomEnabled@MFnCamera@@QEBA_NPEAVMStatus@@@Z
?parent@MFnAttribute@@QEBA?AVMObject@@PEAVMStatus@@@Z
?parent@MFnDagNode@@QEBA?AVMObject@@IPEAVMStatus@@@Z
?parent@MParentingEdit@@QEBA?AVMObject@@PEAVMStatus@@@Z
?parent@MPlug@@QEBA?AV1@PEAVMStatus@@@Z
?parentAssembly@MFnReference@@QEBA?AVMObject@@PEAVMStatus@@@Z
?parentCount@MFnDagNode@@QEBAIPEAVMStatus@@@Z
?parentFaceId@MFnSubdNames@@SA_K_K@Z
?parentFileName@MFnReference@@QEBA?AVMString@@_N00PEAVMStatus@@@Z
?parentInverseMatrix@MPxSurfaceShape@@2VMObject@@A
?parentInverseMatrix@MPxTransform@@2VMObject@@A
?parentMatrix@MPxSurfaceShape@@2VMObject@@A
?parentMatrix@MPxTransform@@2VMObject@@A
?parentName@MParentingEdit@@QEBA?AVMString@@PEAVMStatus@@@Z
?parentNamespace@MFnDependencyNode@@QEBA?AVMString@@PEAVMStatus@@@Z
?parentNamespace@MNamespace@@SA?AVMString@@PEAVMStatus@@@Z
?parentNodeStatics@TpluginNodeInfo@@QEBAPEAVTdependNodeVS@@XZ
?parentReference@MFnReference@@QEBA?AVMObject@@PEAVMStatus@@@Z
?parentedObject@MParentingEdit@@QEBA?AVMObject@@PEAVMStatus@@@Z
?parentedObjectName@MParentingEdit@@QEBA?AVMString@@PEAVMStatus@@@Z
?parentingEdit@MItEdits@@QEBA?AVMParentingEdit@@PEAVMStatus@@@Z
?parseColor@MPyUtil@@SA_NPEAU_object@@PEAMII_N@Z
?parseFloatRegion@MPyUtil@@SA_NPEAU_object@@QEAY01M_N@Z
?parseString@MPyUtil@@SA_NPEAU_object@@AEAVMString@@_N@Z
?parseStringSeq@MPyUtil@@SA_NPEAU_object@@AEAVMStringArray@@_N@Z
?parseSyntax@MPxPolyTweakUVCommand@@UEAA?AVMStatus@@AEAVMArgDatabase@@@Z
?partialName@MPlug@@QEBA?AVMString@@_N00000PEAVMStatus@@@Z
?partialPathName@MDagPath@@QEBA?AVMString@@PEAVMStatus@@@Z
?partialPathName@MFnDagNode@@QEBA?AVMString@@PEAVMStatus@@@Z
?partialPathName@MItDag@@QEBA?AVMString@@PEAVMStatus@@@Z
?particleId@MItInstancer@@QEBAIXZ
?partition@MPxObjectSet@@2VMObject@@A
?passImplByName@TpluginRenderPassImplDBase@@0PEAVTpluginRenderPassImplDBaseNameTable@@EA
?passThrough@THdependNode@@UEBAPEAVTplug@@AEBV2@@Z
?passThrough@THsurfaceShape@@UEBAPEAVTplug@@AEBV2@@Z
?passThroughToAll@THdependNode@@UEBAXAEBVTplug@@AEAVTplugArray@@@Z
?passThroughToAll@THsurfaceShape@@UEBAXAEBVTplug@@AEAVTplugArray@@@Z
?passThroughToMany@MPxNode@@UEBA_NAEBVMPlug@@AEAVMPlugArray@@@Z
?passThroughToOne@MPxNode@@UEBA?AVMPlug@@AEBV2@@Z
?path@MFileObject@@QEBA?AVMString@@XZ
?path@MFnSubdNames@@SAH_K@Z
?path@MItInstancer@@QEAA?AVMDagPath@@XZ
?path@TapiCast@@SAAEAVTmultiPath@@AEAVMDagPath@@@Z
?path@TapiCast@@SAAEBVTmultiPath@@AEBVMDagPath@@@Z
?path@TapiPack@@SAXAEAVMDagPath@@AEBVTmultiPath@@@Z
?path@Tplugin@@QEBA?AVTfilePath@@XZ
?pathArray@TapiPack@@SAXAEAVMDagPathArray@@AEBVTmultiPathArray@@@Z
?pathCount@MDagPath@@QEBAIPEAVMStatus@@@Z
?pathCount@MFileObject@@QEAAIXZ
?pathId@MItInstancer@@QEBAIXZ
?penumbraAngle@MFnSpotLight@@QEBANPEAVMStatus@@@Z
?penumbraRamp@MFnVolumeLight@@QEBA?AVMRampAttribute@@PEAVMStatus@@@Z
?perLightPassContributionSupported@THrenderPassImpl@@UEBA_NXZ
?percentMatrix@THxformMatrix@@UEBA?AVT4dDblMatrix@@N@Z
?percentMatrixTranslateScale@THxformMatrix@@UEBA?AVT4dDblMatrix@@N@Z
?performActivate@MPxAssembly@@QEAA_NAEBVMString@@@Z
?performAfterSaveURI@MPxFileResolver@@UEAAXAEBVMURI@@AEBVMString@@@Z
?performInactivate@MPxAssembly@@QEAA_NXZ
?perror@MStatus@@QEBAXAEBVMString@@@Z
?perror@MStatus@@QEBAXPEBD@Z
?pixelType@MImage@@QEBA?AW4MPixelType@1@XZ
?pixelType@MImageFileInfo@@QEAAXW4MPixelType@MImage@@@Z
?pixelType@MImageFileInfo@@QEBA?AW4MPixelType@MImage@@XZ
?pixels@MImage@@QEBAPEAEXZ
?plug@MEvaluationNodeIterator@@QEAA?AVMPlug@@XZ
?plug@MSetAttrEdit@@QEBA?AVMPlug@@PEAVMStatus@@@Z
?plug@TapiCast@@SA?AVMPlug@@AEBVTplug@@@Z
?plug@TapiCast@@SAAEBVTplug@@AEAVMPlug@@@Z
?plug@TapiCast@@SAAEBVTplug@@AEBVMPlug@@@Z
?plug@TapiPack@@SA?AVMPlug@@PEBVTplug@@@Z
?plugInName@THdependNode@@SAPEBDPEBVTdependNode@@@Z
?plugName@MSetAttrEdit@@QEBA?AVMString@@PEAVMStatus@@@Z
?pluginInfoSet@Tplugin@@QEBA_NXZ
?pluginName@MFnDependencyNode@@QEBA?AVMString@@PEAVMStatus@@@Z
?pluginName@MNodeClass@@QEBA?AVMString@@PEAVMStatus@@@Z
?pluginName@THclient@@QEBAPEADXZ
?pluginNodeInfo@THdependNode@@UEBAPEAVTpluginNode@@XZ
?pluginNodeInfo@THsurfaceShape@@UEBAPEAVTpluginNode@@XZ
?pluginRegistryInfoArray@@3PAVTpluginRegistryInfo@@A
?pluginsByName@TpluginDBase@@0PEAVTpluginDBaseNameTable@@EA
?plugsAlias@MFnDependencyNode@@QEAA?AVMString@@AEBVMPlug@@PEAVMStatus@@@Z
?point@MItMeshEdge@@QEAA?AVMPoint@@HW4Space@MSpace@@PEAVMStatus@@@Z
?point@MItMeshPolygon@@QEAA?AVMPoint@@HW4Space@MSpace@@PEAVMStatus@@@Z
?point@MPxGeometryIterator@@UEBA?AVMPoint@@XZ
?point@MPyMPxGeometryIterator_Director@@UEBA?AVMPoint@@XZ
?point@TapiCast@@SAAEAVMFloatPoint@@AEAVT4dFltPoint@@@Z
?point@TapiCast@@SAAEAVMPoint@@AEAVT4dDblPoint@@@Z
?point@TapiCast@@SAAEAVT4dDblPoint@@AEAVMPoint@@@Z
?point@TapiCast@@SAAEAVT4dFltPoint@@AEAVMFloatPoint@@@Z
?point@TapiCast@@SAAEBVMFloatPoint@@AEBVT4dFltPoint@@@Z
?point@TapiCast@@SAAEBVMPoint@@AEBVT4dDblPoint@@@Z
?point@TapiCast@@SAAEBVT4dDblPoint@@AEBVMPoint@@@Z
?point@TapiCast@@SAAEBVT4dFltPoint@@AEBVMFloatPoint@@@Z
?pointArray@TapiCast@@SA?AVMPointArray@@AEAVT4dDblPointArray@@@Z
?pointArray@TapiCast@@SAAEAVT4dDblPointArray@@AEAVMPointArray@@@Z
?pointArray@TapiCast@@SAAEBVT4dDblPointArray@@AEBVMPointArray@@@Z
?pointArray@TapiPack@@SAXAEAVMPointArray@@AEBVT4dDblPointArray@@@Z
?pointArray@TapiPack@@SAXAEAVT4dDblPointArray@@AEBVMPointArray@@@Z
?pointAtParm@MPxSurfaceShape@@UEAA_NAEBVMPoint@@AEAV2@@Z
?pointAtParm@THsurfaceShape@@UEBA_NAEBVT4dDblPoint@@AEAV2@@Z
?polyTriangulate@MFnMesh@@SA?AVMStatus@@AEBVMFloatPointArray@@AEBVMIntArray@@IAEBVMFloatVectorArray@@AEAV4@@Z
?polyTriangulate@MFnMesh@@SA?AVMStatus@@PEBMIII_N0PEAGAEAH@Z
?polygon@MItMeshPolygon@@QEAA?AVMObject@@PEAVMStatus@@@Z
?polygonBaseMeshAdd@MFnSubd@@QEAA_KHQEBHPEAVMStatus@@@Z
?polygonBaseMeshAddWithUVs@MFnSubd@@QEAA_KHQEBHQEBN1PEAVMStatus@@@Z
?polygonChildren@MFnSubd@@QEBA?AVMStatus@@_KAEAVMUint64Array@@@Z
?polygonCount@MFnSubd@@QEBAIHPEAVMStatus@@@Z
?polygonCountMaxWithGivenBaseMesh@MFnSubd@@QEBAHHPEAVMStatus@@@Z
?polygonEdgeCount@MFnSubd@@QEBAI_KPEAVMStatus@@@Z
?polygonEdges@MFnSubd@@QEBA?AVMStatus@@_KAEAVMUint64Array@@@Z
?polygonGetCenterUV@MFnSubd@@QEBA?AVMStatus@@_KAEAN1@Z
?polygonGetVertexUVs@MFnSubd@@QEBA?AVMStatus@@_KAEAVMDoubleArray@@1@Z
?polygonHasChildren@MFnSubd@@QEBA_N_KPEAVMStatus@@@Z
?polygonHasVertexUVs@MFnSubd@@QEAA_N_KPEAVMStatus@@@Z
?polygonIsValid@MFnSubd@@QEBA_N_KPEAVMStatus@@@Z
?polygonSetUseUVs@MFnSubd@@QEAA?AVMStatus@@_K_N@Z
?polygonSetVertexUVs@MFnSubd@@QEAA?AVMStatus@@_KAEBVMDoubleArray@@1@Z
?polygonSubdivide@MFnSubd@@QEAA?AVMStatus@@_K@Z
?polygonVertexCount@MFnMesh@@QEBAHHPEAVMStatus@@@Z
?polygonVertexCount@MFnSubd@@QEBAI_KPEAVMStatus@@@Z
?polygonVertexCount@MItMeshPolygon@@QEAAIPEAVMStatus@@@Z
?polygonVertices@MFnSubd@@QEBA?AVMStatus@@_KAEAVMUint64Array@@@Z
?pop@MDagPath@@QEAA?AVMStatus@@I@Z
?portColor@TapiCast@@SAAEAVMColor@@AEAVTportColor@@@Z
?portColor@TapiCast@@SAAEAVTportColor@@AEAVMColor@@@Z
?portColor@TapiCast@@SAAEBVMColor@@AEBVTportColor@@@Z
?portColor@TapiCast@@SAAEBVTportColor@@AEBVMColor@@@Z
?portColor@TapiPack@@SA?AVMColor@@AEBVTportColor@@@Z
?portColor@TapiPack@@SA?AVTportColor@@AEBVMColor@@@Z
?position@MItCurveCV@@QEBA?AVMPoint@@W4Space@MSpace@@PEAVMStatus@@@Z
?position@MItGeometry@@QEBA?AVMPoint@@W4Space@MSpace@@PEAVMStatus@@@Z
?position@MItMeshFaceVertex@@QEAA?AVMPoint@@W4Space@MSpace@@PEAVMStatus@@@Z
?position@MItMeshVertex@@QEAA?AVMPoint@@W4Space@MSpace@@PEAVMStatus@@@Z
?position@MItSurfaceCV@@QEBA?AVMPoint@@W4Space@MSpace@@PEAVMStatus@@@Z
?postApplyEdits@MPxAssembly@@UEAAXXZ
?postConstructor@MPxNode@@UEAAXXZ
?postConstructor@MPxPolyTrg@@UEAAXXZ
?postConstructor@MPxTransform@@UEAAXXZ
?postDecrement@MAtomic@@SAHPECH@Z
?postEvaluation@MPxNode@@UEAA?AVMStatus@@AEBVMDGContext@@AEBVMEvaluationNode@@I@Z
?postEvaluation@THdependNode@@UEAAXAEBVTdgContext@@AEBVTevaluationNode@@I@Z
?postEvaluation@THsurfaceShape@@UEAAXAEBVTdgContext@@AEBVTevaluationNode@@I@Z
?postIncrement@MAtomic@@SAHPECH@Z
?postLoad@MFnAssembly@@QEAA?AVMStatus@@XZ
?postLoad@MPxAssembly@@UEAAXXZ
?postProjectionMatrix@MFnCamera@@QEBA?AVMFloatMatrix@@AEAVMDGContext@@PEAVMStatus@@@Z
?postProjectionMatrix@MFnCamera@@QEBA?AVMFloatMatrix@@PEAVMStatus@@@Z
?postScale@MFnCamera@@QEBANPEAVMStatus@@@Z
?postUnapplyEdits@MPxAssembly@@UEAAXXZ
?postUserEvent@MUserEventMessage@@SA?AVMStatus@@AEBVMString@@PEAX@Z
?preApplyEdits@MPxAssembly@@UEAAXXZ
?preDecrement@MAtomic@@SAHPECH@Z
?preEvaluation@MPxNode@@UEAA?AVMStatus@@AEBVMDGContext@@AEBVMEvaluationNode@@@Z
?preEvaluation@THdependNode@@UEAAXAEBVTdgContext@@AEBVTevaluationNode@@@Z
?preEvaluation@THsurfaceShape@@UEAAXAEBVTdgContext@@AEBVTevaluationNode@@@Z
?preIncrement@MAtomic@@SAHPECH@Z
?preScale@MFnCamera@@QEBANPEAVMStatus@@@Z
?preUnapplyEdits@MPxAssembly@@UEAAXXZ
?previousPlug@MItDependencyGraph@@QEAA?AVMPlug@@PEAVMStatus@@@Z
?primaryLoad@Tplugin@@QEAAHAEBVTstring@@PEAV2@@Z
?primaryLoad@Tplugin@@QEAAHPEAVTstring@@@Z
?primaryUnload@Tplugin@@QEAAHXZ
?procCallback@THclient@@KAXAEBVTstring@@I_NI@Z
?processReadOptions@MPxMayaAsciiFilter@@MEAA?AVMStatus@@AEBVMString@@@Z
?processWriteOptions@MPxMayaAsciiFilter@@MEAA?AVMStatus@@AEBVMString@@@Z
?progress@MComputation@@QEBAHPEAVMStatus@@@Z
?progressMax@MComputation@@QEBAHPEAVMStatus@@@Z
?progressMin@MComputation@@QEBAHPEAVMStatus@@@Z
?projectCurve@MFnNurbsSurface@@QEAA?AVMStatus@@AEBVMDagPath@@PEBVMVector@@_N@Z
?projectionMatrix@MFnCamera@@QEBA?AVMFloatMatrix@@AEAVMDGContext@@PEAVMStatus@@@Z
?projectionMatrix@MFnCamera@@QEBA?AVMFloatMatrix@@PEAVMStatus@@@Z
?propEdgeHardness@MMeshSmoothOptions@@QEBA_NPEAVMStatus@@@Z
?prune@MItDag@@QEAA?AVMStatus@@XZ
?prune@MItDependencyGraph@@QEAA?AVMStatus@@XZ
?push@MDagPath@@QEAA?AVMStatus@@AEBVMObject@@@Z
?putEnv@MCommonSystemUtils@@SA?AVMStatus@@AEBVMString@@0@Z
?pythonCommandToExecute@MDGModifier@@QEAA?AVMStatus@@AEBVMString@@@Z
?quaternion@TapiCast@@SAAEAVMQuaternion@@AEAVTquaternion@@@Z
?quaternion@TapiCast@@SAAEAVTquaternion@@AEAVMQuaternion@@@Z
?quaternion@TapiCast@@SAAEBVMQuaternion@@AEBVTquaternion@@@Z
?quaternion@TapiCast@@SAAEBVTquaternion@@AEBVMQuaternion@@@Z
?quaternion@TapiPack@@SA?AVTquaternion@@NNNN@Z
?quaternion@TapiPack@@SAXAEAN000AEBVTquaternion@@@Z
?radius@MFnSphereData@@QEBANPEAVMStatus@@@Z
?rationalize@MFloatPoint@@QEAAAEAV1@XZ
?rationalize@MPoint@@QEAAAEAV1@XZ
?rawFullName@MFileObject@@QEBA?AVMString@@XZ
?rawName@MFileObject@@QEBA?AVMString@@XZ
?rawPath@MFileObject@@QEBA?AVMString@@XZ
?rayDepthLimit@MFnLight@@QEBAFPEAVMStatus@@@Z
?readASCII@MPxData@@UEAA?AVMStatus@@AEBVMArgList@@AEAI@Z
?readArraySize@MPxCacheFormat@@UEAAIXZ
?readBinary@MPxData@@UEAA?AVMStatus@@AEAV?$basic_istream@DU?$char_traits@D@std@@@std@@I@Z
?readChannelName@MPxCacheFormat@@UEAA?AVMStatus@@AEAVMString@@@Z
?readChar@MStreamUtils@@SA?AVMStatus@@AEAV?$basic_istream@DU?$char_traits@D@std@@@std@@AEAD_N@Z
?readCharBuffer@MStreamUtils@@SA?AVMStatus@@AEAV?$basic_istream@DU?$char_traits@D@std@@@std@@AEAPEADI_N@Z
?readDepthMap@MImage@@QEAA?AVMStatus@@VMString@@@Z
?readDescription@MPxCacheFormat@@UEAA?AVMStatus@@AEAVMCacheFormatDescription@@AEBVMString@@1@Z
?readDouble@MStreamUtils@@SA?AVMStatus@@AEAV?$basic_istream@DU?$char_traits@D@std@@@std@@AEAN_N@Z
?readDoubleArray@MPxCacheFormat@@UEAA?AVMStatus@@AEAVMDoubleArray@@I@Z
?readDoubleVectorArray@MPxCacheFormat@@UEAA?AVMStatus@@AEAVMVectorArray@@I@Z
?readFloat@MStreamUtils@@SA?AVMStatus@@AEAV?$basic_istream@DU?$char_traits@D@std@@@std@@AEAM_N@Z
?readFloatArray@MPxCacheFormat@@UEAA?AVMStatus@@AEAVMFloatArray@@I@Z
?readFloatVectorArray@MPxCacheFormat@@UEAA?AVMStatus@@AEAVMFloatVectorArray@@I@Z
?readFromFile@MImage@@QEAA?AVMStatus@@VMString@@W4MPixelType@1@@Z
?readFromFileInternal@MImage@@IEAA?AVMStatus@@AEBVMString@@W4MPixelType@1@PEAX@Z
?readFromFileInternalFixed@MImage@@IEAA?AVMStatus@@AEBVMString@@W4MPixelType@1@PEAX@Z
?readFromFileInternalFloat@MImage@@IEAA?AVMStatus@@AEBVMString@@W4MPixelType@1@PEAX@Z
?readFromTextureNode@MImage@@QEAA?AVMStatus@@AEBVMObject@@W4MPixelType@1@@Z
?readHeader@MPxCacheFormat@@UEAA?AVMStatus@@XZ
?readInt32@MPxCacheFormat@@UEAAHXZ
?readInt@MStreamUtils@@SA?AVMStatus@@AEAV?$basic_istream@DU?$char_traits@D@std@@@std@@AEAH_N@Z
?readIntArray@MPxCacheFormat@@UEAA?AVMStatus@@AEAVMIntArray@@I@Z
?readNextTime@MPxCacheFormat@@UEAA?AVMStatus@@AEAVMTime@@@Z
?readPluginPrefs@TpluginPrefMgr@@SAXXZ
?readTime@MPxCacheFormat@@UEAA?AVMStatus@@AEAVMTime@@@Z
?reader@MPxFileTranslator@@UEAA?AVMStatus@@AEBVMFileObject@@AEBVMString@@W4FileAccessMode@1@@Z
?reader@MPxMayaAsciiFilter@@UEAA?AVMStatus@@AEBVMFileObject@@AEBVMString@@W4FileAccessMode@MPxFileTranslator@@@Z
?recreateInstance@THcommandObject@@QEAA_NXZ
?redoIt@MPxCommand@@UEAA?AVMStatus@@XZ
?redoIt@MPxPolyTweakUVCommand@@EEAA?AVMStatus@@XZ
?redoIt@MPyMPxCommand_Director@@UEAA?AVMStatus@@XZ
?redoIt@THcommandObject@@UEAAHXZ
?reference@MFileIO@@SA?AVMStatus@@AEBVMString@@_N10@Z
?referenceListCount@TpluginCmd@@QEBAIXZ
?reflectedColor@MFnReflectShader@@QEBA?AVMColor@@PEAVMStatus@@@Z
?reflectedRayDepthLimit@MFnReflectShader@@QEBAFPEAVMStatus@@@Z
?reflectivity@MFnReflectShader@@QEBAMPEAVMStatus@@@Z
?refractedRayDepthLimit@MFnLambertShader@@QEBAFPEAVMStatus@@@Z
?refractiveIndex@MFnAnisotropyShader@@QEBAMPEAVMStatus@@@Z
?refractiveIndex@MFnLambertShader@@QEBAMPEAVMStatus@@@Z
?refreshImage@MPxImagePlane@@QEAAXXZ
?registerAnimCurveInterpolator@MFnPlugin@@QEAA?AVMStatus@@AEBVMString@@HP6APEAXXZH@Z
?registerAttributePatternFactory@MFnPlugin@@QEAA?AVMStatus@@AEBVMString@@P6APEAXXZ@Z
?registerBakeEngine@MFnPlugin@@QEAA?AVMStatus@@AEBVMString@@P6APEAVMPxBakeEngine@@XZ@Z
?registerCacheFormat@MFnPlugin@@QEAA?AVMStatus@@AEBVMString@@P6APEAXXZ@Z
?registerCommand@MFnPlugin@@QEAA?AVMStatus@@AEBVMString@@P6APEAXXZP6A?AVMSyntax@@XZ@Z
?registerCommand@TpluginMaya@@QEAA?AVMStatus@@AEBVTstring@@@Z
?registerConstraintCommand@MFnPlugin@@QEAA?AVMStatus@@AEBVMString@@P6APEAXXZ@Z
?registerContextCommand@MFnPlugin@@QEAA?AVMStatus@@AEBVMString@@P6APEAXXZ01P6A?AVMSyntax@@XZ@Z
?registerContextCommand@MFnPlugin@@QEAA?AVMStatus@@AEBVMString@@P6APEAXXZ@Z
?registerControlCommand@MFnPlugin@@QEAA?AVMStatus@@AEBVMString@@P6APEAXXZ@Z
?registerData@MFnPlugin@@QEAA?AVMStatus@@AEBVMString@@AEBVMTypeId@@P6APEAXXZW4Type@MPxData@@@Z
?registerDestroyedCallback@MObjectHandle@@CAXXZ
?registerDevice@MFnPlugin@@QEAA?AVMStatus@@AEBVMString@@P6APEAXXZ@Z
?registerDisplayFilter@MFnPlugin@@QEAA?AVMStatus@@AEBVMString@@00@Z
?registerDragAndDropBehavior@MFnPlugin@@QEAA?AVMStatus@@AEBVMString@@P6APEAXXZ@Z
?registerFileDialog@TpluginMaya@@QEAA?AVMStatus@@AEBVMString@@P6APEAXXZ@Z
?registerFileTranslator@MFnPlugin@@QEAA?AVMStatus@@AEBVMString@@PEBDP6APEAXXZ11_NV3@@Z
?registerIkSolver@MFnPlugin@@QEAA?AVMStatus@@AEBVMString@@P6APEAXXZ@Z
?registerImageFile@MFnPlugin@@QEAA?AVMStatus@@AEBVMString@@P6APEAXXZAEBVMStringArray@@@Z
?registerMaterialInfo@MFnPlugin@@QEAA?AVMStatus@@AEBVMString@@P6APEAVMPxMaterialInformation@@AEAVMObject@@@Z@Z
?registerModelEditorCommand@MFnPlugin@@QEAA?AVMStatus@@AEBVMString@@P6APEAXXZ1@Z
?registerNativeProc@MMelNativeInterface@@SAXVMString@@D0P6APEAXPEAX@Z@Z
?registerNode@MFnPlugin@@QEAA?AVMStatus@@AEBVMString@@AEBVMTypeId@@P6APEAXXZP6A?AV2@XZW4Type@MPxNode@@PEBV3@@Z
?registerNode@MFnScPlugin@@QEAA?AVMStatus@@AEBVMString@@AEBVMTypeId@@P6APEAXXZP6A?AV2@XZHW4Type@MPxNode@@PEBV3@@Z
?registerNode@TpluginMaya@@QEAA?AVMStatus@@AEBVTstring@@AEBVTiffTag@@P6APEAXXZPEBVTmetaclass@@W4Type@MPxNode@@PEBV3@@Z
?registerObject@MObjectHandle@@AEAAXXZ
?registerRenderPassDefinition@MRenderPassRegistry@@SA?AVMRenderPassDef@@AEBVMString@@000_NPEAVMStatus@@@Z
?registerRenderPassImpl@MFnPlugin@@QEAA?AVMStatus@@AEBVMString@@PEAVMRenderPassDef@@P6APEAXXZ_N@Z
?registerRenderer@MFnPlugin@@QEAA?AVMStatus@@AEBVMString@@P6APEAXXZ@Z
?registerSceneCallbacks@TpluginImageFormatDBase@@SAXXZ
?registerSelectionType@MSelectionMask@@SA_NAEBVMString@@H@Z
?registerShape@MFnPlugin@@QEAA?AVMStatus@@AEBVMString@@AEBVMTypeId@@P6APEAXXZP6A?AV2@XZ2PEBV3@@Z
?registerString@MStringResource@@SA?AVMStatus@@AEBVMStringResourceId@@@Z
?registerTransform@MFnPlugin@@QEAA?AVMStatus@@AEBVMString@@AEBVMTypeId@@P6APEAXXZP6A?AV2@XZ21PEBV3@@Z
?registerTransform@MFnPlugin@@QEAA?AVMStatus@@AEBVMString@@AEBVMTypeId@@P6APEAXXZP6A?AV2@XZP6APEAVMPxTransformationMatrix@@XZ1PEBV3@@Z
?registerTrgFunction@MPxPolyTrg@@QEAA?AVMStatus@@PEADP6AXPEBM1PEBHHHPEAG@Z@Z
?registerUI@MFnPlugin@@QEAA?AVMStatus@@AEBVMString@@000@Z
?registerUI@MFnPlugin@@QEAA?AVMStatus@@PEAU_object@@000@Z
?registerUIStrings@MFnPlugin@@QEAA?AVMStatus@@P6A?AV2@XZAEBVMString@@@Z
?registerURIFileResolver@MFnPlugin@@QEAA?AVMStatus@@AEBVMString@@0P6APEAXXZ@Z
?registerUserEvent@MUserEventMessage@@SA?AVMStatus@@AEBVMString@@@Z
?registeringCallableScript@MFnPlugin@@SA_NXZ
?registeringCallableScript@MMessage@@SA_NXZ
?registeringCallableScriptNewAPI@MMessage@@SA_NXZ
?relativeNames@MNamespace@@SA_NPEAVMStatus@@@Z
?release@MImage@@QEAA?AVMStatus@@XZ
?release@MThreadAsync@@SAXXZ
?release@MThreadPool@@SAXXZ
?releaseOpenCLKernel@MOpenCLInfo@@SA_NAEBVMAutoCLKernel@@@Z
?remove@MAttributePatternArray@@QEAA?AVMStatus@@I@Z
?remove@MAttributeSpecArray@@QEAA?AVMStatus@@I@Z
?remove@MCallbackIdArray@@QEAA?AVMStatus@@I@Z
?remove@MColorArray@@QEAA?AVMStatus@@I@Z
?remove@MDagPathArray@@QEAA?AVMStatus@@I@Z
?remove@MDoubleArray@@QEAA?AVMStatus@@I@Z
?remove@MFloatArray@@QEAA?AVMStatus@@I@Z
?remove@MFloatPointArray@@QEAA?AVMStatus@@I@Z
?remove@MFloatVectorArray@@QEAA?AVMStatus@@I@Z
?remove@MFnComponentListData@@QEAA?AVMStatus@@AEBVMObject@@@Z
?remove@MFnComponentListData@@QEAA?AVMStatus@@I@Z
?remove@MInt64Array@@QEAA?AVMStatus@@I@Z
?remove@MIntArray@@QEAA?AVMStatus@@I@Z
?remove@MMatrixArray@@QEAA?AVMStatus@@I@Z
?remove@MObjectArray@@QEAA?AVMStatus@@I@Z
?remove@MPlugArray@@QEAA?AVMStatus@@I@Z
?remove@MPointArray@@QEAA?AVMStatus@@I@Z
?remove@MSelectionList@@QEAA?AVMStatus@@I@Z
?remove@MStringArray@@QEAA?AVMStatus@@I@Z
?remove@MTimeArray@@QEAA?AVMStatus@@I@Z
?remove@MTrimBoundaryArray@@QEAA?AVMStatus@@I@Z
?remove@MUint64Array@@QEAA?AVMStatus@@I@Z
?remove@MUintArray@@QEAA?AVMStatus@@I@Z
?remove@MVectorArray@@QEAA?AVMStatus@@I@Z
?remove@TanimCallbackTable@@QEAA_NAEB_K@Z
?remove@TanimDeltaMsgSwitch@@QEAAX_K@Z
?remove@TapiMAttributePatternArray@@QEAAHAEBVMAttributePattern@@@Z
?remove@TapiMDagPathArray@@QEAAHAEBVMDagPath@@@Z
?remove@TapiMObjectArray@@QEAAHAEBVMObject@@@Z
?remove@TapiMPlugArray@@QEAAHAEBVMPlug@@@Z
?remove@TapiMTimeArray@@QEAAHAEBVMTime@@@Z
?remove@TpluginAttributePatternFactoryDBase@@SA_NPEAVTpluginObject@@@Z
?remove@TpluginCmdDBase@@SA_NPEAVTpluginCmd@@_N@Z
?remove@TpluginDBase@@SA_NPEAVTplugin@@@Z
?remove@TpluginFileResolverDBase@@SA_NPEAVTpluginFileResolver@@@Z
?remove@TpluginGeometryCacheDBase@@SA_NPEAVTpluginObject@@@Z
?remove@TpluginImageFormatDBase@@SA_NPEAVTpluginObject@@@Z
?remove@TpluginRegistryInfo@@QEBA_NPEAVTpluginObject@@@Z
?remove@TpluginRenderPassImplDBase@@SA_NPEAVTpluginObject@@@Z
?removeAccept@MFnGenericAttribute@@QEAA?AVMStatus@@AEBVMTypeId@@@Z
?removeAccept@MFnGenericAttribute@@QEAA?AVMStatus@@W4Type@MFnData@@@Z
?removeAccept@MFnGenericAttribute@@QEAA?AVMStatus@@W4Type@MFnNumericData@@@Z
?removeAll@TpluginCmdDBase@@SA_N_N@Z
?removeAllQueryItems@MURI@@QEAA?AVMStatus@@AEBVMString@@@Z
?removeAttribute@MDGModifier@@QEAA?AVMStatus@@AEBVMObject@@0@Z
?removeAttribute@MDGModifier@@QEAA?AVMStatus@@AEBVMObject@@0W4MAttrClass@MFnDependencyNode@@@Z
?removeAttribute@MFnDependencyNode@@QEAA?AVMStatus@@AEBVMObject@@@Z
?removeAttribute@MFnDependencyNode@@QEAA?AVMStatus@@AEBVMObject@@W4MAttrClass@1@@Z
?removeAttributePatternFactoryReference@Tplugin@@QEAA_NPEAVTpluginObject@@@Z
?removeAttributeReference@Tplugin@@QEAA_NAEAVTattribute@@@Z
?removeCallback@MMessage@@SA?AVMStatus@@_K@Z
?removeCallbacks@MMessage@@SA?AVMStatus@@AEAVMCallbackIdArray@@@Z
?removeCallbacks@MMessage@@SA?AVMStatus@@AEAVMIntArray@@@Z
?removeCategory@MProfiler@@SAHPEBD@Z
?removeChild@MFnCompoundAttribute@@QEAA?AVMStatus@@AEBVMObject@@@Z
?removeChild@MFnDagNode@@QEAA?AVMStatus@@AEAVMObject@@@Z
?removeChildAt@MFnDagNode@@QEAA?AVMStatus@@I@Z
?removeCmdReference@Tplugin@@QEAA_NPEAVTpluginObject@@@Z
?removeConstraintCmdReference@Tplugin@@QEAA_NPEAVTpluginObject@@@Z
?removeControlCommandReference@Tplugin@@QEAA_NPEAVTpluginObject@@@Z
?removeControlReference@Tplugin@@QEAA_NPEAVTpluginObject@@@Z
?removeCtxCmdReference@Tplugin@@QEAA_NPEAVTpluginObject@@@Z
?removeCurrentEdit@MItEdits@@QEAA_NPEAVMStatus@@@Z
?removeCurveInterpReference@Tplugin@@QEAA_NPEAVTpluginObject@@@Z
?removeDataAccept@MFnGenericAttribute@@QEAA?AVMStatus@@W4Type@MFnData@@@Z
?removeDataReference@Tplugin@@QEAA_NPEAVTpluginObject@@@Z
?removeDeviceReference@Tplugin@@QEAA_NPEAVTpluginObject@@@Z
?removeElement@MArrayDataBuilder@@QEAA?AVMStatus@@I@Z
?removeExtensionAttribute@MDGModifier@@QEAA?AVMStatus@@AEBVMNodeClass@@AEBVMObject@@@Z
?removeExtensionAttribute@MNodeClass@@QEBA?AVMStatus@@AEBVMObject@@@Z
?removeExtensionAttributeIfUnset@MDGModifier@@QEAA?AVMStatus@@AEBVMNodeClass@@AEBVMObject@@@Z
?removeExtensionAttributeIfUnset@MNodeClass@@QEBA?AVMStatus@@AEBVMObject@@@Z
?removeFaceColors@MFnMesh@@QEAA?AVMStatus@@AEAVMIntArray@@@Z
?removeFaceVertexColors@MFnMesh@@QEAA?AVMStatus@@AEAVMIntArray@@0@Z
?removeFileDialogReference@Tplugin@@QEAA_NPEAVTpluginObject@@@Z
?removeFileResolverReference@Tplugin@@QEAA_NPEAVTpluginObject@@@Z
?removeFromCategory@MFnAttribute@@QEAA?AVMStatus@@AEBVMString@@@Z
?removeFromClassification@MNodeClass@@QEAA?AVMStatus@@AEBVMString@@@Z
?removeFromModel@MGlobal@@SA?AVMStatus@@AEAVMObject@@@Z
?removeGeometryCacheReference@Tplugin@@QEAA_NPEAVTpluginObject@@@Z
?removeIkSolverReference@Tplugin@@QEAA_NPEAVTpluginObject@@@Z
?removeImageFormatReference@Tplugin@@QEAA_NPEAVTpluginObject@@@Z
?removeKnot@MFnNurbsCurve@@QEAA?AVMStatus@@N_N@Z
?removeKnotInU@MFnNurbsSurface@@QEAA?AVMStatus@@N_N@Z
?removeKnotInV@MFnNurbsSurface@@QEAA?AVMStatus@@N_N@Z
?removeMember@MFnPartition@@QEAA?AVMStatus@@AEBVMObject@@@Z
?removeMember@MFnSet@@QEAA?AVMStatus@@AEBVMDagPath@@AEBVMObject@@@Z
?removeMember@MFnSet@@QEAA?AVMStatus@@AEBVMObject@@@Z
?removeMember@MFnSet@@QEAA?AVMStatus@@AEBVMPlug@@@Z
?removeMembers@MFnSet@@QEAA?AVMStatus@@AEBVMSelectionList@@@Z
?removeMenuItem@MFnPlugin@@QEAA?AVMStatus@@AEAVMStringArray@@@Z
?removeModelEditorCmdReference@Tplugin@@QEAA_NPEAVTpluginObject@@@Z
?removeMultiInstance@MDGModifier@@QEAA?AVMStatus@@AEBVMPlug@@_N@Z
?removeNamespace@MNamespace@@SA?AVMStatus@@AEBVMString@@_N@Z
?removeNavigatorReference@Tplugin@@QEAA_NPEAVTpluginObject@@@Z
?removeNoDelete@TpluginDBase@@CA_NPEAVTplugin@@@Z
?removeNode@MMessage@@KAXPEAUMMessageNode@@@Z
?removeNodeReference@Tplugin@@QEAA_NPEAVTpluginObject@@@Z
?removeNumericDataAccept@MFnGenericAttribute@@QEAA?AVMStatus@@W4Type@MFnNumericData@@@Z
?removeObjectGroup@MFnGeometryData@@QEAA?AVMStatus@@I@Z
?removeObjectGroupComponent@MFnGeometryData@@QEAA?AVMStatus@@IAEAVMObject@@@Z
?removeOneKnotInU@MFnNurbsSurface@@QEAA?AVMStatus@@N@Z
?removeOneKnotInV@MFnNurbsSurface@@QEAA?AVMStatus@@N@Z
?removeOptionVar@MGlobal@@SAXAEBVMString@@@Z
?removeQueryItem@MURI@@QEAA?AVMStatus@@AEBVMString@@@Z
?removeReference@MFileIO@@SA?AVMStatus@@AEBVMString@@W4NamespaceMergeMethod@1@@Z
?removeReference@TpluginCmd@@AEAAXPEAVTHcommandObject@@@Z
?removeRendererReference@Tplugin@@QEAA_NPEAVTpluginObject@@@Z
?removeRootAttr@MAttributePattern@@QEAA?AVMStatus@@AEBVMObject@@@Z
?removeRootAttr@MAttributePattern@@QEAA?AVMStatus@@I@Z
?removeThenNext@Iterator@TanimCallbackTable@@QEAA_NXZ
?removeTransReference@Tplugin@@QEAA_NPEAVTpluginObject@@@Z
?removeVertexColors@MFnMesh@@QEAA?AVMStatus@@AEAVMIntArray@@@Z
?remove_@?$MPyMArray_Type_Base@VMAttributeSpecArray@@VMAttributeSpec@@@@SAPEAU_object@@PEAV?$MPyObject@VMAttributeSpecArray@@@@PEAU2@@Z
?remove_@?$MPyMArray_Type_Base@VMCallbackIdArray@@_K@@SAPEAU_object@@PEAV?$MPyObject@VMCallbackIdArray@@@@PEAU2@@Z
?remove_@?$MPyMArray_Type_Base@VMColorArray@@VMColor@@@@SAPEAU_object@@PEAV?$MPyObject@VMColorArray@@@@PEAU2@@Z
?remove_@?$MPyMArray_Type_Base@VMDagPathArray@@VMDagPath@@@@SAPEAU_object@@PEAV?$MPyObject@VMDagPathArray@@@@PEAU2@@Z
?remove_@?$MPyMArray_Type_Base@VMDoubleArray@@N@@SAPEAU_object@@PEAV?$MPyObject@VMDoubleArray@@@@PEAU2@@Z
?remove_@?$MPyMArray_Type_Base@VMFloatArray@@M@@SAPEAU_object@@PEAV?$MPyObject@VMFloatArray@@@@PEAU2@@Z
?remove_@?$MPyMArray_Type_Base@VMFloatPointArray@@VMFloatPoint@@@@SAPEAU_object@@PEAV?$MPyObject@VMFloatPointArray@@@@PEAU2@@Z
?remove_@?$MPyMArray_Type_Base@VMFloatVectorArray@@VMFloatVector@@@@SAPEAU_object@@PEAV?$MPyObject@VMFloatVectorArray@@@@PEAU2@@Z
?remove_@?$MPyMArray_Type_Base@VMInt64Array@@_J@@SAPEAU_object@@PEAV?$MPyObject@VMInt64Array@@@@PEAU2@@Z
?remove_@?$MPyMArray_Type_Base@VMIntArray@@H@@SAPEAU_object@@PEAV?$MPyObject@VMIntArray@@@@PEAU2@@Z
?remove_@?$MPyMArray_Type_Base@VMMatrixArray@@VMMatrix@@@@SAPEAU_object@@PEAV?$MPyObject@VMMatrixArray@@@@PEAU2@@Z
?remove_@?$MPyMArray_Type_Base@VMObjectArray@@VMObject@@@@SAPEAU_object@@PEAV?$MPyObject@VMObjectArray@@@@PEAU2@@Z
?remove_@?$MPyMArray_Type_Base@VMPlugArray@@VMPlug@@@@SAPEAU_object@@PEAV?$MPyObject@VMPlugArray@@@@PEAU2@@Z
?remove_@?$MPyMArray_Type_Base@VMPointArray@@VMPoint@@@@SAPEAU_object@@PEAV?$MPyObject@VMPointArray@@@@PEAU2@@Z
?remove_@?$MPyMArray_Type_Base@VMTimeArray@@VMTime@@@@SAPEAU_object@@PEAV?$MPyObject@VMTimeArray@@@@PEAU2@@Z
?remove_@?$MPyMArray_Type_Base@VMUint64Array@@_K@@SAPEAU_object@@PEAV?$MPyObject@VMUint64Array@@@@PEAU2@@Z
?remove_@?$MPyMArray_Type_Base@VMUintArray@@I@@SAPEAU_object@@PEAV?$MPyObject@VMUintArray@@@@PEAU2@@Z
?remove_@?$MPyMArray_Type_Base@VMVectorArray@@VMVector@@@@SAPEAU_object@@PEAV?$MPyObject@VMVectorArray@@@@PEAU2@@Z
?renameNamespace@MNamespace@@SA?AVMStatus@@AEBVMString@@0PEBV3@@Z
?renameNode@MDGModifier@@QEAA?AVMStatus@@AEBVMObject@@AEBVMString@@@Z
?renamePlugin@THapiNodeFlags@@SAXVTstring@@0@Z
?renameUVSet@MFnMesh@@QEAA?AVMStatus@@AEBVMString@@0PEAVMDGModifier@@@Z
?renderGroupComponentType@MPxSurfaceShape@@UEBA?AW4Type@MFn@@XZ
?renderGroupComponentType@THsurfaceShape@@UEBAPEAVTmetaclass@@XZ
?renderInfo@MPxTransform@@2VMObject@@A
?renderLayerColor@MPxTransform@@2VMObject@@A
?renderLayerId@MPxTransform@@2VMObject@@A
?renderLayerInfo@MPxTransform@@2VMObject@@A
?renderLayerRenderable@MPxTransform@@2VMObject@@A
?renderPanZoom@MFnCamera@@QEBA_NPEAVMStatus@@@Z
?renderableOnlySet@MPxObjectSet@@2VMObject@@A
?renderers@Tplugin@@QEBAAEBVTpluginRendererPtrs@@XZ
?reorder@MEulerRotation@@QEBA?AV1@W4RotationOrder@1@@Z
?reorderIt@MEulerRotation@@QEAAAEAV1@W4RotationOrder@1@@Z
?reorderRotation@MTransformationMatrix@@QEAA?AVMStatus@@AEBW4RotationOrder@1@@Z
?reorderedAttribute@MFnDependencyNode@@QEBA?AVMObject@@IPEAVMStatus@@@Z
?repTypes@MFnAssembly@@QEBA?AVMStringArray@@PEAVMStatus@@@Z
?reparentNode@MDagModifier@@QEAA?AVMStatus@@AEBVMObject@@0@Z
?replace@MSelectionList@@QEAA?AVMStatus@@IAEBVMDagPath@@AEBVMObject@@@Z
?replace@MSelectionList@@QEAA?AVMStatus@@IAEBVMObject@@@Z
?replace@MSelectionList@@QEAA?AVMStatus@@IAEBVMPlug@@@Z
?reportError@MPyUtil@@SAXXZ
?repr@?$MPyMArray_Type_Base@VMAttributeSpecArray@@VMAttributeSpec@@@@SAPEAU_object@@PEAV?$MPyObject@VMAttributeSpecArray@@@@@Z
?repr@?$MPyMArray_Type_Base@VMCallbackIdArray@@_K@@SAPEAU_object@@PEAV?$MPyObject@VMCallbackIdArray@@@@@Z
?repr@?$MPyMArray_Type_Base@VMColorArray@@VMColor@@@@SAPEAU_object@@PEAV?$MPyObject@VMColorArray@@@@@Z
?repr@?$MPyMArray_Type_Base@VMDagPathArray@@VMDagPath@@@@SAPEAU_object@@PEAV?$MPyObject@VMDagPathArray@@@@@Z
?repr@?$MPyMArray_Type_Base@VMDoubleArray@@N@@SAPEAU_object@@PEAV?$MPyObject@VMDoubleArray@@@@@Z
?repr@?$MPyMArray_Type_Base@VMFloatArray@@M@@SAPEAU_object@@PEAV?$MPyObject@VMFloatArray@@@@@Z
?repr@?$MPyMArray_Type_Base@VMFloatPointArray@@VMFloatPoint@@@@SAPEAU_object@@PEAV?$MPyObject@VMFloatPointArray@@@@@Z
?repr@?$MPyMArray_Type_Base@VMFloatVectorArray@@VMFloatVector@@@@SAPEAU_object@@PEAV?$MPyObject@VMFloatVectorArray@@@@@Z
?repr@?$MPyMArray_Type_Base@VMInt64Array@@_J@@SAPEAU_object@@PEAV?$MPyObject@VMInt64Array@@@@@Z
?repr@?$MPyMArray_Type_Base@VMIntArray@@H@@SAPEAU_object@@PEAV?$MPyObject@VMIntArray@@@@@Z
?repr@?$MPyMArray_Type_Base@VMMatrixArray@@VMMatrix@@@@SAPEAU_object@@PEAV?$MPyObject@VMMatrixArray@@@@@Z
?repr@?$MPyMArray_Type_Base@VMObjectArray@@VMObject@@@@SAPEAU_object@@PEAV?$MPyObject@VMObjectArray@@@@@Z
?repr@?$MPyMArray_Type_Base@VMPlugArray@@VMPlug@@@@SAPEAU_object@@PEAV?$MPyObject@VMPlugArray@@@@@Z
?repr@?$MPyMArray_Type_Base@VMPointArray@@VMPoint@@@@SAPEAU_object@@PEAV?$MPyObject@VMPointArray@@@@@Z
?repr@?$MPyMArray_Type_Base@VMTimeArray@@VMTime@@@@SAPEAU_object@@PEAV?$MPyObject@VMTimeArray@@@@@Z
?repr@?$MPyMArray_Type_Base@VMUint64Array@@_K@@SAPEAU_object@@PEAV?$MPyObject@VMUint64Array@@@@@Z
?repr@?$MPyMArray_Type_Base@VMUintArray@@I@@SAPEAU_object@@PEAV?$MPyObject@VMUintArray@@@@@Z
?repr@?$MPyMArray_Type_Base@VMVectorArray@@VMVector@@@@SAPEAU_object@@PEAV?$MPyObject@VMVectorArray@@@@@Z
?reserve@MTrimBoundaryArray@@QEAA?AVMStatus@@I@Z
?reset@MAutoCLEvent@@QEAAXXZ
?reset@MAutoCLKernel@@QEAAXXZ
?reset@MAutoCLMem@@QEAAXXZ
?reset@MEvaluationNodeIterator@@QEAAXXZ
?reset@MItCurveCV@@QEAA?AVMStatus@@AEAVMObject@@@Z
?reset@MItCurveCV@@QEAA?AVMStatus@@AEBVMDagPath@@AEAVMObject@@@Z
?reset@MItCurveCV@@QEAA?AVMStatus@@XZ
?reset@MItDag@@QEAA?AVMStatus@@AEAVMIteratorType@@PEBVMObject@@PEBVMDagPath@@W4TraversalType@1@@Z
?reset@MItDag@@QEAA?AVMStatus@@AEBVMDagPath@@W4TraversalType@1@W4Type@MFn@@@Z
?reset@MItDag@@QEAA?AVMStatus@@AEBVMObject@@W4TraversalType@1@W4Type@MFn@@@Z
?reset@MItDag@@QEAA?AVMStatus@@XZ
?reset@MItDependencyGraph@@QEAA?AVMStatus@@XZ
?reset@MItDependencyNodes@@QEAA?AVMStatus@@AEAVMIteratorType@@@Z
?reset@MItDependencyNodes@@QEAA?AVMStatus@@W4Type@MFn@@@Z
?reset@MItEdits@@QEAA?AVMStatus@@XZ
?reset@MItGeometry@@QEAA?AVMStatus@@XZ
?reset@MItInstancer@@QEAA?AVMStatus@@XZ
?reset@MItMeshEdge@@QEAA?AVMStatus@@AEAVMObject@@0@Z
?reset@MItMeshEdge@@QEAA?AVMStatus@@AEBVMDagPath@@AEAVMObject@@@Z
?reset@MItMeshEdge@@QEAA?AVMStatus@@XZ
?reset@MItMeshFaceVertex@@QEAA?AVMStatus@@AEBVMDagPath@@AEAVMObject@@@Z
?reset@MItMeshFaceVertex@@QEAA?AVMStatus@@AEBVMObject@@@Z
?reset@MItMeshFaceVertex@@QEAA?AVMStatus@@XZ
?reset@MItMeshPolygon@@QEAA?AVMStatus@@AEBVMDagPath@@AEAVMObject@@@Z
?reset@MItMeshPolygon@@QEAA?AVMStatus@@AEBVMObject@@@Z
?reset@MItMeshPolygon@@QEAA?AVMStatus@@XZ
?reset@MItMeshVertex@@QEAA?AVMStatus@@AEAVMObject@@@Z
?reset@MItMeshVertex@@QEAA?AVMStatus@@AEBVMDagPath@@AEAVMObject@@@Z
?reset@MItMeshVertex@@QEAA?AVMStatus@@XZ
?reset@MItSelectionList@@QEAA?AVMStatus@@XZ
?reset@MItSubdEdge@@QEAA?AVMStatus@@XZ
?reset@MItSubdFace@@QEAA?AVMStatus@@XZ
?reset@MItSubdVertex@@QEAA?AVMStatus@@XZ
?reset@MItSurfaceCV@@QEAA?AVMStatus@@AEBVMDagPath@@AEBVMObject@@_N@Z
?reset@MItSurfaceCV@@QEAA?AVMStatus@@AEBVMObject@@_N@Z
?reset@MItSurfaceCV@@QEAA?AVMStatus@@XZ
?reset@MPxGeometryIterator@@UEAAXXZ
?reset@MPyMPxGeometryIterator_Director@@UEAAXXZ
?reset@TanimCallbackTable@@QEAAXXZ
?resetCache@MExternalContentInfoTable@@AEAAXXZ
?resetClusterPivotsHACK@THxformMatrix@@UEAA?AVTxformMatrix@@AEBV2@@Z
?resetColorSetToPrevious@MItMeshFaceVertex@@IEAAXPEBVMString@@H@Z
?resetColorSetToPrevious@MItMeshPolygon@@IEAAXPEBVMString@@H@Z
?resetColorSetToPrevious@MItMeshVertex@@IEBAXPEBVMString@@H@Z
?resetCurrentIteratorFromMObjectOrMPlug@MItDependencyGraph@@AEAAXAEAVMObject@@AEAVMPlug@@W4Direction@1@W4Traversal@1@W4Level@1@PEAVMStatus@@@Z
?resetError@MFileIO@@SA?AVMStatus@@XZ
?resetFilter@MItDependencyGraph@@QEAA?AVMStatus@@XZ
?resetFromRestPosition@MFnTransform@@QEAA?AVMStatus@@XZ
?resetInner@MItSelectionList@@AEAA?AVMStatus@@XZ
?resetPluginPrefList@TpluginPrefMgr@@AEAAXXZ
?resetTo@MItDependencyGraph@@QEAA?AVMStatus@@AEAVMObject@@W4Type@MFn@@W4Direction@1@W4Traversal@1@W4Level@1@@Z
?resetTo@MItDependencyGraph@@QEAA?AVMStatus@@AEAVMPlug@@W4Type@MFn@@W4Direction@1@W4Traversal@1@W4Level@1@@Z
?resetTo@MItDependencyGraph@@QEAA?AVMStatus@@PEAVMObject@@PEAVMPlug@@AEAVMIteratorType@@W4Direction@1@W4Traversal@1@W4Level@1@@Z
?resetToDefaultErrorLogPathName@MGlobal@@SA?AVMStatus@@XZ
?resetTransformation@MPxTransform@@UEAAXAEBVMMatrix@@@Z
?resetTransformation@MPxTransform@@UEAAXPEAVMPxTransformationMatrix@@@Z
?resize@MImage@@QEAA?AVMStatus@@HH_N@Z
?resolveMethod@MFileObject@@QEBA?AW4MFileResolveMethod@1@XZ
?resolveURI@MPxFileResolver@@UEAA?AVMString@@AEBVMURI@@W4MPxFileResolverMode@1@PEAVMStatus@@@Z
?resolveURIWithContext@MPxFileResolver@@UEAA?AVMString@@AEBVMURI@@W4MPxFileResolverMode@1@AEBV2@PEAVMStatus@@@Z
?resolvedFullName@MFileObject@@QEBA?AVMString@@XZ
?resolvedName@MFileObject@@QEBA?AVMString@@XZ
?resolvedPath@MFileObject@@QEBA?AVMString@@XZ
?resolverName@MPxFileResolver@@QEBA?AVMString@@XZ
?restPosition@MFnTransform@@QEBA?AVMTransformationMatrix@@PEAVMStatus@@@Z
?restriction@MFnSet@@QEBA?AW4Restriction@1@PEAVMStatus@@@Z
?resultType@MCommandResult@@QEBA?AW4Type@1@PEAVMStatus@@@Z
?retainInfo@Tplugin@@QEAA_NXZ
?retainInstances@Tplugin@@QEBA_NXZ
?reverse@MFnNurbsCurve@@QEAA?AVMStatus@@_N@Z
?reverse@MPxTransformationMatrix@@UEBA?AV1@XZ
?reverse@THxformMatrix@@UEBA?AVTxformMatrix@@XZ
?rewind@MPxCacheFormat@@UEAA?AVMStatus@@XZ
?rightDirection@MFnCamera@@QEBA?AVMVector@@W4Space@MSpace@@PEAVMStatus@@@Z
?rindex@MString@@QEBAHD@Z
?rindexW@MString@@QEBAHAEBV1@@Z
?rindexW@MString@@QEBAHD@Z
?rindexW@MString@@QEBAH_W@Z
?root@MItDag@@QEAA?AVMObject@@PEAVMStatus@@@Z
?rootAttr@MAttributePattern@@QEBA?AVMObject@@IPEAVMStatus@@@Z
?rootAttrCount@MAttributePattern@@QEBAIPEAVMStatus@@@Z
?rootNamespace@MNamespace@@SA?AVMString@@PEAVMStatus@@@Z
?rootNode@MItDependencyGraph@@QEAA?AVMObject@@PEAVMStatus@@@Z
?rootPlug@MItDependencyGraph@@QEAA?AVMPlug@@PEAVMStatus@@@Z
?rotate@MPxImagePlane@@2VMObject@@A
?rotate@MPxTransform@@2VMObject@@A
?rotateAngle@MFnAnisotropyShader@@QEBAMPEAVMStatus@@@Z
?rotateAxis@MPxTransform@@2VMObject@@A
?rotateAxisX@MPxTransform@@2VMObject@@A
?rotateAxisY@MPxTransform@@2VMObject@@A
?rotateAxisZ@MPxTransform@@2VMObject@@A
?rotateBy@MFnTransform@@QEAA?AVMStatus@@AEBVMEulerRotation@@W4Space@MSpace@@@Z
?rotateBy@MFnTransform@@QEAA?AVMStatus@@AEBVMQuaternion@@W4Space@MSpace@@@Z
?rotateBy@MFnTransform@@QEAA?AVMStatus@@QEBNW4RotationOrder@MTransformationMatrix@@W4Space@MSpace@@@Z
?rotateBy@MPxTransform@@UEAA?AVMStatus@@AEBVMEulerRotation@@W4Space@MSpace@@AEBVMDGContext@@@Z
?rotateBy@MPxTransform@@UEAA?AVMStatus@@AEBVMQuaternion@@W4Space@MSpace@@AEBVMDGContext@@@Z
?rotateBy@MPxTransformationMatrix@@UEAA?AVMStatus@@AEBVMEulerRotation@@W4Space@MSpace@@@Z
?rotateBy@MPxTransformationMatrix@@UEAA?AVMStatus@@AEBVMQuaternion@@W4Space@MSpace@@@Z
?rotateBy@MTransformationMatrix@@QEAAAEAV1@AEBVMEulerRotation@@W4Space@MSpace@@PEAVMStatus@@@Z
?rotateBy@MTransformationMatrix@@QEAAAEAV1@AEBVMQuaternion@@W4Space@MSpace@@PEAVMStatus@@@Z
?rotateBy@MVector@@QEBA?AV1@AEBVMEulerRotation@@@Z
?rotateBy@MVector@@QEBA?AV1@AEBVMQuaternion@@@Z
?rotateBy@MVector@@QEBA?AV1@NNNN@Z
?rotateBy@MVector@@QEBA?AV1@QEBNW4RotationOrder@MTransformationMatrix@@@Z
?rotateBy@MVector@@QEBA?AV1@W4Axis@1@N@Z
?rotateBy@THxformMatrix@@UEAAAEAVTxformMatrix@@AEBVTquaternion@@W4TxformSpace@@@Z
?rotateBy@THxformMatrix@@UEAAAEAVTxformMatrix@@AEBVTrotateXYZ@@W4TxformSpace@@@Z
?rotateByQuaternion@MFnTransform@@QEAA?AVMStatus@@NNNNW4Space@MSpace@@@Z
?rotateMatrix@THxformMatrix@@UEBA?AVT4dDblMatrix@@XZ
?rotateMatrixInverse@THxformMatrix@@UEBA?AVT4dDblMatrix@@XZ
?rotateOrder@MPxTransform@@2VMObject@@A
?rotateOrient@THxformMatrix@@UEBA?AVTquaternion@@W4TxformSpace@@@Z
?rotateOrientation@MFnTransform@@QEBA?AVMQuaternion@@W4Space@MSpace@@PEAVMStatus@@@Z
?rotateOrientation@MPxTransformationMatrix@@UEBA?AVMQuaternion@@W4Space@MSpace@@PEAVMStatus@@@Z
?rotatePivot@MFnTransform@@QEBA?AVMPoint@@W4Space@MSpace@@PEAVMStatus@@@Z
?rotatePivot@MPxTransform@@2VMObject@@A
?rotatePivot@MPxTransformationMatrix@@UEBA?AVMPoint@@W4Space@MSpace@@PEAVMStatus@@@Z
?rotatePivot@MTransformationMatrix@@QEBA?AVMPoint@@W4Space@MSpace@@PEAVMStatus@@@Z
?rotatePivot@THxformMatrix@@UEBA?AVT4dDblPoint@@W4TxformSpace@@@Z
?rotatePivot@THxformMatrix@@UEBA?AVT4dDblPoint@@XZ
?rotatePivotTranslate@MPxTransform@@2VMObject@@A
?rotatePivotTranslateX@MPxTransform@@2VMObject@@A
?rotatePivotTranslateY@MPxTransform@@2VMObject@@A
?rotatePivotTranslateZ@MPxTransform@@2VMObject@@A
?rotatePivotTranslation@MFnTransform@@QEBA?AVMVector@@W4Space@MSpace@@PEAVMStatus@@@Z
?rotatePivotTranslation@MPxTransformationMatrix@@UEBA?AVMVector@@W4Space@MSpace@@PEAVMStatus@@@Z
?rotatePivotTranslation@MTransformationMatrix@@QEBA?AVMVector@@W4Space@MSpace@@PEAVMStatus@@@Z
?rotatePivotX@MPxTransform@@2VMObject@@A
?rotatePivotY@MPxTransform@@2VMObject@@A
?rotatePivotZ@MPxTransform@@2VMObject@@A
?rotateQuaternion@MPxTransform@@2VMObject@@A
?rotateQuaternionW@MPxTransform@@2VMObject@@A
?rotateQuaternionX@MPxTransform@@2VMObject@@A
?rotateQuaternionY@MPxTransform@@2VMObject@@A
?rotateQuaternionZ@MPxTransform@@2VMObject@@A
?rotateTo@MPxTransform@@UEAA?AVMStatus@@AEBVMEulerRotation@@W4Space@MSpace@@AEBVMDGContext@@@Z
?rotateTo@MPxTransform@@UEAA?AVMStatus@@AEBVMQuaternion@@W4Space@MSpace@@AEBVMDGContext@@@Z
?rotateTo@MPxTransformationMatrix@@UEAA?AVMStatus@@AEBVMEulerRotation@@W4Space@MSpace@@@Z
?rotateTo@MPxTransformationMatrix@@UEAA?AVMStatus@@AEBVMQuaternion@@W4Space@MSpace@@@Z
?rotateTo@MTransformationMatrix@@QEAAAEAV1@AEBVMEulerRotation@@@Z
?rotateTo@MTransformationMatrix@@QEAAAEAV1@AEBVMQuaternion@@@Z
?rotateTo@MVector@@QEBA?AVMQuaternion@@AEBV1@@Z
?rotateTo@THxformMatrix@@UEAAAEAVTxformMatrix@@AEBVTquaternion@@W4TxformSpace@@@Z
?rotateTo@THxformMatrix@@UEAAAEAVTxformMatrix@@AEBVTrotateXYZ@@W4TxformSpace@@@Z
?rotateTranslation@THxformMatrix@@UEBA?AVT4dDblVector@@W4TxformSpace@@@Z
?rotateTranslation@THxformMatrix@@UEBA?AVT4dDblVector@@XZ
?rotateX@MPxTransform@@2VMObject@@A
?rotateXYZ@TapiPack@@SA?AVTrotateXYZ@@QEBNW4RotationOrder@MTransformationMatrix@@@Z
?rotateXYZ@TapiPack@@SA?AW4RotationOrder@MTransformationMatrix@@QEANAEBVTrotateXYZ@@@Z
?rotateY@MPxTransform@@2VMObject@@A
?rotateZ@MPxTransform@@2VMObject@@A
?rotation@MPxTransformationMatrix@@UEBA?AVMQuaternion@@W4Space@MSpace@@PEAVMStatus@@@Z
?rotation@MTransformationMatrix@@QEBA?AVMQuaternion@@XZ
?rotation@THxformMatrix@@UEBA?AVTquaternion@@W4TxformSpace@@@Z
?rotationInterpolation@MPxTransform@@2VMObject@@A
?rotationOrder@MFnTransform@@QEBA?AW4RotationOrder@MTransformationMatrix@@PEAVMStatus@@@Z
?rotationOrder@MPxTransformationMatrix@@UEBA?AW4RotationOrder@MTransformationMatrix@@PEAVMStatus@@@Z
?rotationOrder@MTransformationMatrix@@QEBA?AW4RotationOrder@1@PEAVMStatus@@@Z
?rotationOrder@THxformMatrix@@UEBA?AW4TrotOrder@@XZ
?rotationOrientation@MTransformationMatrix@@QEBA?AVMQuaternion@@XZ
?rotationXYZ@THxformMatrix@@UEBA?AVTrotateXYZ@@W4TxformSpace@@@Z
?roughness@MFnAnisotropyShader@@QEBAMPEAVMStatus@@@Z
?roughness@MFnPhongEShader@@QEBAMPEAVMStatus@@@Z
?rtRefractedColor@MFnLambertShader@@QEBA_NPEAVMStatus@@@Z
?sFileResolversByName@TpluginFileResolverDBase@@0PEAVTpluginFileResolverDBaseNameTable@@EA
?sFileResolversByScheme@TpluginFileResolverDBase@@0PEAVTpluginFileResolverDBaseSchemeTable@@EA
?sPatternFactory@THattributePatternFactory@@SAPEAVTattributePatternFactory@@PEAX@Z
?sTypeof@THclient@@SAPEAVTmetaclass@@XZ
?sTypeof@THrenderPassImpl@@SAPEAVTmetaclass@@XZ
?sTypeof@TpluginNode@@SAPEAVTmetaclass@@XZ
?sVsBaseData@THdependNode@@SAAEAVTdependNodeVS@@XZ
?sVsBaseData@THsurfaceShape@@SAAEAVTdependNodeVS@@XZ
?sVsData@THdependNode@@SAAEAVTdnVSTHdependNode@@XZ
?sVsData@THsurfaceShape@@SAAEAVTdnVSTHsurfaceShape@@XZ
?sampleColorRamp@MRampAttribute@@QEAAXIAEAVMColorArray@@PEAVMStatus@@AEAVMDGContext@@@Z
?sampleValueCurve@MCurveAttribute@@QEAAXIAEAVMFloatArray@@PEAVMStatus@@@Z
?sampleValueRamp@MRampAttribute@@QEAAXIAEAVMFloatArray@@PEAVMStatus@@AEAVMDGContext@@@Z
?save@MFileIO@@SA?AVMStatus@@_N@Z
?saveAs@MFileIO@@SA?AVMStatus@@AEBVMString@@PEBD_N@Z
?savePluginPrefs@TpluginPrefMgr@@SA_NAEAVTstring@@@Z
?saveReference@MFileIO@@SA?AVMStatus@@AEBVMString@@PEAV2@@Z
?scale@MPxTransform@@2VMObject@@A
?scale@MPxTransformationMatrix@@UEBA?AVMVector@@W4Space@MSpace@@PEAVMStatus@@@Z
?scale@THxformMatrix@@UEBA?AVTscale@@W4TxformSpace@@@Z
?scale@TapiPack@@SA?AVTscale@@QEBN@Z
?scale@TapiPack@@SAXQEANAEBVTscale@@@Z
?scaleBy@MFnTransform@@QEAA?AVMStatus@@QEBN@Z
?scaleBy@MPxTransform@@UEAA?AVMStatus@@AEBVMVector@@W4Space@MSpace@@AEBVMDGContext@@@Z
?scaleBy@MPxTransformationMatrix@@UEAA?AVMStatus@@AEBVMVector@@W4Space@MSpace@@@Z
?scaleBy@THxformMatrix@@UEAAAEAVTxformMatrix@@AEBVTscale@@W4TxformSpace@@@Z
?scaleIt@MQuaternion@@QEAAAEAV1@N@Z
?scaleMatrix@THxformMatrix@@UEBA?AVT4dDblMatrix@@XZ
?scaleMatrixInverse@THxformMatrix@@UEBA?AVT4dDblMatrix@@XZ
?scalePivot@MFnTransform@@QEBA?AVMPoint@@W4Space@MSpace@@PEAVMStatus@@@Z
?scalePivot@MPxTransform@@2VMObject@@A
?scalePivot@MPxTransformationMatrix@@UEBA?AVMPoint@@W4Space@MSpace@@PEAVMStatus@@@Z
?scalePivot@MTransformationMatrix@@QEBA?AVMPoint@@W4Space@MSpace@@PEAVMStatus@@@Z
?scalePivot@THxformMatrix@@UEBA?AVT4dDblPoint@@W4TxformSpace@@@Z
?scalePivot@THxformMatrix@@UEBA?AVT4dDblPoint@@XZ
?scalePivotTranslate@MPxTransform@@2VMObject@@A
?scalePivotTranslateX@MPxTransform@@2VMObject@@A
?scalePivotTranslateY@MPxTransform@@2VMObject@@A
?scalePivotTranslateZ@MPxTransform@@2VMObject@@A
?scalePivotTranslation@MFnTransform@@QEBA?AVMVector@@W4Space@MSpace@@PEAVMStatus@@@Z
?scalePivotTranslation@MPxTransformationMatrix@@UEBA?AVMVector@@W4Space@MSpace@@PEAVMStatus@@@Z
?scalePivotTranslation@MTransformationMatrix@@QEBA?AVMVector@@W4Space@MSpace@@PEAVMStatus@@@Z
?scalePivotX@MPxTransform@@2VMObject@@A
?scalePivotY@MPxTransform@@2VMObject@@A
?scalePivotZ@MPxTransform@@2VMObject@@A
?scaleTo@MPxTransform@@UEAA?AVMStatus@@AEBVMVector@@W4Space@MSpace@@AEBVMDGContext@@@Z
?scaleTo@MPxTransformationMatrix@@UEAA?AVMStatus@@AEBVMVector@@W4Space@MSpace@@@Z
?scaleTo@THxformMatrix@@UEAAAEAVTxformMatrix@@AEBVTscale@@W4TxformSpace@@@Z
?scaleTranslation@THxformMatrix@@UEBA?AVT4dDblVector@@W4TxformSpace@@@Z
?scaleTranslation@THxformMatrix@@UEBA?AVT4dDblVector@@XZ
?scaleX@MPxTransform@@2VMObject@@A
?scaleY@MPxTransform@@2VMObject@@A
?scaleZ@MPxTransform@@2VMObject@@A
?sceneData@MPxCameraSet@@2VMObject@@A
?sceneFile@TapiFileObject@@QEAAPEAVTsceneFile@@XZ
?sceneFile@TapiFileObject@@QEBAPEBVTsceneFile@@XZ
?sceneResetCallback@TpluginImageFormatDBase@@SAXXZ
?schedulingType@MPxNode@@UEBA?AW4SchedulingType@1@XZ
?schedulingType@THdependNode@@UEBA?AW4eSchedulingType@TdependNode@@XZ
?schedulingType@THsurfaceShape@@UEBA?AW4eSchedulingType@TdependNode@@XZ
?script@TpluginCmd@@QEBAAEBVTapiFileObject@@XZ
?scriptDataPointer@THclient@@SAPEAU_object@@PEAX@Z
?scriptUICreationBatchScript@Tplugin@@QEBAPEAU_object@@XZ
?scriptUICreationScript@Tplugin@@QEBAPEAU_object@@XZ
?scriptUIDeletionBatchScript@Tplugin@@QEBAPEAU_object@@XZ
?scriptUIDeletionScript@Tplugin@@QEBAPEAU_object@@XZ
?seam@MWeight@@QEBAMXZ
?select@MGlobal@@SA?AVMStatus@@AEAVMDagPath@@AEBVMObject@@W4ListAdjustment@1@@Z
?select@MGlobal@@SA?AVMStatus@@AEAVMObject@@W4ListAdjustment@1@@Z
?select@MGlobal@@SA?AVMStatus@@AEBVMDagPath@@AEBVMObject@@W4ListAdjustment@1@@Z
?select@THsurfaceShape@@UEBA_NAEAVTselectArgs@@AEAVTselectionList@@AEAVT4dDblPointArray@@@Z
?selectAncestorLogicalIndex@MPlug@@QEAA?AVMStatus@@IAEBVMObject@@@Z
?selectByName@MGlobal@@SA?AVMStatus@@AEBVMString@@W4ListAdjustment@1@@Z
?selectCommand@MGlobal@@SA?AVMStatus@@AEBVMSelectionList@@W4ListAdjustment@1@@Z
?selectFromScreen@MGlobal@@SA?AVMStatus@@AEBF000W4ListAdjustment@1@W4SelectionMethod@1@@Z
?selectFromScreen@MGlobal@@SA?AVMStatus@@AEBF0W4ListAdjustment@1@W4SelectionMethod@1@@Z
?selectHandle@MPxTransform@@2VMObject@@A
?selectHandleX@MPxTransform@@2VMObject@@A
?selectHandleY@MPxTransform@@2VMObject@@A
?selectHandleZ@MPxTransform@@2VMObject@@A
?selectableComponentMask@THsurfaceShape@@UEBA?AVTselectionTypeSet@@XZ
?selectableObjectMask@THsurfaceShape@@UEBA?AVTselectionTypeSet@@XZ
?selectionList@TapiCast@@SA?AVMSelectionList@@AEAVTselectionList@@@Z
?selectionList@TapiCast@@SAAEAVTselectionList@@AEAVMSelectionList@@@Z
?selectionList@TapiCast@@SAAEBVTselectionList@@AEBVMSelectionList@@@Z
?selectionList@TapiPack@@SAXAEAVMSelectionList@@PEAVTselectionList@@@Z
?selectionList@TapiPack@@SAXAEAVTselectionList@@AEAVMSelectionList@@@Z
?selectionMethod@MGlobal@@SA?AW4SelectionMethod@1@PEAVMStatus@@@Z
?selectionMode@MGlobal@@SA?AW4MSelectionMode@1@PEAVMStatus@@@Z
?selectionTypeSet@TapiCast@@SA?AVMSelectionMask@@AEAVTselectionTypeSet@@@Z
?selectionTypeSet@TapiCast@@SA?BVMSelectionMask@@AEBVTselectionTypeSet@@@Z
?selectionTypeSet@TapiCast@@SAAEAVTselectionTypeSet@@AEAVMSelectionMask@@@Z
?selectionTypeSet@TapiCast@@SAAEBVTselectionTypeSet@@AEBVMSelectionMask@@@Z
?selectionTypeSet@TapiPack@@SA?AVMSelectionMask@@PEBVTselectionTypeSet@@@Z
?separateDepth@MPxImagePlane@@2VMObject@@A
?separator@?1??appendToStr@?$MPyMArray_Type_Base@VMAttributeSpecArray@@VMAttributeSpec@@@@SAXAEBVMAttributeSpecArray@@PEAPEAU_object@@@Z@4PEAU4@EA
?separator@?1??appendToStr@?$MPyMArray_Type_Base@VMCallbackIdArray@@_K@@SAXAEBVMCallbackIdArray@@PEAPEAU_object@@@Z@4PEAU4@EA
?separator@?1??appendToStr@?$MPyMArray_Type_Base@VMColorArray@@VMColor@@@@SAXAEBVMColorArray@@PEAPEAU_object@@@Z@4PEAU4@EA
?separator@?1??appendToStr@?$MPyMArray_Type_Base@VMDagPathArray@@VMDagPath@@@@SAXAEBVMDagPathArray@@PEAPEAU_object@@@Z@4PEAU4@EA
?separator@?1??appendToStr@?$MPyMArray_Type_Base@VMDoubleArray@@N@@SAXAEBVMDoubleArray@@PEAPEAU_object@@@Z@4PEAU4@EA
?separator@?1??appendToStr@?$MPyMArray_Type_Base@VMFloatArray@@M@@SAXAEBVMFloatArray@@PEAPEAU_object@@@Z@4PEAU4@EA
?separator@?1??appendToStr@?$MPyMArray_Type_Base@VMFloatPointArray@@VMFloatPoint@@@@SAXAEBVMFloatPointArray@@PEAPEAU_object@@@Z@4PEAU4@EA
?separator@?1??appendToStr@?$MPyMArray_Type_Base@VMFloatVectorArray@@VMFloatVector@@@@SAXAEBVMFloatVectorArray@@PEAPEAU_object@@@Z@4PEAU4@EA
?separator@?1??appendToStr@?$MPyMArray_Type_Base@VMInt64Array@@_J@@SAXAEBVMInt64Array@@PEAPEAU_object@@@Z@4PEAU4@EA
?separator@?1??appendToStr@?$MPyMArray_Type_Base@VMIntArray@@H@@SAXAEBVMIntArray@@PEAPEAU_object@@@Z@4PEAU4@EA
?separator@?1??appendToStr@?$MPyMArray_Type_Base@VMMatrixArray@@VMMatrix@@@@SAXAEBVMMatrixArray@@PEAPEAU_object@@@Z@4PEAU4@EA
?separator@?1??appendToStr@?$MPyMArray_Type_Base@VMObjectArray@@VMObject@@@@SAXAEBVMObjectArray@@PEAPEAU_object@@@Z@4PEAU4@EA
?separator@?1??appendToStr@?$MPyMArray_Type_Base@VMPlugArray@@VMPlug@@@@SAXAEBVMPlugArray@@PEAPEAU_object@@@Z@4PEAU4@EA
?separator@?1??appendToStr@?$MPyMArray_Type_Base@VMPointArray@@VMPoint@@@@SAXAEBVMPointArray@@PEAPEAU_object@@@Z@4PEAU4@EA
?separator@?1??appendToStr@?$MPyMArray_Type_Base@VMTimeArray@@VMTime@@@@SAXAEBVMTimeArray@@PEAPEAU_object@@@Z@4PEAU4@EA
?separator@?1??appendToStr@?$MPyMArray_Type_Base@VMUint64Array@@_K@@SAXAEBVMUint64Array@@PEAPEAU_object@@@Z@4PEAU4@EA
?separator@?1??appendToStr@?$MPyMArray_Type_Base@VMUintArray@@I@@SAXAEBVMUintArray@@PEAPEAU_object@@@Z@4PEAU4@EA
?separator@?1??appendToStr@?$MPyMArray_Type_Base@VMVectorArray@@VMVector@@@@SAXAEBVMVectorArray@@PEAPEAU_object@@@Z@4PEAU4@EA
?serviceDescription@TpluginCmd@@UEAA?AVTstring@@XZ
?serviceDescription@TpluginNode@@UEAA?AVTstring@@XZ
?serviceDescription@TpluginObject@@UEAA?AVTstring@@XZ
?set2Double@MDataHandle@@QEAAXNN@Z
?set2Float@MDataHandle@@QEAAXMM@Z
?set2Int@MDataHandle@@QEAAXHH@Z
?set2Short@MDataHandle@@QEAAXFF@Z
?set3DDelta@MTesselationParams@@QEAAXN@Z
?set3Double@MDataHandle@@QEAAXNNN@Z
?set3Float@MDataHandle@@QEAAXMMM@Z
?set3Int@MDataHandle@@QEAAXHHH@Z
?set3Short@MDataHandle@@QEAAXFFF@Z
?set@MArrayDataHandle@@QEAA?AVMStatus@@AEAVMArrayDataBuilder@@@Z
?set@MAtomic@@SAHPECHH@Z
?set@MAttributePatternArray@@QEAA?AVMStatus@@AEBVMAttributePattern@@I@Z
?set@MAttributeSpecArray@@QEAA?AVMStatus@@AEBVMAttributeSpec@@I@Z
?set@MCallbackIdArray@@QEAA?AVMStatus@@_KI@Z
?set@MColor@@QEAA_NW4MColorType@1@MMMM@Z
?set@MColorArray@@QEAA?AVMStatus@@AEBVMColor@@I@Z
?set@MColorArray@@QEAA?AVMStatus@@IMMMM@Z
?set@MColorArray@@QEAA?AVMStatus@@QEAMI@Z
?set@MColorArray@@QEAA?AVMStatus@@QEAY03MI@Z
?set@MColorArray@@QEAA?AVMStatus@@QEAY03NI@Z
?set@MDagPath@@QEAA?AVMStatus@@AEBV1@@Z
?set@MDagPathArray@@QEAA?AVMStatus@@AEBVMDagPath@@I@Z
?set@MDataHandle@@QEAA?AVMStatus@@AEBVMObject@@@Z
?set@MDataHandle@@QEAA?AVMStatus@@PEAVMPxData@@@Z
?set@MDataHandle@@QEAAXAEBVMAngle@@@Z
?set@MDataHandle@@QEAAXAEBVMDistance@@@Z
?set@MDataHandle@@QEAAXAEBVMFloatMatrix@@@Z
?set@MDataHandle@@QEAAXAEBVMFloatVector@@@Z
?set@MDataHandle@@QEAAXAEBVMMatrix@@@Z
?set@MDataHandle@@QEAAXAEBVMString@@@Z
?set@MDataHandle@@QEAAXAEBVMTime@@@Z
?set@MDataHandle@@QEAAXAEBVMVector@@@Z
?set@MDataHandle@@QEAAXD@Z
?set@MDataHandle@@QEAAXF@Z
?set@MDataHandle@@QEAAXFF@Z
?set@MDataHandle@@QEAAXFFF@Z
?set@MDataHandle@@QEAAXH@Z
?set@MDataHandle@@QEAAXHH@Z
?set@MDataHandle@@QEAAXHHH@Z
?set@MDataHandle@@QEAAXM@Z
?set@MDataHandle@@QEAAXMM@Z
?set@MDataHandle@@QEAAXMMM@Z
?set@MDataHandle@@QEAAXN@Z
?set@MDataHandle@@QEAAXNN@Z
?set@MDataHandle@@QEAAXNNN@Z
?set@MDataHandle@@QEAAX_J@Z
?set@MDataHandle@@QEAAX_N@Z
?set@MDoubleArray@@QEAA?AVMStatus@@MI@Z
?set@MDoubleArray@@QEAA?AVMStatus@@NI@Z
?set@MFloatArray@@QEAA?AVMStatus@@MI@Z
?set@MFloatArray@@QEAA?AVMStatus@@NI@Z
?set@MFloatPointArray@@QEAA?AVMStatus@@AEBVMFloatPoint@@I@Z
?set@MFloatPointArray@@QEAA?AVMStatus@@IMMMM@Z
?set@MFloatPointArray@@QEAA?AVMStatus@@QEAMI@Z
?set@MFloatPointArray@@QEAA?AVMStatus@@QEANI@Z
?set@MFloatVectorArray@@QEAA?AVMStatus@@AEBVMFloatVector@@I@Z
?set@MFloatVectorArray@@QEAA?AVMStatus@@QEAMI@Z
?set@MFloatVectorArray@@QEAA?AVMStatus@@QEANI@Z
?set@MFnCamera@@QEAA?AVMStatus@@AEBVMPoint@@AEBVMVector@@1NN@Z
?set@MFnDoubleArrayData@@QEAA?AVMStatus@@AEBVMDoubleArray@@@Z
?set@MFnDoubleArrayData@@QEAA?AVMStatus@@NI@Z
?set@MFnFloatArrayData@@QEAA?AVMStatus@@AEBVMFloatArray@@@Z
?set@MFnFloatArrayData@@QEAA?AVMStatus@@MI@Z
?set@MFnIntArrayData@@QEAA?AVMStatus@@AEBVMIntArray@@@Z
?set@MFnIntArrayData@@QEAA?AVMStatus@@HI@Z
?set@MFnMatrixArrayData@@QEAA?AVMStatus@@AEAVMMatrix@@I@Z
?set@MFnMatrixArrayData@@QEAA?AVMStatus@@AEBVMMatrixArray@@@Z
?set@MFnMatrixData@@QEAA?AVMStatus@@AEBVMMatrix@@@Z
?set@MFnMatrixData@@QEAA?AVMStatus@@AEBVMTransformationMatrix@@@Z
?set@MFnPointArrayData@@QEAA?AVMStatus@@AEAVMPoint@@I@Z
?set@MFnPointArrayData@@QEAA?AVMStatus@@AEBVMPointArray@@@Z
?set@MFnStringArrayData@@QEAA?AVMStatus@@AEBVMString@@I@Z
?set@MFnStringArrayData@@QEAA?AVMStatus@@AEBVMStringArray@@@Z
?set@MFnStringData@@QEAA?AVMStatus@@AEBVMString@@@Z
?set@MFnTransform@@QEAA?AVMStatus@@AEBVMTransformationMatrix@@@Z
?set@MFnUInt64ArrayData@@QEAA?AVMStatus@@AEBVMUint64Array@@@Z
?set@MFnUInt64ArrayData@@QEAA?AVMStatus@@_KI@Z
?set@MFnVectorArrayData@@QEAA?AVMStatus@@AEAVMVector@@I@Z
?set@MFnVectorArrayData@@QEAA?AVMStatus@@AEBVMVectorArray@@@Z
?set@MImage@@AEAAXPEAX@Z
?set@MInt64Array@@QEAA?AVMStatus@@_JI@Z
?set@MIntArray@@QEAA?AVMStatus@@HI@Z
?set@MMatrixArray@@QEAA?AVMStatus@@AEBVMMatrix@@I@Z
?set@MObjectArray@@QEAA?AVMStatus@@AEBVMObject@@I@Z
?set@MPlugArray@@QEAA?AVMStatus@@AEBVMPlug@@I@Z
?set@MPointArray@@QEAA?AVMStatus@@AEBVMPoint@@I@Z
?set@MPointArray@@QEAA?AVMStatus@@INNNN@Z
?set@MPointArray@@QEAA?AVMStatus@@QEAMI@Z
?set@MPointArray@@QEAA?AVMStatus@@QEANI@Z
?set@MStatus@@QEAAX_NEE@Z
?set@MString@@QEAA?AVMStatus@@N@Z
?set@MString@@QEAA?AVMStatus@@NH@Z
?set@MString@@QEAA?AVMStatus@@PEBD@Z
?set@MString@@QEAA?AVMStatus@@PEBDH@Z
?set@MStringArray@@QEAA?AVMStatus@@AEBVMString@@I@Z
?set@MStringArray@@QEAA?AVMStatus@@PEADI@Z
?set@MTimeArray@@QEAA?AVMStatus@@AEBVMTime@@I@Z
?set@MTrimBoundaryArray@@QEAA?AVMStatus@@AEBVMObjectArray@@I@Z
?set@MUint64Array@@QEAA?AVMStatus@@_KI@Z
?set@MUintArray@@QEAA?AVMStatus@@II@Z
?set@MVectorArray@@QEAA?AVMStatus@@AEBVMVector@@I@Z
?set@MVectorArray@@QEAA?AVMStatus@@QEAMI@Z
?set@MVectorArray@@QEAA?AVMStatus@@QEANI@Z
?set@TapiFileObject@@QEAAXAEBV1@@Z
?set@TapiFileObject@@QEAAXAEBVTresolveFileObject@@@Z
?set@TpluginConstraintCmdInfo@@QEAAXP6APEAXPEAX@Z@Z
?set@TpluginDataInfo@@QEAAXIP6APEAXPEAVTmetaclass@@@ZPEAPEAV2@@Z
?set@TpluginModelEditorCmdInfo@@QEAAXP6APEAXPEAX@Z@Z
?set@TpluginNodeInfo@@QEAAXIP6APEAXPEAVTmetaclass@@@ZPEAPEAV2@PEAVTdependNodeVS@@@Z
?set@TpluginRegistryInfo@@QEAAXP6APEAVTpluginObject@@AEBVTstring@@@ZP6APEAV2@0IIPEAVTplugin@@P6APEAXXZ@ZP6A_NPEAV2@@Z@Z
?set@TpluginRegistryInfo@@QEAAXP6APEAVTpluginObject@@AEBVTstring@@@ZP6APEAV2@0PEAVTplugin@@P6APEAXPEAX@ZP6APEAXXZ5@ZP6A_NPEAV2@@Z8@Z
?set@TpluginRegistryInfo@@QEAAXP6APEAVTpluginObject@@AEBVTstring@@@ZP6APEAV2@0PEAVTplugin@@P6APEAXXZ@ZP6A_NPEAV2@@Z@Z
?setActiveSelectionList@MGlobal@@SA?AVMStatus@@AEBVMSelectionList@@W4ListAdjustment@1@@Z
?setAffectsAppearance@MFnAttribute@@QEAA?AVMStatus@@_N@Z
?setAffectsWorldSpace@MFnAttribute@@QEAA?AVMStatus@@_N@Z
?setAlias@MFnDependencyNode@@QEAA_NAEBVMString@@0AEBVMPlug@@_NPEAVMStatus@@@Z
?setAllClean@MArrayDataHandle@@QEAA?AVMStatus@@XZ
?setAllPositions@MItGeometry@@QEAA?AVMStatus@@AEBVMPointArray@@W4Space@MSpace@@@Z
?setAmbientColor@MFnLambertShader@@QEAA?AVMStatus@@AEBVMColor@@@Z
?setAmbientShade@MFnAmbientLight@@QEAA?AVMStatus@@AEBM@Z
?setAnimSelectionMask@MGlobal@@SA?AVMStatus@@AEBVMSelectionMask@@@Z
?setAnimated@MFnExpression@@QEAA?AVMStatus@@_N@Z
?setAnisotropicReflectivity@MFnAnisotropyShader@@QEAA?AVMStatus@@AEB_N@Z
?setAnnotation@MFnSet@@QEAA?AVMStatus@@AEBVMString@@@Z
?setApiUserObject@THdependNode@@UEAAXPEAX@Z
?setApiUserObject@THsurfaceShape@@UEAAXPEAX@Z
?setApiVersion@Tplugin@@QEAAXAEBVTstring@@@Z
?setApplied@MEdit@@QEAA?AVMStatus@@_N@Z
?setArc@MFnVolumeLight@@QEAA?AVMStatus@@AEBM@Z
?setArray@MFnAttribute@@QEAA?AVMStatus@@_N@Z
?setAspectRatio@MFnCamera@@QEAA?AVMStatus@@N@Z
?setAssembly@Tplugin@@QEAAXPEAX@Z
?setAttrEdit@MItEdits@@QEBA?AVMSetAttrEdit@@PEAVMStatus@@@Z
?setAttribute@MPlug@@QEAA?AVMStatus@@AEAVMObject@@@Z
?setAuthority@MURI@@QEAA?AVMStatus@@AEBVMString@@@Z
?setAutoLoad@Tplugin@@QEAAX_N@Z
?setAutoloadPlaceholder@Tplugin@@QEAAX_N@Z
?setAuxillaryHandlers@Tplugin@@SAHP6AHAEBVTstring@@PEAV2@AEAPEAX2@Z3@Z
?setAxisAngle@MQuaternion@@QEAAAEAV1@AEBVMVector@@N@Z
?setBarnDoorAngle@MFnSpotLight@@QEAA?AVMStatus@@W4MBarnDoor@1@AEBN@Z
?setBarnDoors@MFnSpotLight@@QEAA?AVMStatus@@AEB_N@Z
?setBaseDagObjectUICreator@THsurfaceShape@@SAXP6APEAVTbaseDagObjectUI@@AEAVTdagObject@@@Z@Z
?setBinaryBlindData@MFnMesh@@QEAA?AVMStatus@@AEAVMIntArray@@W4Type@MFn@@HVMString@@2@Z
?setBinaryBlindData@MFnMesh@@QEAA?AVMStatus@@AEAVMIntArray@@W4Type@MFn@@HVMString@@AEAVMStringArray@@@Z
?setBinaryBlindData@MFnMesh@@QEAA?AVMStatus@@HW4Type@MFn@@HVMString@@1@Z
?setBinaryBlindData@MFnMesh@@QEAA?AVMStatus@@HW4Type@MFn@@HVMString@@PEADH@Z
?setBool@MDataHandle@@QEAAX_N@Z
?setBool@MPlug@@QEAA?AVMStatus@@_N@Z
?setBool@MScriptUtil@@SAXAEA_NH@Z
?setBoolArray@MScriptUtil@@SA_NPEA_NIH@Z
?setBoolBlindData@MFnMesh@@QEAA?AVMStatus@@AEAVMIntArray@@W4Type@MFn@@HVMString@@0@Z
?setBoolBlindData@MFnMesh@@QEAA?AVMStatus@@AEAVMIntArray@@W4Type@MFn@@HVMString@@_N@Z
?setBoolBlindData@MFnMesh@@QEAA?AVMStatus@@HW4Type@MFn@@HVMString@@_N@Z
?setBoundaryRule@MMeshSmoothOptions@@QEAAXW4BoundaryRule@1@PEAVMStatus@@@Z
?setBoundingBoxDiagonal@MTesselationParams@@QEAAXN@Z
?setBufferSize@MProfiler@@SA?AVMStatus@@H@Z
?setCV@MFnNurbsCurve@@QEAA?AVMStatus@@IAEBVMPoint@@W4Space@MSpace@@@Z
?setCV@MFnNurbsSurface@@QEBA?AVMStatus@@IIAEAVMPoint@@W4Space@MSpace@@@Z
?setCVs@MFnNurbsCurve@@QEAA?AVMStatus@@AEBVMPointArray@@W4Space@MSpace@@@Z
?setCVs@MFnNurbsSurface@@QEAA?AVMStatus@@AEBVMPointArray@@W4Space@MSpace@@@Z
?setCached@MFnAttribute@@QEAA?AVMStatus@@_N@Z
?setCachedValue@THdependNode@@UEAA_NAEBVTplug@@AEBVTdataHandle@@AEBVTdgContext@@@Z
?setCachedValue@THsurfaceShape@@UEAA_NAEBVTplug@@AEBVTdataHandle@@AEBVTdgContext@@@Z
?setCaching@MPlug@@QEAA?AVMStatus@@_N@Z
?setCallbacks@TapiScriptConverterCallbacks@@SAXP6APEAU_object@@PEAXPEAUswig_type_info@@H@ZP6APEAU3@PEBD@ZP6AHPEAU2@PEAPEAX1HPEAH@Z@Z
?setCameraScale@MFnCamera@@QEAA?AVMStatus@@N@Z
?setCast@MFloatPoint@@QEAA?AVMStatus@@AEBVMPoint@@@Z
?setCast@MFloatPoint@@QEAA?AVMStatus@@AEBVMVector@@@Z
?setCast@MFloatPoint@@QEAA?AVMStatus@@QEBN@Z
?setCastSoftShadows@MFnAmbientLight@@QEAA?AVMStatus@@AEB_N@Z
?setCastSoftShadows@MFnNonExtendedLight@@QEAA?AVMStatus@@AEB_N@Z
?setCategoryRecording@MProfiler@@SAXH_N@Z
?setCategoryRecording@MProfiler@@SAXPEBD_N@Z
?setCenterOfIllumination@MFnLight@@QEAA?AVMStatus@@AEBN@Z
?setCenterOfInterest@MFnCamera@@QEAA?AVMStatus@@N@Z
?setCenterOfInterestPoint@MFnCamera@@QEAA?AVMStatus@@AEBVMPoint@@W4Space@MSpace@@@Z
?setChannelBox@MFnAttribute@@QEAA?AVMStatus@@_N@Z
?setChannelBox@MPlug@@QEAA?AVMStatus@@_N@Z
?setChar@MDataHandle@@QEAAXD@Z
?setChar@MPlug@@QEAA?AVMStatus@@D@Z
?setChar@MScriptUtil@@SAXAEADH@Z
?setCharArray@MScriptUtil@@SA_NPEADIH@Z
?setCheckMessageAllowed@THclient@@QEAAX_N@Z
?setCheckSamePointTwice@MFnMesh@@QEAAX_N@Z
?setChordHeightRatio@MTesselationParams@@QEAAXN@Z
?setClean@MArrayDataHandle@@QEAA?AVMStatus@@XZ
?setClean@MDataBlock@@QEAA?AVMStatus@@AEBVMObject@@@Z
?setClean@MDataBlock@@QEAA?AVMStatus@@AEBVMPlug@@@Z
?setClean@MDataHandle@@QEAAXXZ
?setClientData@THclient@@QEAAXPEAX@Z
?setClippingPlanes@MFnCamera@@QEAA?AVMStatus@@_N@Z
?setColor@MFnLambertShader@@QEAA?AVMStatus@@AEBVMColor@@@Z
?setColor@MFnLayeredShader@@QEAA?AVMStatus@@AEBVMColor@@I@Z
?setColor@MFnLight@@QEAA?AVMStatus@@AEBVMColor@@@Z
?setColor@MFnMesh@@QEAA?AVMStatus@@HAEBVMColor@@PEBVMString@@@Z
?setColor@MFnMesh@@QEAA?AVMStatus@@HAEBVMColor@@PEBVMString@@W4MColorRepresentation@1@@Z
?setColorAtIndex@MRampAttribute@@QEAAXAEAVMColor@@IPEAVMStatus@@@Z
?setColors@MFnMesh@@QEAA?AVMStatus@@AEBVMColorArray@@PEBVMString@@@Z
?setColors@MFnMesh@@QEAA?AVMStatus@@AEBVMColorArray@@PEBVMString@@W4MColorRepresentation@1@@Z
?setCommand@MFnSet@@MEAAPEAVTsetCmd@@XZ
?setCommandString@MFnSet@@MEAA?AVTstring@@XZ
?setCommandString@MPxCommand@@QEAA?AVMStatus@@AEBVMString@@@Z
?setComplete@MFnComponent@@QEAA?AVMStatus@@_N@Z
?setCompleteData@MFnDoubleIndexedComponent@@QEAA?AVMStatus@@HH@Z
?setCompleteData@MFnSingleIndexedComponent@@QEAA?AVMStatus@@H@Z
?setCompleteData@MFnTripleIndexedComponent@@QEAA?AVMStatus@@HHH@Z
?setCompleteData@MFnUint64SingleIndexedComponent@@QEAA?AVMStatus@@_K@Z
?setComponentSelectionMask@MGlobal@@SA?AVMStatus@@AEBVMSelectionMask@@@Z
?setCompositingFlag@MFnLayeredShader@@QEAA?AVMStatus@@AEBF@Z
?setConeAngle@MFnSpotLight@@QEAA?AVMStatus@@AEBN@Z
?setConeEndRadius@MFnVolumeLight@@QEAA?AVMStatus@@AEBM@Z
?setConnectable@MFnAttribute@@QEAA?AVMStatus@@_N@Z
?setConstraintCreator@TpluginObject@@UEAAXP6APEAXXZ@Z
?setContext@MDataBlock@@QEAA?AVMStatus@@AEBVMDGContext@@@Z
?setControlPoints@MPxComponentShape@@QEAA?AVMStatus@@PEAVMVectorArray@@@Z
?setCorrelationX@MFnAnisotropyShader@@QEAA?AVMStatus@@AEBM@Z
?setCorrelationY@MFnAnisotropyShader@@QEAA?AVMStatus@@AEBM@Z
?setCosPower@MFnPhongShader@@QEAA?AVMStatus@@AEBM@Z
?setCreaseEdges@MFnMesh@@QEAA?AVMStatus@@AEBVMUintArray@@AEBVMDoubleArray@@@Z
?setCreaseVertices@MFnMesh@@QEAA?AVMStatus@@AEBVMUintArray@@AEBVMDoubleArray@@@Z
?setCreateSyntax@TpluginCmd@@UEAAXP6A?AVMSyntax@@XZ@Z
?setCreateSyntax@TpluginObject@@UEAAXP6A?AVMSyntax@@XZ@Z
?setCreator@TpluginObject@@UEAAXP6APEAXXZ@Z
?setCurrentCallback@THcallbackId@@IEAAX_N_K@Z
?setCurrentColorSetName@MFnMesh@@QEAA?AVMStatus@@AEBVMString@@PEAVMDGModifier@@PEAVMSelectionList@@@Z
?setCurrentFile@MFileIO@@SA?AVMStatus@@AEBVMString@@@Z
?setCurrentFilter@MItDependencyGraph@@QEAA?AVMStatus@@W4Type@MFn@@@Z
?setCurrentNamespace@MNamespace@@SA?AVMStatus@@AEBVMString@@@Z
?setCurrentPoint@MPxGeometryIterator@@QEAAXH@Z
?setCurrentUVSetName@MFnMesh@@QEAA?AVMStatus@@AEBVMString@@PEAVMDGModifier@@PEAVMSelectionList@@@Z
?setCurve@MCurveAttribute@@QEAA?AVMStatus@@AEBVMFloatArray@@0@Z
?setData2Double@MFnNumericData@@QEAA?AVMStatus@@NN@Z
?setData2Float@MFnNumericData@@QEAA?AVMStatus@@MM@Z
?setData2Int@MFnNumericData@@QEAA?AVMStatus@@HH@Z
?setData2Short@MFnNumericData@@QEAA?AVMStatus@@FF@Z
?setData3Double@MFnNumericData@@QEAA?AVMStatus@@NNN@Z
?setData3Float@MFnNumericData@@QEAA?AVMStatus@@MMM@Z
?setData3Int@MFnNumericData@@QEAA?AVMStatus@@HHH@Z
?setData3Short@MFnNumericData@@QEAA?AVMStatus@@FFF@Z
?setData4Double@MFnNumericData@@QEAA?AVMStatus@@NNNN@Z
?setData@MFnNumericData@@QEAA?AVMStatus@@FF@Z
?setData@MFnNumericData@@QEAA?AVMStatus@@FFF@Z
?setData@MFnNumericData@@QEAA?AVMStatus@@HH@Z
?setData@MFnNumericData@@QEAA?AVMStatus@@HHH@Z
?setData@MFnNumericData@@QEAA?AVMStatus@@MM@Z
?setData@MFnNumericData@@QEAA?AVMStatus@@MMM@Z
?setData@MFnNumericData@@QEAA?AVMStatus@@NN@Z
?setData@MFnNumericData@@QEAA?AVMStatus@@NNN@Z
?setData@MFnNumericData@@QEAA?AVMStatus@@NNNN@Z
?setData@MPxCommand@@IEAAXPEAX@Z
?setData@MRichSelection@@AEAAXPEAX@Z
?setDecayRate@MFnNonAmbientLight@@QEAA?AVMStatus@@AEBF@Z
?setDefault@MFnEnumAttribute@@QEAA?AVMStatus@@AEBVMString@@@Z
?setDefault@MFnEnumAttribute@@QEAA?AVMStatus@@F@Z
?setDefault@MFnLightDataAttribute@@QEAA?AVMStatus@@MMMMMM_N00MMPEAX@Z
?setDefault@MFnMatrixAttribute@@QEAA?AVMStatus@@AEBVMFloatMatrix@@@Z
?setDefault@MFnMatrixAttribute@@QEAA?AVMStatus@@AEBVMMatrix@@@Z
?setDefault@MFnNumericAttribute@@QEAA?AVMStatus@@D@Z
?setDefault@MFnNumericAttribute@@QEAA?AVMStatus@@H@Z
?setDefault@MFnNumericAttribute@@QEAA?AVMStatus@@HH@Z
?setDefault@MFnNumericAttribute@@QEAA?AVMStatus@@HHH@Z
?setDefault@MFnNumericAttribute@@QEAA?AVMStatus@@M@Z
?setDefault@MFnNumericAttribute@@QEAA?AVMStatus@@MM@Z
?setDefault@MFnNumericAttribute@@QEAA?AVMStatus@@MMM@Z
?setDefault@MFnNumericAttribute@@QEAA?AVMStatus@@N@Z
?setDefault@MFnNumericAttribute@@QEAA?AVMStatus@@NN@Z
?setDefault@MFnNumericAttribute@@QEAA?AVMStatus@@NNN@Z
?setDefault@MFnNumericAttribute@@QEAA?AVMStatus@@NNNN@Z
?setDefault@MFnNumericAttribute@@QEAA?AVMStatus@@PEAX@Z
?setDefault@MFnNumericAttribute@@QEAA?AVMStatus@@_J@Z
?setDefault@MFnNumericAttribute@@QEAA?AVMStatus@@_N@Z
?setDefault@MFnTypedAttribute@@QEAA?AVMStatus@@AEBVMObject@@@Z
?setDefault@MFnUnitAttribute@@QEAA?AVMStatus@@AEBVMAngle@@@Z
?setDefault@MFnUnitAttribute@@QEAA?AVMStatus@@AEBVMDistance@@@Z
?setDefault@MFnUnitAttribute@@QEAA?AVMStatus@@AEBVMTime@@@Z
?setDefault@MFnUnitAttribute@@QEAA?AVMStatus@@N@Z
?setDefaultObject@MFnExpression@@QEAA?AVMStatus@@AEAVMObject@@@Z
?setDeleteAfterUse@MUserData@@QEAAX_N@Z
?setDependentsDirty@MPxNode@@UEAA?AVMStatus@@AEBVMPlug@@AEAVMPlugArray@@@Z
?setDependentsDirty@THdependNode@@UEAAXAEAVTmsgDirty@@@Z
?setDependentsDirty@THsurfaceShape@@UEAAXAEAVTmsgDirty@@@Z
?setDepthMap@MImage@@QEAA?AVMStatus@@AEBVMFloatArray@@II@Z
?setDepthMap@MImage@@QEAA?AVMStatus@@PEAMII@Z
?setDepthMapBias@MFnNonExtendedLight@@QEAA?AVMStatus@@AEBM@Z
?setDepthMapFilterSize@MFnNonExtendedLight@@QEAA?AVMStatus@@AEBF@Z
?setDepthMapFocus@MFnNonExtendedLight@@QEAA?AVMStatus@@M@Z
?setDepthMapResolution@MFnNonExtendedLight@@QEAA?AVMStatus@@AEBF@Z
?setDepthMapWidthFocus@MFnNonExtendedLight@@QEAA?AVMStatus@@M@Z
?setDepthOfField@MFnCamera@@QEAA?AVMStatus@@_N@Z
?setDiffuseCoeff@MFnLambertShader@@QEAA?AVMStatus@@AEBM@Z
?setDimensions@MAttributeSpec@@QEAAXH@Z
?setDirectory@MURI@@QEAA?AVMStatus@@AEBVMString@@@Z
?setDisableStow@MGlobal@@SAX_N@Z
?setDisconnectBehavior@MFnAttribute@@QEAA?AVMStatus@@W4DisconnectBehavior@1@@Z
?setDisplayCVs@MGlobal@@SA?AVMStatus@@AEAVMSelectionList@@_N@Z
?setDisplayColors@MFnMesh@@QEAA?AVMStatus@@_N@Z
?setDisplayFilmGate@MFnCamera@@QEAA?AVMStatus@@_N@Z
?setDisplayGateMask@MFnCamera@@QEAA?AVMStatus@@_N@Z
?setDistribution@MCacheFormatDescription@@QEAAXW4CacheFileDistribution@1@@Z
?setDivisions@MMeshSmoothOptions@@QEAAXHPEAVMStatus@@@Z
?setDoNotWrite@MFnDependencyNode@@QEAA?AVMStatus@@_N@Z
?setDoNotWrite@MPxAssembly@@MEAA?AVMStatus@@_N@Z
?setDoNotWrite@MPxNode@@MEAA?AVMStatus@@_N@Z
?setDouble2ArrayItem@MScriptUtil@@SA_NPEAY01NIIN@Z
?setDouble3ArrayItem@MScriptUtil@@SA_NPEAY02NIIN@Z
?setDouble4ArrayItem@MScriptUtil@@SA_NPEAY03NIIN@Z
?setDouble@MDataHandle@@QEAAXN@Z
?setDouble@MPlug@@QEAA?AVMStatus@@N@Z
?setDouble@MScriptUtil@@SAXAEANN@Z
?setDoubleArray@MScriptUtil@@SA_NPEANIN@Z
?setDoubleBlindData@MFnMesh@@QEAA?AVMStatus@@AEAVMIntArray@@W4Type@MFn@@HVMString@@AEAVMDoubleArray@@@Z
?setDoubleBlindData@MFnMesh@@QEAA?AVMStatus@@AEAVMIntArray@@W4Type@MFn@@HVMString@@N@Z
?setDoubleBlindData@MFnMesh@@QEAA?AVMStatus@@HW4Type@MFn@@HVMString@@N@Z
?setDropOff@MFnSpotLight@@QEAA?AVMStatus@@AEBN@Z
?setDynSweptGeomTypeId@TapiEnum@@SAXP6APEAVTmetaclass@@XZ@Z
?setEccentricity@MFnBlinnShader@@QEAA?AVMStatus@@AEBM@Z
?setEdgeSmoothFactor@MTesselationParams@@QEAAXN@Z
?setEdgeSmoothing@MFnMesh@@QEAA?AVMStatus@@H_N@Z
?setEmitAmbient@MFnVolumeLight@@QEAA?AVMStatus@@AEB_N@Z
?setEndDistance@MFnSpotLight@@QEAA?AVMStatus@@W4MDecayRegion@1@AEBM@Z
?setErrorLogPathName@MGlobal@@SA?AVMStatus@@AEBVMString@@@Z
?setExistWithoutInConnections@MPxAssembly@@UEAA?AVMStatus@@_N@Z
?setExistWithoutInConnections@MPxNode@@UEAA?AVMStatus@@_N@Z
?setExistWithoutOutConnections@MPxAssembly@@UEAA?AVMStatus@@_N@Z
?setExistWithoutOutConnections@MPxNode@@UEAA?AVMStatus@@_N@Z
?setExpression@MFnExpression@@QEAA?AVMStatus@@AEBVMString@@@Z
?setExternalContent@MFnDependencyNode@@QEAA?AVMStatus@@AEBVMExternalContentLocationTable@@@Z
?setExternalContent@MPxNode@@UEAAXAEBVMExternalContentLocationTable@@@Z
?setExternalContent@MPxRepresentation@@UEAAXAEBVMExternalContentLocationTable@@@Z
?setExternalContent@THdependNode@@UEAAXAEBVTexternalContentLocationTable@@@Z
?setExternalContent@THsurfaceShape@@UEAAXAEBVTexternalContentLocationTable@@@Z
?setExternalContentForFileAttr@MFnDependencyNode@@QEAA?AVMStatus@@AEBVMObject@@AEBVMExternalContentLocationTable@@@Z
?setExternalContentForFileAttr@MPxNode@@QEAA_NAEBVMObject@@AEBVMExternalContentLocationTable@@@Z
?setEyeOffset@MFnCamera@@QEAA?AVMStatus@@N@Z
?setEyePoint@MFnCamera@@QEAA?AVMStatus@@AEBVMPoint@@W4Space@MSpace@@@Z
?setFStop@MFnCamera@@QEAA?AVMStatus@@N@Z
?setFaceColor@MFnMesh@@QEAA?AVMStatus@@AEAVMColor@@H@Z
?setFaceColor@MFnMesh@@QEAA?AVMStatus@@AEAVMColor@@HW4MColorRepresentation@1@@Z
?setFaceColors@MFnMesh@@QEAA?AVMStatus@@AEAVMColorArray@@AEAVMIntArray@@@Z
?setFaceColors@MFnMesh@@QEAA?AVMStatus@@AEAVMColorArray@@AEAVMIntArray@@W4MColorRepresentation@1@@Z
?setFaceVertexColor@MFnMesh@@QEAA?AVMStatus@@AEAVMColor@@HHPEAVMDGModifier@@@Z
?setFaceVertexColor@MFnMesh@@QEAA?AVMStatus@@AEAVMColor@@HHPEAVMDGModifier@@W4MColorRepresentation@1@@Z
?setFaceVertexColor@MFnMesh@@QEAA?AVMStatus@@HHAEAVMColor@@PEAVMDGModifier@@@Z
?setFaceVertexColor@MFnMesh@@QEAA?AVMStatus@@HHAEAVMColor@@PEAVMDGModifier@@W4MColorRepresentation@1@@Z
?setFaceVertexColors@MFnMesh@@QEAA?AVMStatus@@AEAVMColorArray@@AEAVMIntArray@@1PEAVMDGModifier@@@Z
?setFaceVertexColors@MFnMesh@@QEAA?AVMStatus@@AEAVMColorArray@@AEAVMIntArray@@1PEAVMDGModifier@@W4MColorRepresentation@1@@Z
?setFaceVertexNormal@MFnMesh@@QEAA?AVMStatus@@AEAVMVector@@HHW4Space@MSpace@@PEAVMDGModifier@@@Z
?setFaceVertexNormals@MFnMesh@@QEAA?AVMStatus@@AEAVMVectorArray@@AEAVMIntArray@@1W4Space@MSpace@@@Z
?setFailed@MEdit@@QEAA?AVMStatus@@_N@Z
?setFarClippingPlane@MFnCamera@@QEAA?AVMStatus@@N@Z
?setFarFocusDistance@MFnCamera@@QEAA?AVMStatus@@N@Z
?setFileName@MURI@@QEAA?AVMStatus@@AEBVMString@@@Z
?setFilmFit@MFnCamera@@QEAA?AVMStatus@@W4FilmFit@1@@Z
?setFilmFitOffset@MFnCamera@@QEAA?AVMStatus@@N@Z
?setFilmRollOrder@MFnCamera@@QEAA?AVMStatus@@W4RollOrder@1@@Z
?setFilmRollValue@MFnCamera@@QEAA?AVMStatus@@N@Z
?setFilmTranslateH@MFnCamera@@QEAA?AVMStatus@@N@Z
?setFilmTranslateV@MFnCamera@@QEAA?AVMStatus@@N@Z
?setFilter@MItSelectionList@@QEAA?AVMStatus@@W4Type@MFn@@@Z
?setFilterList@MIteratorType@@QEAAXAEAVMIntArray@@PEAVMStatus@@@Z
?setFilterType@MIteratorType@@QEAAXW4Type@MFn@@PEAVMStatus@@@Z
?setFitTolerance@MTesselationParams@@QEAAXN@Z
?setFlag@MFnDependencyNode@@QEAA?AVMStatus@@I_N@Z
?setFloat2ArrayItem@MScriptUtil@@SA_NPEAY01MIIM@Z
?setFloat3ArrayItem@MScriptUtil@@SA_NPEAY02MIIM@Z
?setFloat4ArrayItem@MScriptUtil@@SA_NPEAY03MIIM@Z
?setFloat@MDataHandle@@QEAAXM@Z
?setFloat@MImage@@AEAAXPEAX@Z
?setFloat@MPlug@@QEAA?AVMStatus@@M@Z
?setFloat@MScriptUtil@@SAXAEAMN@Z
?setFloatArray@MScriptUtil@@SA_NPEAMIN@Z
?setFloatBlindData@MFnMesh@@QEAA?AVMStatus@@AEAVMIntArray@@W4Type@MFn@@HVMString@@AEAVMFloatArray@@@Z
?setFloatBlindData@MFnMesh@@QEAA?AVMStatus@@AEAVMIntArray@@W4Type@MFn@@HVMString@@M@Z
?setFloatBlindData@MFnMesh@@QEAA?AVMStatus@@HW4Type@MFn@@HVMString@@M@Z
?setFloatPixels@MImage@@QEAAXPEAMIII@Z
?setFocalLength@MFnCamera@@QEAA?AVMStatus@@N@Z
?setFocusDistance@MFnCamera@@QEAA?AVMStatus@@N@Z
?setFormatType@MTesselationParams@@QEAAXW4TessFormat@1@@Z
?setFragment@MURI@@QEAA?AVMStatus@@AEBVMString@@@Z
?setFullName@MFileObject@@QEAA?AVMStatus@@AEBVMString@@@Z
?setGenericBool@MDataHandle@@QEAAX_N0@Z
?setGenericChar@MDataHandle@@QEAAXE_N@Z
?setGenericDouble@MDataHandle@@QEAAXN_N@Z
?setGenericFloat@MDataHandle@@QEAAXM_N@Z
?setGenericInt64@MDataHandle@@QEAAX_J_N@Z
?setGenericInt@MDataHandle@@QEAAXH_N@Z
?setGenericShort@MDataHandle@@QEAAXF_N@Z
?setGlowColor@MFnLayeredShader@@QEAA?AVMStatus@@AEBVMColor@@I@Z
?setGlowIntensity@MFnLambertShader@@QEAA?AVMStatus@@AEBM@Z
?setGrowSize@MArrayDataBuilder@@QEAA?AVMStatus@@I@Z
?setHanger@TpluginObject@@QEAAXPEAVTpluginObjectHanger@@@Z
?setHardwareColor@MFnLayeredShader@@QEAA?AVMStatus@@AEBVMColor@@@Z
?setHardwareShader@MFnLayeredShader@@QEAA?AVMStatus@@AEBVMColor@@@Z
?setHidden@MFnAttribute@@QEAA?AVMStatus@@_N@Z
?setHideSource@MFnLambertShader@@QEAA?AVMStatus@@AEB_N@Z
?setHighlightSize@MFnPhongEShader@@QEAA?AVMStatus@@AEBM@Z
?setHiliteList@MGlobal@@SA?AVMStatus@@AEAVMSelectionList@@@Z
?setHistoryOn@MPxCommand@@QEAA?AVMStatus@@_N@Z
?setHorizontalFieldOfView@MFnCamera@@QEAA?AVMStatus@@N@Z
?setHorizontalFilmAperture@MFnCamera@@QEAA?AVMStatus@@N@Z
?setHorizontalFilmOffset@MFnCamera@@QEAA?AVMStatus@@N@Z
?setHorizontalPan@MFnCamera@@QEAA?AVMStatus@@N@Z
?setHorizontalRollPivot@MFnCamera@@QEAA?AVMStatus@@N@Z
?setHorizontalShake@MFnCamera@@QEAA?AVMStatus@@N@Z
?setHost@MURI@@QEAA?AVMStatus@@AEBVMString@@@Z
?setIcon@MFnDependencyNode@@QEAA?AVMStatus@@AEBVMString@@@Z
?setImageDirty@MPxImagePlane@@QEAAXXZ
?setIncandescence@MFnLambertShader@@QEAA?AVMStatus@@AEBVMColor@@@Z
?setIndeterminant@MFnAttribute@@QEAA?AVMStatus@@_N@Z
?setIndex@MItMeshEdge@@QEAA?AVMStatus@@HAEAH@Z
?setIndex@MItMeshFaceVertex@@QEAA?AVMStatus@@HHAEAH0@Z
?setIndex@MItMeshPolygon@@QEAA?AVMStatus@@HAEAH@Z
?setIndex@MItMeshVertex@@QEAA?AVMStatus@@HAEAH@Z
?setIndexMatters@MFnAttribute@@QEAA?AVMStatus@@_N@Z
?setInfluence@MWeight@@QEAAXM@Z
?setInitializer@TpluginNode@@QEAAXP6A?AVMStatus@@XZ@Z
?setInstancePtr@MPxAssembly@@QEAAXPEAX@Z
?setInstanceable@MFnDagNode@@QEAA?AVMStatus@@_N@Z
?setInt2ArrayItem@MScriptUtil@@SA_NPEAY01HIIH@Z
?setInt3ArrayItem@MScriptUtil@@SA_NPEAY02HIIH@Z
?setInt4ArrayItem@MScriptUtil@@SA_NPEAY03HIIH@Z
?setInt64@MDataHandle@@QEAAX_J@Z
?setInt64@MPlug@@QEAA?AVMStatus@@_J@Z
?setInt@MDataHandle@@QEAAXH@Z
?setInt@MPlug@@QEAA?AVMStatus@@H@Z
?setInt@MScriptUtil@@SAXAEAHH@Z
?setIntArray@MScriptUtil@@SA_NPEAHIH@Z
?setIntBlindData@MFnMesh@@QEAA?AVMStatus@@AEAVMIntArray@@W4Type@MFn@@HVMString@@0@Z
?setIntBlindData@MFnMesh@@QEAA?AVMStatus@@AEAVMIntArray@@W4Type@MFn@@HVMString@@H@Z
?setIntBlindData@MFnMesh@@QEAA?AVMStatus@@HW4Type@MFn@@HVMString@@H@Z
?setIntensity@MFnLight@@QEAA?AVMStatus@@AEBM@Z
?setIntermediateObject@MFnDagNode@@QEAA?AVMStatus@@_N@Z
?setInternal@MFnAttribute@@QEAA?AVMStatus@@_N@Z
?setInternalUnit@MAngle@@SA?AVMStatus@@W4Unit@1@@Z
?setInternalUnit@MDistance@@SA?AVMStatus@@W4Unit@1@@Z
