LIBRARY OPENMAYAANIM
EXPORTS
??$checkType@W4AnimCurveType@MFnAnimCurve@@@MPyUtil@@SA_NPEAU_object@@_N@Z
??$checkType@W4InfinityType@MFnAnimCurve@@@MPyUtil@@SA_NPEAU_object@@_N@Z
??$objectToValue@VMAnimCurveClipboardItem@@@MPyUtil@@SA?AVMAnimCurveClipboardItem@@PEAU_object@@_N@Z
??$objectToValue@VMAnimCurveClipboardItemArray@@@MPyUtil@@SA?AVMAnimCurveClipboardItemArray@@PEAU_object@@_N@Z
??$objectToValue@W4AnimCurveType@MFnAnimCurve@@@MPyUtil@@SA?AW4AnimCurveType@MFnAnimCurve@@PEAU_object@@_N@Z
??$objectToValue@W4InfinityType@MFnAnimCurve@@@MPyUtil@@SA?AW4InfinityType@MFnAnimCurve@@PEAU_object@@_N@Z
??$valueToObject@VMAnimCurveClipboardItem@@@MPyUtil@@SAPEAU_object@@VMAnimCurveClipboardItem@@@Z
??$valueToObject@VMAnimCurveClipboardItemArray@@@MPyUtil@@SAPEAU_object@@VMAnimCurveClipboardItemArray@@@Z
??$valueToObject@W4AnimCurveType@MFnAnimCurve@@@MPyUtil@@SAPEAU_object@@W4AnimCurveType@MFnAnimCurve@@@Z
??$valueToObject@W4InfinityType@MFnAnimCurve@@@MPyUtil@@SAPEAU_object@@W4InfinityType@MFnAnimCurve@@@Z
??0MAnimControl@@QEAA@AEBV0@@Z
??0MAnimControl@@QEAA@XZ
??0MAnimCurveChange@@QEAA@PEAVMStatus@@@Z
??0MAnimCurveClipboard@@QEAA@XZ
??0MAnimCurveClipboardItem@@QEAA@AEBV0@@Z
??0MAnimCurveClipboardItem@@QEAA@XZ
??0MAnimCurveClipboardItemArray@@QEAA@AEBV0@@Z
??0MAnimCurveClipboardItemArray@@QEAA@IAEBVMAnimCurveClipboardItem@@@Z
??0MAnimCurveClipboardItemArray@@QEAA@QEBVMAnimCurveClipboardItem@@I@Z
??0MAnimCurveClipboardItemArray@@QEAA@XZ
??0MFnAnimCurve@@QEAA@AEAVMObject@@PEAVMStatus@@@Z
??0MFnAnimCurve@@QEAA@AEBVMObject@@PEAVMStatus@@@Z
??0MFnAnimCurve@@QEAA@AEBVMPlug@@PEAVMStatus@@@Z
??0MFnAnimCurve@@QEAA@XZ
??0MFnBlendShapeDeformer@@QEAA@AEAVMObject@@PEAVMStatus@@@Z
??0MFnBlendShapeDeformer@@QEAA@AEBVMObject@@PEAVMStatus@@@Z
??0MFnBlendShapeDeformer@@QEAA@XZ
??0MFnCharacter@@QEAA@AEAVMObject@@PEAVMStatus@@@Z
??0MFnCharacter@@QEAA@AEBVMObject@@PEAVMStatus@@@Z
??0MFnCharacter@@QEAA@XZ
??0MFnClip@@QEAA@AEAVMObject@@PEAVMStatus@@@Z
??0MFnClip@@QEAA@AEBVMObject@@PEAVMStatus@@@Z
??0MFnClip@@QEAA@XZ
??0MFnGeometryFilter@@QEAA@AEAVMObject@@PEAVMStatus@@@Z
??0MFnGeometryFilter@@QEAA@AEBVMObject@@PEAVMStatus@@@Z
??0MFnGeometryFilter@@QEAA@XZ
??0MFnHikEffector@@QEAA@AEAVMObject@@PEAVMStatus@@@Z
??0MFnHikEffector@@QEAA@AEBVMDagPath@@PEAVMStatus@@@Z
??0MFnHikEffector@@QEAA@AEBVMObject@@PEAVMStatus@@@Z
??0MFnHikEffector@@QEAA@XZ
??0MFnIkEffector@@QEAA@AEAVMObject@@PEAVMStatus@@@Z
??0MFnIkEffector@@QEAA@AEBVMDagPath@@PEAVMStatus@@@Z
??0MFnIkEffector@@QEAA@AEBVMObject@@PEAVMStatus@@@Z
??0MFnIkEffector@@QEAA@XZ
??0MFnIkHandle@@QEAA@AEAVMObject@@PEAVMStatus@@@Z
??0MFnIkHandle@@QEAA@AEBVMDagPath@@PEAVMStatus@@@Z
??0MFnIkHandle@@QEAA@AEBVMObject@@PEAVMStatus@@@Z
??0MFnIkHandle@@QEAA@XZ
??0MFnIkJoint@@QEAA@AEAVMObject@@PEAVMStatus@@@Z
??0MFnIkJoint@@QEAA@AEBVMDagPath@@PEAVMStatus@@@Z
??0MFnIkJoint@@QEAA@AEBVMObject@@PEAVMStatus@@@Z
??0MFnIkJoint@@QEAA@XZ
??0MFnIkSolver@@QEAA@AEAVMObject@@PEAVMStatus@@@Z
??0MFnIkSolver@@QEAA@AEBVMObject@@PEAVMStatus@@@Z
??0MFnIkSolver@@QEAA@XZ
??0MFnKeyframeDelta@@QEAA@AEAVMObject@@PEAVMStatus@@@Z
??0MFnKeyframeDelta@@QEAA@AEBVMObject@@PEAVMStatus@@@Z
??0MFnKeyframeDelta@@QEAA@XZ
??0MFnKeyframeDeltaAddRemove@@QEAA@AEAVMObject@@PEAVMStatus@@@Z
??0MFnKeyframeDeltaAddRemove@@QEAA@AEBVMObject@@PEAVMStatus@@@Z
??0MFnKeyframeDeltaAddRemove@@QEAA@XZ
??0MFnKeyframeDeltaBlockAddRemove@@QEAA@AEAVMObject@@PEAVMStatus@@@Z
??0MFnKeyframeDeltaBlockAddRemove@@QEAA@AEBVMObject@@PEAVMStatus@@@Z
??0MFnKeyframeDeltaBlockAddRemove@@QEAA@XZ
??0MFnKeyframeDeltaBreakdown@@QEAA@AEAVMObject@@PEAVMStatus@@@Z
??0MFnKeyframeDeltaBreakdown@@QEAA@AEBVMObject@@PEAVMStatus@@@Z
??0MFnKeyframeDeltaBreakdown@@QEAA@XZ
??0MFnKeyframeDeltaInfType@@QEAA@AEAVMObject@@PEAVMStatus@@@Z
??0MFnKeyframeDeltaInfType@@QEAA@AEBVMObject@@PEAVMStatus@@@Z
??0MFnKeyframeDeltaInfType@@QEAA@XZ
??0MFnKeyframeDeltaMove@@QEAA@AEAVMObject@@PEAVMStatus@@@Z
??0MFnKeyframeDeltaMove@@QEAA@AEBVMObject@@PEAVMStatus@@@Z
??0MFnKeyframeDeltaMove@@QEAA@XZ
??0MFnKeyframeDeltaScale@@QEAA@AEAVMObject@@PEAVMStatus@@@Z
??0MFnKeyframeDeltaScale@@QEAA@AEBVMObject@@PEAVMStatus@@@Z
??0MFnKeyframeDeltaScale@@QEAA@XZ
??0MFnKeyframeDeltaTangent@@QEAA@AEAVMObject@@PEAVMStatus@@@Z
??0MFnKeyframeDeltaTangent@@QEAA@AEBVMObject@@PEAVMStatus@@@Z
??0MFnKeyframeDeltaTangent@@QEAA@XZ
??0MFnKeyframeDeltaWeighted@@QEAA@AEAVMObject@@PEAVMStatus@@@Z
??0MFnKeyframeDeltaWeighted@@QEAA@AEBVMObject@@PEAVMStatus@@@Z
??0MFnKeyframeDeltaWeighted@@QEAA@XZ
??0MFnLattice@@QEAA@AEAVMObject@@PEAVMStatus@@@Z
??0MFnLattice@@QEAA@AEBVMDagPath@@PEAVMStatus@@@Z
??0MFnLattice@@QEAA@AEBVMObject@@PEAVMStatus@@@Z
??0MFnLattice@@QEAA@XZ
??0MFnLatticeDeformer@@QEAA@AEAVMObject@@PEAVMStatus@@@Z
??0MFnLatticeDeformer@@QEAA@AEBVMObject@@PEAVMStatus@@@Z
??0MFnLatticeDeformer@@QEAA@XZ
??0MFnMotionPath@@QEAA@AEAVMObject@@PEAVMStatus@@@Z
??0MFnMotionPath@@QEAA@AEBVMObject@@PEAVMStatus@@@Z
??0MFnMotionPath@@QEAA@XZ
??0MFnSkinCluster@@QEAA@AEAVMObject@@PEAVMStatus@@@Z
??0MFnSkinCluster@@QEAA@AEBVMObject@@PEAVMStatus@@@Z
??0MFnSkinCluster@@QEAA@XZ
??0MFnWeightGeometryFilter@@QEAA@AEAVMObject@@PEAVMStatus@@@Z
??0MFnWeightGeometryFilter@@QEAA@AEBVMObject@@PEAVMStatus@@@Z
??0MFnWeightGeometryFilter@@QEAA@XZ
??0MFnWireDeformer@@QEAA@AEAVMObject@@PEAVMStatus@@@Z
??0MFnWireDeformer@@QEAA@AEBVMObject@@PEAVMStatus@@@Z
??0MFnWireDeformer@@QEAA@XZ
??0MGPUDeformerRegistrationInfo@@QEAA@AEBV0@@Z
??0MGPUDeformerRegistrationInfo@@QEAA@XZ
??0MIkHandleGroup@@AEAA@PEAX@Z
??0MIkHandleGroup@@QEAA@XZ
??0MItKeyframe@@QEAA@AEAVMObject@@PEAVMStatus@@@Z
??0MPxAnimCurveInterpolator@@QEAA@AEBV0@@Z
??0MPxAnimCurveInterpolator@@QEAA@XZ
??0MPxBlendShape@@QEAA@AEBV0@@Z
??0MPxBlendShape@@QEAA@XZ
??0MPxConstraint@@QEAA@AEBV0@@Z
??0MPxConstraint@@QEAA@XZ
??0MPxConstraintCommand@@QEAA@AEBV0@@Z
??0MPxConstraintCommand@@QEAA@XZ
??0MPxDeformerNode@@QEAA@AEBV0@@Z
??0MPxDeformerNode@@QEAA@XZ
??0MPxGPUDeformer@@QEAA@AEBV0@@Z
??0MPxGPUDeformer@@QEAA@XZ
??0MPxGeometryFilter@@QEAA@AEBV0@@Z
??0MPxGeometryFilter@@QEAA@XZ
??0MPxIkSolver@@IEAA@XZ
??0MPxIkSolver@@QEAA@AEBV0@@Z
??0MPxIkSolverNode@@IEAA@XZ
??0MPxIkSolverNode@@QEAA@AEBV0@@Z
??0MPxMotionPathNode@@QEAA@AEBV0@@Z
??0MPxMotionPathNode@@QEAA@XZ
??0MPxSkinCluster@@QEAA@AEBV0@@Z
??0MPxSkinCluster@@QEAA@XZ
??1MAnimControl@@UEAA@XZ
??1MAnimCurveChange@@QEAA@XZ
??1MAnimCurveClipboard@@QEAA@XZ
??1MAnimCurveClipboardItem@@QEAA@XZ
??1MAnimCurveClipboardItemArray@@QEAA@XZ
??1MAnimUtil@@AEAA@XZ
??1MFnAnimCurve@@UEAA@XZ
??1MFnBlendShapeDeformer@@UEAA@XZ
??1MFnCharacter@@UEAA@XZ
??1MFnClip@@UEAA@XZ
??1MFnGeometryFilter@@UEAA@XZ
??1MFnHikEffector@@UEAA@XZ
??1MFnIkEffector@@UEAA@XZ
??1MFnIkHandle@@UEAA@XZ
??1MFnIkJoint@@UEAA@XZ
??1MFnIkSolver@@UEAA@XZ
??1MFnKeyframeDelta@@UEAA@XZ
??1MFnKeyframeDeltaAddRemove@@UEAA@XZ
??1MFnKeyframeDeltaBlockAddRemove@@UEAA@XZ
??1MFnKeyframeDeltaBreakdown@@UEAA@XZ
??1MFnKeyframeDeltaInfType@@UEAA@XZ
??1MFnKeyframeDeltaMove@@UEAA@XZ
??1MFnKeyframeDeltaScale@@UEAA@XZ
??1MFnKeyframeDeltaTangent@@UEAA@XZ
??1MFnKeyframeDeltaWeighted@@UEAA@XZ
??1MFnLattice@@UEAA@XZ
??1MFnLatticeDeformer@@UEAA@XZ
??1MFnMotionPath@@UEAA@XZ
??1MFnSkinCluster@@UEAA@XZ
??1MFnWeightGeometryFilter@@UEAA@XZ
??1MFnWireDeformer@@UEAA@XZ
??1MGPUDeformerRegistrationInfo@@UEAA@XZ
??1MIkHandleGroup@@QEAA@XZ
??1MItKeyframe@@QEAA@XZ
??1MPxAnimCurveInterpolator@@UEAA@XZ
??1MPxBlendShape@@UEAA@XZ
??1MPxConstraint@@UEAA@XZ
??1MPxConstraintCommand@@UEAA@XZ
??1MPxDeformerNode@@UEAA@XZ
??1MPxGPUDeformer@@UEAA@XZ
??1MPxGeometryFilter@@UEAA@XZ
??1MPxIkSolver@@UEAA@XZ
??1MPxIkSolverNode@@UEAA@XZ
??1MPxMotionPathNode@@UEAA@XZ
??1MPxSkinCluster@@UEAA@XZ
??4?$MPyMArray_Type_Base@VMAnimCurveClipboardItemArray@@VMAnimCurveClipboardItem@@@@QEAAAEAV0@AEBV0@@Z
??4?$MPyTypeObject@VMAnimCurveClipboardItemArray@@@@QEAAAEAV0@AEBV0@@Z
??4?$MPyTypeObjectStatic@VMAnimCurveClipboardItemArray@@@@QEAAAEAV0@AEBV0@@Z
??4?$TiteratorWrapperBase@UConstIteratorDescriptor@TmultiIndexDependNodeSet@@@@QEAAAEAV0@AEBV0@@Z
??4?$TiteratorWrapperBase@UNodesOfBaseNameConstIteratorDescriptor@TmultiIndexDependNodeSet@@@@QEAAAEAV0@AEBV0@@Z
??4?$TiteratorWrapperBase@UNodesOfTypeConstIteratorDescriptor@TmultiIndexDependNodeSet@@@@QEAAAEAV0@AEBV0@@Z
??4?$TiteratorWrapperBidir@UConstIteratorDescriptor@TmultiIndexDependNodeSet@@V?$TiteratorWrapper@UConstIteratorDescriptor@TmultiIndexDependNodeSet@@@@@@QEAAAEAV0@AEBV0@@Z
??4?$TiteratorWrapperBidir@UNodesOfTypeConstIteratorDescriptor@TmultiIndexDependNodeSet@@V?$TiteratorWrapper@UNodesOfTypeConstIteratorDescriptor@TmultiIndexDependNodeSet@@@@@@QEAAAEAV0@AEBV0@@Z
??4?$TiteratorWrapperFwd@UConstIteratorDescriptor@TmultiIndexDependNodeSet@@V?$TiteratorWrapper@UConstIteratorDescriptor@TmultiIndexDependNodeSet@@@@@@QEAAAEAV0@AEBV0@@Z
??4?$TiteratorWrapperFwd@UNodesOfBaseNameConstIteratorDescriptor@TmultiIndexDependNodeSet@@V?$TiteratorWrapper@UNodesOfBaseNameConstIteratorDescriptor@TmultiIndexDependNodeSet@@@@@@QEAAAEAV0@AEBV0@@Z
??4?$TiteratorWrapperFwd@UNodesOfTypeConstIteratorDescriptor@TmultiIndexDependNodeSet@@V?$TiteratorWrapper@UNodesOfTypeConstIteratorDescriptor@TmultiIndexDependNodeSet@@@@@@QEAAAEAV0@AEBV0@@Z
??4MAnimControl@@QEAAAEAV0@AEBV0@@Z
??4MAnimCurveChange@@QEAAAEAV0@AEBV0@@Z
??4MAnimCurveClipboard@@AEAAAEAV0@AEBV0@@Z
??4MAnimCurveClipboardItem@@QEAAAEAV0@AEBV0@@Z
??4MAnimCurveClipboardItemArray@@QEAAAEAV0@AEBV0@@Z
??4MAnimMessage@@QEAAAEAV0@AEBV0@@Z
??4MAnimUtil@@QEAAAEAV0@AEBV0@@Z
??4MFnAnimCurve@@AEAAAEAV0@AEBV0@@Z
??4MFnBlendShapeDeformer@@AEAAAEAV0@AEBV0@@Z
??4MFnCharacter@@AEAAAEAV0@AEBV0@@Z
??4MFnClip@@AEAAAEAV0@AEBV0@@Z
??4MFnGeometryFilter@@AEAAAEAV0@AEBV0@@Z
??4MFnHikEffector@@AEAAAEAV0@AEBV0@@Z
??4MFnIkEffector@@AEAAAEAV0@AEBV0@@Z
??4MFnIkHandle@@AEAAAEAV0@AEBV0@@Z
??4MFnIkJoint@@AEAAAEAV0@AEBV0@@Z
??4MFnIkSolver@@AEAAAEAV0@AEBV0@@Z
??4MFnKeyframeDelta@@AEAAAEAV0@AEBV0@@Z
??4MFnKeyframeDeltaAddRemove@@AEAAAEAV0@AEBV0@@Z
??4MFnKeyframeDeltaBlockAddRemove@@AEAAAEAV0@AEBV0@@Z
??4MFnKeyframeDeltaBreakdown@@AEAAAEAV0@AEBV0@@Z
??4MFnKeyframeDeltaInfType@@AEAAAEAV0@AEBV0@@Z
??4MFnKeyframeDeltaMove@@AEAAAEAV0@AEBV0@@Z
??4MFnKeyframeDeltaScale@@AEAAAEAV0@AEBV0@@Z
??4MFnKeyframeDeltaTangent@@AEAAAEAV0@AEBV0@@Z
??4MFnKeyframeDeltaWeighted@@AEAAAEAV0@AEBV0@@Z
??4MFnLattice@@AEAAAEAV0@AEBV0@@Z
??4MFnLatticeDeformer@@AEAAAEAV0@AEBV0@@Z
??4MFnMotionPath@@AEAAAEAV0@AEBV0@@Z
??4MFnSkinCluster@@AEAAAEAV0@AEBV0@@Z
??4MFnWeightGeometryFilter@@AEAAAEAV0@AEBV0@@Z
??4MFnWireDeformer@@AEAAAEAV0@AEBV0@@Z
??4MGPUDeformerRegistrationInfo@@QEAAAEAV0@AEBV0@@Z
??4MGPUDeformerRegistry@@QEAAAEAV0@AEBV0@@Z
??4MIkHandleGroup@@QEAAAEAV0@AEBV0@@Z
??4MIkSystem@@QEAAAEAV0@AEBV0@@Z
??4MItKeyframe@@QEAAAEAV0@AEBV0@@Z
??4MPxAnimCurveInterpolator@@QEAAAEAV0@AEBV0@@Z
??4MPxBlendShape@@QEAAAEAV0@AEBV0@@Z
??4MPxConstraint@@QEAAAEAV0@AEBV0@@Z
??4MPxConstraintCommand@@QEAAAEAV0@AEBV0@@Z
??4MPxDeformerNode@@QEAAAEAV0@AEBV0@@Z
??4MPxGPUDeformer@@QEAAAEAV0@AEBV0@@Z
??4MPxGeometryFilter@@QEAAAEAV0@AEBV0@@Z
??4MPxIkSolver@@QEAAAEAV0@AEBV0@@Z
??4MPxIkSolverNode@@QEAAAEAV0@AEBV0@@Z
??4MPxMotionPathNode@@QEAAAEAV0@AEBV0@@Z
??4MPxSkinCluster@@QEAAAEAV0@AEBV0@@Z
??4MPyMAnimControl_Type@@QEAAAEAV0@AEBV0@@Z
??4MPyMAnimCurveChange_Type@@QEAAAEAV0@AEBV0@@Z
??4MPyMAnimCurveClipboardItemArray_Type@@QEAAAEAV0@AEBV0@@Z
??4MPyMAnimCurveClipboardItem_Type@@QEAAAEAV0@AEBV0@@Z
??4MPyMAnimCurveClipboard_Type@@QEAAAEAV0@AEBV0@@Z
??4MPyMAnimMessage_Type@@QEAAAEAV0@AEBV0@@Z
??4MPyMAnimUtil_Type@@QEAAAEAV0@AEBV0@@Z
??4MPyMFnAnimCurve_Type@@QEAAAEAV0@AEBV0@@Z
??4MPyMFnGeometryFilter_Type@@QEAAAEAV0@AEBV0@@Z
??4MPyMFnSkinCluster_Type@@QEAAAEAV0@AEBV0@@Z
??4TapiCastAnim@@QEAAAEAV0@AEBV0@@Z
??4TapiEnumAnim@@QEAAAEAV0@AEBV0@@Z
??4TpluginInterpDBase@@QEAAAEAV0@AEBV0@@Z
??8MAnimCurveClipboardItem@@QEBA_NAEBV0@@Z
??AMAnimCurveClipboardItemArray@@QEAAAEAVMAnimCurveClipboardItem@@I@Z
??AMAnimCurveClipboardItemArray@@QEBAAEBVMAnimCurveClipboardItem@@I@Z
??E?$TiteratorWrapperFwd@UConstIteratorDescriptor@TmultiIndexDependNodeSet@@V?$TiteratorWrapper@UConstIteratorDescriptor@TmultiIndexDependNodeSet@@@@@@QEAAAEAV?$TiteratorWrapper@UConstIteratorDescriptor@TmultiIndexDependNodeSet@@@@XZ
??IMFnAnimCurve@@AEBAPEAV0@XZ
??IMFnBlendShapeDeformer@@AEBAPEAV0@XZ
??IMFnCharacter@@AEBAPEAV0@XZ
??IMFnClip@@AEBAPEAV0@XZ
??IMFnGeometryFilter@@AEBAPEAV0@XZ
??IMFnHikEffector@@AEBAPEAV0@XZ
??IMFnIkEffector@@AEBAPEAV0@XZ
??IMFnIkHandle@@AEBAPEAV0@XZ
??IMFnIkJoint@@AEBAPEAV0@XZ
??IMFnIkSolver@@AEBAPEAV0@XZ
??IMFnKeyframeDelta@@AEBAPEAV0@XZ
??IMFnKeyframeDeltaAddRemove@@AEBAPEAV0@XZ
??IMFnKeyframeDeltaBlockAddRemove@@AEBAPEAV0@XZ
??IMFnKeyframeDeltaBreakdown@@AEBAPEAV0@XZ
??IMFnKeyframeDeltaInfType@@AEBAPEAV0@XZ
??IMFnKeyframeDeltaMove@@AEBAPEAV0@XZ
??IMFnKeyframeDeltaScale@@AEBAPEAV0@XZ
??IMFnKeyframeDeltaTangent@@AEBAPEAV0@XZ
??IMFnKeyframeDeltaWeighted@@AEBAPEAV0@XZ
??IMFnLattice@@AEBAPEAV0@XZ
??IMFnLatticeDeformer@@AEBAPEAV0@XZ
??IMFnMotionPath@@AEBAPEAV0@XZ
??IMFnSkinCluster@@AEBAPEAV0@XZ
??IMFnWeightGeometryFilter@@AEBAPEAV0@XZ
??IMFnWireDeformer@@AEBAPEAV0@XZ
??_7MAnimControl@@6B@
??_7MFnAnimCurve@@6B@
??_7MFnBlendShapeDeformer@@6B@
??_7MFnCharacter@@6B@
??_7MFnClip@@6B@
??_7MFnGeometryFilter@@6B@
??_7MFnHikEffector@@6B@
??_7MFnIkEffector@@6B@
??_7MFnIkHandle@@6B@
??_7MFnIkJoint@@6B@
??_7MFnIkSolver@@6B@
??_7MFnKeyframeDelta@@6B@
??_7MFnKeyframeDeltaAddRemove@@6B@
??_7MFnKeyframeDeltaBlockAddRemove@@6B@
??_7MFnKeyframeDeltaBreakdown@@6B@
??_7MFnKeyframeDeltaInfType@@6B@
??_7MFnKeyframeDeltaMove@@6B@
??_7MFnKeyframeDeltaScale@@6B@
??_7MFnKeyframeDeltaTangent@@6B@
??_7MFnKeyframeDeltaWeighted@@6B@
??_7MFnLattice@@6B@
??_7MFnLatticeDeformer@@6B@
??_7MFnMotionPath@@6B@
??_7MFnSkinCluster@@6B@
??_7MFnWeightGeometryFilter@@6B@
??_7MFnWireDeformer@@6B@
??_7MGPUDeformerRegistrationInfo@@6B@
??_7MPxAnimCurveInterpolator@@6B@
??_7MPxBlendShape@@6B@
??_7MPxConstraint@@6B@
??_7MPxConstraintCommand@@6B@
??_7MPxDeformerNode@@6B@
??_7MPxGPUDeformer@@6B@
??_7MPxGeometryFilter@@6B@
??_7MPxIkSolver@@6B@
??_7MPxIkSolverNode@@6B@
??_7MPxMotionPathNode@@6B@
??_7MPxSkinCluster@@6B@
??_B?1??appendToStr@?$MPyMArray_Type_Base@VMAnimCurveClipboardItemArray@@VMAnimCurveClipboardItem@@@@SAXAEBVMAnimCurveClipboardItemArray@@PEAPEAU_object@@@Z@51
??_B?1??copySequenceToArray@?$MPyMArray_Type_Base@VMAnimCurveClipboardItemArray@@VMAnimCurveClipboardItem@@@@SA_NPEAU_object@@AEAVMAnimCurveClipboardItemArray@@_N@Z@51
??_FMAnimCurveChange@@QEAAXXZ
?_getJointAngles@MPxIkSolverNode@@QEBA?AVMStatus@@AEAVMDoubleArray@@@Z
?_setJointAngles@MPxIkSolverNode@@QEAA?AVMStatus@@AEBVMDoubleArray@@@Z
?_setToRestAngles@MPxIkSolverNode@@QEAAXXZ
?_syntax@MPxConstraintCommand@@QEBA?AVMSyntax@@PEAVMStatus@@@Z
?accessoryAttribute@MPxGeometryFilter@@UEBAAEAVMObject@@XZ
?accessoryNodeSetup@MPxGeometryFilter@@UEAA?AVMStatus@@AEAVMDagModifier@@@Z
?add@TpluginInterpDBase@@SAPEAVTpluginObject@@AEBVTstring@@IIPEAVTplugin@@P6APEAXXZ@Z
?addAnimCurveEditedCallback@MAnimMessage@@SA_KP6AXAEAVMObjectArray@@PEAX@Z1PEAVMStatus@@@Z
?addAnimKeyframeEditCheckCallback@MAnimMessage@@SA_KP6AXPEA_NAEAVMPlug@@PEAX@Z2PEAVMStatus@@@Z
?addAnimKeyframeEditedCallback@MAnimMessage@@SA_KAEAVMObject@@P6AX0AEAVMObjectArray@@PEAX@Z2PEAVMStatus@@@Z
?addAnimKeyframeEditedCallback@MAnimMessage@@SA_KP6AXAEAVMObjectArray@@PEAX@Z1PEAVMStatus@@@Z
?addAnimatedObject@MFnMotionPath@@QEAA?AVMStatus@@AEBVMDagPath@@PEAVMDGModifier@@@Z
?addBaseObject@MFnBlendShapeDeformer@@QEAA?AVMStatus@@AEAVMObject@@@Z
?addCurveToClip@MFnCharacter@@QEAA?AVMStatus@@AEAVMObject@@0AEAVMPlug@@AEAVMDGModifier@@@Z
?addDisableImplicitControlCallback@MAnimMessage@@SA_KP6AXAEAVMPlugArray@@AEAVMDGModifier@@PEAX@Z2PEAVMStatus@@@Z
?addGeometry@MFnLatticeDeformer@@QEAA?AVMStatus@@AEBVMObject@@@Z
?addGeometry@MFnWireDeformer@@QEAA?AVMStatus@@AEBVMObject@@@Z
?addKey@MFnAnimCurve@@QEAAIAEBVMTime@@0W4TangentType@1@1PEAVMAnimCurveChange@@PEAVMStatus@@@Z
?addKey@MFnAnimCurve@@QEAAIAEBVMTime@@NW4TangentType@1@1PEAVMAnimCurveChange@@PEAVMStatus@@@Z
?addKey@MFnAnimCurve@@QEAAINAEBVMTime@@W4TangentType@1@1PEAVMAnimCurveChange@@PEAVMStatus@@@Z
?addKey@MFnAnimCurve@@QEAAINNW4TangentType@1@0PEAVMAnimCurveChange@@PEAVMStatus@@@Z
?addKeyframe@MFnAnimCurve@@QEAA?AVMStatus@@AEBVMTime@@NPEAVMAnimCurveChange@@@Z
?addKeyframe@MFnAnimCurve@@QEAA?AVMStatus@@AEBVMTime@@NW4TangentType@1@1PEAVMAnimCurveChange@@@Z
?addKeys@MFnAnimCurve@@QEAA?AVMStatus@@PEAVMTimeArray@@PEAVMDoubleArray@@W4TangentType@1@2_NPEAVMAnimCurveChange@@@Z
?addNodeAnimKeyframeEditedCallback@MAnimMessage@@SA_KAEAVMObject@@P6AX0AEAVMObjectArray@@PEAX@Z2PEAVMStatus@@@Z
?addPostBakeResultsCallback@MAnimMessage@@SA_KP6AXAEAVMPlugArray@@AEAVMDGModifier@@PEAX@Z2PEAVMStatus@@@Z
?addPreBakeResultsCallback@MAnimMessage@@SA_KP6AXAEAVMPlugArray@@AEAVMDGModifier@@PEAX@Z2PEAVMStatus@@@Z
?addTarget@MFnBlendShapeDeformer@@QEAA?AVMStatus@@AEBVMObject@@H0N@Z
?addToModule@?$MPyMArray_Type_Base@VMAnimCurveClipboardItemArray@@VMAnimCurveClipboardItem@@@@SA_NPEAU_object@@PEBD@Z
?addToModule@MPyMAnimControl_Type@@SA_NPEAU_object@@@Z
?addToModule@MPyMAnimCurveChange_Type@@SA_NPEAU_object@@@Z
?addToModule@MPyMAnimCurveClipboardItemArray_Type@@SA_NPEAU_object@@@Z
?addToModule@MPyMAnimCurveClipboardItem_Type@@SA_NPEAU_object@@@Z
?addToModule@MPyMAnimCurveClipboard_Type@@SA_NPEAU_object@@@Z
?addToModule@MPyMAnimMessage_Type@@SA_NPEAU_object@@@Z
?addToModule@MPyMAnimUtil_Type@@SA_NPEAU_object@@@Z
?addToModule@MPyMFnAnimCurve_Type@@SA_NPEAU_object@@@Z
?addToModule@MPyMFnGeometryFilter_Type@@SA_NPEAU_object@@@Z
?addToModule@MPyMFnSkinCluster_Type@@SA_NPEAU_object@@@Z
?addWire@MFnWireDeformer@@QEAA?AVMStatus@@AEBVMObject@@@Z
?aimVectorAttribute@MPxConstraintCommand@@MEBAAEBVMObject@@XZ
?allCoordinates@MPxMotionPathNode@@2VMObject@@A
?animCurve@MAnimCurveClipboardItem@@QEBA?BVMObject@@PEAVMStatus@@@Z
?animCurveDeltaComp@TapiCastAnim@@SAAEAVTparamCurveDeltaComp@@AEAVMAnimCurveChange@@@Z
?animCurveDeltaComp@TapiCastAnim@@SAAEBVTparamCurveDeltaComp@@AEBVMAnimCurveChange@@@Z
?animCurveType@MAnimCurveClipboardItem@@QEBA?AW4AnimCurveType@MFnAnimCurve@@PEAVMStatus@@@Z
?animCurveType@MFnAnimCurve@@QEBA?AW4AnimCurveType@1@PEAVMStatus@@@Z
?animTangentType@TapiCastAnim@@SA?AW4TangentType@MFnAnimCurve@@W4TtangentType@@@Z
?animTangentType@TapiCastAnim@@SA?AW4TtangentType@@W4TangentType@MFnAnimCurve@@@Z
?animationEndTime@MAnimControl@@SA?AVMTime@@XZ
?animationStartTime@MAnimControl@@SA?AVMTime@@XZ
?append@?$MPyMArray_Type_Base@VMAnimCurveClipboardItemArray@@VMAnimCurveClipboardItem@@@@SAPEAU_object@@PEAV?$MPyObject@VMAnimCurveClipboardItemArray@@@@PEAU2@@Z
?append@MAnimCurveClipboardItemArray@@QEAA?AVMStatus@@AEBVMAnimCurveClipboardItem@@@Z
?appendSyntax@MPxConstraintCommand@@UEAA?AVMStatus@@XZ
?appendToStr@?$MPyMArray_Type_Base@VMAnimCurveClipboardItemArray@@VMAnimCurveClipboardItem@@@@SAXAEBVMAnimCurveClipboardItemArray@@PEAPEAU_object@@@Z
?attachInstanceToCharacter@MFnCharacter@@QEAA?AVMStatus@@AEAVMObject@@AEAVMDGModifier@@@Z
?attachSourceToCharacter@MFnCharacter@@QEAA?AVMStatus@@AEAVMObject@@AEAVMDGModifier@@@Z
?autoKeyMode@MAnimControl@@SA_NXZ
?bank@MFnMotionPath@@QEBA_NPEAVMStatus@@@Z
?bank@MPxMotionPathNode@@2VMObject@@A
?bankScale@MFnMotionPath@@QEAANPEAVMStatus@@@Z
?bankScale@MPxMotionPathNode@@2VMObject@@A
?bankThreshold@MFnMotionPath@@QEAANPEAVMStatus@@@Z
?bankThreshold@MPxMotionPathNode@@2VMObject@@A
?banking@MPxMotionPathNode@@QEBA?AVMQuaternion@@AEAVMDataBlock@@NAEBVMVector@@NNPEAVMStatus@@@Z
?baseLattice@MFnLatticeDeformer@@QEAA?AVMObject@@PEAVMStatus@@@Z
?bindPreMatrix@MPxSkinCluster@@2VMObject@@A
?blendExists@MFnCharacter@@QEAA_NAEAVMObject@@00@Z
?checkEffectorAtGoal@MIkHandleGroup@@QEAA_NPEAVMStatus@@@Z
?className@MAnimCurveChange@@SAPEBDXZ
?className@MAnimCurveClipboardItem@@SAPEBDXZ
?className@MAnimCurveClipboardItemArray@@SAPEBDXZ
?className@MAnimMessage@@SAPEBDXZ
?className@MAnimUtil@@SAPEBDXZ
?className@MFnAnimCurve@@SAPEBDXZ
?className@MFnBlendShapeDeformer@@SAPEBDXZ
?className@MFnCharacter@@SAPEBDXZ
?className@MFnClip@@SAPEBDXZ
?className@MFnGeometryFilter@@SAPEBDXZ
?className@MFnHikEffector@@SAPEBDXZ
?className@MFnIkEffector@@SAPEBDXZ
?className@MFnIkHandle@@SAPEBDXZ
?className@MFnIkJoint@@SAPEBDXZ
?className@MFnIkSolver@@SAPEBDXZ
?className@MFnKeyframeDelta@@SAPEBDXZ
?className@MFnKeyframeDeltaAddRemove@@SAPEBDXZ
?className@MFnKeyframeDeltaBlockAddRemove@@SAPEBDXZ
?className@MFnKeyframeDeltaBreakdown@@SAPEBDXZ
?className@MFnKeyframeDeltaInfType@@SAPEBDXZ
?className@MFnKeyframeDeltaMove@@SAPEBDXZ
?className@MFnKeyframeDeltaScale@@SAPEBDXZ
?className@MFnKeyframeDeltaTangent@@SAPEBDXZ
?className@MFnKeyframeDeltaWeighted@@SAPEBDXZ
?className@MFnLattice@@SAPEBDXZ
?className@MFnLatticeDeformer@@SAPEBDXZ
?className@MFnMotionPath@@SAPEBDXZ
?className@MFnSkinCluster@@SAPEBDXZ
?className@MFnWeightGeometryFilter@@SAPEBDXZ
?className@MFnWireDeformer@@SAPEBDXZ
?className@MIkHandleGroup@@SAPEBDXZ
?className@MIkSystem@@SAPEBDXZ
?className@MItKeyframe@@SAPEBDXZ
?className@MPxBlendShape@@SAPEBDXZ
?className@MPxConstraint@@SAPEBDXZ
?className@MPxDeformerNode@@SAPEBDXZ
?className@MPxGeometryFilter@@SAPEBDXZ
?className@MPxIkSolver@@SAPEBDXZ
?className@MPxIkSolverNode@@SAPEBDXZ
?className@MPxMotionPathNode@@CAPEBDXZ
?className@MPxSkinCluster@@SAPEBDXZ
?clear@?$MPyMArray_Type_Base@VMAnimCurveClipboardItemArray@@VMAnimCurveClipboardItem@@@@SAPEAU_object@@PEAV?$MPyObject@VMAnimCurveClipboardItemArray@@@@@Z
?clear@MAnimCurveClipboard@@QEAA?AVMStatus@@XZ
?clear@MAnimCurveClipboardItemArray@@QEAA?AVMStatus@@XZ
?clipboardItems@MAnimCurveClipboard@@QEBA?BVMAnimCurveClipboardItemArray@@PEAVMStatus@@@Z
?closestNormal@MPxConstraint@@IEBA?AVMStatus@@AEBVMObject@@AEBVMPoint@@AEAVMVector@@@Z
?closestPoint@MPxConstraint@@IEBA?AVMStatus@@AEBVMObject@@AEBVMPoint@@AEAV4@@Z
?closestTangent@MPxConstraint@@IEBA?AVMStatus@@AEBVMObject@@AEBVMPoint@@AEAVMVector@@@Z
?computeAim@MPxConstraint@@IEBA?AVMEulerRotation@@AEBVMMatrix@@AEBVMVector@@111W4RotationOrder@2@AEBVMQuaternion@@PEAVMStatus@@@Z
?con1@?$MPyMArray_Type_Base@VMAnimCurveClipboardItemArray@@VMAnimCurveClipboardItem@@@@SA_NPEAV?$MPyObject@VMAnimCurveClipboardItemArray@@@@PEAU_object@@1@Z
?con2@?$MPyMArray_Type_Base@VMAnimCurveClipboardItemArray@@VMAnimCurveClipboardItem@@@@SA_NPEAV?$MPyObject@VMAnimCurveClipboardItemArray@@@@PEAU_object@@1@Z
?con3@?$MPyMArray_Type_Base@VMAnimCurveClipboardItemArray@@VMAnimCurveClipboardItem@@@@SA?AW4ConStatus@1@PEAV?$MPyObject@VMAnimCurveClipboardItemArray@@@@PEAU_object@@1@Z
?con4@?$MPyMArray_Type_Base@VMAnimCurveClipboardItemArray@@VMAnimCurveClipboardItem@@@@SA?AW4ConStatus@1@PEAV?$MPyObject@VMAnimCurveClipboardItemArray@@@@PEAU_object@@1@Z
?connectGeometryAttribute@MPxConstraintCommand@@IEAA?AVMStatus@@PEAXHAEAVMObject@@@Z
?connectObjectAndConstraint@MPxConstraintCommand@@MEAA?AVMStatus@@AEAVMDGModifier@@@Z
?connectObjectAttribute@MPxConstraintCommand@@IEAA?AVMStatus@@AEBVMObject@@0_N1@Z
?connectTarget@MPxConstraintCommand@@MEAA?AVMStatus@@AEAVMDagPath@@H@Z
?connectTarget@MPxConstraintCommand@@MEAA?AVMStatus@@PEAXH@Z
?connectTargetAttribute@MPxConstraintCommand@@IEAA?AVMStatus@@AEAVMDagPath@@HAEAVMObject@@1_N@Z
?connectTargetAttribute@MPxConstraintCommand@@IEAA?AVMStatus@@PEAXHAEAVMObject@@@Z
?constraintEnableRestAttribute@MPxConstraintCommand@@MEBAAEBVMObject@@XZ
?constraintInstancedAttribute@MPxConstraintCommand@@MEBAAEBVMObject@@XZ
?constraintNode@MPxConstraintCommand@@QEAAPEAVMPxConstraint@@XZ
?constraintOutputAttribute@MPxConstraintCommand@@MEBAAEBVMObject@@XZ
?constraintRestAttribute@MPxConstraintCommand@@MEBAAEBVMObject@@XZ
?constraintRotateOrderAttribute@MPxConstraint@@UEBA?BVMObject@@XZ
?constraintTargetAttribute@MPxConstraintCommand@@MEBAAEBVMObject@@XZ
?constraintTargetInstancedAttribute@MPxConstraintCommand@@MEBAAEBVMObject@@XZ
?constraintTargetWeightAttribute@MPxConstraintCommand@@MEBAAEBVMObject@@XZ
?constraintTypeId@MPxConstraintCommand@@MEBA?AVMTypeId@@XZ
?convert@MPxConstraint@@AEBAPEAVTdataGeometry@@AEBVMObject@@@Z
?copy@?$MPyMArray_Type_Base@VMAnimCurveClipboardItemArray@@VMAnimCurveClipboardItem@@@@SAPEAU_object@@PEAV?$MPyObject@VMAnimCurveClipboardItemArray@@@@PEAU2@@Z
?copy@MAnimCurveClipboardItemArray@@QEAA?AVMStatus@@AEBV1@@Z
?copySequenceToArray@?$MPyMArray_Type_Base@VMAnimCurveClipboardItemArray@@VMAnimCurveClipboardItem@@@@SA_NPEAU_object@@AEAVMAnimCurveClipboardItemArray@@_N@Z
?create@MFnAnimCurve@@QEAA?AVMObject@@AEBV2@0PEAVMDGModifier@@PEAVMStatus@@@Z
?create@MFnAnimCurve@@QEAA?AVMObject@@AEBV2@0W4AnimCurveType@1@PEAVMDGModifier@@PEAVMStatus@@@Z
?create@MFnAnimCurve@@QEAA?AVMObject@@AEBVMPlug@@PEAVMDGModifier@@PEAVMStatus@@@Z
?create@MFnAnimCurve@@QEAA?AVMObject@@AEBVMPlug@@W4AnimCurveType@1@PEAVMDGModifier@@PEAVMStatus@@@Z
?create@MFnAnimCurve@@QEAA?AVMObject@@W4AnimCurveType@1@PEAVMDGModifier@@PEAVMStatus@@@Z
?create@MFnBlendShapeDeformer@@QEAA?AVMObject@@AEBVMObjectArray@@W4Origin@1@W4HistoryLocation@1@PEAVMStatus@@@Z
?create@MFnBlendShapeDeformer@@QEAA?AVMObject@@V2@W4Origin@1@PEAVMStatus@@@Z
?create@MFnHikEffector@@QEAA?AVMObject@@V2@PEAVMStatus@@@Z
?create@MFnIkEffector@@QEAA?AVMObject@@V2@PEAVMStatus@@@Z
?create@MFnIkHandle@@QEAA?AVMObject@@AEAVMDagPath@@0PEAVMStatus@@@Z
?create@MFnIkJoint@@QEAA?AVMObject@@V2@PEAVMStatus@@@Z
?create@MFnLattice@@QEAA?AVMObject@@IIIV2@PEAVMStatus@@@Z
?create@MFnLatticeDeformer@@QEAA?AVMObject@@IIIPEAVMStatus@@@Z
?create@MFnMotionPath@@QEAA?AVMObject@@AEBVMDagPath@@0AEAVMTime@@1PEAVMDGModifier@@PEAVMStatus@@@Z
?create@MFnWireDeformer@@QEAA?AVMObject@@PEAVMStatus@@@Z
?create@MPxIkSolver@@QEAAXXZ
?create@MPxIkSolverNode@@QEAAXXZ
?createBlend@MFnCharacter@@QEAA?AVMObject@@AEAV2@00AEAVMDGModifier@@PEAVMStatus@@@Z
?createInstance@?$MPyTypeObject@VMAnimCurveClipboardItemArray@@@@SAPEAV?$MPyObject@VMAnimCurveClipboardItemArray@@@@PEAU_object@@0@Z
?createInstance@?$MPyTypeObject@VMAnimCurveClipboardItemArray@@@@SAPEAV?$MPyObject@VMAnimCurveClipboardItemArray@@@@PEAVMAnimCurveClipboardItemArray@@@Z
?createInstance@?$MPyTypeObject@VMAnimCurveClipboardItemArray@@@@SAPEAV?$MPyObject@VMAnimCurveClipboardItemArray@@@@XZ
?createInstance@?$MPyTypeObjectStatic@VMAnimCurveClipboardItemArray@@@@SAPEAU_object@@PEAU2@0@Z
?createInstance@?$MPyTypeObjectStatic@VMAnimCurveClipboardItemArray@@@@SAPEAU_object@@XZ
?createInstance@MPyMAnimCurveChange_Type@@SAPEAV?$MPyObject@VMAnimCurveChange@@@@PEAU_object@@0@Z
?createInstance@MPyMAnimCurveChange_Type@@SAPEAV?$MPyObject@VMAnimCurveChange@@@@PEAVMAnimCurveChange@@@Z
?createInstance@MPyMAnimCurveChange_Type@@SAPEAV?$MPyObject@VMAnimCurveChange@@@@XZ
?createInstance@MPyMAnimCurveClipboardItemArray_Type@@SAPEAV?$MPyObject@VMAnimCurveClipboardItemArray@@@@PEAU_object@@0@Z
?createInstance@MPyMAnimCurveClipboardItemArray_Type@@SAPEAV?$MPyObject@VMAnimCurveClipboardItemArray@@@@PEAVMAnimCurveClipboardItemArray@@@Z
?createInstance@MPyMAnimCurveClipboardItemArray_Type@@SAPEAV?$MPyObject@VMAnimCurveClipboardItemArray@@@@XZ
?createInstance@MPyMAnimCurveClipboardItem_Type@@SAPEAV?$MPyObject@VMAnimCurveClipboardItem@@@@PEAU_object@@0@Z
?createInstance@MPyMAnimCurveClipboardItem_Type@@SAPEAV?$MPyObject@VMAnimCurveClipboardItem@@@@PEAVMAnimCurveClipboardItem@@@Z
?createInstance@MPyMAnimCurveClipboardItem_Type@@SAPEAV?$MPyObject@VMAnimCurveClipboardItem@@@@XZ
?createInstance@MPyMAnimCurveClipboard_Type@@SAPEAV?$MPyObject@VMAnimCurveClipboard@@@@PEAU_object@@0@Z
?createInstance@MPyMAnimCurveClipboard_Type@@SAPEAV?$MPyObject@VMAnimCurveClipboard@@@@PEAVMAnimCurveClipboard@@@Z
?createInstance@MPyMAnimCurveClipboard_Type@@SAPEAV?$MPyObject@VMAnimCurveClipboard@@@@XZ
?createInstance@MPyMFnAnimCurve_Type@@SAPEAV?$MPyObject@VMFnAnimCurve@@@@PEAU_object@@0@Z
?createInstance@MPyMFnAnimCurve_Type@@SAPEAV?$MPyObject@VMFnAnimCurve@@@@PEAVMFnAnimCurve@@@Z
?createInstance@MPyMFnAnimCurve_Type@@SAPEAV?$MPyObject@VMFnAnimCurve@@@@XZ
?createInstance@MPyMFnGeometryFilter_Type@@SAPEAV?$MPyObject@VMFnGeometryFilter@@@@PEAU_object@@0@Z
?createInstance@MPyMFnGeometryFilter_Type@@SAPEAV?$MPyObject@VMFnGeometryFilter@@@@PEAVMFnGeometryFilter@@@Z
?createInstance@MPyMFnGeometryFilter_Type@@SAPEAV?$MPyObject@VMFnGeometryFilter@@@@XZ
?createInstance@MPyMFnSkinCluster_Type@@SAPEAV?$MPyObject@VMFnSkinCluster@@@@PEAU_object@@0@Z
?createInstance@MPyMFnSkinCluster_Type@@SAPEAV?$MPyObject@VMFnSkinCluster@@@@PEAVMFnSkinCluster@@@Z
?createInstance@MPyMFnSkinCluster_Type@@SAPEAV?$MPyObject@VMFnSkinCluster@@@@XZ
?createInstancedClip@MFnClip@@QEAA?AVMObject@@AEAV2@AEBVMTime@@AEAVMDGModifier@@PEAVMStatus@@_NNNNN@Z
?createSourceClip@MFnClip@@QEAA?AVMObject@@AEBVMTime@@0AEAVMDGModifier@@PEAVMStatus@@@Z
?createdConstraint@MPxConstraintCommand@@MEAAXPEAVMPxConstraint@@@Z
?crossingEffect@MFnWireDeformer@@QEBAMPEAVMStatus@@@Z
?currentEndTime@MFnKeyframeDeltaScale@@QEBA?AVMTime@@PEAVMStatus@@@Z
?currentInfinityType@MFnKeyframeDeltaInfType@@QEBA?AW4InfinityType@MFnAnimCurve@@PEAVMStatus@@@Z
?currentStartTime@MFnKeyframeDeltaScale@@QEBA?AVMTime@@PEAVMStatus@@@Z
?currentTangentType@MFnKeyframeDeltaTangent@@QEBA?AW4TangentType@MFnAnimCurve@@PEAVMStatus@@@Z
?currentTime@MAnimControl@@SA?AVMTime@@XZ
?currentTime@MFnKeyframeDeltaMove@@QEBA?AVMTime@@PEAVMStatus@@@Z
?currentValue@MFnKeyframeDeltaMove@@QEBANPEAVMStatus@@@Z
?dealloc_instance@?$MPyTypeObject@VMAnimCurveClipboardItemArray@@@@SAXPEAU_object@@@Z
?deform@MPxGeometryFilter@@UEAA?AVMStatus@@AEAVMDataBlock@@AEAVMItGeometry@@AEBVMMatrix@@I@Z
?deformLattice@MFnLatticeDeformer@@QEAA?AVMObject@@PEAVMStatus@@@Z
?deformerSet@MFnGeometryFilter@@QEBA?AVMObject@@PEAVMStatus@@@Z
?deltaType@MFnKeyframeDeltaAddRemove@@QEBA?AW4DeltaType@1@PEAVMStatus@@@Z
?deltaType@MFnKeyframeDeltaBlockAddRemove@@QEBA?AW4DeltaType@1@PEAVMStatus@@@Z
?deregisterGPUDeformerCreator@MGPUDeformerRegistry@@SA?AVMStatus@@AEBVMString@@0@Z
?doCreate@MPxConstraintCommand@@MEAA?AVMStatus@@XZ
?doEdit@MPxConstraintCommand@@MEAA?AVMStatus@@XZ
?doIt@MPxConstraintCommand@@UEAA?AVMStatus@@AEBVMArgList@@@Z
?doQuery@MPxConstraintCommand@@MEAA?AVMStatus@@XZ
?doSolve@MPxIkSolver@@UEAA?AVMStatus@@XZ
?doSolve@MPxIkSolverNode@@UEAA?AVMStatus@@XZ
?dofCount@MIkHandleGroup@@QEBAHPEAVMStatus@@@Z
?enableRestPosition@MPxConstraint@@2VMObject@@A
?endTime@MAnimCurveClipboard@@QEBA?AVMTime@@PEAVMStatus@@@Z
?endTime@MFnKeyframeDeltaBlockAddRemove@@QEBA?AVMTime@@PEAVMStatus@@@Z
?endTime@MFnKeyframeDeltaScale@@QEBA?AVMTime@@PEAVMStatus@@@Z
?endUnitlessInput@MAnimCurveClipboard@@QEBAMPEAVMStatus@@@Z
?envelope@MFnBlendShapeDeformer@@QEBAMPEAVMStatus@@@Z
?envelope@MFnGeometryFilter@@QEBAMPEAVMStatus@@@Z
?envelope@MFnWireDeformer@@QEBAMPEAVMStatus@@@Z
?envelope@MPxGeometryFilter@@2VMObject@@A
?errMsg1@?1??copySequenceToArray@?$MPyMArray_Type_Base@VMAnimCurveClipboardItemArray@@VMAnimCurveClipboardItem@@@@SA_NPEAU_object@@AEAVMAnimCurveClipboardItemArray@@_N@Z@4VMString@@A
?evaluate@MFnAnimCurve@@QEBA?AVMStatus@@AEBNAEAN@Z
?evaluate@MFnAnimCurve@@QEBA?AVMStatus@@AEBNAEAVMTime@@@Z
?evaluate@MFnAnimCurve@@QEBA?AVMStatus@@AEBVMTime@@AEAN@Z
?evaluate@MFnAnimCurve@@QEBA?AVMStatus@@AEBVMTime@@AEAV3@@Z
?evaluate@MFnAnimCurve@@QEBANAEBVMTime@@PEAVMStatus@@@Z
?evaluatePath@MPxMotionPathNode@@QEBA?AVMStatus@@AEAVMDataBlock@@NN_NNN111HHNNN1NNAEAVMPoint@@AEAVMMatrix@@@Z
?fClassDoc@?$MPyMArray_Type_Base@VMAnimCurveClipboardItemArray@@VMAnimCurveClipboardItem@@@@2VMString@@A
?fClassName@?$MPyMArray_Type_Base@VMAnimCurveClipboardItemArray@@VMAnimCurveClipboardItem@@@@0VMString@@A
?fGetSetters@?$MPyMArray_Type_Base@VMAnimCurveClipboardItemArray@@VMAnimCurveClipboardItem@@@@0PAUPyGetSetDef@@A
?fMethods@?$MPyMArray_Type_Base@VMAnimCurveClipboardItemArray@@VMAnimCurveClipboardItem@@@@0PAUPyMethodDef@@A
?fSequenceMethods@?$MPyMArray_Type_Base@VMAnimCurveClipboardItemArray@@VMAnimCurveClipboardItem@@@@0UPySequenceMethods@@A
?fTypeName@?$MPyMArray_Type_Base@VMAnimCurveClipboardItemArray@@VMAnimCurveClipboardItem@@@@0PEBDEB
?find@MFnAnimCurve@@QEBA_NAEBVMTime@@AEAIPEAVMStatus@@@Z
?find@MFnAnimCurve@@QEBA_NNAEAIPEAVMStatus@@@Z
?find@TpluginInterpDBase@@SAPEAVTpluginObject@@AEBVTstring@@@Z
?findAnimatablePlugs@MAnimUtil@@SA_NAEBVMSelectionList@@AEAVMPlugArray@@@Z
?findAnimatedPlugs@MAnimUtil@@SA_NAEBVMDagPath@@AEAVMPlugArray@@_NPEAVMStatus@@@Z
?findAnimatedPlugs@MAnimUtil@@SA_NAEBVMObject@@AEAVMPlugArray@@_NPEAVMStatus@@@Z
?findAnimatedPlugs@MAnimUtil@@SA_NAEBVMSelectionList@@AEAVMPlugArray@@_NPEAVMStatus@@@Z
?findAnimation@MAnimUtil@@SA_NAEBVMPlug@@AEAVMObjectArray@@PEAVMStatus@@@Z
?findAnimationLayers@MAnimUtil@@SA_NAEBVMPlug@@AEAVMObjectArray@@AEAVMPlugArray@@PEAVMStatus@@@Z
?findClosest@MFnAnimCurve@@QEBAIAEBVMTime@@PEAVMStatus@@@Z
?findClosest@MFnAnimCurve@@QEBAINPEAVMStatus@@@Z
?findConstraint@MAnimUtil@@SA_NAEBVMPlug@@AEAVMObject@@AEAVMObjectArray@@PEAVMStatus@@@Z
?findSetDrivenKeyAnimation@MAnimUtil@@SA_NAEBVMPlug@@AEAVMObjectArray@@AEAVMPlugArray@@PEAVMStatus@@@Z
?findSolver@MIkSystem@@SA?AVMObject@@VMString@@PEAVMStatus@@@Z
?flowNode@MPxMotionPathNode@@2VMObject@@A
?flushAnimKeyframeEditedCallbacks@MAnimMessage@@SAXXZ
?follow@MFnMotionPath@@QEBA_NPEAVMStatus@@@Z
?follow@MPxMotionPathNode@@2VMObject@@A
?followAxis@MFnMotionPath@@QEAA?AW4Axis@1@PEAVMStatus@@@Z
?fractionMode@MPxMotionPathNode@@2VMObject@@A
?fractionalToParametric@MPxMotionPathNode@@QEBANNPEAVMStatus@@@Z
?frontAxis@MPxMotionPathNode@@2VMObject@@A
?frontTwist@MPxMotionPathNode@@2VMObject@@A
?fsAPIClipboard@MAnimCurveClipboard@@0V1@A
?fullAttributeName@MAnimCurveClipboardItem@@QEBAAEBVMString@@PEAVMStatus@@@Z
?funcValueTolerance@MPxIkSolver@@QEBANXZ
?funcValueTolerance@MPxIkSolverNode@@QEBANXZ
?get@MAnimCurveClipboardItemArray@@QEBA?AVMStatus@@QEAVMAnimCurveClipboardItem@@@Z
?getAbsolute@MFnClip@@QEAA_NPEAVMStatus@@@Z
?getAbsoluteChannelSettings@MFnClip@@QEAA?AVMStatus@@AEAVMIntArray@@@Z
?getAddressingInfo@MAnimCurveClipboardItem@@QEBA?AVMStatus@@AEAI00@Z
?getAffectedGeometry@MFnLatticeDeformer@@QEAA?AVMStatus@@AEAVMObjectArray@@@Z
?getAffectedGeometry@MFnWireDeformer@@QEAA?AVMStatus@@AEAVMObjectArray@@@Z
?getAnimatedObjects@MFnMotionPath@@QEAA?AVMStatus@@AEAVMDagPathArray@@@Z
?getAuxiliaryEffectors@MFnHikEffector@@QEBA?AVMStatus@@AEAVMObjectArray@@@Z
?getBaseObjects@MFnBlendShapeDeformer@@QEBA?AVMStatus@@AEAVMObjectArray@@@Z
?getBlend@MFnCharacter@@QEAA?AVMObject@@HPEAVMStatus@@@Z
?getBlendClips@MFnCharacter@@QEAA?AVMStatus@@HAEAVMObject@@0@Z
?getBlendCount@MFnCharacter@@QEAAHPEAVMStatus@@@Z
?getBlendWeights@MFnSkinCluster@@QEBA?AVMStatus@@AEBVMDagPath@@AEBVMObject@@AEAVMDoubleArray@@@Z
?getCharacterThatOwnsPlug@MFnCharacter@@QEBA_NAEAVMPlug@@AEAVMObject@@@Z
?getClipScheduler@MFnCharacter@@QEAA?AVMObject@@PEAVMStatus@@@Z
?getCurrentPosition@MFnKeyframeDeltaTangent@@QEBA?AVMStatus@@AEAM0@Z
?getCurve@MFnMotionPath@@AEAAPEAXXZ
?getCycle@MFnClip@@QEAANPEAVMStatus@@@Z
?getDeformationDetails@MPxGeometryFilter@@QEAAIPEAVMStatus@@@Z
?getDegreesOfFreedom@MFnIkJoint@@QEBA?AVMStatus@@AEA_N00@Z
?getDivisions@MFnLattice@@QEAA?AVMStatus@@AEAI00@Z
?getDivisions@MFnLatticeDeformer@@QEAA?AVMStatus@@AEAI00@Z
?getDropoffLocator@MFnWireDeformer@@QEAA?AVMStatus@@IIAEAM0@Z
?getEffColor@MFnHikEffector@@QEBA?AVMColor@@PEAVMStatus@@@Z
?getEffector@MFnIkHandle@@QEAA?AVMStatus@@AEAVMDagPath@@@Z
?getEnabled@MFnClip@@QEAA_NPEAVMStatus@@@Z
?getHikJointName@MFnIkJoint@@QEBA?AVMStatus@@AEAVMString@@@Z
?getInputGeometry@MFnGeometryFilter@@QEBA?AVMStatus@@AEAVMObjectArray@@@Z
?getInterpPluginList@TpluginInterpDBase@@SA_NAEAVTpluginInterpPtrArray@@@Z
?getInterpPluginNames@TpluginInterpDBase@@SA_NAEAVTstringArray@@@Z
?getJointAngles@MPxIkSolver@@IEBA?AVMStatus@@AEAVMDoubleArray@@@Z
?getJointAngles@MPxIkSolverNode@@IEBA?AVMStatus@@AEAVMDoubleArray@@@Z
?getMayaObj@MPyMAnimCurveChange_Type@@SAPEAVMAnimCurveChange@@PEAU_object@@@Z
?getMayaObj@MPyMAnimCurveClipboardItemArray_Type@@SAPEAVMAnimCurveClipboardItemArray@@PEAU_object@@@Z
?getMayaObj@MPyMAnimCurveClipboardItem_Type@@SAPEAVMAnimCurveClipboardItem@@PEAU_object@@@Z
?getMayaObj@MPyMAnimCurveClipboard_Type@@SAPEAVMAnimCurveClipboard@@PEAU_object@@@Z
?getMayaObj@MPyMFnAnimCurve_Type@@SAPEAVMFnAnimCurve@@PEAU_object@@@Z
?getMayaObj@MPyMFnGeometryFilter_Type@@SAPEAVMFnGeometryFilter@@PEAU_object@@@Z
?getMayaObj@MPyMFnSkinCluster_Type@@SAPEAVMFnSkinCluster@@PEAU_object@@@Z
?getMemberAnimCurves@MFnClip@@QEAA?AVMStatus@@AEAVMObjectArray@@AEAVMPlugArray@@@Z
?getMemberPlugs@MFnCharacter@@QEBA?AVMStatus@@AEAVMPlugArray@@@Z
?getObjectAttributesArray@MPxConstraintCommand@@MEAAXAEAVMObjectArray@@@Z
?getOrientation@MFnIkJoint@@QEBA?AVMStatus@@AEAVMEulerRotation@@@Z
?getOrientation@MFnIkJoint@@QEBA?AVMStatus@@AEAVMQuaternion@@@Z
?getOrientation@MFnIkJoint@@QEBA?AVMStatus@@QEANAEAW4RotationOrder@MTransformationMatrix@@@Z
?getOrientationMarker@MFnMotionPath@@QEAA?AVMObject@@IPEAVMStatus@@@Z
?getOutputAttributes@MPxConstraint@@MEAAXAEAVMObjectArray@@@Z
?getOutputGeometry@MFnGeometryFilter@@QEBA?AVMStatus@@AEAVMObjectArray@@@Z
?getPathAtIndex@MFnGeometryFilter@@QEBA?AVMStatus@@IAEAVMDagPath@@@Z
?getPivotOffset@MFnHikEffector@@QEBA?AVMVector@@PEAVMStatus@@@Z
?getPointsAffectedByInfluence@MFnSkinCluster@@QEAA?AVMStatus@@AEBVMDagPath@@AEAVMSelectionList@@AEAVMDoubleArray@@@Z
?getPointsAffectedByInfluence@MFnSkinCluster@@QEAA?AVMStatus@@AEBVMDagPath@@AEAVMSelectionList@@AEAVMFloatArray@@@Z
?getPositionMarker@MFnMotionPath@@QEAA?AVMObject@@IPEAVMStatus@@@Z
?getPostCycle@MFnClip@@QEAANPEAVMStatus@@@Z
?getPreCycle@MFnClip@@QEAANPEAVMStatus@@@Z
?getPreferedAngle@MFnIkJoint@@QEBA?AVMStatus@@QEAN@Z
?getPreviousPosition@MFnKeyframeDeltaTangent@@QEBA?AVMStatus@@AEAM0@Z
?getScale@MFnClip@@QEAANPEAVMStatus@@@Z
?getScaleOrientation@MFnIkJoint@@QEBA?AVMStatus@@AEAVMQuaternion@@@Z
?getScaleOrientation@MFnIkJoint@@QEBA?AVMStatus@@QEANAEAW4RotationOrder@MTransformationMatrix@@@Z
?getScheduledClip@MFnCharacter@@QEAA?AVMObject@@HPEAVMStatus@@@Z
?getScheduledClipCount@MFnCharacter@@QEAAHPEAVMStatus@@@Z
?getSegmentScale@MFnIkJoint@@QEBA?AVMStatus@@QEAN@Z
?getSolvers@MIkSystem@@SA?AVMStatus@@AEAVMStringArray@@@Z
?getSourceClip@MFnCharacter@@QEAA?AVMObject@@HPEAVMStatus@@@Z
?getSourceClipCount@MFnCharacter@@QEAAHPEAVMStatus@@@Z
?getSourceDuration@MFnClip@@QEAA?AVMTime@@PEAVMStatus@@@Z
?getSourceStart@MFnClip@@QEAA?AVMTime@@PEAVMStatus@@@Z
?getStartFrame@MFnClip@@QEAA?AVMTime@@PEAVMStatus@@@Z
?getStartJoint@MFnIkHandle@@QEAA?AVMStatus@@AEAVMDagPath@@@Z
?getStiffness@MFnIkJoint@@QEBA?AVMStatus@@QEAN@Z
?getSubCharacters@MFnCharacter@@QEBA?AVMStatus@@AEAVMSelectionList@@@Z
?getTangent@MFnAnimCurve@@QEBA?AVMStatus@@IAEAM0_N@Z
?getTangent@MFnAnimCurve@@QEBA?AVMStatus@@IAEAVMAngle@@AEAN_N@Z
?getTangentIn@MItKeyframe@@QEAA?AVMStatus@@AEAM0@Z
?getTangentOut@MItKeyframe@@QEAA?AVMStatus@@AEAM0@Z
?getTargets@MFnBlendShapeDeformer@@QEBA?AVMStatus@@VMObject@@HAEAVMObjectArray@@@Z
?getTimes@MFnKeyframeDeltaBlockAddRemove@@QEBAXAEAVMTimeArray@@PEAVMStatus@@@Z
?getTrack@MFnClip@@QEAAHPEAVMStatus@@@Z
?getValues@MFnKeyframeDeltaBlockAddRemove@@QEBAXAEAVMDoubleArray@@PEAVMStatus@@@Z
?getVectors@MPxMotionPathNode@@QEBA?AVMStatus@@AEAVMDataBlock@@NAEAVMVector@@11PEBV4@@Z
?getWeight@MFnClip@@QEAANPEAVMStatus@@@Z
?getWeightPlugStrings@MFnWeightGeometryFilter@@QEBA?AVMStatus@@AEBVMSelectionList@@AEAVMString@@@Z
?getWeightPlugStrings@MFnWeightGeometryFilter@@QEBA?AVMStatus@@AEBVMSelectionList@@AEAVMStringArray@@@Z
?getWeights@MFnSkinCluster@@QEBA?AVMStatus@@AEBVMDagPath@@AEBVMObject@@AEAVMDoubleArray@@AEAI@Z
?getWeights@MFnSkinCluster@@QEBA?AVMStatus@@AEBVMDagPath@@AEBVMObject@@AEAVMFloatArray@@AEAI@Z
?getWeights@MFnSkinCluster@@QEBA?AVMStatus@@AEBVMDagPath@@AEBVMObject@@AEAVMIntArray@@AEAVMDoubleArray@@@Z
?getWeights@MFnSkinCluster@@QEBA?AVMStatus@@AEBVMDagPath@@AEBVMObject@@IAEAVMDoubleArray@@@Z
?getWeights@MFnSkinCluster@@QEBA?AVMStatus@@AEBVMDagPath@@AEBVMObject@@IAEAVMFloatArray@@@Z
?getWeights@MFnWeightGeometryFilter@@QEBA?AVMStatus@@AEBVMDagPath@@AEBVMObject@@AEAVMFloatArray@@@Z
?getWeights@MFnWeightGeometryFilter@@QEBA?AVMStatus@@IAEBVMObject@@AEAVMFloatArray@@@Z
?getWeightsHelper@MFnSkinCluster@@AEBA?AVMStatus@@AEBVMDagPath@@AEBVMObject@@AEBVMIntArray@@AEAVMDoubleArray@@@Z
?getWeightsHelper@MFnSkinCluster@@AEBA?AVMStatus@@_NIAEBVMDagPath@@AEBVMObject@@AEAIAEAVMDoubleArray@@@Z
?get_sizeIncrement@?$MPyMArray_Type_Base@VMAnimCurveClipboardItemArray@@VMAnimCurveClipboardItem@@@@SAPEAU_object@@PEAV?$MPyObject@VMAnimCurveClipboardItemArray@@@@PEAX@Z
?globalInTangentType@MAnimControl@@SA?AW4TangentType@MFnAnimCurve@@PEAVMStatus@@@Z
?globalOutTangentType@MAnimControl@@SA?AW4TangentType@MFnAnimCurve@@PEAVMStatus@@@Z
?groupHandlesByTopology@MPxIkSolver@@UEBA_NXZ
?groupHandlesByTopology@MPxIkSolverNode@@UEBA_NXZ
?groupId@MPxGeometryFilter@@2VMObject@@A
?groupIdAtIndex@MFnGeometryFilter@@QEBAIIPEAVMStatus@@@Z
?handle@MIkHandleGroup@@QEAA?AVMObject@@HPEAVMStatus@@@Z
?handleCount@MIkHandleGroup@@QEBAHPEAVMStatus@@@Z
?handleGroup@MPxIkSolver@@QEBAPEAVMIkHandleGroup@@XZ
?handleGroup@MPxIkSolverNode@@QEBAPEAVMIkHandleGroup@@XZ
?handleNewTargets@MPxConstraintCommand@@MEAA?AVMStatus@@AEAVMDagPath@@@Z
?handleNewTargets@MPxConstraintCommand@@MEAAXAEAVMObject@@@Z
?hasJointLimitSupport@MPxIkSolver@@UEBA_NXZ
?hasJointLimitSupport@MPxIkSolverNode@@UEBA_NXZ
?hasUniqueSolution@MPxIkSolver@@UEBA_NXZ
?hasUniqueSolution@MPxIkSolverNode@@UEBA_NXZ
?hasVectorFlags@MPxConstraintCommand@@MEBA_NXZ
?hikJointName@MFnIkJoint@@QEBA?AVMString@@PEAVMStatus@@@Z
?holdingShape@MFnWireDeformer@@QEBA?AVMObject@@IPEAVMStatus@@@Z
?inTangentType@MFnAnimCurve@@QEBA?AW4TangentType@1@IPEAVMStatus@@@Z
?inTangentType@MItKeyframe@@QEAA?AW4TangentType@1@PEAVMStatus@@@Z
?indexForGroupId@MFnGeometryFilter@@QEBAIIPEAVMStatus@@@Z
?indexForInfluenceObject@MFnSkinCluster@@QEBAIAEBVMDagPath@@PEAVMStatus@@@Z
?indexForOutputConnection@MFnGeometryFilter@@QEBAIIPEAVMStatus@@@Z
?indexForOutputShape@MFnGeometryFilter@@QEBAIAEBVMObject@@PEAVMStatus@@@Z
?influenceObjects@MFnSkinCluster@@QEBAIAEAVMDagPathArray@@PEAVMStatus@@@Z
?init_instance@?$MPyMArray_Type_Base@VMAnimCurveClipboardItemArray@@VMAnimCurveClipboardItem@@@@SAHPEAV?$MPyObject@VMAnimCurveClipboardItemArray@@@@PEAU_object@@1@Z
?initialSetup@MPxBlendShape@@CAXXZ
?initialSetup@MPxConstraint@@CAXXZ
?initialSetup@MPxDeformerNode@@CAXXZ
?initialSetup@MPxGeometryFilter@@CAXXZ
?initialSetup@MPxMotionPathNode@@CAXXZ
?initialSetup@MPxSkinCluster@@CAXXZ
?initialize@?$MPyTypeObject@VMAnimCurveClipboardItemArray@@@@SA_NPEAU_object@@PEBD1HP6AH000@ZPEAUPyMethodDef@@PEAVMPyAttributeRegistry@@PEAUPyGetSetDef@@PEAUPySequenceMethods@@P6APEAU2@00H@ZP6APEAU2@0@Z8PEAUPyNumberMethods@@@Z
?initialize@?$MPyTypeObjectStatic@VMAnimCurveClipboardItemArray@@@@SA_NPEAU_object@@PEBD1PEAUPyMethodDef@@PEAVMPyAttributeRegistry@@PEAUPyGetSetDef@@@Z
?initialize@MPxAnimCurveInterpolator@@UEAAXAEBVMObject@@I@Z
?input@MPxGeometryFilter@@2VMObject@@A
?inputGeom@MPxGeometryFilter@@2VMObject@@A
?inputGeomTarget@MPxBlendShape@@2VMObject@@A
?inputMeshAttribute@MGPUDeformerRegistrationInfo@@UEAA?BVMObject@@XZ
?inputPointsTarget@MPxBlendShape@@2VMObject@@A
?inputShapeAtIndex@MFnGeometryFilter@@QEBA?AVMObject@@IPEAVMStatus@@@Z
?inputTarget@MPxBlendShape@@2VMObject@@A
?inputTargetGroup@MPxBlendShape@@2VMObject@@A
?inputTargetItem@MPxBlendShape@@2VMObject@@A
?insert@?$MPyMArray_Type_Base@VMAnimCurveClipboardItemArray@@VMAnimCurveClipboardItem@@@@SAPEAU_object@@PEAV?$MPyObject@VMAnimCurveClipboardItemArray@@@@PEAU2@@Z
?insert@MAnimCurveClipboardItemArray@@QEAA?AVMStatus@@AEBVMAnimCurveClipboardItem@@I@Z
?interpPluginsByName@TpluginInterpDBase@@0PEAVTpluginInterpDBaseNameTable@@EA
?inverseFront@MPxMotionPathNode@@2VMObject@@A
?inverseNormal@MFnMotionPath@@QEAA_NPEAVMStatus@@@Z
?inverseUp@MPxMotionPathNode@@2VMObject@@A
?isAnimated@MAnimUtil@@SA_NAEBVMDagPath@@_NPEAVMStatus@@@Z
?isAnimated@MAnimUtil@@SA_NAEBVMObject@@_NPEAVMStatus@@@Z
?isAnimated@MAnimUtil@@SA_NAEBVMPlug@@_NPEAVMStatus@@@Z
?isAnimated@MAnimUtil@@SA_NAEBVMSelectionList@@_NPEAVMStatus@@@Z
?isBreakdown@MFnAnimCurve@@QEBA_NIPEAVMStatus@@@Z
?isBreakdown@MFnKeyframeDeltaBreakdown@@QEBA_NPEAVMStatus@@@Z
?isDone@MItKeyframe@@QEAA_NPEAVMStatus@@@Z
?isEmpty@MAnimCurveClipboard@@QEBA_NPEAVMStatus@@@Z
?isGlobalSnap@MIkSystem@@SA_NPEAVMStatus@@@Z
?isGlobalSolve@MIkSystem@@SA_NPEAVMStatus@@@Z
?isInTangent@MFnKeyframeDeltaTangent@@QEBA_NPEAVMStatus@@@Z
?isInstancedClip@MFnClip@@QEAA_NPEAVMStatus@@@Z
?isInteractive@MAnimCurveChange@@QEBA_NXZ
?isPlaying@MAnimControl@@SA_NXZ
?isPose@MFnClip@@QEAA_NPEAVMStatus@@@Z
?isPositionOnly@MPxIkSolver@@UEBA_NXZ
?isPositionOnly@MPxIkSolverNode@@UEBA_NXZ
?isPreInfinity@MFnKeyframeDeltaInfType@@QEBA_NPEAVMStatus@@@Z
?isScrubbing@MAnimControl@@SA_NXZ
?isSingleChainOnly@MPxIkSolver@@UEBA_NXZ
?isSingleChainOnly@MPxIkSolverNode@@UEBA_NXZ
?isStatic@MFnAnimCurve@@QEBA_NPEAVMStatus@@@Z
?isTimeInput@MFnAnimCurve@@QEBA_NPEAVMStatus@@@Z
?isUnitlessInput@MFnAnimCurve@@QEBA_NPEAVMStatus@@@Z
?isValid@MAnimCurveClipboardItemArray@@QEBA_NAEAI@Z
?isValidComponentType@MFnSkinCluster@@AEBA_NAEBVMObject@@@Z
?isWeighted@MFnAnimCurve@@QEBA_NPEAVMStatus@@@Z
?keyIndex@MFnKeyframeDelta@@UEBAIPEAVMStatus@@@Z
?keyIndex@MFnKeyframeDeltaAddRemove@@UEBAIPEAVMStatus@@@Z
?keyIndex@MFnKeyframeDeltaMove@@UEBAIPEAVMStatus@@@Z
?leafAttributeName@MAnimCurveClipboardItem@@QEBAAEBVMString@@PEAVMStatus@@@Z
?length@MAnimCurveClipboardItemArray@@QEBAIXZ
?localIntensity@MFnWireDeformer@@QEBAMPEAVMStatus@@@Z
?lockOutput@MPxConstraint@@2VMObject@@A
?map@TapiEnumAnim@@SA?AW4DeformationDetails@MPxGeometryFilter@@W4TgeometryChange@@@Z
?map@TapiEnumAnim@@SA?AW4TgeometryChange@@W4DeformationDetails@MPxGeometryFilter@@@Z
?map@TapiEnumAnim@@SA?AW4TupVectorType@Tconstraint@@W4UpVectorType@MPxConstraint@@@Z
?map@TapiEnumAnim@@SA?AW4UpVectorType@MPxConstraint@@W4TupVectorType@Tconstraint@@@Z
?matrix@MPxMotionPathNode@@QEBA?AVMMatrix@@AEBVMVector@@00HHPEAVMStatus@@@Z
?matrix@MPxSkinCluster@@2VMObject@@A
?maxIterations@MFnIkSolver@@QEAAIPEAVMStatus@@@Z
?maxIterations@MPxIkSolver@@QEBAHXZ
?maxIterations@MPxIkSolverNode@@QEBAHXZ
?maxRotateDampXRange@MFnIkJoint@@QEBANPEAVMStatus@@@Z
?maxRotateDampXStrength@MFnIkJoint@@QEBANPEAVMStatus@@@Z
?maxRotateDampYRange@MFnIkJoint@@QEBANPEAVMStatus@@@Z
?maxRotateDampYStrength@MFnIkJoint@@QEBANPEAVMStatus@@@Z
?maxRotateDampZRange@MFnIkJoint@@QEBANPEAVMStatus@@@Z
?maxRotateDampZStrength@MFnIkJoint@@QEBANPEAVMStatus@@@Z
?maxTime@MAnimControl@@SA?AVMTime@@XZ
?minRotateDampXRange@MFnIkJoint@@QEBANPEAVMStatus@@@Z
?minRotateDampXStrength@MFnIkJoint@@QEBANPEAVMStatus@@@Z
?minRotateDampYRange@MFnIkJoint@@QEBANPEAVMStatus@@@Z
?minRotateDampYStrength@MFnIkJoint@@QEBANPEAVMStatus@@@Z
?minRotateDampZRange@MFnIkJoint@@QEBANPEAVMStatus@@@Z
?minRotateDampZStrength@MFnIkJoint@@QEBANPEAVMStatus@@@Z
?minTime@MAnimControl@@SA?AVMTime@@XZ
?new_instance@?$MPyTypeObject@VMAnimCurveClipboardItemArray@@@@SAPEAU_object@@PEAU_typeobject@@PEAU2@1@Z
?next@MItKeyframe@@QEAA?AVMStatus@@XZ
?nodeName@MAnimCurveClipboardItem@@QEBAAEBVMString@@PEAVMStatus@@@Z
?normal@MPxMotionPathNode@@2VMObject@@A
?normalize_slice@?$MPyMArray_Type_Base@VMAnimCurveClipboardItemArray@@VMAnimCurveClipboardItem@@@@SAXAEA_J0_J@Z
?numDropoffLocators@MFnWireDeformer@@QEBAIIPEAVMStatus@@@Z
?numKeyframes@MFnAnimCurve@@QEBAIPEAVMStatus@@@Z
?numKeys@MFnAnimCurve@@QEBAIPEAVMStatus@@@Z
?numKeys@MFnKeyframeDeltaBlockAddRemove@@QEBAIPEAVMStatus@@@Z
?numOrientationMarkers@MFnMotionPath@@QEAAIPEAVMStatus@@@Z
?numOutputConnections@MFnGeometryFilter@@QEBAIPEAVMStatus@@@Z
?numPositionMarkers@MFnMotionPath@@QEAAIPEAVMStatus@@@Z
?numWeights@MFnBlendShapeDeformer@@QEBAIPEAVMStatus@@@Z
?numWires@MFnWireDeformer@@QEBAIPEAVMStatus@@@Z
?objectAttribute@MPxConstraintCommand@@MEBAAEBVMObject@@XZ
?objectChanged@MFnLattice@@MEAA_NW4Type@MFn@@PEAVMStatus@@@Z
?offsetAttribute@MPxConstraintCommand@@MEBAAEBVMObject@@XZ
?orientMatrix@MPxMotionPathNode@@2VMObject@@A
?orientationMarkerTime@MPxMotionPathNode@@2VMObject@@A
?origin@MFnBlendShapeDeformer@@QEBA?AW4Origin@1@PEAVMStatus@@@Z
?outTangentType@MFnAnimCurve@@QEBA?AW4TangentType@1@IPEAVMStatus@@@Z
?outTangentType@MItKeyframe@@QEAA?AW4TangentType@1@PEAVMStatus@@@Z
?outputGeom@MPxGeometryFilter@@2VMObject@@A
?outputMeshAttribute@MGPUDeformerRegistrationInfo@@UEAA?BVMObject@@XZ
?outputShapeAtIndex@MFnGeometryFilter@@QEBA?AVMObject@@IPEAVMStatus@@@Z
?paramCurve@MFnKeyframeDelta@@QEBA?AVMObject@@PEAVMStatus@@@Z
?parametricToFractional@MPxMotionPathNode@@QEBANNPEAVMStatus@@@Z
?parseArgs@MPxConstraintCommand@@MEAA?AVMStatus@@AEBVMArgList@@@Z
?passiveOutputAttribute@MPxConstraint@@MEBA?BVMObject@@XZ
?pathGeometry@MPxMotionPathNode@@2VMObject@@A
?pathObject@MFnMotionPath@@QEAA?AVMDagPath@@PEAVMStatus@@@Z
?pivotTime@MFnKeyframeDeltaScale@@QEBA?AVMTime@@PEAVMStatus@@@Z
?playBackward@MAnimControl@@SA?AVMStatus@@XZ
?playForward@MAnimControl@@SA?AVMStatus@@XZ
?playbackBy@MAnimControl@@SANXZ
?playbackMode@MAnimControl@@SA?AW4PlaybackMode@1@XZ
?playbackSpeed@MAnimControl@@SANXZ
?poWeight@MFnIkHandle@@QEAANPEAVMStatus@@@Z
?point@MFnLattice@@QEAAAEAVMPoint@@IIIPEAVMStatus@@@Z
?position@MPxMotionPathNode@@QEBA?AVMPoint@@AEAVMDataBlock@@NPEAVMStatus@@@Z
?positionMarkerTime@MPxMotionPathNode@@2VMObject@@A
?positionOnly@MPxIkSolverNode@@QEBA_NPEAVMStatus@@@Z
?postInfinityType@MFnAnimCurve@@QEBA?AW4InfinityType@1@PEAVMStatus@@@Z
?postSolve@MPxIkSolver@@UEAA?AVMStatus@@V2@@Z
?postSolve@MPxIkSolverNode@@UEAA?AVMStatus@@V2@@Z
?preInfinityType@MFnAnimCurve@@QEBA?AW4InfinityType@1@PEAVMStatus@@@Z
?preSolve@MPxIkSolver@@UEAA?AVMStatus@@XZ
?preSolve@MPxIkSolverNode@@UEAA?AVMStatus@@XZ
?previousIndex@MFnKeyframeDeltaMove@@QEBAIPEAVMStatus@@@Z
?previousInfinityType@MFnKeyframeDeltaInfType@@QEBA?AW4InfinityType@MFnAnimCurve@@PEAVMStatus@@@Z
?previousTangentType@MFnKeyframeDeltaTangent@@QEBA?AW4TangentType@MFnAnimCurve@@PEAVMStatus@@@Z
?previousTime@MFnKeyframeDeltaMove@@QEBA?AVMTime@@PEAVMStatus@@@Z
?previousValue@MFnKeyframeDeltaMove@@QEBANPEAVMStatus@@@Z
?priority@MFnIkHandle@@QEAAIPEAVMStatus@@@Z
?priority@MIkHandleGroup@@QEBAHPEAVMStatus@@@Z
?redoIt@MAnimCurveChange@@QEAA?AVMStatus@@XZ
?redoIt@MPxConstraintCommand@@UEAA?AVMStatus@@XZ
?registerGPUDeformerCreator@MGPUDeformerRegistry@@SA?AVMStatus@@AEBVMString@@0PEAVMGPUDeformerRegistrationInfo@@@Z
?registerSolver@MPxIkSolver@@SAXAEBVMString@@P6APEAXXZ@Z
?remove@MAnimCurveClipboardItemArray@@QEAA?AVMStatus@@I@Z
?remove@MFnAnimCurve@@QEAA?AVMStatus@@IPEAVMAnimCurveChange@@@Z
?remove@TpluginInterpDBase@@SA_NPEAVTpluginObject@@@Z
?removeBlend@MFnCharacter@@QEAA_NAEAVMObject@@0AEAVMDGModifier@@PEAVMStatus@@@Z
?removeGeometry@MFnLatticeDeformer@@QEAA?AVMStatus@@AEBVMObject@@@Z
?removeGeometry@MFnWireDeformer@@QEAA?AVMStatus@@AEBVMObject@@@Z
?removeTarget@MFnBlendShapeDeformer@@QEAA?AVMStatus@@AEBVMObject@@H0N@Z
?remove_@?$MPyMArray_Type_Base@VMAnimCurveClipboardItemArray@@VMAnimCurveClipboardItem@@@@SAPEAU_object@@PEAV?$MPyObject@VMAnimCurveClipboardItemArray@@@@PEAU2@@Z
?replacedValue@MFnKeyframeDeltaAddRemove@@QEBANPEAVMStatus@@@Z
?repr@?$MPyMArray_Type_Base@VMAnimCurveClipboardItemArray@@VMAnimCurveClipboardItem@@@@SAPEAU_object@@PEAV?$MPyObject@VMAnimCurveClipboardItemArray@@@@@Z
?reset@MFnLattice@@QEAA?AVMStatus@@NNN@Z
?reset@MItKeyframe@@QEAA?AVMStatus@@AEAVMObject@@@Z
?reset@MItKeyframe@@QEAA?AVMStatus@@XZ
?resetLattice@MFnLatticeDeformer@@QEAA?AVMStatus@@_N@Z
?rotate@MPxMotionPathNode@@2VMObject@@A
?rotateOrder@MPxMotionPathNode@@2VMObject@@A
?rotatePlane@MPxIkSolverNode@@QEBA_NPEAVMStatus@@@Z
?rotateX@MPxMotionPathNode@@2VMObject@@A
?rotateY@MPxMotionPathNode@@2VMObject@@A
?rotateZ@MPxMotionPathNode@@2VMObject@@A
?rotation@MFnWireDeformer@@QEBAMPEAVMStatus@@@Z
?separator@?1??appendToStr@?$MPyMArray_Type_Base@VMAnimCurveClipboardItemArray@@VMAnimCurveClipboardItem@@@@SAXAEBVMAnimCurveClipboardItemArray@@PEAPEAU_object@@@Z@4PEAU4@EA
?set@MAnimCurveClipboard@@QEAA?AVMStatus@@AEBV1@@Z
?set@MAnimCurveClipboard@@QEAA?AVMStatus@@AEBVMAnimCurveClipboardItemArray@@@Z
?set@MAnimCurveClipboard@@QEAA?AVMStatus@@AEBVMAnimCurveClipboardItemArray@@AEBVMTime@@1AEBM2_N@Z
?set@MAnimCurveClipboardItemArray@@QEAA?AVMStatus@@AEBVMAnimCurveClipboardItem@@I@Z
?setAbsolute@MFnClip@@QEAA?AVMStatus@@_NPEAVMDGModifier@@@Z
?setAbsoluteChannelSettings@MFnClip@@QEAA?AVMStatus@@AEBVMIntArray@@PEAVMDGModifier@@@Z
?setAddressingInfo@MAnimCurveClipboardItem@@QEAA?AVMStatus@@III@Z
?setAngle@MFnAnimCurve@@QEAA?AVMStatus@@IAEBVMAngle@@_NPEAVMAnimCurveChange@@@Z
?setAnimCurve@MAnimCurveClipboardItem@@QEAA?AVMStatus@@AEBVMObject@@@Z
?setAnimationEndTime@MAnimControl@@SA?AVMStatus@@VMTime@@@Z
?setAnimationStartEndTime@MAnimControl@@SA?AVMStatus@@VMTime@@0@Z
?setAnimationStartTime@MAnimControl@@SA?AVMStatus@@VMTime@@@Z
?setAutoKeyMode@MAnimControl@@SA?AVMStatus@@_N@Z
?setBank@MFnMotionPath@@QEAA?AVMStatus@@_N@Z
?setBankScale@MFnMotionPath@@QEAA?AVMStatus@@N@Z
?setBankThreshold@MFnMotionPath@@QEAA?AVMStatus@@N@Z
?setBlendWeights@MFnSkinCluster@@QEAA?AVMStatus@@AEBVMDagPath@@AEBVMObject@@AEBVMDoubleArray@@@Z
?setCommand@MFnCharacter@@MEAAPEAVTsetCmd@@XZ
?setCommandString@MFnCharacter@@MEAA?AVTstring@@XZ
?setConstraintData@MPxConstraint@@AEAAXPEAX@Z
?setCrossingEffect@MFnWireDeformer@@QEAA?AVMStatus@@M@Z
?setCurrentTime@MAnimControl@@SA?AVMStatus@@AEBVMTime@@@Z
?setCycle@MFnClip@@QEAA?AVMStatus@@NPEAVMDGModifier@@@Z
?setData@MPxConstraint@@AEAAXPEAX@Z
?setData@MPxConstraintCommand@@AEAAXPEAX@Z
?setDeformationDetails@MPxGeometryFilter@@QEAA?AVMStatus@@I@Z
?setDegreesOfFreedom@MFnIkJoint@@QEAA?AVMStatus@@_N00@Z
?setDivisions@MFnLattice@@QEAA?AVMStatus@@III@Z
?setDivisions@MFnLatticeDeformer@@QEAA?AVMStatus@@III@Z
?setDropoffLocator@MFnWireDeformer@@QEAA?AVMStatus@@IIMM@Z
?setEffColor@MFnHikEffector@@QEAA?AVMStatus@@AEBVMColor@@@Z
?setEffector@MFnIkHandle@@QEAA?AVMStatus@@AEBVMDagPath@@@Z
?setEnabled@MFnClip@@QEAA?AVMStatus@@_NPEAVMDGModifier@@@Z
?setEnvelope@MFnBlendShapeDeformer@@QEAA?AVMStatus@@M@Z
?setEnvelope@MFnGeometryFilter@@QEAA?AVMStatus@@M@Z
?setEnvelope@MFnWireDeformer@@QEAA?AVMStatus@@M@Z
?setFollow@MFnMotionPath@@QEAA?AVMStatus@@_NPEAVMDGModifier@@@Z
?setFollowAxis@MFnMotionPath@@QEAA?AVMStatus@@W4Axis@1@@Z
?setFuncValueTolerance@MPxIkSolver@@UEAA?AVMStatus@@N@Z
?setFuncValueTolerance@MPxIkSolverNode@@UEAA?AVMStatus@@N@Z
?setGlobalInTangentType@MAnimControl@@SA?AVMStatus@@AEBW4TangentType@MFnAnimCurve@@@Z
?setGlobalOutTangentType@MAnimControl@@SA?AVMStatus@@AEBW4TangentType@MFnAnimCurve@@@Z
?setGlobalSnap@MIkSystem@@SA?AVMStatus@@_N@Z
?setGlobalSolve@MIkSystem@@SA?AVMStatus@@_N@Z
?setHandleGroup@MPxIkSolver@@UEAAXPEAVMIkHandleGroup@@@Z
?setHandleGroup@MPxIkSolverNode@@UEAAXPEAVMIkHandleGroup@@@Z
?setHoldingShape@MFnWireDeformer@@QEAA?AVMStatus@@IVMObject@@@Z
?setInTangentType@MFnAnimCurve@@QEAA?AVMStatus@@IW4TangentType@1@PEAVMAnimCurveChange@@@Z
?setInTangentType@MItKeyframe@@QEAA?AVMStatus@@W4TangentType@1@@Z
?setInteractive@MAnimCurveChange@@QEAAX_N@Z
?setInverseNormal@MFnMotionPath@@QEAA?AVMStatus@@_N@Z
?setIsBreakdown@MFnAnimCurve@@QEAA?AVMStatus@@I_NPEAVMAnimCurveChange@@@Z
?setIsWeighted@MFnAnimCurve@@QEAA?AVMStatus@@_NPEAVMAnimCurveChange@@@Z
?setJointAngles@MPxIkSolver@@IEAA?AVMStatus@@AEBVMDoubleArray@@@Z
?setJointAngles@MPxIkSolverNode@@IEAA?AVMStatus@@AEBVMDoubleArray@@@Z
?setLength@?$MPyMArray_Type_Base@VMAnimCurveClipboardItemArray@@VMAnimCurveClipboardItem@@@@SAPEAU_object@@PEAV?$MPyObject@VMAnimCurveClipboardItemArray@@@@PEAU2@@Z
?setLength@MAnimCurveClipboardItemArray@@QEAA?AVMStatus@@I@Z
?setLocalIntensity@MFnWireDeformer@@QEAA?AVMStatus@@M@Z
?setMaxIterations@MFnIkSolver@@QEAA?AVMStatus@@I@Z
?setMaxIterations@MPxIkSolver@@UEAA?AVMStatus@@H@Z
?setMaxIterations@MPxIkSolverNode@@UEAA?AVMStatus@@H@Z
?setMaxRotateDampXRange@MFnIkJoint@@QEAA?AVMStatus@@N@Z
?setMaxRotateDampXStrength@MFnIkJoint@@QEAA?AVMStatus@@N@Z
?setMaxRotateDampYRange@MFnIkJoint@@QEAA?AVMStatus@@N@Z
?setMaxRotateDampYStrength@MFnIkJoint@@QEAA?AVMStatus@@N@Z
?setMaxRotateDampZRange@MFnIkJoint@@QEAA?AVMStatus@@N@Z
?setMaxRotateDampZStrength@MFnIkJoint@@QEAA?AVMStatus@@N@Z
?setMaxTime@MAnimControl@@SA?AVMStatus@@VMTime@@@Z
?setMinMaxTime@MAnimControl@@SA?AVMStatus@@VMTime@@0@Z
?setMinRotateDampXRange@MFnIkJoint@@QEAA?AVMStatus@@N@Z
?setMinRotateDampXStrength@MFnIkJoint@@QEAA?AVMStatus@@N@Z
?setMinRotateDampYRange@MFnIkJoint@@QEAA?AVMStatus@@N@Z
?setMinRotateDampYStrength@MFnIkJoint@@QEAA?AVMStatus@@N@Z
?setMinRotateDampZRange@MFnIkJoint@@QEAA?AVMStatus@@N@Z
?setMinRotateDampZStrength@MFnIkJoint@@QEAA?AVMStatus@@N@Z
?setMinTime@MAnimControl@@SA?AVMStatus@@VMTime@@@Z
?setModifiedCallback@MPxGeometryFilter@@UEAAXAEAVMSelectionList@@_N@Z
?setNameInfo@MAnimCurveClipboardItem@@QEAA?AVMStatus@@AEBVMString@@00@Z
?setOrientation@MFnIkJoint@@QEAA?AVMStatus@@AEBVMEulerRotation@@@Z
?setOrientation@MFnIkJoint@@QEAA?AVMStatus@@AEBVMQuaternion@@@Z
?setOrientation@MFnIkJoint@@QEAA?AVMStatus@@QEBNW4RotationOrder@MTransformationMatrix@@@Z
?setOrigin@MFnBlendShapeDeformer@@QEAA?AVMStatus@@W4Origin@1@@Z
?setOutTangentType@MFnAnimCurve@@QEAA?AVMStatus@@IW4TangentType@1@PEAVMAnimCurveChange@@@Z
?setOutTangentType@MItKeyframe@@QEAA?AVMStatus@@W4TangentType@1@@Z
?setPOWeight@MFnIkHandle@@QEAA?AVMStatus@@N@Z
?setPathObject@MFnMotionPath@@QEAA?AVMStatus@@AEBVMDagPath@@PEAVMDGModifier@@@Z
?setPivotOffset@MFnHikEffector@@QEAA?AVMStatus@@AEBVMVector@@@Z
?setPlaybackBy@MAnimControl@@SA?AVMStatus@@AEBN@Z
?setPlaybackMode@MAnimControl@@SA?AVMStatus@@W4PlaybackMode@1@@Z
?setPlaybackSpeed@MAnimControl@@SA?AVMStatus@@N@Z
?setPoseClip@MFnClip@@QEAA?AVMStatus@@_NPEAVMDGModifier@@@Z
?setPositionOnly@MPxIkSolverNode@@QEAA?AVMStatus@@_N@Z
?setPostCycle@MFnClip@@QEAA?AVMStatus@@NPEAVMDGModifier@@@Z
?setPostInfinityType@MFnAnimCurve@@QEAA?AVMStatus@@W4InfinityType@1@PEAVMAnimCurveChange@@@Z
?setPreCycle@MFnClip@@QEAA?AVMStatus@@NPEAVMDGModifier@@@Z
?setPreInfinityType@MFnAnimCurve@@QEAA?AVMStatus@@W4InfinityType@1@PEAVMAnimCurveChange@@@Z
?setPreferedAngle@MFnIkJoint@@QEAA?AVMStatus@@QEBN@Z
?setPriority@MFnIkHandle@@QEAA?AVMStatus@@I@Z
?setPriority@MIkHandleGroup@@QEAA?AVMStatus@@H@Z
?setRestPosition@MPxConstraintCommand@@MEAA?AVMStatus@@AEAVMDGModifier@@@Z
?setRotatePlane@MPxIkSolverNode@@QEAA?AVMStatus@@_N@Z
?setRotation@MFnWireDeformer@@QEAA?AVMStatus@@M@Z
?setScale@MFnClip@@QEAA?AVMStatus@@NPEAVMDGModifier@@@Z
?setScaleOrientation@MFnIkJoint@@QEAA?AVMStatus@@AEBVMQuaternion@@@Z
?setScaleOrientation@MFnIkJoint@@QEAA?AVMStatus@@QEBNW4RotationOrder@MTransformationMatrix@@@Z
?setSegmentScale@MFnIkJoint@@QEAA?AVMStatus@@QEBN@Z
?setSingleChainOnly@MPxIkSolverNode@@QEAA?AVMStatus@@_N@Z
?setSizeIncrement@MAnimCurveClipboardItemArray@@QEAAXI@Z
?setSolver@MFnIkHandle@@QEAA?AVMStatus@@AEBVMObject@@@Z
?setSolver@MFnIkHandle@@QEAA?AVMStatus@@AEBVMString@@@Z
?setSolverID@MIkHandleGroup@@QEAA?AVMStatus@@H@Z
?setSourceData@MFnClip@@QEAA?AVMStatus@@AEBVMTime@@0PEAVMDGModifier@@@Z
?setStartFrame@MFnClip@@QEAA?AVMStatus@@AEBVMTime@@PEAVMDGModifier@@@Z
?setStartJoint@MFnIkHandle@@QEAA?AVMStatus@@AEBVMDagPath@@@Z
?setStartJointAndEffector@MFnIkHandle@@QEAA?AVMStatus@@AEBVMDagPath@@0@Z
?setStickiness@MFnIkHandle@@QEAA?AVMStatus@@W4Stickiness@1@@Z
?setStiffness@MFnIkJoint@@QEAA?AVMStatus@@QEBN@Z
?setSupportJointLimits@MPxIkSolverNode@@QEAA?AVMStatus@@_N@Z
?setTangent@MFnAnimCurve@@QEAA?AVMStatus@@IAEBVMAngle@@N_NPEAVMAnimCurveChange@@1@Z
?setTangent@MFnAnimCurve@@QEAA?AVMStatus@@IMM_NPEAVMAnimCurveChange@@0@Z
?setTangentTypes@MFnAnimCurve@@QEAA?AVMStatus@@VMIntArray@@W4TangentType@1@1PEAVMAnimCurveChange@@@Z
?setTangentsLocked@MFnAnimCurve@@QEAA?AVMStatus@@I_NPEAVMAnimCurveChange@@@Z
?setTangentsLocked@MItKeyframe@@QEAA?AVMStatus@@_N@Z
?setTime@MFnAnimCurve@@QEAA?AVMStatus@@IAEBVMTime@@PEAVMAnimCurveChange@@@Z
?setTime@MItKeyframe@@QEAA?AVMStatus@@VMTime@@@Z
?setToRestAngles@MPxIkSolver@@IEAAXXZ
?setToRestAngles@MPxIkSolverNode@@IEAAXXZ
?setTolerance@MFnIkSolver@@QEAA?AVMStatus@@N@Z
?setTrack@MFnClip@@QEAA?AVMStatus@@HPEAVMDGModifier@@@Z
?setUEnd@MFnMotionPath@@QEAA?AVMStatus@@N@Z
?setUStart@MFnMotionPath@@QEAA?AVMStatus@@N@Z
?setUTimeEnd@MFnMotionPath@@QEAA?AVMStatus@@AEAVMTime@@@Z
?setUTimeStart@MFnMotionPath@@QEAA?AVMStatus@@AEAVMTime@@@Z
?setUniqueSolution@MPxIkSolverNode@@QEAA?AVMStatus@@_N@Z
?setUnitlessInput@MFnAnimCurve@@QEAA?AVMStatus@@INPEAVMAnimCurveChange@@@Z
?setUpAxis@MFnMotionPath@@QEAA?AVMStatus@@W4Axis@1@@Z
?setUseExistingConnectionWhenSetEditing@MPxGeometryFilter@@QEAAX_N@Z
?setUseNormal@MFnMotionPath@@QEAA?AVMStatus@@_N@Z
?setValue@MFnAnimCurve@@QEAA?AVMStatus@@INPEAVMAnimCurveChange@@@Z
?setValue@MItKeyframe@@QEAA?AVMStatus@@N@Z
?setViewMode@MAnimControl@@SA?AVMStatus@@W4PlaybackViewMode@1@@Z
?setWeight@MFnAnimCurve@@QEAA?AVMStatus@@IN_NPEAVMAnimCurveChange@@@Z
?setWeight@MFnBlendShapeDeformer@@QEAA?AVMStatus@@IM@Z
?setWeight@MFnClip@@QEAA?AVMStatus@@NPEAVMDGModifier@@@Z
?setWeight@MFnIkHandle@@QEAA?AVMStatus@@N@Z
?setWeight@MFnWeightGeometryFilter@@QEAA?AVMStatus@@AEBVMDagPath@@AEBVMObject@@AEAVMFloatArray@@@Z
?setWeight@MFnWeightGeometryFilter@@QEAA?AVMStatus@@AEBVMDagPath@@AEBVMObject@@MPEAVMFloatArray@@@Z
?setWeight@MFnWeightGeometryFilter@@QEAA?AVMStatus@@AEBVMDagPath@@IAEBVMObject@@AEAVMFloatArray@@@Z
?setWeight@MFnWeightGeometryFilter@@QEAA?AVMStatus@@AEBVMDagPath@@IAEBVMObject@@MPEAVMFloatArray@@@Z
?setWeightedTangents@MAnimControl@@SA?AVMStatus@@_N@Z
?setWeights@MFnSkinCluster@@QEAA?AVMStatus@@AEBVMDagPath@@AEBVMObject@@AEAVMIntArray@@AEAVMDoubleArray@@_NPEAV6@@Z
?setWeights@MFnSkinCluster@@QEAA?AVMStatus@@AEBVMDagPath@@AEBVMObject@@AEAVMIntArray@@AEAVMFloatArray@@_NPEAV6@@Z
?setWeights@MFnSkinCluster@@QEAA?AVMStatus@@AEBVMDagPath@@AEBVMObject@@IM_NPEAVMFloatArray@@@Z
?setWeights@MFnSkinCluster@@QEAA?AVMStatus@@AEBVMDagPath@@AEBVMObject@@IN_NPEAVMDoubleArray@@@Z
?setWeightsHelper@MFnSkinCluster@@AEAA?AVMStatus@@AEBVMDagPath@@AEBVMObject@@_NIAEBVMIntArray@@AEBVMDoubleArray@@2PEAV6@@Z
?setWeightsLocked@MFnAnimCurve@@QEAA?AVMStatus@@I_NPEAVMAnimCurveChange@@@Z
?setWireDropOffDistance@MFnWireDeformer@@QEAA?AVMStatus@@IM@Z
?setWireScale@MFnWireDeformer@@QEAA?AVMStatus@@IM@Z
?set_sizeIncrement@?$MPyMArray_Type_Base@VMAnimCurveClipboardItemArray@@VMAnimCurveClipboardItem@@@@SAHPEAV?$MPyObject@VMAnimCurveClipboardItemArray@@@@PEAU_object@@PEAX@Z
?sideTwist@MPxMotionPathNode@@2VMObject@@A
?singleChainOnly@MPxIkSolverNode@@QEBA_NPEAVMStatus@@@Z
?sizeIncrement@MAnimCurveClipboardItemArray@@QEBAIXZ
?snapHandle@MPxIkSolver@@UEAAXAEAVMObject@@@Z
?snapHandle@MPxIkSolverNode@@UEAAXAEAVMObject@@@Z
?solve@MIkHandleGroup@@QEAA?AVMStatus@@XZ
?solver@MFnIkHandle@@QEAA?AVMObject@@PEAVMStatus@@@Z
?solverID@MIkHandleGroup@@QEBAHPEAVMStatus@@@Z
?solverPriority@MIkHandleGroup@@QEBAHPEAVMStatus@@@Z
?solverTypeName@MPxIkSolver@@UEBA?AVMString@@XZ
?solverTypeName@MPxIkSolverNode@@UEBA?AVMString@@XZ
?sourceClip@MFnClip@@QEAA?AVMObject@@PEAVMStatus@@@Z
?sq_ass_item@?$MPyMArray_Type_Base@VMAnimCurveClipboardItemArray@@VMAnimCurveClipboardItem@@@@SAHPEAV?$MPyObject@VMAnimCurveClipboardItemArray@@@@_JPEAU_object@@@Z
?sq_ass_slice@?$MPyMArray_Type_Base@VMAnimCurveClipboardItemArray@@VMAnimCurveClipboardItem@@@@SAHPEAV?$MPyObject@VMAnimCurveClipboardItemArray@@@@_J1PEAU_object@@@Z
?sq_concat@?$MPyMArray_Type_Base@VMAnimCurveClipboardItemArray@@VMAnimCurveClipboardItem@@@@SAPEAU_object@@PEAV?$MPyObject@VMAnimCurveClipboardItemArray@@@@PEAU2@@Z
?sq_contains@?$MPyMArray_Type_Base@VMAnimCurveClipboardItemArray@@VMAnimCurveClipboardItem@@@@SAHPEAV?$MPyObject@VMAnimCurveClipboardItemArray@@@@PEAU_object@@@Z
?sq_inplace_concat@?$MPyMArray_Type_Base@VMAnimCurveClipboardItemArray@@VMAnimCurveClipboardItem@@@@SAPEAU_object@@PEAV?$MPyObject@VMAnimCurveClipboardItemArray@@@@PEAU2@@Z
?sq_inplace_repeat@?$MPyMArray_Type_Base@VMAnimCurveClipboardItemArray@@VMAnimCurveClipboardItem@@@@SAPEAU_object@@PEAV?$MPyObject@VMAnimCurveClipboardItemArray@@@@_J@Z
?sq_length@?$MPyMArray_Type_Base@VMAnimCurveClipboardItemArray@@VMAnimCurveClipboardItem@@@@SA_JPEAV?$MPyObject@VMAnimCurveClipboardItemArray@@@@@Z
?sq_repeat@?$MPyMArray_Type_Base@VMAnimCurveClipboardItemArray@@VMAnimCurveClipboardItem@@@@SAPEAU_object@@PEAV?$MPyObject@VMAnimCurveClipboardItemArray@@@@_J@Z
?sq_slice@?$MPyMArray_Type_Base@VMAnimCurveClipboardItemArray@@VMAnimCurveClipboardItem@@@@SAPEAU_object@@PEAV?$MPyObject@VMAnimCurveClipboardItemArray@@@@_J1@Z
?startTime@MAnimCurveClipboard@@QEBA?AVMTime@@PEAVMStatus@@@Z
?startTime@MFnKeyframeDeltaBlockAddRemove@@QEBA?AVMTime@@PEAVMStatus@@@Z
?startTime@MFnKeyframeDeltaScale@@QEBA?AVMTime@@PEAVMStatus@@@Z
?startUnitlessInput@MAnimCurveClipboard@@QEBAMPEAVMStatus@@@Z
?stickiness@MFnIkHandle@@QEAA?AW4Stickiness@1@PEAVMStatus@@@Z
?stop@MAnimControl@@SA?AVMStatus@@XZ
?str@?$MPyMArray_Type_Base@VMAnimCurveClipboardItemArray@@VMAnimCurveClipboardItem@@@@SAPEAU_object@@PEAV?$MPyObject@VMAnimCurveClipboardItemArray@@@@@Z
?supportJointLimits@MPxIkSolverNode@@QEBA_NPEAVMStatus@@@Z
?supportsOffset@MPxConstraintCommand@@MEBA_NXZ
?syntax@MPxConstraintCommand@@IEBA?AVMSyntax@@PEAVMStatus@@@Z
?tangentsLocked@MFnAnimCurve@@QEBA_NIPEAVMStatus@@@Z
?tangentsLocked@MItKeyframe@@QEBA_NPEAVMStatus@@@Z
?targetAttribute@MPxConstraint@@UEBA?BVMObject@@XZ
?targetItemIndexList@MFnBlendShapeDeformer@@QEBA?AVMStatus@@IVMObject@@AEAVMIntArray@@@Z
?targetType@MPxConstraintCommand@@MEBA?AW4TargetType@1@XZ
?targetWeights@MPxBlendShape@@2VMObject@@A
?terminate@MPxGPUDeformer@@UEAAXXZ
?theAPIClipboard@MAnimCurveClipboard@@SAAEAV1@XZ
?time@MFnAnimCurve@@QEBA?AVMTime@@IPEAVMStatus@@@Z
?time@MFnKeyframeDeltaAddRemove@@QEBA?AVMTime@@PEAVMStatus@@@Z
?time@MItKeyframe@@QEAA?AVMTime@@PEAVMStatus@@@Z
?timedAnimCurveTypeForPlug@MFnAnimCurve@@QEBA?AW4AnimCurveType@1@AEAVMPlug@@PEAVMStatus@@@Z
?toSolverSpace@MPxIkSolver@@QEBAPEBVMMatrix@@XZ
?toSolverSpace@MPxIkSolverNode@@QEBAPEBVMMatrix@@XZ
?toWorldSpace@MPxIkSolver@@QEBAPEBVMMatrix@@XZ
?toWorldSpace@MPxIkSolverNode@@QEBAPEBVMMatrix@@XZ
?tolerance@MFnIkSolver@@QEAANPEAVMStatus@@@Z
?transformObject@MPxConstraintCommand@@IEAA?BVMObject@@XZ
?type@MFnAnimCurve@@UEBA?AW4Type@MFn@@XZ
?type@MFnBlendShapeDeformer@@UEBA?AW4Type@MFn@@XZ
?type@MFnCharacter@@UEBA?AW4Type@MFn@@XZ
?type@MFnClip@@UEBA?AW4Type@MFn@@XZ
?type@MFnGeometryFilter@@UEBA?AW4Type@MFn@@XZ
?type@MFnHikEffector@@UEBA?AW4Type@MFn@@XZ
?type@MFnIkEffector@@UEBA?AW4Type@MFn@@XZ
?type@MFnIkHandle@@UEBA?AW4Type@MFn@@XZ
?type@MFnIkJoint@@UEBA?AW4Type@MFn@@XZ
?type@MFnIkSolver@@UEBA?AW4Type@MFn@@XZ
?type@MFnKeyframeDelta@@UEBA?AW4Type@MFn@@XZ
?type@MFnKeyframeDeltaAddRemove@@UEBA?AW4Type@MFn@@XZ
?type@MFnKeyframeDeltaBlockAddRemove@@UEBA?AW4Type@MFn@@XZ
?type@MFnKeyframeDeltaBreakdown@@UEBA?AW4Type@MFn@@XZ
?type@MFnKeyframeDeltaInfType@@UEBA?AW4Type@MFn@@XZ
?type@MFnKeyframeDeltaMove@@UEBA?AW4Type@MFn@@XZ
?type@MFnKeyframeDeltaScale@@UEBA?AW4Type@MFn@@XZ
?type@MFnKeyframeDeltaTangent@@UEBA?AW4Type@MFn@@XZ
?type@MFnKeyframeDeltaWeighted@@UEBA?AW4Type@MFn@@XZ
?type@MFnLattice@@UEBA?AW4Type@MFn@@XZ
?type@MFnLatticeDeformer@@UEBA?AW4Type@MFn@@XZ
?type@MFnMotionPath@@UEBA?AW4Type@MFn@@XZ
?type@MFnSkinCluster@@UEBA?AW4Type@MFn@@XZ
?type@MFnWeightGeometryFilter@@UEBA?AW4Type@MFn@@XZ
?type@MFnWireDeformer@@UEBA?AW4Type@MFn@@XZ
?type@MPxBlendShape@@UEBA?AW4Type@MPxNode@@XZ
?type@MPxDeformerNode@@UEBA?AW4Type@MPxNode@@XZ
?type@MPxGeometryFilter@@UEBA?AW4Type@MPxNode@@XZ
?type@MPxIkSolverNode@@UEBA?AW4Type@MPxNode@@XZ
?type@MPxMotionPathNode@@UEBA?AW4Type@MPxNode@@XZ
?type@MPxSkinCluster@@UEBA?AW4Type@MPxNode@@XZ
?typeId@MPxAnimCurveInterpolator@@QEBA?AW4TangentType@MFnAnimCurve@@XZ
?typeName@MPxAnimCurveInterpolator@@QEBA?AVMString@@XZ
?typeObj@?$MPyTypeObject@VMAnimCurveClipboardItemArray@@@@SAAEAU_typeobject@@XZ
?typeObj@?$MPyTypeObjectStatic@VMAnimCurveClipboardItemArray@@@@SAAEAU_typeobject@@XZ
?typeObj@MPyMAnimControl_Type@@SAAEAU_typeobject@@XZ
?typeObj@MPyMAnimCurveChange_Type@@SAAEAU_typeobject@@XZ
?typeObj@MPyMAnimCurveClipboardItemArray_Type@@SAAEAU_typeobject@@XZ
?typeObj@MPyMAnimCurveClipboardItem_Type@@SAAEAU_typeobject@@XZ
?typeObj@MPyMAnimCurveClipboard_Type@@SAAEAU_typeobject@@XZ
?typeObj@MPyMAnimMessage_Type@@SAAEAU_typeobject@@XZ
?typeObj@MPyMAnimUtil_Type@@SAAEAU_typeobject@@XZ
?typeObj@MPyMFnAnimCurve_Type@@SAAEAU_typeobject@@XZ
?typeObj@MPyMFnGeometryFilter_Type@@SAAEAU_typeobject@@XZ
?typeObj@MPyMFnSkinCluster_Type@@SAAEAU_typeobject@@XZ
?uEnd@MFnMotionPath@@QEAANPEAVMStatus@@@Z
?uStart@MFnMotionPath@@QEAANPEAVMStatus@@@Z
?uTimeEnd@MFnMotionPath@@QEAA?AVMTime@@PEAVMStatus@@@Z
?uTimeStart@MFnMotionPath@@QEAA?AVMTime@@PEAVMStatus@@@Z
?uValue@MPxMotionPathNode@@2VMObject@@A
?undoIt@MAnimCurveChange@@QEAA?AVMStatus@@XZ
?undoIt@MPxConstraintCommand@@UEAA?AVMStatus@@XZ
?uniqueSolution@MPxIkSolverNode@@QEBA_NPEAVMStatus@@@Z
?unitlessAnimCurveTypeForPlug@MFnAnimCurve@@QEBA?AW4AnimCurveType@1@AEAVMPlug@@PEAVMStatus@@@Z
?unitlessInput@MFnAnimCurve@@QEBANIPEAVMStatus@@@Z
?upAxis@MFnMotionPath@@QEAA?AW4Axis@1@PEAVMStatus@@@Z
?upAxis@MPxMotionPathNode@@2VMObject@@A
?upTwist@MPxMotionPathNode@@2VMObject@@A
?upVectorAttribute@MPxConstraintCommand@@MEBAAEBVMObject@@XZ
?updateOrientationMarkers@MPxMotionPathNode@@2VMObject@@A
?useNormal@MFnMotionPath@@QEAA_NPEAVMStatus@@@Z
?validate@MAnimCurveClipboardItemArray@@AEBA_NAEAII@Z
?value@MFnAnimCurve@@QEBANIPEAVMStatus@@@Z
?value@MFnKeyframeDeltaAddRemove@@QEBANPEAVMStatus@@@Z
?value@MItKeyframe@@QEAANPEAVMStatus@@@Z
?viewMode@MAnimControl@@SA?AW4PlaybackViewMode@1@XZ
?wasBreakdown@MFnKeyframeDeltaBreakdown@@QEBA_NPEAVMStatus@@@Z
?wasWeighted@MFnKeyframeDeltaWeighted@@QEBA_NPEAVMStatus@@@Z
?weight@MFnBlendShapeDeformer@@QEBAMIPEAVMStatus@@@Z
?weight@MFnIkHandle@@QEAANPEAVMStatus@@@Z
?weight@MPxBlendShape@@2VMObject@@A
?weightAttribute@MPxConstraint@@UEBA?BVMObject@@XZ
?weightIndexList@MFnBlendShapeDeformer@@QEBA?AVMStatus@@AEAVMIntArray@@@Z
?weightList@MPxDeformerNode@@2VMObject@@A
?weightList@MPxSkinCluster@@2VMObject@@A
?weightPlugStrings@MFnWeightGeometryFilter@@QEBA?AVMString@@AEBVMSelectionList@@PEAVMStatus@@@Z
?weightValue@MPxDeformerNode@@QEAAMAEAVMDataBlock@@II@Z
?weightValue@MPxSkinCluster@@QEAAMAEAVMDataBlock@@II@Z
?weightedTangents@MAnimControl@@SA_NPEAVMStatus@@@Z
?weights@MPxDeformerNode@@2VMObject@@A
?weights@MPxSkinCluster@@2VMObject@@A
?weightsLocked@MFnAnimCurve@@QEBA_NIPEAVMStatus@@@Z
?wire@MFnWireDeformer@@QEAA?AVMObject@@IPEAVMStatus@@@Z
?wireDropOffDistance@MFnWireDeformer@@QEBAMIPEAVMStatus@@@Z
?wireScale@MFnWireDeformer@@QEBAMIPEAVMStatus@@@Z
?worldConstraintPoint@MPxConstraint@@IEBA?AVMPoint@@AEBVMMatrix@@AEBVMVector@@11PEAVMStatus@@@Z
?worldUpMatrix@MPxMotionPathNode@@2VMObject@@A
?worldUpMatrixAttribute@MPxConstraintCommand@@MEBAAEBVMObject@@XZ
?worldUpType@MPxMotionPathNode@@2VMObject@@A
?worldUpTypeAttribute@MPxConstraintCommand@@MEBAAEBVMObject@@XZ
?worldUpVector@MPxConstraint@@IEBA?AVMVector@@W4UpVectorType@1@AEBV2@AEBVMMatrix@@AEBVMPoint@@PEAVMStatus@@@Z
?worldUpVector@MPxMotionPathNode@@2VMObject@@A
?worldUpVectorAttribute@MPxConstraintCommand@@MEBAAEBVMObject@@XZ
?worldUpVectorX@MPxMotionPathNode@@2VMObject@@A
?worldUpVectorY@MPxMotionPathNode@@2VMObject@@A
?worldUpVectorZ@MPxMotionPathNode@@2VMObject@@A
?wraparoundFractionalValue@MPxMotionPathNode@@QEBANNPEAVMStatus@@@Z
?xCoordinate@MPxMotionPathNode@@2VMObject@@A
?yCoordinate@MPxMotionPathNode@@2VMObject@@A
?zCoordinate@MPxMotionPathNode@@2VMObject@@A
